ARM GAS  /var/folders/9y/n02fl3g16gnf7ppy14xghdy80000gn/T//ccRj2FZx.s 			page 1


   1              		.cpu cortex-m4
   2              		.eabi_attribute 20, 1
   3              		.eabi_attribute 21, 1
   4              		.eabi_attribute 23, 3
   5              		.eabi_attribute 24, 1
   6              		.eabi_attribute 25, 1
   7              		.eabi_attribute 26, 1
   8              		.eabi_attribute 30, 1
   9              		.eabi_attribute 34, 1
  10              		.eabi_attribute 18, 4
  11              		.file	"stm32wlxx_ll_gpio.c"
  12              		.text
  13              	.Ltext0:
  14              		.cfi_sections	.debug_frame
  15              		.section	.text.LL_GPIO_DeInit,"ax",%progbits
  16              		.align	1
  17              		.global	LL_GPIO_DeInit
  18              		.arch armv7e-m
  19              		.syntax unified
  20              		.thumb
  21              		.thumb_func
  22              		.fpu softvfp
  24              	LL_GPIO_DeInit:
  25              	.LVL0:
  26              	.LFB867:
  27              		.file 1 "Drivers/STM32WLxx_HAL_Driver/Src/stm32wlxx_ll_gpio.c"
   1:Drivers/STM32WLxx_HAL_Driver/Src/stm32wlxx_ll_gpio.c **** /**
   2:Drivers/STM32WLxx_HAL_Driver/Src/stm32wlxx_ll_gpio.c ****   ******************************************************************************
   3:Drivers/STM32WLxx_HAL_Driver/Src/stm32wlxx_ll_gpio.c ****   * @file    stm32wlxx_ll_gpio.c
   4:Drivers/STM32WLxx_HAL_Driver/Src/stm32wlxx_ll_gpio.c ****   * @author  MCD Application Team
   5:Drivers/STM32WLxx_HAL_Driver/Src/stm32wlxx_ll_gpio.c ****   * @brief   GPIO LL module driver.
   6:Drivers/STM32WLxx_HAL_Driver/Src/stm32wlxx_ll_gpio.c ****   ******************************************************************************
   7:Drivers/STM32WLxx_HAL_Driver/Src/stm32wlxx_ll_gpio.c ****   * @attention
   8:Drivers/STM32WLxx_HAL_Driver/Src/stm32wlxx_ll_gpio.c ****   *
   9:Drivers/STM32WLxx_HAL_Driver/Src/stm32wlxx_ll_gpio.c ****   * Copyright (c) 2020 STMicroelectronics.
  10:Drivers/STM32WLxx_HAL_Driver/Src/stm32wlxx_ll_gpio.c ****   * All rights reserved.
  11:Drivers/STM32WLxx_HAL_Driver/Src/stm32wlxx_ll_gpio.c ****   *
  12:Drivers/STM32WLxx_HAL_Driver/Src/stm32wlxx_ll_gpio.c ****   * This software is licensed under terms that can be found in the LICENSE file
  13:Drivers/STM32WLxx_HAL_Driver/Src/stm32wlxx_ll_gpio.c ****   * in the root directory of this software component.
  14:Drivers/STM32WLxx_HAL_Driver/Src/stm32wlxx_ll_gpio.c ****   * If no LICENSE file comes with this software, it is provided AS-IS.
  15:Drivers/STM32WLxx_HAL_Driver/Src/stm32wlxx_ll_gpio.c ****   *
  16:Drivers/STM32WLxx_HAL_Driver/Src/stm32wlxx_ll_gpio.c ****   ******************************************************************************
  17:Drivers/STM32WLxx_HAL_Driver/Src/stm32wlxx_ll_gpio.c ****   */
  18:Drivers/STM32WLxx_HAL_Driver/Src/stm32wlxx_ll_gpio.c **** #if defined(USE_FULL_LL_DRIVER)
  19:Drivers/STM32WLxx_HAL_Driver/Src/stm32wlxx_ll_gpio.c **** 
  20:Drivers/STM32WLxx_HAL_Driver/Src/stm32wlxx_ll_gpio.c **** /* Includes ------------------------------------------------------------------*/
  21:Drivers/STM32WLxx_HAL_Driver/Src/stm32wlxx_ll_gpio.c **** #include "stm32wlxx_ll_gpio.h"
  22:Drivers/STM32WLxx_HAL_Driver/Src/stm32wlxx_ll_gpio.c **** #include "stm32wlxx_ll_bus.h"
  23:Drivers/STM32WLxx_HAL_Driver/Src/stm32wlxx_ll_gpio.c **** #ifdef  USE_FULL_ASSERT
  24:Drivers/STM32WLxx_HAL_Driver/Src/stm32wlxx_ll_gpio.c **** #include "stm32_assert.h"
  25:Drivers/STM32WLxx_HAL_Driver/Src/stm32wlxx_ll_gpio.c **** #else
  26:Drivers/STM32WLxx_HAL_Driver/Src/stm32wlxx_ll_gpio.c **** #define assert_param(expr) ((void)0U)
  27:Drivers/STM32WLxx_HAL_Driver/Src/stm32wlxx_ll_gpio.c **** #endif /* USE_FULL_ASSERT */
  28:Drivers/STM32WLxx_HAL_Driver/Src/stm32wlxx_ll_gpio.c **** 
  29:Drivers/STM32WLxx_HAL_Driver/Src/stm32wlxx_ll_gpio.c **** /** @addtogroup STM32WLxx_LL_Driver
  30:Drivers/STM32WLxx_HAL_Driver/Src/stm32wlxx_ll_gpio.c ****   * @{
  31:Drivers/STM32WLxx_HAL_Driver/Src/stm32wlxx_ll_gpio.c ****   */
ARM GAS  /var/folders/9y/n02fl3g16gnf7ppy14xghdy80000gn/T//ccRj2FZx.s 			page 2


  32:Drivers/STM32WLxx_HAL_Driver/Src/stm32wlxx_ll_gpio.c **** 
  33:Drivers/STM32WLxx_HAL_Driver/Src/stm32wlxx_ll_gpio.c **** #if defined (GPIOA) || defined (GPIOB) || defined (GPIOC) || defined (GPIOH)
  34:Drivers/STM32WLxx_HAL_Driver/Src/stm32wlxx_ll_gpio.c **** 
  35:Drivers/STM32WLxx_HAL_Driver/Src/stm32wlxx_ll_gpio.c **** /** @addtogroup GPIO_LL
  36:Drivers/STM32WLxx_HAL_Driver/Src/stm32wlxx_ll_gpio.c ****   * @{
  37:Drivers/STM32WLxx_HAL_Driver/Src/stm32wlxx_ll_gpio.c ****   */
  38:Drivers/STM32WLxx_HAL_Driver/Src/stm32wlxx_ll_gpio.c **** 
  39:Drivers/STM32WLxx_HAL_Driver/Src/stm32wlxx_ll_gpio.c **** /* Private types -------------------------------------------------------------*/
  40:Drivers/STM32WLxx_HAL_Driver/Src/stm32wlxx_ll_gpio.c **** /* Private variables ---------------------------------------------------------*/
  41:Drivers/STM32WLxx_HAL_Driver/Src/stm32wlxx_ll_gpio.c **** /* Private constants ---------------------------------------------------------*/
  42:Drivers/STM32WLxx_HAL_Driver/Src/stm32wlxx_ll_gpio.c **** /* Private macros ------------------------------------------------------------*/
  43:Drivers/STM32WLxx_HAL_Driver/Src/stm32wlxx_ll_gpio.c **** /** @addtogroup GPIO_LL_Private_Macros
  44:Drivers/STM32WLxx_HAL_Driver/Src/stm32wlxx_ll_gpio.c ****   * @{
  45:Drivers/STM32WLxx_HAL_Driver/Src/stm32wlxx_ll_gpio.c ****   */
  46:Drivers/STM32WLxx_HAL_Driver/Src/stm32wlxx_ll_gpio.c **** #define IS_LL_GPIO_PIN(__VALUE__)          (((0x00000000U) < (__VALUE__)) && ((__VALUE__) <= (LL_GP
  47:Drivers/STM32WLxx_HAL_Driver/Src/stm32wlxx_ll_gpio.c **** 
  48:Drivers/STM32WLxx_HAL_Driver/Src/stm32wlxx_ll_gpio.c **** #define IS_LL_GPIO_MODE(__VALUE__)         (((__VALUE__) == LL_GPIO_MODE_INPUT)     ||\
  49:Drivers/STM32WLxx_HAL_Driver/Src/stm32wlxx_ll_gpio.c ****                                             ((__VALUE__) == LL_GPIO_MODE_OUTPUT)    ||\
  50:Drivers/STM32WLxx_HAL_Driver/Src/stm32wlxx_ll_gpio.c ****                                             ((__VALUE__) == LL_GPIO_MODE_ALTERNATE) ||\
  51:Drivers/STM32WLxx_HAL_Driver/Src/stm32wlxx_ll_gpio.c ****                                             ((__VALUE__) == LL_GPIO_MODE_ANALOG))
  52:Drivers/STM32WLxx_HAL_Driver/Src/stm32wlxx_ll_gpio.c **** 
  53:Drivers/STM32WLxx_HAL_Driver/Src/stm32wlxx_ll_gpio.c **** #define IS_LL_GPIO_OUTPUT_TYPE(__VALUE__)  (((__VALUE__) == LL_GPIO_OUTPUT_PUSHPULL)  ||\
  54:Drivers/STM32WLxx_HAL_Driver/Src/stm32wlxx_ll_gpio.c ****                                             ((__VALUE__) == LL_GPIO_OUTPUT_OPENDRAIN))
  55:Drivers/STM32WLxx_HAL_Driver/Src/stm32wlxx_ll_gpio.c **** 
  56:Drivers/STM32WLxx_HAL_Driver/Src/stm32wlxx_ll_gpio.c **** #define IS_LL_GPIO_SPEED(__VALUE__)        (((__VALUE__) == LL_GPIO_SPEED_FREQ_LOW)       ||\
  57:Drivers/STM32WLxx_HAL_Driver/Src/stm32wlxx_ll_gpio.c ****                                             ((__VALUE__) == LL_GPIO_SPEED_FREQ_MEDIUM)    ||\
  58:Drivers/STM32WLxx_HAL_Driver/Src/stm32wlxx_ll_gpio.c ****                                             ((__VALUE__) == LL_GPIO_SPEED_FREQ_HIGH)      ||\
  59:Drivers/STM32WLxx_HAL_Driver/Src/stm32wlxx_ll_gpio.c ****                                             ((__VALUE__) == LL_GPIO_SPEED_FREQ_VERY_HIGH))
  60:Drivers/STM32WLxx_HAL_Driver/Src/stm32wlxx_ll_gpio.c **** 
  61:Drivers/STM32WLxx_HAL_Driver/Src/stm32wlxx_ll_gpio.c **** #define IS_LL_GPIO_PULL(__VALUE__)         (((__VALUE__) == LL_GPIO_PULL_NO)   ||\
  62:Drivers/STM32WLxx_HAL_Driver/Src/stm32wlxx_ll_gpio.c ****                                             ((__VALUE__) == LL_GPIO_PULL_UP)   ||\
  63:Drivers/STM32WLxx_HAL_Driver/Src/stm32wlxx_ll_gpio.c ****                                             ((__VALUE__) == LL_GPIO_PULL_DOWN))
  64:Drivers/STM32WLxx_HAL_Driver/Src/stm32wlxx_ll_gpio.c **** 
  65:Drivers/STM32WLxx_HAL_Driver/Src/stm32wlxx_ll_gpio.c **** #define IS_LL_GPIO_ALTERNATE(__VALUE__)    (((__VALUE__) == LL_GPIO_AF_0  )   ||\
  66:Drivers/STM32WLxx_HAL_Driver/Src/stm32wlxx_ll_gpio.c ****                                             ((__VALUE__) == LL_GPIO_AF_1  )   ||\
  67:Drivers/STM32WLxx_HAL_Driver/Src/stm32wlxx_ll_gpio.c ****                                             ((__VALUE__) == LL_GPIO_AF_2  )   ||\
  68:Drivers/STM32WLxx_HAL_Driver/Src/stm32wlxx_ll_gpio.c ****                                             ((__VALUE__) == LL_GPIO_AF_3  )   ||\
  69:Drivers/STM32WLxx_HAL_Driver/Src/stm32wlxx_ll_gpio.c ****                                             ((__VALUE__) == LL_GPIO_AF_4  )   ||\
  70:Drivers/STM32WLxx_HAL_Driver/Src/stm32wlxx_ll_gpio.c ****                                             ((__VALUE__) == LL_GPIO_AF_5  )   ||\
  71:Drivers/STM32WLxx_HAL_Driver/Src/stm32wlxx_ll_gpio.c ****                                             ((__VALUE__) == LL_GPIO_AF_6  )   ||\
  72:Drivers/STM32WLxx_HAL_Driver/Src/stm32wlxx_ll_gpio.c ****                                             ((__VALUE__) == LL_GPIO_AF_7  )   ||\
  73:Drivers/STM32WLxx_HAL_Driver/Src/stm32wlxx_ll_gpio.c ****                                             ((__VALUE__) == LL_GPIO_AF_8  )   ||\
  74:Drivers/STM32WLxx_HAL_Driver/Src/stm32wlxx_ll_gpio.c ****                                             ((__VALUE__) == LL_GPIO_AF_9  )   ||\
  75:Drivers/STM32WLxx_HAL_Driver/Src/stm32wlxx_ll_gpio.c ****                                             ((__VALUE__) == LL_GPIO_AF_10 )   ||\
  76:Drivers/STM32WLxx_HAL_Driver/Src/stm32wlxx_ll_gpio.c ****                                             ((__VALUE__) == LL_GPIO_AF_11 )   ||\
  77:Drivers/STM32WLxx_HAL_Driver/Src/stm32wlxx_ll_gpio.c ****                                             ((__VALUE__) == LL_GPIO_AF_12 )   ||\
  78:Drivers/STM32WLxx_HAL_Driver/Src/stm32wlxx_ll_gpio.c ****                                             ((__VALUE__) == LL_GPIO_AF_13 )   ||\
  79:Drivers/STM32WLxx_HAL_Driver/Src/stm32wlxx_ll_gpio.c ****                                             ((__VALUE__) == LL_GPIO_AF_14 )   ||\
  80:Drivers/STM32WLxx_HAL_Driver/Src/stm32wlxx_ll_gpio.c ****                                             ((__VALUE__) == LL_GPIO_AF_15 ))
  81:Drivers/STM32WLxx_HAL_Driver/Src/stm32wlxx_ll_gpio.c **** /**
  82:Drivers/STM32WLxx_HAL_Driver/Src/stm32wlxx_ll_gpio.c ****   * @}
  83:Drivers/STM32WLxx_HAL_Driver/Src/stm32wlxx_ll_gpio.c ****   */
  84:Drivers/STM32WLxx_HAL_Driver/Src/stm32wlxx_ll_gpio.c **** 
  85:Drivers/STM32WLxx_HAL_Driver/Src/stm32wlxx_ll_gpio.c **** /* Private function prototypes -----------------------------------------------*/
  86:Drivers/STM32WLxx_HAL_Driver/Src/stm32wlxx_ll_gpio.c **** 
  87:Drivers/STM32WLxx_HAL_Driver/Src/stm32wlxx_ll_gpio.c **** /* Exported functions --------------------------------------------------------*/
  88:Drivers/STM32WLxx_HAL_Driver/Src/stm32wlxx_ll_gpio.c **** /** @addtogroup GPIO_LL_Exported_Functions
ARM GAS  /var/folders/9y/n02fl3g16gnf7ppy14xghdy80000gn/T//ccRj2FZx.s 			page 3


  89:Drivers/STM32WLxx_HAL_Driver/Src/stm32wlxx_ll_gpio.c ****   * @{
  90:Drivers/STM32WLxx_HAL_Driver/Src/stm32wlxx_ll_gpio.c ****   */
  91:Drivers/STM32WLxx_HAL_Driver/Src/stm32wlxx_ll_gpio.c **** 
  92:Drivers/STM32WLxx_HAL_Driver/Src/stm32wlxx_ll_gpio.c **** /** @addtogroup GPIO_LL_EF_Init
  93:Drivers/STM32WLxx_HAL_Driver/Src/stm32wlxx_ll_gpio.c ****   * @{
  94:Drivers/STM32WLxx_HAL_Driver/Src/stm32wlxx_ll_gpio.c ****   */
  95:Drivers/STM32WLxx_HAL_Driver/Src/stm32wlxx_ll_gpio.c **** 
  96:Drivers/STM32WLxx_HAL_Driver/Src/stm32wlxx_ll_gpio.c **** /**
  97:Drivers/STM32WLxx_HAL_Driver/Src/stm32wlxx_ll_gpio.c ****   * @brief  De-initialize GPIO registers (Registers restored to their default values).
  98:Drivers/STM32WLxx_HAL_Driver/Src/stm32wlxx_ll_gpio.c ****   * @param  GPIOx GPIO Port
  99:Drivers/STM32WLxx_HAL_Driver/Src/stm32wlxx_ll_gpio.c ****   * @retval An ErrorStatus enumeration value:
 100:Drivers/STM32WLxx_HAL_Driver/Src/stm32wlxx_ll_gpio.c ****   *          - SUCCESS: GPIO registers are de-initialized
 101:Drivers/STM32WLxx_HAL_Driver/Src/stm32wlxx_ll_gpio.c ****   *          - ERROR:   Wrong GPIO Port
 102:Drivers/STM32WLxx_HAL_Driver/Src/stm32wlxx_ll_gpio.c ****   */
 103:Drivers/STM32WLxx_HAL_Driver/Src/stm32wlxx_ll_gpio.c **** ErrorStatus LL_GPIO_DeInit(GPIO_TypeDef *GPIOx)
 104:Drivers/STM32WLxx_HAL_Driver/Src/stm32wlxx_ll_gpio.c **** {
  28              		.loc 1 104 1 view -0
  29              		.cfi_startproc
  30              		@ args = 0, pretend = 0, frame = 0
  31              		@ frame_needed = 0, uses_anonymous_args = 0
  32              		@ link register save eliminated.
 105:Drivers/STM32WLxx_HAL_Driver/Src/stm32wlxx_ll_gpio.c ****   ErrorStatus status = SUCCESS;
  33              		.loc 1 105 3 view .LVU1
 106:Drivers/STM32WLxx_HAL_Driver/Src/stm32wlxx_ll_gpio.c **** 
 107:Drivers/STM32WLxx_HAL_Driver/Src/stm32wlxx_ll_gpio.c ****   /* Check the parameters */
 108:Drivers/STM32WLxx_HAL_Driver/Src/stm32wlxx_ll_gpio.c ****   assert_param(IS_GPIO_ALL_INSTANCE(GPIOx));
  34              		.loc 1 108 3 view .LVU2
 109:Drivers/STM32WLxx_HAL_Driver/Src/stm32wlxx_ll_gpio.c **** 
 110:Drivers/STM32WLxx_HAL_Driver/Src/stm32wlxx_ll_gpio.c ****   /* Force and Release reset on clock of GPIOx Port */
 111:Drivers/STM32WLxx_HAL_Driver/Src/stm32wlxx_ll_gpio.c ****   if (GPIOx == GPIOA)
  35              		.loc 1 111 3 view .LVU3
  36              		.loc 1 111 6 is_stmt 0 view .LVU4
  37 0000 B0F1904F 		cmp	r0, #1207959552
  38 0004 0AD0     		beq	.L7
 112:Drivers/STM32WLxx_HAL_Driver/Src/stm32wlxx_ll_gpio.c ****   {
 113:Drivers/STM32WLxx_HAL_Driver/Src/stm32wlxx_ll_gpio.c ****     LL_AHB2_GRP1_ForceReset(LL_AHB2_GRP1_PERIPH_GPIOA);
 114:Drivers/STM32WLxx_HAL_Driver/Src/stm32wlxx_ll_gpio.c ****     LL_AHB2_GRP1_ReleaseReset(LL_AHB2_GRP1_PERIPH_GPIOA);
 115:Drivers/STM32WLxx_HAL_Driver/Src/stm32wlxx_ll_gpio.c ****   }
 116:Drivers/STM32WLxx_HAL_Driver/Src/stm32wlxx_ll_gpio.c ****   else if (GPIOx == GPIOB)
  39              		.loc 1 116 8 is_stmt 1 view .LVU5
  40              		.loc 1 116 11 is_stmt 0 view .LVU6
  41 0006 1D4B     		ldr	r3, .L11
  42 0008 9842     		cmp	r0, r3
  43 000a 13D0     		beq	.L8
 117:Drivers/STM32WLxx_HAL_Driver/Src/stm32wlxx_ll_gpio.c ****   {
 118:Drivers/STM32WLxx_HAL_Driver/Src/stm32wlxx_ll_gpio.c ****     LL_AHB2_GRP1_ForceReset(LL_AHB2_GRP1_PERIPH_GPIOB);
 119:Drivers/STM32WLxx_HAL_Driver/Src/stm32wlxx_ll_gpio.c ****     LL_AHB2_GRP1_ReleaseReset(LL_AHB2_GRP1_PERIPH_GPIOB);
 120:Drivers/STM32WLxx_HAL_Driver/Src/stm32wlxx_ll_gpio.c ****   }
 121:Drivers/STM32WLxx_HAL_Driver/Src/stm32wlxx_ll_gpio.c ****   else if (GPIOx == GPIOC)
  44              		.loc 1 121 8 is_stmt 1 view .LVU7
  45              		.loc 1 121 11 is_stmt 0 view .LVU8
  46 000c 1C4B     		ldr	r3, .L11+4
  47 000e 9842     		cmp	r0, r3
  48 0010 1CD0     		beq	.L9
 122:Drivers/STM32WLxx_HAL_Driver/Src/stm32wlxx_ll_gpio.c ****   {
 123:Drivers/STM32WLxx_HAL_Driver/Src/stm32wlxx_ll_gpio.c ****     LL_AHB2_GRP1_ForceReset(LL_AHB2_GRP1_PERIPH_GPIOC);
 124:Drivers/STM32WLxx_HAL_Driver/Src/stm32wlxx_ll_gpio.c ****     LL_AHB2_GRP1_ReleaseReset(LL_AHB2_GRP1_PERIPH_GPIOC);
ARM GAS  /var/folders/9y/n02fl3g16gnf7ppy14xghdy80000gn/T//ccRj2FZx.s 			page 4


 125:Drivers/STM32WLxx_HAL_Driver/Src/stm32wlxx_ll_gpio.c ****   }
 126:Drivers/STM32WLxx_HAL_Driver/Src/stm32wlxx_ll_gpio.c **** #if defined(GPIOH)
 127:Drivers/STM32WLxx_HAL_Driver/Src/stm32wlxx_ll_gpio.c ****   else if (GPIOx == GPIOH)
  49              		.loc 1 127 8 is_stmt 1 view .LVU9
  50              		.loc 1 127 11 is_stmt 0 view .LVU10
  51 0012 1C4B     		ldr	r3, .L11+8
  52 0014 9842     		cmp	r0, r3
  53 0016 25D0     		beq	.L10
 128:Drivers/STM32WLxx_HAL_Driver/Src/stm32wlxx_ll_gpio.c ****   {
 129:Drivers/STM32WLxx_HAL_Driver/Src/stm32wlxx_ll_gpio.c ****     LL_AHB2_GRP1_ForceReset(LL_AHB2_GRP1_PERIPH_GPIOH);
 130:Drivers/STM32WLxx_HAL_Driver/Src/stm32wlxx_ll_gpio.c ****     LL_AHB2_GRP1_ReleaseReset(LL_AHB2_GRP1_PERIPH_GPIOH);
 131:Drivers/STM32WLxx_HAL_Driver/Src/stm32wlxx_ll_gpio.c ****   }
 132:Drivers/STM32WLxx_HAL_Driver/Src/stm32wlxx_ll_gpio.c **** #endif /* GPIOH */
 133:Drivers/STM32WLxx_HAL_Driver/Src/stm32wlxx_ll_gpio.c ****   else
 134:Drivers/STM32WLxx_HAL_Driver/Src/stm32wlxx_ll_gpio.c ****   {
 135:Drivers/STM32WLxx_HAL_Driver/Src/stm32wlxx_ll_gpio.c ****     status = ERROR;
  54              		.loc 1 135 12 view .LVU11
  55 0018 0020     		movs	r0, #0
  56              	.LVL1:
 136:Drivers/STM32WLxx_HAL_Driver/Src/stm32wlxx_ll_gpio.c ****   }
 137:Drivers/STM32WLxx_HAL_Driver/Src/stm32wlxx_ll_gpio.c **** 
 138:Drivers/STM32WLxx_HAL_Driver/Src/stm32wlxx_ll_gpio.c ****   return (status);
  57              		.loc 1 138 3 is_stmt 1 view .LVU12
 139:Drivers/STM32WLxx_HAL_Driver/Src/stm32wlxx_ll_gpio.c **** }
  58              		.loc 1 139 1 is_stmt 0 view .LVU13
  59 001a 7047     		bx	lr
  60              	.LVL2:
  61              	.L7:
 113:Drivers/STM32WLxx_HAL_Driver/Src/stm32wlxx_ll_gpio.c ****     LL_AHB2_GRP1_ReleaseReset(LL_AHB2_GRP1_PERIPH_GPIOA);
  62              		.loc 1 113 5 is_stmt 1 view .LVU14
  63              	.LBB68:
  64              	.LBI68:
  65              		.file 2 "Drivers/STM32WLxx_HAL_Driver/Inc/stm32wlxx_ll_bus.h"
   1:Drivers/STM32WLxx_HAL_Driver/Inc/stm32wlxx_ll_bus.h **** /**
   2:Drivers/STM32WLxx_HAL_Driver/Inc/stm32wlxx_ll_bus.h ****   ******************************************************************************
   3:Drivers/STM32WLxx_HAL_Driver/Inc/stm32wlxx_ll_bus.h ****   * @file    stm32wlxx_ll_bus.h
   4:Drivers/STM32WLxx_HAL_Driver/Inc/stm32wlxx_ll_bus.h ****   * @author  MCD Application Team
   5:Drivers/STM32WLxx_HAL_Driver/Inc/stm32wlxx_ll_bus.h ****   * @brief   Header file of BUS LL module.
   6:Drivers/STM32WLxx_HAL_Driver/Inc/stm32wlxx_ll_bus.h ****   ******************************************************************************
   7:Drivers/STM32WLxx_HAL_Driver/Inc/stm32wlxx_ll_bus.h ****   * @attention
   8:Drivers/STM32WLxx_HAL_Driver/Inc/stm32wlxx_ll_bus.h ****   *
   9:Drivers/STM32WLxx_HAL_Driver/Inc/stm32wlxx_ll_bus.h ****   * Copyright (c) 2020 STMicroelectronics.
  10:Drivers/STM32WLxx_HAL_Driver/Inc/stm32wlxx_ll_bus.h ****   * All rights reserved.
  11:Drivers/STM32WLxx_HAL_Driver/Inc/stm32wlxx_ll_bus.h ****   *
  12:Drivers/STM32WLxx_HAL_Driver/Inc/stm32wlxx_ll_bus.h ****   * This software is licensed under terms that can be found in the LICENSE file
  13:Drivers/STM32WLxx_HAL_Driver/Inc/stm32wlxx_ll_bus.h ****   * in the root directory of this software component.
  14:Drivers/STM32WLxx_HAL_Driver/Inc/stm32wlxx_ll_bus.h ****   * If no LICENSE file comes with this software, it is provided AS-IS.
  15:Drivers/STM32WLxx_HAL_Driver/Inc/stm32wlxx_ll_bus.h ****   *
  16:Drivers/STM32WLxx_HAL_Driver/Inc/stm32wlxx_ll_bus.h ****   ******************************************************************************
  17:Drivers/STM32WLxx_HAL_Driver/Inc/stm32wlxx_ll_bus.h ****   @verbatim
  18:Drivers/STM32WLxx_HAL_Driver/Inc/stm32wlxx_ll_bus.h ****                       ##### RCC Limitations #####
  19:Drivers/STM32WLxx_HAL_Driver/Inc/stm32wlxx_ll_bus.h ****   ==============================================================================
  20:Drivers/STM32WLxx_HAL_Driver/Inc/stm32wlxx_ll_bus.h ****     [..]
  21:Drivers/STM32WLxx_HAL_Driver/Inc/stm32wlxx_ll_bus.h ****       A delay between an RCC peripheral clock enable and the effective peripheral
  22:Drivers/STM32WLxx_HAL_Driver/Inc/stm32wlxx_ll_bus.h ****       enabling should be taken into account in order to manage the peripheral read/write
  23:Drivers/STM32WLxx_HAL_Driver/Inc/stm32wlxx_ll_bus.h ****       from/to registers.w<
  24:Drivers/STM32WLxx_HAL_Driver/Inc/stm32wlxx_ll_bus.h ****       (+) This delay depends on the peripheral mapping.
ARM GAS  /var/folders/9y/n02fl3g16gnf7ppy14xghdy80000gn/T//ccRj2FZx.s 			page 5


  25:Drivers/STM32WLxx_HAL_Driver/Inc/stm32wlxx_ll_bus.h ****         (++) AHB & APB peripherals, 1 dummy read is necessary
  26:Drivers/STM32WLxx_HAL_Driver/Inc/stm32wlxx_ll_bus.h **** 
  27:Drivers/STM32WLxx_HAL_Driver/Inc/stm32wlxx_ll_bus.h ****     [..]
  28:Drivers/STM32WLxx_HAL_Driver/Inc/stm32wlxx_ll_bus.h ****       Workarounds:
  29:Drivers/STM32WLxx_HAL_Driver/Inc/stm32wlxx_ll_bus.h ****       (#) For AHB & APB peripherals, a dummy read to the peripheral register has been
  30:Drivers/STM32WLxx_HAL_Driver/Inc/stm32wlxx_ll_bus.h ****           inserted in each LL_{BUS}_GRP{x}_EnableClock() function.
  31:Drivers/STM32WLxx_HAL_Driver/Inc/stm32wlxx_ll_bus.h **** 
  32:Drivers/STM32WLxx_HAL_Driver/Inc/stm32wlxx_ll_bus.h ****   @endverbatim
  33:Drivers/STM32WLxx_HAL_Driver/Inc/stm32wlxx_ll_bus.h ****   ******************************************************************************
  34:Drivers/STM32WLxx_HAL_Driver/Inc/stm32wlxx_ll_bus.h ****   */
  35:Drivers/STM32WLxx_HAL_Driver/Inc/stm32wlxx_ll_bus.h **** 
  36:Drivers/STM32WLxx_HAL_Driver/Inc/stm32wlxx_ll_bus.h **** /* Define to prevent recursive inclusion -------------------------------------*/
  37:Drivers/STM32WLxx_HAL_Driver/Inc/stm32wlxx_ll_bus.h **** #ifndef __STM32WLxx_LL_BUS_H
  38:Drivers/STM32WLxx_HAL_Driver/Inc/stm32wlxx_ll_bus.h **** #define __STM32WLxx_LL_BUS_H
  39:Drivers/STM32WLxx_HAL_Driver/Inc/stm32wlxx_ll_bus.h **** 
  40:Drivers/STM32WLxx_HAL_Driver/Inc/stm32wlxx_ll_bus.h **** #ifdef __cplusplus
  41:Drivers/STM32WLxx_HAL_Driver/Inc/stm32wlxx_ll_bus.h **** extern "C" {
  42:Drivers/STM32WLxx_HAL_Driver/Inc/stm32wlxx_ll_bus.h **** #endif
  43:Drivers/STM32WLxx_HAL_Driver/Inc/stm32wlxx_ll_bus.h **** 
  44:Drivers/STM32WLxx_HAL_Driver/Inc/stm32wlxx_ll_bus.h **** /* Includes ------------------------------------------------------------------*/
  45:Drivers/STM32WLxx_HAL_Driver/Inc/stm32wlxx_ll_bus.h **** #include "stm32wlxx.h"
  46:Drivers/STM32WLxx_HAL_Driver/Inc/stm32wlxx_ll_bus.h **** 
  47:Drivers/STM32WLxx_HAL_Driver/Inc/stm32wlxx_ll_bus.h **** /** @addtogroup STM32WLxx_LL_Driver
  48:Drivers/STM32WLxx_HAL_Driver/Inc/stm32wlxx_ll_bus.h ****   * @{
  49:Drivers/STM32WLxx_HAL_Driver/Inc/stm32wlxx_ll_bus.h ****   */
  50:Drivers/STM32WLxx_HAL_Driver/Inc/stm32wlxx_ll_bus.h **** 
  51:Drivers/STM32WLxx_HAL_Driver/Inc/stm32wlxx_ll_bus.h **** #if defined(RCC)
  52:Drivers/STM32WLxx_HAL_Driver/Inc/stm32wlxx_ll_bus.h **** 
  53:Drivers/STM32WLxx_HAL_Driver/Inc/stm32wlxx_ll_bus.h **** /** @defgroup BUS_LL BUS
  54:Drivers/STM32WLxx_HAL_Driver/Inc/stm32wlxx_ll_bus.h ****   * @{
  55:Drivers/STM32WLxx_HAL_Driver/Inc/stm32wlxx_ll_bus.h ****   */
  56:Drivers/STM32WLxx_HAL_Driver/Inc/stm32wlxx_ll_bus.h **** 
  57:Drivers/STM32WLxx_HAL_Driver/Inc/stm32wlxx_ll_bus.h **** /* Private types -------------------------------------------------------------*/
  58:Drivers/STM32WLxx_HAL_Driver/Inc/stm32wlxx_ll_bus.h **** /* Private variables ---------------------------------------------------------*/
  59:Drivers/STM32WLxx_HAL_Driver/Inc/stm32wlxx_ll_bus.h **** 
  60:Drivers/STM32WLxx_HAL_Driver/Inc/stm32wlxx_ll_bus.h **** /* Private constants ---------------------------------------------------------*/
  61:Drivers/STM32WLxx_HAL_Driver/Inc/stm32wlxx_ll_bus.h **** 
  62:Drivers/STM32WLxx_HAL_Driver/Inc/stm32wlxx_ll_bus.h **** /* Private macros ------------------------------------------------------------*/
  63:Drivers/STM32WLxx_HAL_Driver/Inc/stm32wlxx_ll_bus.h **** 
  64:Drivers/STM32WLxx_HAL_Driver/Inc/stm32wlxx_ll_bus.h **** /* Exported types ------------------------------------------------------------*/
  65:Drivers/STM32WLxx_HAL_Driver/Inc/stm32wlxx_ll_bus.h **** 
  66:Drivers/STM32WLxx_HAL_Driver/Inc/stm32wlxx_ll_bus.h **** /* Exported constants --------------------------------------------------------*/
  67:Drivers/STM32WLxx_HAL_Driver/Inc/stm32wlxx_ll_bus.h **** /** @defgroup BUS_LL_Exported_Constants BUS Exported Constants
  68:Drivers/STM32WLxx_HAL_Driver/Inc/stm32wlxx_ll_bus.h ****   * @{
  69:Drivers/STM32WLxx_HAL_Driver/Inc/stm32wlxx_ll_bus.h ****   */
  70:Drivers/STM32WLxx_HAL_Driver/Inc/stm32wlxx_ll_bus.h **** 
  71:Drivers/STM32WLxx_HAL_Driver/Inc/stm32wlxx_ll_bus.h **** /** @defgroup BUS_LL_EC_AHB1_GRP1_PERIPH  AHB1 GRP1 PERIPH
  72:Drivers/STM32WLxx_HAL_Driver/Inc/stm32wlxx_ll_bus.h ****   * @{
  73:Drivers/STM32WLxx_HAL_Driver/Inc/stm32wlxx_ll_bus.h ****   */
  74:Drivers/STM32WLxx_HAL_Driver/Inc/stm32wlxx_ll_bus.h **** #define LL_AHB1_GRP1_PERIPH_ALL            (0xFFFFFFFFU)
  75:Drivers/STM32WLxx_HAL_Driver/Inc/stm32wlxx_ll_bus.h **** #define LL_AHB1_GRP1_PERIPH_DMA1           RCC_AHB1ENR_DMA1EN
  76:Drivers/STM32WLxx_HAL_Driver/Inc/stm32wlxx_ll_bus.h **** #define LL_AHB1_GRP1_PERIPH_DMA2           RCC_AHB1ENR_DMA2EN
  77:Drivers/STM32WLxx_HAL_Driver/Inc/stm32wlxx_ll_bus.h **** #define LL_AHB1_GRP1_PERIPH_DMAMUX1        RCC_AHB1ENR_DMAMUX1EN
  78:Drivers/STM32WLxx_HAL_Driver/Inc/stm32wlxx_ll_bus.h **** #define LL_AHB1_GRP1_PERIPH_CRC            RCC_AHB1ENR_CRCEN
  79:Drivers/STM32WLxx_HAL_Driver/Inc/stm32wlxx_ll_bus.h **** /**
  80:Drivers/STM32WLxx_HAL_Driver/Inc/stm32wlxx_ll_bus.h ****   * @}
  81:Drivers/STM32WLxx_HAL_Driver/Inc/stm32wlxx_ll_bus.h ****   */
ARM GAS  /var/folders/9y/n02fl3g16gnf7ppy14xghdy80000gn/T//ccRj2FZx.s 			page 6


  82:Drivers/STM32WLxx_HAL_Driver/Inc/stm32wlxx_ll_bus.h **** 
  83:Drivers/STM32WLxx_HAL_Driver/Inc/stm32wlxx_ll_bus.h **** /** @defgroup BUS_LL_EC_AHB2_GRP1_PERIPH  AHB2 GRP1 PERIPH
  84:Drivers/STM32WLxx_HAL_Driver/Inc/stm32wlxx_ll_bus.h ****   * @{
  85:Drivers/STM32WLxx_HAL_Driver/Inc/stm32wlxx_ll_bus.h ****   */
  86:Drivers/STM32WLxx_HAL_Driver/Inc/stm32wlxx_ll_bus.h **** #define LL_AHB2_GRP1_PERIPH_ALL            (0xFFFFFFFFU)
  87:Drivers/STM32WLxx_HAL_Driver/Inc/stm32wlxx_ll_bus.h **** #define LL_AHB2_GRP1_PERIPH_GPIOA          RCC_AHB2ENR_GPIOAEN
  88:Drivers/STM32WLxx_HAL_Driver/Inc/stm32wlxx_ll_bus.h **** #define LL_AHB2_GRP1_PERIPH_GPIOB          RCC_AHB2ENR_GPIOBEN
  89:Drivers/STM32WLxx_HAL_Driver/Inc/stm32wlxx_ll_bus.h **** #define LL_AHB2_GRP1_PERIPH_GPIOC          RCC_AHB2ENR_GPIOCEN
  90:Drivers/STM32WLxx_HAL_Driver/Inc/stm32wlxx_ll_bus.h **** #define LL_AHB2_GRP1_PERIPH_GPIOH          RCC_AHB2ENR_GPIOHEN
  91:Drivers/STM32WLxx_HAL_Driver/Inc/stm32wlxx_ll_bus.h **** /**
  92:Drivers/STM32WLxx_HAL_Driver/Inc/stm32wlxx_ll_bus.h ****   * @}
  93:Drivers/STM32WLxx_HAL_Driver/Inc/stm32wlxx_ll_bus.h ****   */
  94:Drivers/STM32WLxx_HAL_Driver/Inc/stm32wlxx_ll_bus.h **** 
  95:Drivers/STM32WLxx_HAL_Driver/Inc/stm32wlxx_ll_bus.h **** /** @defgroup BUS_LL_EC_AHB3_GRP1_PERIPH  AHB3 GRP1 PERIPH
  96:Drivers/STM32WLxx_HAL_Driver/Inc/stm32wlxx_ll_bus.h ****   * @{
  97:Drivers/STM32WLxx_HAL_Driver/Inc/stm32wlxx_ll_bus.h ****   */
  98:Drivers/STM32WLxx_HAL_Driver/Inc/stm32wlxx_ll_bus.h **** #define LL_AHB3_GRP1_PERIPH_ALL            (0xFFFFFFFFU)
  99:Drivers/STM32WLxx_HAL_Driver/Inc/stm32wlxx_ll_bus.h **** #define LL_AHB3_GRP1_PERIPH_PKA            RCC_AHB3ENR_PKAEN
 100:Drivers/STM32WLxx_HAL_Driver/Inc/stm32wlxx_ll_bus.h **** #define LL_AHB3_GRP1_PERIPH_AES            RCC_AHB3ENR_AESEN
 101:Drivers/STM32WLxx_HAL_Driver/Inc/stm32wlxx_ll_bus.h **** #define LL_AHB3_GRP1_PERIPH_RNG            RCC_AHB3ENR_RNGEN
 102:Drivers/STM32WLxx_HAL_Driver/Inc/stm32wlxx_ll_bus.h **** #define LL_AHB3_GRP1_PERIPH_HSEM           RCC_AHB3ENR_HSEMEN
 103:Drivers/STM32WLxx_HAL_Driver/Inc/stm32wlxx_ll_bus.h **** #if defined(DUAL_CORE)
 104:Drivers/STM32WLxx_HAL_Driver/Inc/stm32wlxx_ll_bus.h **** #define LL_AHB3_GRP1_PERIPH_IPCC           RCC_AHB3ENR_IPCCEN
 105:Drivers/STM32WLxx_HAL_Driver/Inc/stm32wlxx_ll_bus.h **** #endif /* DUAL_CORE */
 106:Drivers/STM32WLxx_HAL_Driver/Inc/stm32wlxx_ll_bus.h **** #define LL_AHB3_GRP1_PERIPH_SRAM1          RCC_AHB3SMENR_SRAM1SMEN
 107:Drivers/STM32WLxx_HAL_Driver/Inc/stm32wlxx_ll_bus.h **** #define LL_AHB3_GRP1_PERIPH_SRAM2          RCC_AHB3SMENR_SRAM2SMEN
 108:Drivers/STM32WLxx_HAL_Driver/Inc/stm32wlxx_ll_bus.h **** #define LL_AHB3_GRP1_PERIPH_FLASH          RCC_AHB3ENR_FLASHEN
 109:Drivers/STM32WLxx_HAL_Driver/Inc/stm32wlxx_ll_bus.h **** /**
 110:Drivers/STM32WLxx_HAL_Driver/Inc/stm32wlxx_ll_bus.h ****   * @}
 111:Drivers/STM32WLxx_HAL_Driver/Inc/stm32wlxx_ll_bus.h ****   */
 112:Drivers/STM32WLxx_HAL_Driver/Inc/stm32wlxx_ll_bus.h **** 
 113:Drivers/STM32WLxx_HAL_Driver/Inc/stm32wlxx_ll_bus.h **** /** @defgroup BUS_LL_EC_APB1_GRP1_PERIPH  APB1 GRP1 PERIPH
 114:Drivers/STM32WLxx_HAL_Driver/Inc/stm32wlxx_ll_bus.h ****   * @{
 115:Drivers/STM32WLxx_HAL_Driver/Inc/stm32wlxx_ll_bus.h ****   */
 116:Drivers/STM32WLxx_HAL_Driver/Inc/stm32wlxx_ll_bus.h **** #define LL_APB1_GRP1_PERIPH_ALL            (0xFFFFFFFFU)
 117:Drivers/STM32WLxx_HAL_Driver/Inc/stm32wlxx_ll_bus.h **** #define LL_APB1_GRP1_PERIPH_TIM2           RCC_APB1ENR1_TIM2EN
 118:Drivers/STM32WLxx_HAL_Driver/Inc/stm32wlxx_ll_bus.h **** #define LL_APB1_GRP1_PERIPH_RTCAPB         RCC_APB1ENR1_RTCAPBEN
 119:Drivers/STM32WLxx_HAL_Driver/Inc/stm32wlxx_ll_bus.h **** #define LL_APB1_GRP1_PERIPH_WWDG           RCC_APB1ENR1_WWDGEN
 120:Drivers/STM32WLxx_HAL_Driver/Inc/stm32wlxx_ll_bus.h **** #define LL_APB1_GRP1_PERIPH_SPI2           RCC_APB1ENR1_SPI2EN
 121:Drivers/STM32WLxx_HAL_Driver/Inc/stm32wlxx_ll_bus.h **** #define LL_APB1_GRP1_PERIPH_USART2         RCC_APB1ENR1_USART2EN
 122:Drivers/STM32WLxx_HAL_Driver/Inc/stm32wlxx_ll_bus.h **** #define LL_APB1_GRP1_PERIPH_I2C1           RCC_APB1ENR1_I2C1EN
 123:Drivers/STM32WLxx_HAL_Driver/Inc/stm32wlxx_ll_bus.h **** #define LL_APB1_GRP1_PERIPH_I2C2           RCC_APB1ENR1_I2C2EN
 124:Drivers/STM32WLxx_HAL_Driver/Inc/stm32wlxx_ll_bus.h **** #define LL_APB1_GRP1_PERIPH_I2C3           RCC_APB1ENR1_I2C3EN
 125:Drivers/STM32WLxx_HAL_Driver/Inc/stm32wlxx_ll_bus.h **** #define LL_APB1_GRP1_PERIPH_DAC            RCC_APB1ENR1_DACEN
 126:Drivers/STM32WLxx_HAL_Driver/Inc/stm32wlxx_ll_bus.h **** #define LL_APB1_GRP1_PERIPH_LPTIM1         RCC_APB1ENR1_LPTIM1EN
 127:Drivers/STM32WLxx_HAL_Driver/Inc/stm32wlxx_ll_bus.h **** /**
 128:Drivers/STM32WLxx_HAL_Driver/Inc/stm32wlxx_ll_bus.h ****   * @}
 129:Drivers/STM32WLxx_HAL_Driver/Inc/stm32wlxx_ll_bus.h ****   */
 130:Drivers/STM32WLxx_HAL_Driver/Inc/stm32wlxx_ll_bus.h **** 
 131:Drivers/STM32WLxx_HAL_Driver/Inc/stm32wlxx_ll_bus.h **** 
 132:Drivers/STM32WLxx_HAL_Driver/Inc/stm32wlxx_ll_bus.h **** /** @defgroup BUS_LL_EC_APB1_GRP2_PERIPH  APB1 GRP2 PERIPH
 133:Drivers/STM32WLxx_HAL_Driver/Inc/stm32wlxx_ll_bus.h ****   * @{
 134:Drivers/STM32WLxx_HAL_Driver/Inc/stm32wlxx_ll_bus.h ****   */
 135:Drivers/STM32WLxx_HAL_Driver/Inc/stm32wlxx_ll_bus.h **** #define LL_APB1_GRP2_PERIPH_ALL            (0xFFFFFFFFU)
 136:Drivers/STM32WLxx_HAL_Driver/Inc/stm32wlxx_ll_bus.h **** #define LL_APB1_GRP2_PERIPH_LPUART1        RCC_APB1ENR2_LPUART1EN
 137:Drivers/STM32WLxx_HAL_Driver/Inc/stm32wlxx_ll_bus.h **** #define LL_APB1_GRP2_PERIPH_LPTIM2         RCC_APB1ENR2_LPTIM2EN
 138:Drivers/STM32WLxx_HAL_Driver/Inc/stm32wlxx_ll_bus.h **** #define LL_APB1_GRP2_PERIPH_LPTIM3         RCC_APB1ENR2_LPTIM3EN
ARM GAS  /var/folders/9y/n02fl3g16gnf7ppy14xghdy80000gn/T//ccRj2FZx.s 			page 7


 139:Drivers/STM32WLxx_HAL_Driver/Inc/stm32wlxx_ll_bus.h **** /**
 140:Drivers/STM32WLxx_HAL_Driver/Inc/stm32wlxx_ll_bus.h ****   * @}
 141:Drivers/STM32WLxx_HAL_Driver/Inc/stm32wlxx_ll_bus.h ****   */
 142:Drivers/STM32WLxx_HAL_Driver/Inc/stm32wlxx_ll_bus.h **** 
 143:Drivers/STM32WLxx_HAL_Driver/Inc/stm32wlxx_ll_bus.h **** /** @defgroup BUS_LL_EC_APB2_GRP1_PERIPH  APB2 GRP1 PERIPH
 144:Drivers/STM32WLxx_HAL_Driver/Inc/stm32wlxx_ll_bus.h ****   * @{
 145:Drivers/STM32WLxx_HAL_Driver/Inc/stm32wlxx_ll_bus.h ****   */
 146:Drivers/STM32WLxx_HAL_Driver/Inc/stm32wlxx_ll_bus.h **** #define LL_APB2_GRP1_PERIPH_ALL            (0xFFFFFFFFU)
 147:Drivers/STM32WLxx_HAL_Driver/Inc/stm32wlxx_ll_bus.h **** #define LL_APB2_GRP1_PERIPH_ADC            RCC_APB2ENR_ADCEN
 148:Drivers/STM32WLxx_HAL_Driver/Inc/stm32wlxx_ll_bus.h **** #define LL_APB2_GRP1_PERIPH_TIM1           RCC_APB2ENR_TIM1EN
 149:Drivers/STM32WLxx_HAL_Driver/Inc/stm32wlxx_ll_bus.h **** #define LL_APB2_GRP1_PERIPH_SPI1           RCC_APB2ENR_SPI1EN
 150:Drivers/STM32WLxx_HAL_Driver/Inc/stm32wlxx_ll_bus.h **** #define LL_APB2_GRP1_PERIPH_USART1         RCC_APB2ENR_USART1EN
 151:Drivers/STM32WLxx_HAL_Driver/Inc/stm32wlxx_ll_bus.h **** #define LL_APB2_GRP1_PERIPH_TIM16          RCC_APB2ENR_TIM16EN
 152:Drivers/STM32WLxx_HAL_Driver/Inc/stm32wlxx_ll_bus.h **** #define LL_APB2_GRP1_PERIPH_TIM17          RCC_APB2ENR_TIM17EN
 153:Drivers/STM32WLxx_HAL_Driver/Inc/stm32wlxx_ll_bus.h **** /**
 154:Drivers/STM32WLxx_HAL_Driver/Inc/stm32wlxx_ll_bus.h ****   * @}
 155:Drivers/STM32WLxx_HAL_Driver/Inc/stm32wlxx_ll_bus.h ****   */
 156:Drivers/STM32WLxx_HAL_Driver/Inc/stm32wlxx_ll_bus.h **** 
 157:Drivers/STM32WLxx_HAL_Driver/Inc/stm32wlxx_ll_bus.h **** /** @defgroup BUS_LL_EC_APB3_GRP1_PERIPH  APB3 GRP1 PERIPH
 158:Drivers/STM32WLxx_HAL_Driver/Inc/stm32wlxx_ll_bus.h ****   * @{
 159:Drivers/STM32WLxx_HAL_Driver/Inc/stm32wlxx_ll_bus.h ****   */
 160:Drivers/STM32WLxx_HAL_Driver/Inc/stm32wlxx_ll_bus.h **** #define LL_APB3_GRP1_PERIPH_ALL            (0xFFFFFFFFU)
 161:Drivers/STM32WLxx_HAL_Driver/Inc/stm32wlxx_ll_bus.h **** #define LL_APB3_GRP1_PERIPH_SUBGHZSPI      RCC_APB3ENR_SUBGHZSPIEN
 162:Drivers/STM32WLxx_HAL_Driver/Inc/stm32wlxx_ll_bus.h **** /**
 163:Drivers/STM32WLxx_HAL_Driver/Inc/stm32wlxx_ll_bus.h ****   * @}
 164:Drivers/STM32WLxx_HAL_Driver/Inc/stm32wlxx_ll_bus.h ****   */
 165:Drivers/STM32WLxx_HAL_Driver/Inc/stm32wlxx_ll_bus.h **** 
 166:Drivers/STM32WLxx_HAL_Driver/Inc/stm32wlxx_ll_bus.h **** #if defined(DUAL_CORE)
 167:Drivers/STM32WLxx_HAL_Driver/Inc/stm32wlxx_ll_bus.h **** /** @defgroup BUS_LL_EC_C2_AHB1_GRP1_PERIPH  C2 AHB1 GRP1 PERIPH
 168:Drivers/STM32WLxx_HAL_Driver/Inc/stm32wlxx_ll_bus.h ****   * @{
 169:Drivers/STM32WLxx_HAL_Driver/Inc/stm32wlxx_ll_bus.h ****   */
 170:Drivers/STM32WLxx_HAL_Driver/Inc/stm32wlxx_ll_bus.h **** #define LL_C2_AHB1_GRP1_PERIPH_DMA1         RCC_C2AHB1ENR_DMA1EN
 171:Drivers/STM32WLxx_HAL_Driver/Inc/stm32wlxx_ll_bus.h **** #define LL_C2_AHB1_GRP1_PERIPH_DMA2         RCC_C2AHB1ENR_DMA2EN
 172:Drivers/STM32WLxx_HAL_Driver/Inc/stm32wlxx_ll_bus.h **** #define LL_C2_AHB1_GRP1_PERIPH_DMAMUX1      RCC_C2AHB1ENR_DMAMUX1EN
 173:Drivers/STM32WLxx_HAL_Driver/Inc/stm32wlxx_ll_bus.h **** #define LL_C2_AHB1_GRP1_PERIPH_CRC          RCC_C2AHB1ENR_CRCEN
 174:Drivers/STM32WLxx_HAL_Driver/Inc/stm32wlxx_ll_bus.h **** /**
 175:Drivers/STM32WLxx_HAL_Driver/Inc/stm32wlxx_ll_bus.h ****   * @}
 176:Drivers/STM32WLxx_HAL_Driver/Inc/stm32wlxx_ll_bus.h ****   */
 177:Drivers/STM32WLxx_HAL_Driver/Inc/stm32wlxx_ll_bus.h **** 
 178:Drivers/STM32WLxx_HAL_Driver/Inc/stm32wlxx_ll_bus.h **** 
 179:Drivers/STM32WLxx_HAL_Driver/Inc/stm32wlxx_ll_bus.h **** /** @defgroup BUS_LL_EC_C2_AHB2_GRP1_PERIPH  C2 AHB2 GRP1 PERIPH
 180:Drivers/STM32WLxx_HAL_Driver/Inc/stm32wlxx_ll_bus.h ****   * @{
 181:Drivers/STM32WLxx_HAL_Driver/Inc/stm32wlxx_ll_bus.h ****   */
 182:Drivers/STM32WLxx_HAL_Driver/Inc/stm32wlxx_ll_bus.h **** #define LL_C2_AHB2_GRP1_PERIPH_GPIOA        RCC_C2AHB2ENR_GPIOAEN
 183:Drivers/STM32WLxx_HAL_Driver/Inc/stm32wlxx_ll_bus.h **** #define LL_C2_AHB2_GRP1_PERIPH_GPIOB        RCC_C2AHB2ENR_GPIOBEN
 184:Drivers/STM32WLxx_HAL_Driver/Inc/stm32wlxx_ll_bus.h **** #define LL_C2_AHB2_GRP1_PERIPH_GPIOC        RCC_C2AHB2ENR_GPIOCEN
 185:Drivers/STM32WLxx_HAL_Driver/Inc/stm32wlxx_ll_bus.h **** #define LL_C2_AHB2_GRP1_PERIPH_GPIOH        RCC_C2AHB2ENR_GPIOHEN
 186:Drivers/STM32WLxx_HAL_Driver/Inc/stm32wlxx_ll_bus.h **** /**
 187:Drivers/STM32WLxx_HAL_Driver/Inc/stm32wlxx_ll_bus.h ****   * @}
 188:Drivers/STM32WLxx_HAL_Driver/Inc/stm32wlxx_ll_bus.h ****   */
 189:Drivers/STM32WLxx_HAL_Driver/Inc/stm32wlxx_ll_bus.h **** 
 190:Drivers/STM32WLxx_HAL_Driver/Inc/stm32wlxx_ll_bus.h **** 
 191:Drivers/STM32WLxx_HAL_Driver/Inc/stm32wlxx_ll_bus.h **** /** @defgroup BUS_LL_EC_C2_AHB3_GRP1_PERIPH  C2 AHB3 GRP1 PERIPH
 192:Drivers/STM32WLxx_HAL_Driver/Inc/stm32wlxx_ll_bus.h ****   * @{
 193:Drivers/STM32WLxx_HAL_Driver/Inc/stm32wlxx_ll_bus.h ****   */
 194:Drivers/STM32WLxx_HAL_Driver/Inc/stm32wlxx_ll_bus.h **** #define LL_C2_AHB3_GRP1_PERIPH_PKA          RCC_C2AHB3ENR_PKAEN
 195:Drivers/STM32WLxx_HAL_Driver/Inc/stm32wlxx_ll_bus.h **** #define LL_C2_AHB3_GRP1_PERIPH_AES          RCC_C2AHB3ENR_AESEN
ARM GAS  /var/folders/9y/n02fl3g16gnf7ppy14xghdy80000gn/T//ccRj2FZx.s 			page 8


 196:Drivers/STM32WLxx_HAL_Driver/Inc/stm32wlxx_ll_bus.h **** #define LL_C2_AHB3_GRP1_PERIPH_RNG          RCC_C2AHB3ENR_RNGEN
 197:Drivers/STM32WLxx_HAL_Driver/Inc/stm32wlxx_ll_bus.h **** #define LL_C2_AHB3_GRP1_PERIPH_HSEM         RCC_C2AHB3ENR_HSEMEN
 198:Drivers/STM32WLxx_HAL_Driver/Inc/stm32wlxx_ll_bus.h **** #define LL_C2_AHB3_GRP1_PERIPH_IPCC         RCC_C2AHB3ENR_IPCCEN
 199:Drivers/STM32WLxx_HAL_Driver/Inc/stm32wlxx_ll_bus.h **** #define LL_C2_AHB3_GRP1_PERIPH_FLASH        RCC_C2AHB3ENR_FLASHEN
 200:Drivers/STM32WLxx_HAL_Driver/Inc/stm32wlxx_ll_bus.h **** #define LL_C2_AHB3_GRP1_PERIPH_SRAM1        RCC_C2AHB3SMENR_SRAM1SMEN
 201:Drivers/STM32WLxx_HAL_Driver/Inc/stm32wlxx_ll_bus.h **** #define LL_C2_AHB3_GRP1_PERIPH_SRAM2        RCC_C2AHB3SMENR_SRAM2SMEN
 202:Drivers/STM32WLxx_HAL_Driver/Inc/stm32wlxx_ll_bus.h **** /**
 203:Drivers/STM32WLxx_HAL_Driver/Inc/stm32wlxx_ll_bus.h ****   * @}
 204:Drivers/STM32WLxx_HAL_Driver/Inc/stm32wlxx_ll_bus.h ****   */
 205:Drivers/STM32WLxx_HAL_Driver/Inc/stm32wlxx_ll_bus.h **** 
 206:Drivers/STM32WLxx_HAL_Driver/Inc/stm32wlxx_ll_bus.h **** 
 207:Drivers/STM32WLxx_HAL_Driver/Inc/stm32wlxx_ll_bus.h **** /** @defgroup BUS_LL_EC_C2_APB1_GRP1_PERIPH  C2 APB1 GRP1 PERIPH
 208:Drivers/STM32WLxx_HAL_Driver/Inc/stm32wlxx_ll_bus.h ****   * @{
 209:Drivers/STM32WLxx_HAL_Driver/Inc/stm32wlxx_ll_bus.h ****   */
 210:Drivers/STM32WLxx_HAL_Driver/Inc/stm32wlxx_ll_bus.h **** #define LL_C2_APB1_GRP1_PERIPH_TIM2         RCC_C2APB1ENR1_TIM2EN
 211:Drivers/STM32WLxx_HAL_Driver/Inc/stm32wlxx_ll_bus.h **** #define LL_C2_APB1_GRP1_PERIPH_RTCAPB       RCC_C2APB1ENR1_RTCAPBEN
 212:Drivers/STM32WLxx_HAL_Driver/Inc/stm32wlxx_ll_bus.h **** #define LL_C2_APB1_GRP1_PERIPH_SPI2         RCC_C2APB1ENR1_SPI2EN
 213:Drivers/STM32WLxx_HAL_Driver/Inc/stm32wlxx_ll_bus.h **** #define LL_C2_APB1_GRP1_PERIPH_USART2       RCC_C2APB1ENR1_USART2EN
 214:Drivers/STM32WLxx_HAL_Driver/Inc/stm32wlxx_ll_bus.h **** #define LL_C2_APB1_GRP1_PERIPH_I2C1         RCC_C2APB1ENR1_I2C1EN
 215:Drivers/STM32WLxx_HAL_Driver/Inc/stm32wlxx_ll_bus.h **** #define LL_C2_APB1_GRP1_PERIPH_I2C2         RCC_C2APB1ENR1_I2C2EN
 216:Drivers/STM32WLxx_HAL_Driver/Inc/stm32wlxx_ll_bus.h **** #define LL_C2_APB1_GRP1_PERIPH_I2C3         RCC_C2APB1ENR1_I2C3EN
 217:Drivers/STM32WLxx_HAL_Driver/Inc/stm32wlxx_ll_bus.h **** #define LL_C2_APB1_GRP1_PERIPH_DAC          RCC_C2APB1ENR1_DACEN
 218:Drivers/STM32WLxx_HAL_Driver/Inc/stm32wlxx_ll_bus.h **** #define LL_C2_APB1_GRP1_PERIPH_LPTIM1       RCC_C2APB1ENR1_LPTIM1EN
 219:Drivers/STM32WLxx_HAL_Driver/Inc/stm32wlxx_ll_bus.h **** /**
 220:Drivers/STM32WLxx_HAL_Driver/Inc/stm32wlxx_ll_bus.h ****   * @}
 221:Drivers/STM32WLxx_HAL_Driver/Inc/stm32wlxx_ll_bus.h ****   */
 222:Drivers/STM32WLxx_HAL_Driver/Inc/stm32wlxx_ll_bus.h **** 
 223:Drivers/STM32WLxx_HAL_Driver/Inc/stm32wlxx_ll_bus.h **** 
 224:Drivers/STM32WLxx_HAL_Driver/Inc/stm32wlxx_ll_bus.h **** /** @defgroup BUS_LL_EC_C2_APB1_GRP2_PERIPH  C2 APB1 GRP2 PERIPH
 225:Drivers/STM32WLxx_HAL_Driver/Inc/stm32wlxx_ll_bus.h ****   * @{
 226:Drivers/STM32WLxx_HAL_Driver/Inc/stm32wlxx_ll_bus.h ****   */
 227:Drivers/STM32WLxx_HAL_Driver/Inc/stm32wlxx_ll_bus.h **** #define LL_C2_APB1_GRP2_PERIPH_LPUART1      RCC_C2APB1ENR2_LPUART1EN
 228:Drivers/STM32WLxx_HAL_Driver/Inc/stm32wlxx_ll_bus.h **** #define LL_C2_APB1_GRP2_PERIPH_LPTIM2       RCC_C2APB1ENR2_LPTIM2EN
 229:Drivers/STM32WLxx_HAL_Driver/Inc/stm32wlxx_ll_bus.h **** #define LL_C2_APB1_GRP2_PERIPH_LPTIM3       RCC_C2APB1ENR2_LPTIM3EN
 230:Drivers/STM32WLxx_HAL_Driver/Inc/stm32wlxx_ll_bus.h **** /**
 231:Drivers/STM32WLxx_HAL_Driver/Inc/stm32wlxx_ll_bus.h ****   * @}
 232:Drivers/STM32WLxx_HAL_Driver/Inc/stm32wlxx_ll_bus.h ****   */
 233:Drivers/STM32WLxx_HAL_Driver/Inc/stm32wlxx_ll_bus.h **** 
 234:Drivers/STM32WLxx_HAL_Driver/Inc/stm32wlxx_ll_bus.h **** 
 235:Drivers/STM32WLxx_HAL_Driver/Inc/stm32wlxx_ll_bus.h **** /** @defgroup BUS_LL_EC_C2_APB2_GRP1_PERIPH  C2 APB2 GRP1 PERIPH
 236:Drivers/STM32WLxx_HAL_Driver/Inc/stm32wlxx_ll_bus.h ****   * @{
 237:Drivers/STM32WLxx_HAL_Driver/Inc/stm32wlxx_ll_bus.h ****   */
 238:Drivers/STM32WLxx_HAL_Driver/Inc/stm32wlxx_ll_bus.h **** #define LL_C2_APB2_GRP1_PERIPH_ADC          RCC_C2APB2ENR_ADCEN
 239:Drivers/STM32WLxx_HAL_Driver/Inc/stm32wlxx_ll_bus.h **** #define LL_C2_APB2_GRP1_PERIPH_TIM1         RCC_C2APB2ENR_TIM1EN
 240:Drivers/STM32WLxx_HAL_Driver/Inc/stm32wlxx_ll_bus.h **** #define LL_C2_APB2_GRP1_PERIPH_SPI1         RCC_C2APB2ENR_SPI1EN
 241:Drivers/STM32WLxx_HAL_Driver/Inc/stm32wlxx_ll_bus.h **** #define LL_C2_APB2_GRP1_PERIPH_USART1       RCC_C2APB2ENR_USART1EN
 242:Drivers/STM32WLxx_HAL_Driver/Inc/stm32wlxx_ll_bus.h **** #define LL_C2_APB2_GRP1_PERIPH_TIM16        RCC_C2APB2ENR_TIM16EN
 243:Drivers/STM32WLxx_HAL_Driver/Inc/stm32wlxx_ll_bus.h **** #define LL_C2_APB2_GRP1_PERIPH_TIM17        RCC_C2APB2ENR_TIM17EN
 244:Drivers/STM32WLxx_HAL_Driver/Inc/stm32wlxx_ll_bus.h **** /**
 245:Drivers/STM32WLxx_HAL_Driver/Inc/stm32wlxx_ll_bus.h ****   * @}
 246:Drivers/STM32WLxx_HAL_Driver/Inc/stm32wlxx_ll_bus.h ****   */
 247:Drivers/STM32WLxx_HAL_Driver/Inc/stm32wlxx_ll_bus.h **** 
 248:Drivers/STM32WLxx_HAL_Driver/Inc/stm32wlxx_ll_bus.h **** 
 249:Drivers/STM32WLxx_HAL_Driver/Inc/stm32wlxx_ll_bus.h **** /** @defgroup BUS_LL_EC_C2_APB3_GRP1_PERIPH  C2 APB3 GRP1 PERIPH
 250:Drivers/STM32WLxx_HAL_Driver/Inc/stm32wlxx_ll_bus.h ****   * @{
 251:Drivers/STM32WLxx_HAL_Driver/Inc/stm32wlxx_ll_bus.h ****   */
 252:Drivers/STM32WLxx_HAL_Driver/Inc/stm32wlxx_ll_bus.h **** #define LL_C2_APB3_GRP1_PERIPH_SUBGHZSPI    RCC_C2APB3ENR_SUBGHZSPIEN
ARM GAS  /var/folders/9y/n02fl3g16gnf7ppy14xghdy80000gn/T//ccRj2FZx.s 			page 9


 253:Drivers/STM32WLxx_HAL_Driver/Inc/stm32wlxx_ll_bus.h **** /**
 254:Drivers/STM32WLxx_HAL_Driver/Inc/stm32wlxx_ll_bus.h ****   * @}
 255:Drivers/STM32WLxx_HAL_Driver/Inc/stm32wlxx_ll_bus.h ****   */
 256:Drivers/STM32WLxx_HAL_Driver/Inc/stm32wlxx_ll_bus.h **** #endif /* DUAL_CORE */
 257:Drivers/STM32WLxx_HAL_Driver/Inc/stm32wlxx_ll_bus.h **** 
 258:Drivers/STM32WLxx_HAL_Driver/Inc/stm32wlxx_ll_bus.h **** /**
 259:Drivers/STM32WLxx_HAL_Driver/Inc/stm32wlxx_ll_bus.h ****   * @}
 260:Drivers/STM32WLxx_HAL_Driver/Inc/stm32wlxx_ll_bus.h ****   */
 261:Drivers/STM32WLxx_HAL_Driver/Inc/stm32wlxx_ll_bus.h **** 
 262:Drivers/STM32WLxx_HAL_Driver/Inc/stm32wlxx_ll_bus.h **** /* Exported macro ------------------------------------------------------------*/
 263:Drivers/STM32WLxx_HAL_Driver/Inc/stm32wlxx_ll_bus.h **** 
 264:Drivers/STM32WLxx_HAL_Driver/Inc/stm32wlxx_ll_bus.h **** /* Exported functions --------------------------------------------------------*/
 265:Drivers/STM32WLxx_HAL_Driver/Inc/stm32wlxx_ll_bus.h **** 
 266:Drivers/STM32WLxx_HAL_Driver/Inc/stm32wlxx_ll_bus.h **** /** @defgroup BUS_LL_Exported_Functions BUS Exported Functions
 267:Drivers/STM32WLxx_HAL_Driver/Inc/stm32wlxx_ll_bus.h ****   * @{
 268:Drivers/STM32WLxx_HAL_Driver/Inc/stm32wlxx_ll_bus.h ****   */
 269:Drivers/STM32WLxx_HAL_Driver/Inc/stm32wlxx_ll_bus.h **** 
 270:Drivers/STM32WLxx_HAL_Driver/Inc/stm32wlxx_ll_bus.h **** /** @defgroup BUS_LL_EF_AHB1 AHB1
 271:Drivers/STM32WLxx_HAL_Driver/Inc/stm32wlxx_ll_bus.h ****   * @{
 272:Drivers/STM32WLxx_HAL_Driver/Inc/stm32wlxx_ll_bus.h ****   */
 273:Drivers/STM32WLxx_HAL_Driver/Inc/stm32wlxx_ll_bus.h **** 
 274:Drivers/STM32WLxx_HAL_Driver/Inc/stm32wlxx_ll_bus.h **** /**
 275:Drivers/STM32WLxx_HAL_Driver/Inc/stm32wlxx_ll_bus.h ****   * @brief  Enable AHB1 peripherals clock.
 276:Drivers/STM32WLxx_HAL_Driver/Inc/stm32wlxx_ll_bus.h ****   * @rmtoll AHB1ENR      DMA1EN        LL_AHB1_GRP1_EnableClock\n
 277:Drivers/STM32WLxx_HAL_Driver/Inc/stm32wlxx_ll_bus.h ****   *         AHB1ENR      DMA2EN        LL_AHB1_GRP1_EnableClock\n
 278:Drivers/STM32WLxx_HAL_Driver/Inc/stm32wlxx_ll_bus.h ****   *         AHB1ENR      DMAMUX1EN     LL_AHB1_GRP1_EnableClock\n
 279:Drivers/STM32WLxx_HAL_Driver/Inc/stm32wlxx_ll_bus.h ****   *         AHB1ENR      CRCEN         LL_AHB1_GRP1_EnableClock\n
 280:Drivers/STM32WLxx_HAL_Driver/Inc/stm32wlxx_ll_bus.h ****   * @param  Periphs This parameter can be a combination of the following values:
 281:Drivers/STM32WLxx_HAL_Driver/Inc/stm32wlxx_ll_bus.h ****   *         @arg @ref LL_AHB1_GRP1_PERIPH_DMA1
 282:Drivers/STM32WLxx_HAL_Driver/Inc/stm32wlxx_ll_bus.h ****   *         @arg @ref LL_AHB1_GRP1_PERIPH_DMA2
 283:Drivers/STM32WLxx_HAL_Driver/Inc/stm32wlxx_ll_bus.h ****   *         @arg @ref LL_AHB1_GRP1_PERIPH_DMAMUX1
 284:Drivers/STM32WLxx_HAL_Driver/Inc/stm32wlxx_ll_bus.h ****   *         @arg @ref LL_AHB1_GRP1_PERIPH_CRC
 285:Drivers/STM32WLxx_HAL_Driver/Inc/stm32wlxx_ll_bus.h ****   * @retval None
 286:Drivers/STM32WLxx_HAL_Driver/Inc/stm32wlxx_ll_bus.h ****   */
 287:Drivers/STM32WLxx_HAL_Driver/Inc/stm32wlxx_ll_bus.h **** __STATIC_INLINE void LL_AHB1_GRP1_EnableClock(uint32_t Periphs)
 288:Drivers/STM32WLxx_HAL_Driver/Inc/stm32wlxx_ll_bus.h **** {
 289:Drivers/STM32WLxx_HAL_Driver/Inc/stm32wlxx_ll_bus.h ****   __IO uint32_t tmpreg;
 290:Drivers/STM32WLxx_HAL_Driver/Inc/stm32wlxx_ll_bus.h ****   SET_BIT(RCC->AHB1ENR, Periphs);
 291:Drivers/STM32WLxx_HAL_Driver/Inc/stm32wlxx_ll_bus.h ****   /* Delay after an RCC peripheral clock enabling */
 292:Drivers/STM32WLxx_HAL_Driver/Inc/stm32wlxx_ll_bus.h ****   tmpreg = READ_BIT(RCC->AHB1ENR, Periphs);
 293:Drivers/STM32WLxx_HAL_Driver/Inc/stm32wlxx_ll_bus.h ****   (void)tmpreg;
 294:Drivers/STM32WLxx_HAL_Driver/Inc/stm32wlxx_ll_bus.h **** }
 295:Drivers/STM32WLxx_HAL_Driver/Inc/stm32wlxx_ll_bus.h **** 
 296:Drivers/STM32WLxx_HAL_Driver/Inc/stm32wlxx_ll_bus.h **** /**
 297:Drivers/STM32WLxx_HAL_Driver/Inc/stm32wlxx_ll_bus.h ****   * @brief  Check if AHB1 peripheral clock is enabled or not
 298:Drivers/STM32WLxx_HAL_Driver/Inc/stm32wlxx_ll_bus.h ****   * @rmtoll AHB1ENR      DMA1EN        LL_AHB1_GRP1_IsEnabledClock\n
 299:Drivers/STM32WLxx_HAL_Driver/Inc/stm32wlxx_ll_bus.h ****   *         AHB1ENR      DMA2EN        LL_AHB1_GRP1_IsEnabledClock\n
 300:Drivers/STM32WLxx_HAL_Driver/Inc/stm32wlxx_ll_bus.h ****   *         AHB1ENR      DMAMUX1EN     LL_AHB1_GRP1_IsEnabledClock\n
 301:Drivers/STM32WLxx_HAL_Driver/Inc/stm32wlxx_ll_bus.h ****   *         AHB1ENR      CRCEN         LL_AHB1_GRP1_IsEnabledClock\n
 302:Drivers/STM32WLxx_HAL_Driver/Inc/stm32wlxx_ll_bus.h ****   * @param  Periphs This parameter can be a combination of the following values:
 303:Drivers/STM32WLxx_HAL_Driver/Inc/stm32wlxx_ll_bus.h ****   *         @arg @ref LL_AHB1_GRP1_PERIPH_DMA1
 304:Drivers/STM32WLxx_HAL_Driver/Inc/stm32wlxx_ll_bus.h ****   *         @arg @ref LL_AHB1_GRP1_PERIPH_DMA2
 305:Drivers/STM32WLxx_HAL_Driver/Inc/stm32wlxx_ll_bus.h ****   *         @arg @ref LL_AHB1_GRP1_PERIPH_DMAMUX1
 306:Drivers/STM32WLxx_HAL_Driver/Inc/stm32wlxx_ll_bus.h ****   *         @arg @ref LL_AHB1_GRP1_PERIPH_CRC
 307:Drivers/STM32WLxx_HAL_Driver/Inc/stm32wlxx_ll_bus.h ****   * @retval uint32_t
 308:Drivers/STM32WLxx_HAL_Driver/Inc/stm32wlxx_ll_bus.h ****   */
 309:Drivers/STM32WLxx_HAL_Driver/Inc/stm32wlxx_ll_bus.h **** __STATIC_INLINE uint32_t LL_AHB1_GRP1_IsEnabledClock(uint32_t Periphs)
ARM GAS  /var/folders/9y/n02fl3g16gnf7ppy14xghdy80000gn/T//ccRj2FZx.s 			page 10


 310:Drivers/STM32WLxx_HAL_Driver/Inc/stm32wlxx_ll_bus.h **** {
 311:Drivers/STM32WLxx_HAL_Driver/Inc/stm32wlxx_ll_bus.h ****   return ((READ_BIT(RCC->AHB1ENR, Periphs) == (Periphs)) ? 1UL : 0UL);
 312:Drivers/STM32WLxx_HAL_Driver/Inc/stm32wlxx_ll_bus.h **** }
 313:Drivers/STM32WLxx_HAL_Driver/Inc/stm32wlxx_ll_bus.h **** 
 314:Drivers/STM32WLxx_HAL_Driver/Inc/stm32wlxx_ll_bus.h **** /**
 315:Drivers/STM32WLxx_HAL_Driver/Inc/stm32wlxx_ll_bus.h ****   * @brief  Disable AHB1 peripherals clock.
 316:Drivers/STM32WLxx_HAL_Driver/Inc/stm32wlxx_ll_bus.h ****   * @rmtoll AHB1ENR      DMA1EN        LL_AHB1_GRP1_DisableClock\n
 317:Drivers/STM32WLxx_HAL_Driver/Inc/stm32wlxx_ll_bus.h ****   *         AHB1ENR      DMA2EN        LL_AHB1_GRP1_DisableClock\n
 318:Drivers/STM32WLxx_HAL_Driver/Inc/stm32wlxx_ll_bus.h ****   *         AHB1ENR      DMAMUX1EN     LL_AHB1_GRP1_DisableClock\n
 319:Drivers/STM32WLxx_HAL_Driver/Inc/stm32wlxx_ll_bus.h ****   *         AHB1ENR      CRCEN         LL_AHB1_GRP1_DisableClock\n
 320:Drivers/STM32WLxx_HAL_Driver/Inc/stm32wlxx_ll_bus.h ****   * @param  Periphs This parameter can be a combination of the following values:
 321:Drivers/STM32WLxx_HAL_Driver/Inc/stm32wlxx_ll_bus.h ****   *         @arg @ref LL_AHB1_GRP1_PERIPH_DMA1
 322:Drivers/STM32WLxx_HAL_Driver/Inc/stm32wlxx_ll_bus.h ****   *         @arg @ref LL_AHB1_GRP1_PERIPH_DMA2
 323:Drivers/STM32WLxx_HAL_Driver/Inc/stm32wlxx_ll_bus.h ****   *         @arg @ref LL_AHB1_GRP1_PERIPH_DMAMUX1
 324:Drivers/STM32WLxx_HAL_Driver/Inc/stm32wlxx_ll_bus.h ****   *         @arg @ref LL_AHB1_GRP1_PERIPH_CRC
 325:Drivers/STM32WLxx_HAL_Driver/Inc/stm32wlxx_ll_bus.h ****   * @retval None
 326:Drivers/STM32WLxx_HAL_Driver/Inc/stm32wlxx_ll_bus.h ****   */
 327:Drivers/STM32WLxx_HAL_Driver/Inc/stm32wlxx_ll_bus.h **** __STATIC_INLINE void LL_AHB1_GRP1_DisableClock(uint32_t Periphs)
 328:Drivers/STM32WLxx_HAL_Driver/Inc/stm32wlxx_ll_bus.h **** {
 329:Drivers/STM32WLxx_HAL_Driver/Inc/stm32wlxx_ll_bus.h ****   CLEAR_BIT(RCC->AHB1ENR, Periphs);
 330:Drivers/STM32WLxx_HAL_Driver/Inc/stm32wlxx_ll_bus.h **** }
 331:Drivers/STM32WLxx_HAL_Driver/Inc/stm32wlxx_ll_bus.h **** 
 332:Drivers/STM32WLxx_HAL_Driver/Inc/stm32wlxx_ll_bus.h **** /**
 333:Drivers/STM32WLxx_HAL_Driver/Inc/stm32wlxx_ll_bus.h ****   * @brief  Force AHB1 peripherals reset.
 334:Drivers/STM32WLxx_HAL_Driver/Inc/stm32wlxx_ll_bus.h ****   * @rmtoll AHB1RSTR     DMA1RST       LL_AHB1_GRP1_ForceReset\n
 335:Drivers/STM32WLxx_HAL_Driver/Inc/stm32wlxx_ll_bus.h ****   *         AHB1RSTR     DMA2RST       LL_AHB1_GRP1_ForceReset\n
 336:Drivers/STM32WLxx_HAL_Driver/Inc/stm32wlxx_ll_bus.h ****   *         AHB1RSTR     DMAMUX1RST    LL_AHB1_GRP1_ForceReset\n
 337:Drivers/STM32WLxx_HAL_Driver/Inc/stm32wlxx_ll_bus.h ****   *         AHB1RSTR     CRCRST        LL_AHB1_GRP1_ForceReset\n
 338:Drivers/STM32WLxx_HAL_Driver/Inc/stm32wlxx_ll_bus.h ****   * @param  Periphs This parameter can be a combination of the following values:
 339:Drivers/STM32WLxx_HAL_Driver/Inc/stm32wlxx_ll_bus.h ****   *         @arg @ref LL_AHB1_GRP1_PERIPH_ALL
 340:Drivers/STM32WLxx_HAL_Driver/Inc/stm32wlxx_ll_bus.h ****   *         @arg @ref LL_AHB1_GRP1_PERIPH_DMA1
 341:Drivers/STM32WLxx_HAL_Driver/Inc/stm32wlxx_ll_bus.h ****   *         @arg @ref LL_AHB1_GRP1_PERIPH_DMA2
 342:Drivers/STM32WLxx_HAL_Driver/Inc/stm32wlxx_ll_bus.h ****   *         @arg @ref LL_AHB1_GRP1_PERIPH_DMAMUX1
 343:Drivers/STM32WLxx_HAL_Driver/Inc/stm32wlxx_ll_bus.h ****   *         @arg @ref LL_AHB1_GRP1_PERIPH_CRC
 344:Drivers/STM32WLxx_HAL_Driver/Inc/stm32wlxx_ll_bus.h ****   * @retval None
 345:Drivers/STM32WLxx_HAL_Driver/Inc/stm32wlxx_ll_bus.h ****   */
 346:Drivers/STM32WLxx_HAL_Driver/Inc/stm32wlxx_ll_bus.h **** __STATIC_INLINE void LL_AHB1_GRP1_ForceReset(uint32_t Periphs)
 347:Drivers/STM32WLxx_HAL_Driver/Inc/stm32wlxx_ll_bus.h **** {
 348:Drivers/STM32WLxx_HAL_Driver/Inc/stm32wlxx_ll_bus.h ****   SET_BIT(RCC->AHB1RSTR, Periphs);
 349:Drivers/STM32WLxx_HAL_Driver/Inc/stm32wlxx_ll_bus.h **** }
 350:Drivers/STM32WLxx_HAL_Driver/Inc/stm32wlxx_ll_bus.h **** 
 351:Drivers/STM32WLxx_HAL_Driver/Inc/stm32wlxx_ll_bus.h **** /**
 352:Drivers/STM32WLxx_HAL_Driver/Inc/stm32wlxx_ll_bus.h ****   * @brief  Release AHB1 peripherals reset.
 353:Drivers/STM32WLxx_HAL_Driver/Inc/stm32wlxx_ll_bus.h ****   * @rmtoll AHB1RSTR     DMA1RST       LL_AHB1_GRP1_ReleaseReset\n
 354:Drivers/STM32WLxx_HAL_Driver/Inc/stm32wlxx_ll_bus.h ****   *         AHB1RSTR     DMA2RST       LL_AHB1_GRP1_ReleaseReset\n
 355:Drivers/STM32WLxx_HAL_Driver/Inc/stm32wlxx_ll_bus.h ****   *         AHB1RSTR     DMAMUX1RST     LL_AHB1_GRP1_ReleaseReset\n
 356:Drivers/STM32WLxx_HAL_Driver/Inc/stm32wlxx_ll_bus.h ****   *         AHB1RSTR     CRCRST        LL_AHB1_GRP1_ReleaseReset\n
 357:Drivers/STM32WLxx_HAL_Driver/Inc/stm32wlxx_ll_bus.h ****   * @param  Periphs This parameter can be a combination of the following values:
 358:Drivers/STM32WLxx_HAL_Driver/Inc/stm32wlxx_ll_bus.h ****   *         @arg @ref LL_AHB1_GRP1_PERIPH_ALL
 359:Drivers/STM32WLxx_HAL_Driver/Inc/stm32wlxx_ll_bus.h ****   *         @arg @ref LL_AHB1_GRP1_PERIPH_DMA1
 360:Drivers/STM32WLxx_HAL_Driver/Inc/stm32wlxx_ll_bus.h ****   *         @arg @ref LL_AHB1_GRP1_PERIPH_DMA2
 361:Drivers/STM32WLxx_HAL_Driver/Inc/stm32wlxx_ll_bus.h ****   *         @arg @ref LL_AHB1_GRP1_PERIPH_DMAMUX1
 362:Drivers/STM32WLxx_HAL_Driver/Inc/stm32wlxx_ll_bus.h ****   *         @arg @ref LL_AHB1_GRP1_PERIPH_CRC
 363:Drivers/STM32WLxx_HAL_Driver/Inc/stm32wlxx_ll_bus.h ****   * @retval None
 364:Drivers/STM32WLxx_HAL_Driver/Inc/stm32wlxx_ll_bus.h ****   */
 365:Drivers/STM32WLxx_HAL_Driver/Inc/stm32wlxx_ll_bus.h **** __STATIC_INLINE void LL_AHB1_GRP1_ReleaseReset(uint32_t Periphs)
 366:Drivers/STM32WLxx_HAL_Driver/Inc/stm32wlxx_ll_bus.h **** {
ARM GAS  /var/folders/9y/n02fl3g16gnf7ppy14xghdy80000gn/T//ccRj2FZx.s 			page 11


 367:Drivers/STM32WLxx_HAL_Driver/Inc/stm32wlxx_ll_bus.h ****   CLEAR_BIT(RCC->AHB1RSTR, Periphs);
 368:Drivers/STM32WLxx_HAL_Driver/Inc/stm32wlxx_ll_bus.h **** }
 369:Drivers/STM32WLxx_HAL_Driver/Inc/stm32wlxx_ll_bus.h **** 
 370:Drivers/STM32WLxx_HAL_Driver/Inc/stm32wlxx_ll_bus.h **** /**
 371:Drivers/STM32WLxx_HAL_Driver/Inc/stm32wlxx_ll_bus.h ****   * @brief  Enable AHB1 peripherals clock during Low Power (Sleep) mode.
 372:Drivers/STM32WLxx_HAL_Driver/Inc/stm32wlxx_ll_bus.h ****   * @rmtoll AHB1SMENR    DMA1SMEN      LL_AHB1_GRP1_EnableClockSleep\n
 373:Drivers/STM32WLxx_HAL_Driver/Inc/stm32wlxx_ll_bus.h ****   *         AHB1SMENR    DMA2SMEN      LL_AHB1_GRP1_EnableClockSleep\n
 374:Drivers/STM32WLxx_HAL_Driver/Inc/stm32wlxx_ll_bus.h ****   *         AHB1SMENR    DMAMUX1SMEN   LL_AHB1_GRP1_EnableClockSleep\n
 375:Drivers/STM32WLxx_HAL_Driver/Inc/stm32wlxx_ll_bus.h ****   *         AHB1SMENR    CRCSMEN       LL_AHB1_GRP1_EnableClockSleep\n
 376:Drivers/STM32WLxx_HAL_Driver/Inc/stm32wlxx_ll_bus.h ****   * @param  Periphs This parameter can be a combination of the following values:
 377:Drivers/STM32WLxx_HAL_Driver/Inc/stm32wlxx_ll_bus.h ****   *         @arg @ref LL_AHB1_GRP1_PERIPH_DMA1
 378:Drivers/STM32WLxx_HAL_Driver/Inc/stm32wlxx_ll_bus.h ****   *         @arg @ref LL_AHB1_GRP1_PERIPH_DMA2
 379:Drivers/STM32WLxx_HAL_Driver/Inc/stm32wlxx_ll_bus.h ****   *         @arg @ref LL_AHB1_GRP1_PERIPH_DMAMUX1
 380:Drivers/STM32WLxx_HAL_Driver/Inc/stm32wlxx_ll_bus.h ****   *         @arg @ref LL_AHB1_GRP1_PERIPH_CRC
 381:Drivers/STM32WLxx_HAL_Driver/Inc/stm32wlxx_ll_bus.h ****   * @retval None
 382:Drivers/STM32WLxx_HAL_Driver/Inc/stm32wlxx_ll_bus.h ****   */
 383:Drivers/STM32WLxx_HAL_Driver/Inc/stm32wlxx_ll_bus.h **** __STATIC_INLINE void LL_AHB1_GRP1_EnableClockSleep(uint32_t Periphs)
 384:Drivers/STM32WLxx_HAL_Driver/Inc/stm32wlxx_ll_bus.h **** {
 385:Drivers/STM32WLxx_HAL_Driver/Inc/stm32wlxx_ll_bus.h ****   __IO uint32_t tmpreg;
 386:Drivers/STM32WLxx_HAL_Driver/Inc/stm32wlxx_ll_bus.h ****   SET_BIT(RCC->AHB1SMENR, Periphs);
 387:Drivers/STM32WLxx_HAL_Driver/Inc/stm32wlxx_ll_bus.h ****   /* Delay after an RCC peripheral clock enabling */
 388:Drivers/STM32WLxx_HAL_Driver/Inc/stm32wlxx_ll_bus.h ****   tmpreg = READ_BIT(RCC->AHB1SMENR, Periphs);
 389:Drivers/STM32WLxx_HAL_Driver/Inc/stm32wlxx_ll_bus.h ****   (void)tmpreg;
 390:Drivers/STM32WLxx_HAL_Driver/Inc/stm32wlxx_ll_bus.h **** }
 391:Drivers/STM32WLxx_HAL_Driver/Inc/stm32wlxx_ll_bus.h **** 
 392:Drivers/STM32WLxx_HAL_Driver/Inc/stm32wlxx_ll_bus.h **** /**
 393:Drivers/STM32WLxx_HAL_Driver/Inc/stm32wlxx_ll_bus.h ****   * @brief  Check if AHB1 peripheral clock is enabled by the clock gating during CPU1 CSleep mode
 394:Drivers/STM32WLxx_HAL_Driver/Inc/stm32wlxx_ll_bus.h ****   * @rmtoll AHB1SMENR    DMA1SMEN      LL_AHB1_GRP1_IsEnabledClockSleep\n
 395:Drivers/STM32WLxx_HAL_Driver/Inc/stm32wlxx_ll_bus.h ****   *         AHB1SMENR    DMA2SMEN      LL_AHB1_GRP1_IsEnabledClockSleep\n
 396:Drivers/STM32WLxx_HAL_Driver/Inc/stm32wlxx_ll_bus.h ****   *         AHB1SMENR    DMAMUX1SMEN   LL_AHB1_GRP1_IsEnabledClockSleep\n
 397:Drivers/STM32WLxx_HAL_Driver/Inc/stm32wlxx_ll_bus.h ****   *         AHB1SMENR    CRCSMEN       LL_AHB1_GRP1_IsEnabledClockSleep
 398:Drivers/STM32WLxx_HAL_Driver/Inc/stm32wlxx_ll_bus.h ****   * @param  Periphs This parameter can be a combination of the following values:
 399:Drivers/STM32WLxx_HAL_Driver/Inc/stm32wlxx_ll_bus.h ****   *         @arg @ref LL_AHB1_GRP1_PERIPH_DMA1
 400:Drivers/STM32WLxx_HAL_Driver/Inc/stm32wlxx_ll_bus.h ****   *         @arg @ref LL_AHB1_GRP1_PERIPH_DMA2
 401:Drivers/STM32WLxx_HAL_Driver/Inc/stm32wlxx_ll_bus.h ****   *         @arg @ref LL_AHB1_GRP1_PERIPH_DMAMUX1
 402:Drivers/STM32WLxx_HAL_Driver/Inc/stm32wlxx_ll_bus.h ****   *         @arg @ref LL_AHB1_GRP1_PERIPH_CRC
 403:Drivers/STM32WLxx_HAL_Driver/Inc/stm32wlxx_ll_bus.h ****   * @retval uint32_t
 404:Drivers/STM32WLxx_HAL_Driver/Inc/stm32wlxx_ll_bus.h ****   */
 405:Drivers/STM32WLxx_HAL_Driver/Inc/stm32wlxx_ll_bus.h **** __STATIC_INLINE uint32_t LL_AHB1_GRP1_IsEnabledClockSleep(uint32_t Periphs)
 406:Drivers/STM32WLxx_HAL_Driver/Inc/stm32wlxx_ll_bus.h **** {
 407:Drivers/STM32WLxx_HAL_Driver/Inc/stm32wlxx_ll_bus.h ****   return ((READ_BIT(RCC->AHB1SMENR, Periphs) == (Periphs)) ? 1UL : 0UL);
 408:Drivers/STM32WLxx_HAL_Driver/Inc/stm32wlxx_ll_bus.h **** }
 409:Drivers/STM32WLxx_HAL_Driver/Inc/stm32wlxx_ll_bus.h **** 
 410:Drivers/STM32WLxx_HAL_Driver/Inc/stm32wlxx_ll_bus.h **** /**
 411:Drivers/STM32WLxx_HAL_Driver/Inc/stm32wlxx_ll_bus.h ****   * @brief  Disable AHB1 peripherals clock during Low Power (Sleep) mode.
 412:Drivers/STM32WLxx_HAL_Driver/Inc/stm32wlxx_ll_bus.h ****   * @rmtoll AHB1SMENR    DMA1SMEN      LL_AHB1_GRP1_DisableClockSleep\n
 413:Drivers/STM32WLxx_HAL_Driver/Inc/stm32wlxx_ll_bus.h ****   *         AHB1SMENR    DMA2SMEN      LL_AHB1_GRP1_DisableClockSleep\n
 414:Drivers/STM32WLxx_HAL_Driver/Inc/stm32wlxx_ll_bus.h ****   *         AHB1SMENR    DMAMUX1SMEN   LL_AHB1_GRP1_DisableClockSleep\n
 415:Drivers/STM32WLxx_HAL_Driver/Inc/stm32wlxx_ll_bus.h ****   *         AHB1SMENR    CRCSMEN       LL_AHB1_GRP1_DisableClockSleep\n
 416:Drivers/STM32WLxx_HAL_Driver/Inc/stm32wlxx_ll_bus.h ****   * @param  Periphs This parameter can be a combination of the following values:
 417:Drivers/STM32WLxx_HAL_Driver/Inc/stm32wlxx_ll_bus.h ****   *         @arg @ref LL_AHB1_GRP1_PERIPH_DMA1
 418:Drivers/STM32WLxx_HAL_Driver/Inc/stm32wlxx_ll_bus.h ****   *         @arg @ref LL_AHB1_GRP1_PERIPH_DMA2
 419:Drivers/STM32WLxx_HAL_Driver/Inc/stm32wlxx_ll_bus.h ****   *         @arg @ref LL_AHB1_GRP1_PERIPH_DMAMUX1
 420:Drivers/STM32WLxx_HAL_Driver/Inc/stm32wlxx_ll_bus.h ****   *         @arg @ref LL_AHB1_GRP1_PERIPH_CRC
 421:Drivers/STM32WLxx_HAL_Driver/Inc/stm32wlxx_ll_bus.h ****   * @retval None
 422:Drivers/STM32WLxx_HAL_Driver/Inc/stm32wlxx_ll_bus.h ****   */
 423:Drivers/STM32WLxx_HAL_Driver/Inc/stm32wlxx_ll_bus.h **** __STATIC_INLINE void LL_AHB1_GRP1_DisableClockSleep(uint32_t Periphs)
ARM GAS  /var/folders/9y/n02fl3g16gnf7ppy14xghdy80000gn/T//ccRj2FZx.s 			page 12


 424:Drivers/STM32WLxx_HAL_Driver/Inc/stm32wlxx_ll_bus.h **** {
 425:Drivers/STM32WLxx_HAL_Driver/Inc/stm32wlxx_ll_bus.h ****   CLEAR_BIT(RCC->AHB1SMENR, Periphs);
 426:Drivers/STM32WLxx_HAL_Driver/Inc/stm32wlxx_ll_bus.h **** }
 427:Drivers/STM32WLxx_HAL_Driver/Inc/stm32wlxx_ll_bus.h **** 
 428:Drivers/STM32WLxx_HAL_Driver/Inc/stm32wlxx_ll_bus.h **** /**
 429:Drivers/STM32WLxx_HAL_Driver/Inc/stm32wlxx_ll_bus.h ****   * @}
 430:Drivers/STM32WLxx_HAL_Driver/Inc/stm32wlxx_ll_bus.h ****   */
 431:Drivers/STM32WLxx_HAL_Driver/Inc/stm32wlxx_ll_bus.h **** 
 432:Drivers/STM32WLxx_HAL_Driver/Inc/stm32wlxx_ll_bus.h **** /** @defgroup BUS_LL_EF_AHB2 AHB2
 433:Drivers/STM32WLxx_HAL_Driver/Inc/stm32wlxx_ll_bus.h ****   * @{
 434:Drivers/STM32WLxx_HAL_Driver/Inc/stm32wlxx_ll_bus.h ****   */
 435:Drivers/STM32WLxx_HAL_Driver/Inc/stm32wlxx_ll_bus.h **** 
 436:Drivers/STM32WLxx_HAL_Driver/Inc/stm32wlxx_ll_bus.h **** /**
 437:Drivers/STM32WLxx_HAL_Driver/Inc/stm32wlxx_ll_bus.h ****   * @brief  Enable AHB2 peripherals clock.
 438:Drivers/STM32WLxx_HAL_Driver/Inc/stm32wlxx_ll_bus.h ****   * @rmtoll AHB2ENR      GPIOAEN       LL_AHB2_GRP1_EnableClock\n
 439:Drivers/STM32WLxx_HAL_Driver/Inc/stm32wlxx_ll_bus.h ****   *         AHB2ENR      GPIOBEN       LL_AHB2_GRP1_EnableClock\n
 440:Drivers/STM32WLxx_HAL_Driver/Inc/stm32wlxx_ll_bus.h ****   *         AHB2ENR      GPIOCEN       LL_AHB2_GRP1_EnableClock\n
 441:Drivers/STM32WLxx_HAL_Driver/Inc/stm32wlxx_ll_bus.h ****   *         AHB2ENR      GPIOHEN       LL_AHB2_GRP1_EnableClock\n
 442:Drivers/STM32WLxx_HAL_Driver/Inc/stm32wlxx_ll_bus.h ****   * @param  Periphs This parameter can be a combination of the following values:
 443:Drivers/STM32WLxx_HAL_Driver/Inc/stm32wlxx_ll_bus.h ****   *         @arg @ref LL_AHB2_GRP1_PERIPH_GPIOA
 444:Drivers/STM32WLxx_HAL_Driver/Inc/stm32wlxx_ll_bus.h ****   *         @arg @ref LL_AHB2_GRP1_PERIPH_GPIOB
 445:Drivers/STM32WLxx_HAL_Driver/Inc/stm32wlxx_ll_bus.h ****   *         @arg @ref LL_AHB2_GRP1_PERIPH_GPIOC
 446:Drivers/STM32WLxx_HAL_Driver/Inc/stm32wlxx_ll_bus.h ****   *         @arg @ref LL_AHB2_GRP1_PERIPH_GPIOH
 447:Drivers/STM32WLxx_HAL_Driver/Inc/stm32wlxx_ll_bus.h ****   * @retval None
 448:Drivers/STM32WLxx_HAL_Driver/Inc/stm32wlxx_ll_bus.h ****   */
 449:Drivers/STM32WLxx_HAL_Driver/Inc/stm32wlxx_ll_bus.h **** __STATIC_INLINE void LL_AHB2_GRP1_EnableClock(uint32_t Periphs)
 450:Drivers/STM32WLxx_HAL_Driver/Inc/stm32wlxx_ll_bus.h **** {
 451:Drivers/STM32WLxx_HAL_Driver/Inc/stm32wlxx_ll_bus.h ****   __IO uint32_t tmpreg;
 452:Drivers/STM32WLxx_HAL_Driver/Inc/stm32wlxx_ll_bus.h ****   SET_BIT(RCC->AHB2ENR, Periphs);
 453:Drivers/STM32WLxx_HAL_Driver/Inc/stm32wlxx_ll_bus.h ****   /* Delay after an RCC peripheral clock enabling */
 454:Drivers/STM32WLxx_HAL_Driver/Inc/stm32wlxx_ll_bus.h ****   tmpreg = READ_BIT(RCC->AHB2ENR, Periphs);
 455:Drivers/STM32WLxx_HAL_Driver/Inc/stm32wlxx_ll_bus.h ****   (void)tmpreg;
 456:Drivers/STM32WLxx_HAL_Driver/Inc/stm32wlxx_ll_bus.h **** }
 457:Drivers/STM32WLxx_HAL_Driver/Inc/stm32wlxx_ll_bus.h **** 
 458:Drivers/STM32WLxx_HAL_Driver/Inc/stm32wlxx_ll_bus.h **** /**
 459:Drivers/STM32WLxx_HAL_Driver/Inc/stm32wlxx_ll_bus.h ****   * @brief  Check if AHB2 peripheral clock is enabled or not
 460:Drivers/STM32WLxx_HAL_Driver/Inc/stm32wlxx_ll_bus.h ****   * @rmtoll AHB2ENR      GPIOAEN       LL_AHB2_GRP1_IsEnabledClock\n
 461:Drivers/STM32WLxx_HAL_Driver/Inc/stm32wlxx_ll_bus.h ****   *         AHB2ENR      GPIOBEN       LL_AHB2_GRP1_IsEnabledClock\n
 462:Drivers/STM32WLxx_HAL_Driver/Inc/stm32wlxx_ll_bus.h ****   *         AHB2ENR      GPIOCEN       LL_AHB2_GRP1_IsEnabledClock\n
 463:Drivers/STM32WLxx_HAL_Driver/Inc/stm32wlxx_ll_bus.h ****   *         AHB2ENR      GPIOHEN       LL_AHB2_GRP1_IsEnabledClock\n
 464:Drivers/STM32WLxx_HAL_Driver/Inc/stm32wlxx_ll_bus.h ****   * @param  Periphs This parameter can be a combination of the following values:
 465:Drivers/STM32WLxx_HAL_Driver/Inc/stm32wlxx_ll_bus.h ****   *         @arg @ref LL_AHB2_GRP1_PERIPH_GPIOA
 466:Drivers/STM32WLxx_HAL_Driver/Inc/stm32wlxx_ll_bus.h ****   *         @arg @ref LL_AHB2_GRP1_PERIPH_GPIOB
 467:Drivers/STM32WLxx_HAL_Driver/Inc/stm32wlxx_ll_bus.h ****   *         @arg @ref LL_AHB2_GRP1_PERIPH_GPIOC
 468:Drivers/STM32WLxx_HAL_Driver/Inc/stm32wlxx_ll_bus.h ****   *         @arg @ref LL_AHB2_GRP1_PERIPH_GPIOH
 469:Drivers/STM32WLxx_HAL_Driver/Inc/stm32wlxx_ll_bus.h ****   * @retval uint32_t
 470:Drivers/STM32WLxx_HAL_Driver/Inc/stm32wlxx_ll_bus.h ****   */
 471:Drivers/STM32WLxx_HAL_Driver/Inc/stm32wlxx_ll_bus.h **** __STATIC_INLINE uint32_t LL_AHB2_GRP1_IsEnabledClock(uint32_t Periphs)
 472:Drivers/STM32WLxx_HAL_Driver/Inc/stm32wlxx_ll_bus.h **** {
 473:Drivers/STM32WLxx_HAL_Driver/Inc/stm32wlxx_ll_bus.h ****   return ((READ_BIT(RCC->AHB2ENR, Periphs) == (Periphs)) ? 1UL : 0UL);
 474:Drivers/STM32WLxx_HAL_Driver/Inc/stm32wlxx_ll_bus.h **** }
 475:Drivers/STM32WLxx_HAL_Driver/Inc/stm32wlxx_ll_bus.h **** 
 476:Drivers/STM32WLxx_HAL_Driver/Inc/stm32wlxx_ll_bus.h **** /**
 477:Drivers/STM32WLxx_HAL_Driver/Inc/stm32wlxx_ll_bus.h ****   * @brief  Disable AHB2 peripherals clock.
 478:Drivers/STM32WLxx_HAL_Driver/Inc/stm32wlxx_ll_bus.h ****   * @rmtoll AHB2ENR      GPIOAEN       LL_AHB2_GRP1_DisableClock\n
 479:Drivers/STM32WLxx_HAL_Driver/Inc/stm32wlxx_ll_bus.h ****   *         AHB2ENR      GPIOBEN       LL_AHB2_GRP1_DisableClock\n
 480:Drivers/STM32WLxx_HAL_Driver/Inc/stm32wlxx_ll_bus.h ****   *         AHB2ENR      GPIOCEN       LL_AHB2_GRP1_DisableClock\n
ARM GAS  /var/folders/9y/n02fl3g16gnf7ppy14xghdy80000gn/T//ccRj2FZx.s 			page 13


 481:Drivers/STM32WLxx_HAL_Driver/Inc/stm32wlxx_ll_bus.h ****   *         AHB2ENR      GPIOHEN       LL_AHB2_GRP1_DisableClock\n
 482:Drivers/STM32WLxx_HAL_Driver/Inc/stm32wlxx_ll_bus.h ****   * @param  Periphs This parameter can be a combination of the following values:
 483:Drivers/STM32WLxx_HAL_Driver/Inc/stm32wlxx_ll_bus.h ****   *         @arg @ref LL_AHB2_GRP1_PERIPH_GPIOA
 484:Drivers/STM32WLxx_HAL_Driver/Inc/stm32wlxx_ll_bus.h ****   *         @arg @ref LL_AHB2_GRP1_PERIPH_GPIOB
 485:Drivers/STM32WLxx_HAL_Driver/Inc/stm32wlxx_ll_bus.h ****   *         @arg @ref LL_AHB2_GRP1_PERIPH_GPIOC
 486:Drivers/STM32WLxx_HAL_Driver/Inc/stm32wlxx_ll_bus.h ****   *         @arg @ref LL_AHB2_GRP1_PERIPH_GPIOH
 487:Drivers/STM32WLxx_HAL_Driver/Inc/stm32wlxx_ll_bus.h ****   * @retval None
 488:Drivers/STM32WLxx_HAL_Driver/Inc/stm32wlxx_ll_bus.h ****   */
 489:Drivers/STM32WLxx_HAL_Driver/Inc/stm32wlxx_ll_bus.h **** __STATIC_INLINE void LL_AHB2_GRP1_DisableClock(uint32_t Periphs)
 490:Drivers/STM32WLxx_HAL_Driver/Inc/stm32wlxx_ll_bus.h **** {
 491:Drivers/STM32WLxx_HAL_Driver/Inc/stm32wlxx_ll_bus.h ****   CLEAR_BIT(RCC->AHB2ENR, Periphs);
 492:Drivers/STM32WLxx_HAL_Driver/Inc/stm32wlxx_ll_bus.h **** }
 493:Drivers/STM32WLxx_HAL_Driver/Inc/stm32wlxx_ll_bus.h **** 
 494:Drivers/STM32WLxx_HAL_Driver/Inc/stm32wlxx_ll_bus.h **** /**
 495:Drivers/STM32WLxx_HAL_Driver/Inc/stm32wlxx_ll_bus.h ****   * @brief  Force AHB2 peripherals reset.
 496:Drivers/STM32WLxx_HAL_Driver/Inc/stm32wlxx_ll_bus.h ****   * @rmtoll AHB2RSTR     GPIOARST      LL_AHB2_GRP1_ForceReset\n
 497:Drivers/STM32WLxx_HAL_Driver/Inc/stm32wlxx_ll_bus.h ****   *         AHB2RSTR     GPIOBRST      LL_AHB2_GRP1_ForceReset\n
 498:Drivers/STM32WLxx_HAL_Driver/Inc/stm32wlxx_ll_bus.h ****   *         AHB2RSTR     GPIOCRST      LL_AHB2_GRP1_ForceReset\n
 499:Drivers/STM32WLxx_HAL_Driver/Inc/stm32wlxx_ll_bus.h ****   *         AHB2RSTR     GPIOHRST      LL_AHB2_GRP1_ForceReset
 500:Drivers/STM32WLxx_HAL_Driver/Inc/stm32wlxx_ll_bus.h ****   * @param  Periphs This parameter can be a combination of the following values:
 501:Drivers/STM32WLxx_HAL_Driver/Inc/stm32wlxx_ll_bus.h ****   *         @arg @ref LL_AHB2_GRP1_PERIPH_ALL
 502:Drivers/STM32WLxx_HAL_Driver/Inc/stm32wlxx_ll_bus.h ****   *         @arg @ref LL_AHB2_GRP1_PERIPH_GPIOA
 503:Drivers/STM32WLxx_HAL_Driver/Inc/stm32wlxx_ll_bus.h ****   *         @arg @ref LL_AHB2_GRP1_PERIPH_GPIOB
 504:Drivers/STM32WLxx_HAL_Driver/Inc/stm32wlxx_ll_bus.h ****   *         @arg @ref LL_AHB2_GRP1_PERIPH_GPIOC
 505:Drivers/STM32WLxx_HAL_Driver/Inc/stm32wlxx_ll_bus.h ****   *         @arg @ref LL_AHB2_GRP1_PERIPH_GPIOH
 506:Drivers/STM32WLxx_HAL_Driver/Inc/stm32wlxx_ll_bus.h ****   * @retval None
 507:Drivers/STM32WLxx_HAL_Driver/Inc/stm32wlxx_ll_bus.h ****   */
 508:Drivers/STM32WLxx_HAL_Driver/Inc/stm32wlxx_ll_bus.h **** __STATIC_INLINE void LL_AHB2_GRP1_ForceReset(uint32_t Periphs)
  66              		.loc 2 508 22 view .LVU15
  67              	.LBB69:
 509:Drivers/STM32WLxx_HAL_Driver/Inc/stm32wlxx_ll_bus.h **** {
 510:Drivers/STM32WLxx_HAL_Driver/Inc/stm32wlxx_ll_bus.h ****   SET_BIT(RCC->AHB2RSTR, Periphs);
  68              		.loc 2 510 3 view .LVU16
  69 001c 4FF0B043 		mov	r3, #1476395008
  70 0020 DA6A     		ldr	r2, [r3, #44]
  71 0022 42F00102 		orr	r2, r2, #1
  72 0026 DA62     		str	r2, [r3, #44]
  73              	.LVL3:
  74              		.loc 2 510 3 is_stmt 0 view .LVU17
  75              	.LBE69:
  76              	.LBE68:
 114:Drivers/STM32WLxx_HAL_Driver/Src/stm32wlxx_ll_gpio.c ****   }
  77              		.loc 1 114 5 is_stmt 1 view .LVU18
  78              	.LBB70:
  79              	.LBI70:
 511:Drivers/STM32WLxx_HAL_Driver/Inc/stm32wlxx_ll_bus.h **** }
 512:Drivers/STM32WLxx_HAL_Driver/Inc/stm32wlxx_ll_bus.h **** 
 513:Drivers/STM32WLxx_HAL_Driver/Inc/stm32wlxx_ll_bus.h **** /**
 514:Drivers/STM32WLxx_HAL_Driver/Inc/stm32wlxx_ll_bus.h ****   * @brief  Release AHB2 peripherals reset.
 515:Drivers/STM32WLxx_HAL_Driver/Inc/stm32wlxx_ll_bus.h ****   * @rmtoll AHB2RSTR     GPIOARST      LL_AHB2_GRP1_ReleaseReset\n
 516:Drivers/STM32WLxx_HAL_Driver/Inc/stm32wlxx_ll_bus.h ****   *         AHB2RSTR     GPIOBRST      LL_AHB2_GRP1_ReleaseReset\n
 517:Drivers/STM32WLxx_HAL_Driver/Inc/stm32wlxx_ll_bus.h ****   *         AHB2RSTR     GPIOCRST      LL_AHB2_GRP1_ReleaseReset\n
 518:Drivers/STM32WLxx_HAL_Driver/Inc/stm32wlxx_ll_bus.h ****   *         AHB2RSTR     GPIOHRST      LL_AHB2_GRP1_ReleaseReset\n
 519:Drivers/STM32WLxx_HAL_Driver/Inc/stm32wlxx_ll_bus.h ****   * @param  Periphs This parameter can be a combination of the following values:
 520:Drivers/STM32WLxx_HAL_Driver/Inc/stm32wlxx_ll_bus.h ****   *         @arg @ref LL_AHB2_GRP1_PERIPH_ALL
 521:Drivers/STM32WLxx_HAL_Driver/Inc/stm32wlxx_ll_bus.h ****   *         @arg @ref LL_AHB2_GRP1_PERIPH_GPIOA
 522:Drivers/STM32WLxx_HAL_Driver/Inc/stm32wlxx_ll_bus.h ****   *         @arg @ref LL_AHB2_GRP1_PERIPH_GPIOB
ARM GAS  /var/folders/9y/n02fl3g16gnf7ppy14xghdy80000gn/T//ccRj2FZx.s 			page 14


 523:Drivers/STM32WLxx_HAL_Driver/Inc/stm32wlxx_ll_bus.h ****   *         @arg @ref LL_AHB2_GRP1_PERIPH_GPIOC
 524:Drivers/STM32WLxx_HAL_Driver/Inc/stm32wlxx_ll_bus.h ****   *         @arg @ref LL_AHB2_GRP1_PERIPH_GPIOH
 525:Drivers/STM32WLxx_HAL_Driver/Inc/stm32wlxx_ll_bus.h ****   * @retval None
 526:Drivers/STM32WLxx_HAL_Driver/Inc/stm32wlxx_ll_bus.h ****   */
 527:Drivers/STM32WLxx_HAL_Driver/Inc/stm32wlxx_ll_bus.h **** __STATIC_INLINE void LL_AHB2_GRP1_ReleaseReset(uint32_t Periphs)
  80              		.loc 2 527 22 view .LVU19
  81              	.LBB71:
 528:Drivers/STM32WLxx_HAL_Driver/Inc/stm32wlxx_ll_bus.h **** {
 529:Drivers/STM32WLxx_HAL_Driver/Inc/stm32wlxx_ll_bus.h ****   CLEAR_BIT(RCC->AHB2RSTR, Periphs);
  82              		.loc 2 529 3 view .LVU20
  83 0028 DA6A     		ldr	r2, [r3, #44]
  84 002a 22F00102 		bic	r2, r2, #1
  85 002e DA62     		str	r2, [r3, #44]
  86              	.LBE71:
  87              	.LBE70:
 105:Drivers/STM32WLxx_HAL_Driver/Src/stm32wlxx_ll_gpio.c **** 
  88              		.loc 1 105 15 is_stmt 0 view .LVU21
  89 0030 0120     		movs	r0, #1
  90              	.LVL4:
  91              	.LBB73:
  92              	.LBB72:
 530:Drivers/STM32WLxx_HAL_Driver/Inc/stm32wlxx_ll_bus.h **** }
  93              		.loc 2 530 1 view .LVU22
  94 0032 7047     		bx	lr
  95              	.LVL5:
  96              	.L8:
  97              		.loc 2 530 1 view .LVU23
  98              	.LBE72:
  99              	.LBE73:
 118:Drivers/STM32WLxx_HAL_Driver/Src/stm32wlxx_ll_gpio.c ****     LL_AHB2_GRP1_ReleaseReset(LL_AHB2_GRP1_PERIPH_GPIOB);
 100              		.loc 1 118 5 is_stmt 1 view .LVU24
 101              	.LBB74:
 102              	.LBI74:
 508:Drivers/STM32WLxx_HAL_Driver/Inc/stm32wlxx_ll_bus.h **** {
 103              		.loc 2 508 22 view .LVU25
 104              	.LBB75:
 510:Drivers/STM32WLxx_HAL_Driver/Inc/stm32wlxx_ll_bus.h **** }
 105              		.loc 2 510 3 view .LVU26
 106 0034 4FF0B043 		mov	r3, #1476395008
 107 0038 DA6A     		ldr	r2, [r3, #44]
 108 003a 42F00202 		orr	r2, r2, #2
 109 003e DA62     		str	r2, [r3, #44]
 110              	.LVL6:
 510:Drivers/STM32WLxx_HAL_Driver/Inc/stm32wlxx_ll_bus.h **** }
 111              		.loc 2 510 3 is_stmt 0 view .LVU27
 112              	.LBE75:
 113              	.LBE74:
 119:Drivers/STM32WLxx_HAL_Driver/Src/stm32wlxx_ll_gpio.c ****   }
 114              		.loc 1 119 5 is_stmt 1 view .LVU28
 115              	.LBB76:
 116              	.LBI76:
 527:Drivers/STM32WLxx_HAL_Driver/Inc/stm32wlxx_ll_bus.h **** {
 117              		.loc 2 527 22 view .LVU29
 118              	.LBB77:
 529:Drivers/STM32WLxx_HAL_Driver/Inc/stm32wlxx_ll_bus.h **** }
 119              		.loc 2 529 3 view .LVU30
 120 0040 DA6A     		ldr	r2, [r3, #44]
ARM GAS  /var/folders/9y/n02fl3g16gnf7ppy14xghdy80000gn/T//ccRj2FZx.s 			page 15


 121 0042 22F00202 		bic	r2, r2, #2
 122 0046 DA62     		str	r2, [r3, #44]
 123              	.LBE77:
 124              	.LBE76:
 105:Drivers/STM32WLxx_HAL_Driver/Src/stm32wlxx_ll_gpio.c **** 
 125              		.loc 1 105 15 is_stmt 0 view .LVU31
 126 0048 0120     		movs	r0, #1
 127              	.LVL7:
 128              	.LBB79:
 129              	.LBB78:
 130              		.loc 2 530 1 view .LVU32
 131 004a 7047     		bx	lr
 132              	.LVL8:
 133              	.L9:
 134              		.loc 2 530 1 view .LVU33
 135              	.LBE78:
 136              	.LBE79:
 123:Drivers/STM32WLxx_HAL_Driver/Src/stm32wlxx_ll_gpio.c ****     LL_AHB2_GRP1_ReleaseReset(LL_AHB2_GRP1_PERIPH_GPIOC);
 137              		.loc 1 123 5 is_stmt 1 view .LVU34
 138              	.LBB80:
 139              	.LBI80:
 508:Drivers/STM32WLxx_HAL_Driver/Inc/stm32wlxx_ll_bus.h **** {
 140              		.loc 2 508 22 view .LVU35
 141              	.LBB81:
 510:Drivers/STM32WLxx_HAL_Driver/Inc/stm32wlxx_ll_bus.h **** }
 142              		.loc 2 510 3 view .LVU36
 143 004c 4FF0B043 		mov	r3, #1476395008
 144 0050 DA6A     		ldr	r2, [r3, #44]
 145 0052 42F00402 		orr	r2, r2, #4
 146 0056 DA62     		str	r2, [r3, #44]
 147              	.LVL9:
 510:Drivers/STM32WLxx_HAL_Driver/Inc/stm32wlxx_ll_bus.h **** }
 148              		.loc 2 510 3 is_stmt 0 view .LVU37
 149              	.LBE81:
 150              	.LBE80:
 124:Drivers/STM32WLxx_HAL_Driver/Src/stm32wlxx_ll_gpio.c ****   }
 151              		.loc 1 124 5 is_stmt 1 view .LVU38
 152              	.LBB82:
 153              	.LBI82:
 527:Drivers/STM32WLxx_HAL_Driver/Inc/stm32wlxx_ll_bus.h **** {
 154              		.loc 2 527 22 view .LVU39
 155              	.LBB83:
 529:Drivers/STM32WLxx_HAL_Driver/Inc/stm32wlxx_ll_bus.h **** }
 156              		.loc 2 529 3 view .LVU40
 157 0058 DA6A     		ldr	r2, [r3, #44]
 158 005a 22F00402 		bic	r2, r2, #4
 159 005e DA62     		str	r2, [r3, #44]
 160              	.LBE83:
 161              	.LBE82:
 105:Drivers/STM32WLxx_HAL_Driver/Src/stm32wlxx_ll_gpio.c **** 
 162              		.loc 1 105 15 is_stmt 0 view .LVU41
 163 0060 0120     		movs	r0, #1
 164              	.LVL10:
 165              	.LBB85:
 166              	.LBB84:
 167              		.loc 2 530 1 view .LVU42
 168 0062 7047     		bx	lr
ARM GAS  /var/folders/9y/n02fl3g16gnf7ppy14xghdy80000gn/T//ccRj2FZx.s 			page 16


 169              	.LVL11:
 170              	.L10:
 171              		.loc 2 530 1 view .LVU43
 172              	.LBE84:
 173              	.LBE85:
 129:Drivers/STM32WLxx_HAL_Driver/Src/stm32wlxx_ll_gpio.c ****     LL_AHB2_GRP1_ReleaseReset(LL_AHB2_GRP1_PERIPH_GPIOH);
 174              		.loc 1 129 5 is_stmt 1 view .LVU44
 175              	.LBB86:
 176              	.LBI86:
 508:Drivers/STM32WLxx_HAL_Driver/Inc/stm32wlxx_ll_bus.h **** {
 177              		.loc 2 508 22 view .LVU45
 178              	.LBB87:
 510:Drivers/STM32WLxx_HAL_Driver/Inc/stm32wlxx_ll_bus.h **** }
 179              		.loc 2 510 3 view .LVU46
 180 0064 4FF0B043 		mov	r3, #1476395008
 181 0068 DA6A     		ldr	r2, [r3, #44]
 182 006a 42F08002 		orr	r2, r2, #128
 183 006e DA62     		str	r2, [r3, #44]
 184              	.LVL12:
 510:Drivers/STM32WLxx_HAL_Driver/Inc/stm32wlxx_ll_bus.h **** }
 185              		.loc 2 510 3 is_stmt 0 view .LVU47
 186              	.LBE87:
 187              	.LBE86:
 130:Drivers/STM32WLxx_HAL_Driver/Src/stm32wlxx_ll_gpio.c ****   }
 188              		.loc 1 130 5 is_stmt 1 view .LVU48
 189              	.LBB88:
 190              	.LBI88:
 527:Drivers/STM32WLxx_HAL_Driver/Inc/stm32wlxx_ll_bus.h **** {
 191              		.loc 2 527 22 view .LVU49
 192              	.LBB89:
 529:Drivers/STM32WLxx_HAL_Driver/Inc/stm32wlxx_ll_bus.h **** }
 193              		.loc 2 529 3 view .LVU50
 194 0070 DA6A     		ldr	r2, [r3, #44]
 195 0072 22F08002 		bic	r2, r2, #128
 196 0076 DA62     		str	r2, [r3, #44]
 197              	.LBE89:
 198              	.LBE88:
 105:Drivers/STM32WLxx_HAL_Driver/Src/stm32wlxx_ll_gpio.c **** 
 199              		.loc 1 105 15 is_stmt 0 view .LVU51
 200 0078 0120     		movs	r0, #1
 201              	.LVL13:
 202              	.LBB91:
 203              	.LBB90:
 204              		.loc 2 530 1 view .LVU52
 205 007a 7047     		bx	lr
 206              	.L12:
 207              		.align	2
 208              	.L11:
 209 007c 00040048 		.word	1207960576
 210 0080 00080048 		.word	1207961600
 211 0084 001C0048 		.word	1207966720
 212              	.LBE90:
 213              	.LBE91:
 214              		.cfi_endproc
 215              	.LFE867:
 217              		.section	.text.LL_GPIO_Init,"ax",%progbits
 218              		.align	1
ARM GAS  /var/folders/9y/n02fl3g16gnf7ppy14xghdy80000gn/T//ccRj2FZx.s 			page 17


 219              		.global	LL_GPIO_Init
 220              		.syntax unified
 221              		.thumb
 222              		.thumb_func
 223              		.fpu softvfp
 225              	LL_GPIO_Init:
 226              	.LVL14:
 227              	.LFB868:
 140:Drivers/STM32WLxx_HAL_Driver/Src/stm32wlxx_ll_gpio.c **** 
 141:Drivers/STM32WLxx_HAL_Driver/Src/stm32wlxx_ll_gpio.c **** /**
 142:Drivers/STM32WLxx_HAL_Driver/Src/stm32wlxx_ll_gpio.c ****   * @brief  Initialize GPIO registers according to the specified parameters in GPIO_InitStruct.
 143:Drivers/STM32WLxx_HAL_Driver/Src/stm32wlxx_ll_gpio.c ****   * @param  GPIOx GPIO Port
 144:Drivers/STM32WLxx_HAL_Driver/Src/stm32wlxx_ll_gpio.c ****   * @param GPIO_InitStruct pointer to a @ref LL_GPIO_InitTypeDef structure
 145:Drivers/STM32WLxx_HAL_Driver/Src/stm32wlxx_ll_gpio.c ****   *         that contains the configuration information for the specified GPIO peripheral.
 146:Drivers/STM32WLxx_HAL_Driver/Src/stm32wlxx_ll_gpio.c ****   * @retval An ErrorStatus enumeration value:
 147:Drivers/STM32WLxx_HAL_Driver/Src/stm32wlxx_ll_gpio.c ****   *          - SUCCESS: GPIO registers are initialized according to GPIO_InitStruct content
 148:Drivers/STM32WLxx_HAL_Driver/Src/stm32wlxx_ll_gpio.c ****   *          - ERROR:   Not applicable
 149:Drivers/STM32WLxx_HAL_Driver/Src/stm32wlxx_ll_gpio.c ****   */
 150:Drivers/STM32WLxx_HAL_Driver/Src/stm32wlxx_ll_gpio.c **** ErrorStatus LL_GPIO_Init(GPIO_TypeDef *GPIOx, LL_GPIO_InitTypeDef *GPIO_InitStruct)
 151:Drivers/STM32WLxx_HAL_Driver/Src/stm32wlxx_ll_gpio.c **** {
 228              		.loc 1 151 1 is_stmt 1 view -0
 229              		.cfi_startproc
 230              		@ args = 0, pretend = 0, frame = 0
 231              		@ frame_needed = 0, uses_anonymous_args = 0
 232              		@ link register save eliminated.
 233              		.loc 1 151 1 is_stmt 0 view .LVU54
 234 0000 F0B4     		push	{r4, r5, r6, r7}
 235              		.cfi_def_cfa_offset 16
 236              		.cfi_offset 4, -16
 237              		.cfi_offset 5, -12
 238              		.cfi_offset 6, -8
 239              		.cfi_offset 7, -4
 152:Drivers/STM32WLxx_HAL_Driver/Src/stm32wlxx_ll_gpio.c ****   uint32_t pinpos;
 240              		.loc 1 152 3 is_stmt 1 view .LVU55
 153:Drivers/STM32WLxx_HAL_Driver/Src/stm32wlxx_ll_gpio.c ****   uint32_t currentpin;
 241              		.loc 1 153 3 view .LVU56
 154:Drivers/STM32WLxx_HAL_Driver/Src/stm32wlxx_ll_gpio.c **** 
 155:Drivers/STM32WLxx_HAL_Driver/Src/stm32wlxx_ll_gpio.c ****   /* Check the parameters */
 156:Drivers/STM32WLxx_HAL_Driver/Src/stm32wlxx_ll_gpio.c ****   assert_param(IS_GPIO_ALL_INSTANCE(GPIOx));
 242              		.loc 1 156 3 view .LVU57
 157:Drivers/STM32WLxx_HAL_Driver/Src/stm32wlxx_ll_gpio.c ****   assert_param(IS_LL_GPIO_PIN(GPIO_InitStruct->Pin));
 243              		.loc 1 157 3 view .LVU58
 158:Drivers/STM32WLxx_HAL_Driver/Src/stm32wlxx_ll_gpio.c ****   assert_param(IS_LL_GPIO_MODE(GPIO_InitStruct->Mode));
 244              		.loc 1 158 3 view .LVU59
 159:Drivers/STM32WLxx_HAL_Driver/Src/stm32wlxx_ll_gpio.c ****   assert_param(IS_LL_GPIO_PULL(GPIO_InitStruct->Pull));
 245              		.loc 1 159 3 view .LVU60
 160:Drivers/STM32WLxx_HAL_Driver/Src/stm32wlxx_ll_gpio.c **** 
 161:Drivers/STM32WLxx_HAL_Driver/Src/stm32wlxx_ll_gpio.c ****   /* ------------------------- Configure the port pins ---------------- */
 162:Drivers/STM32WLxx_HAL_Driver/Src/stm32wlxx_ll_gpio.c ****   /* Initialize  pinpos on first pin set */
 163:Drivers/STM32WLxx_HAL_Driver/Src/stm32wlxx_ll_gpio.c **** #if defined(CORE_CM0PLUS)
 164:Drivers/STM32WLxx_HAL_Driver/Src/stm32wlxx_ll_gpio.c ****   pinpos = 0;
 165:Drivers/STM32WLxx_HAL_Driver/Src/stm32wlxx_ll_gpio.c **** #else
 166:Drivers/STM32WLxx_HAL_Driver/Src/stm32wlxx_ll_gpio.c ****   pinpos = POSITION_VAL(GPIO_InitStruct->Pin);
 246              		.loc 1 166 3 view .LVU61
 247              		.loc 1 166 12 is_stmt 0 view .LVU62
 248 0002 0A68     		ldr	r2, [r1]
 249              	.LVL15:
ARM GAS  /var/folders/9y/n02fl3g16gnf7ppy14xghdy80000gn/T//ccRj2FZx.s 			page 18


 250              	.LBB158:
 251              	.LBI158:
 252              		.file 3 "Drivers/CMSIS/Include/cmsis_gcc.h"
   1:Drivers/CMSIS/Include/cmsis_gcc.h **** /**************************************************************************//**
   2:Drivers/CMSIS/Include/cmsis_gcc.h ****  * @file     cmsis_gcc.h
   3:Drivers/CMSIS/Include/cmsis_gcc.h ****  * @brief    CMSIS compiler GCC header file
   4:Drivers/CMSIS/Include/cmsis_gcc.h ****  * @version  V5.2.0
   5:Drivers/CMSIS/Include/cmsis_gcc.h ****  * @date     08. May 2019
   6:Drivers/CMSIS/Include/cmsis_gcc.h ****  ******************************************************************************/
   7:Drivers/CMSIS/Include/cmsis_gcc.h **** /*
   8:Drivers/CMSIS/Include/cmsis_gcc.h ****  * Copyright (c) 2009-2019 Arm Limited. All rights reserved.
   9:Drivers/CMSIS/Include/cmsis_gcc.h ****  *
  10:Drivers/CMSIS/Include/cmsis_gcc.h ****  * SPDX-License-Identifier: Apache-2.0
  11:Drivers/CMSIS/Include/cmsis_gcc.h ****  *
  12:Drivers/CMSIS/Include/cmsis_gcc.h ****  * Licensed under the Apache License, Version 2.0 (the License); you may
  13:Drivers/CMSIS/Include/cmsis_gcc.h ****  * not use this file except in compliance with the License.
  14:Drivers/CMSIS/Include/cmsis_gcc.h ****  * You may obtain a copy of the License at
  15:Drivers/CMSIS/Include/cmsis_gcc.h ****  *
  16:Drivers/CMSIS/Include/cmsis_gcc.h ****  * www.apache.org/licenses/LICENSE-2.0
  17:Drivers/CMSIS/Include/cmsis_gcc.h ****  *
  18:Drivers/CMSIS/Include/cmsis_gcc.h ****  * Unless required by applicable law or agreed to in writing, software
  19:Drivers/CMSIS/Include/cmsis_gcc.h ****  * distributed under the License is distributed on an AS IS BASIS, WITHOUT
  20:Drivers/CMSIS/Include/cmsis_gcc.h ****  * WARRANTIES OR CONDITIONS OF ANY KIND, either express or implied.
  21:Drivers/CMSIS/Include/cmsis_gcc.h ****  * See the License for the specific language governing permissions and
  22:Drivers/CMSIS/Include/cmsis_gcc.h ****  * limitations under the License.
  23:Drivers/CMSIS/Include/cmsis_gcc.h ****  */
  24:Drivers/CMSIS/Include/cmsis_gcc.h **** 
  25:Drivers/CMSIS/Include/cmsis_gcc.h **** #ifndef __CMSIS_GCC_H
  26:Drivers/CMSIS/Include/cmsis_gcc.h **** #define __CMSIS_GCC_H
  27:Drivers/CMSIS/Include/cmsis_gcc.h **** 
  28:Drivers/CMSIS/Include/cmsis_gcc.h **** /* ignore some GCC warnings */
  29:Drivers/CMSIS/Include/cmsis_gcc.h **** #pragma GCC diagnostic push
  30:Drivers/CMSIS/Include/cmsis_gcc.h **** #pragma GCC diagnostic ignored "-Wsign-conversion"
  31:Drivers/CMSIS/Include/cmsis_gcc.h **** #pragma GCC diagnostic ignored "-Wconversion"
  32:Drivers/CMSIS/Include/cmsis_gcc.h **** #pragma GCC diagnostic ignored "-Wunused-parameter"
  33:Drivers/CMSIS/Include/cmsis_gcc.h **** 
  34:Drivers/CMSIS/Include/cmsis_gcc.h **** /* Fallback for __has_builtin */
  35:Drivers/CMSIS/Include/cmsis_gcc.h **** #ifndef __has_builtin
  36:Drivers/CMSIS/Include/cmsis_gcc.h ****   #define __has_builtin(x) (0)
  37:Drivers/CMSIS/Include/cmsis_gcc.h **** #endif
  38:Drivers/CMSIS/Include/cmsis_gcc.h **** 
  39:Drivers/CMSIS/Include/cmsis_gcc.h **** /* CMSIS compiler specific defines */
  40:Drivers/CMSIS/Include/cmsis_gcc.h **** #ifndef   __ASM
  41:Drivers/CMSIS/Include/cmsis_gcc.h ****   #define __ASM                                  __asm
  42:Drivers/CMSIS/Include/cmsis_gcc.h **** #endif
  43:Drivers/CMSIS/Include/cmsis_gcc.h **** #ifndef   __INLINE
  44:Drivers/CMSIS/Include/cmsis_gcc.h ****   #define __INLINE                               inline
  45:Drivers/CMSIS/Include/cmsis_gcc.h **** #endif
  46:Drivers/CMSIS/Include/cmsis_gcc.h **** #ifndef   __STATIC_INLINE
  47:Drivers/CMSIS/Include/cmsis_gcc.h ****   #define __STATIC_INLINE                        static inline
  48:Drivers/CMSIS/Include/cmsis_gcc.h **** #endif
  49:Drivers/CMSIS/Include/cmsis_gcc.h **** #ifndef   __STATIC_FORCEINLINE                 
  50:Drivers/CMSIS/Include/cmsis_gcc.h ****   #define __STATIC_FORCEINLINE                   __attribute__((always_inline)) static inline
  51:Drivers/CMSIS/Include/cmsis_gcc.h **** #endif                                           
  52:Drivers/CMSIS/Include/cmsis_gcc.h **** #ifndef   __NO_RETURN
  53:Drivers/CMSIS/Include/cmsis_gcc.h ****   #define __NO_RETURN                            __attribute__((__noreturn__))
  54:Drivers/CMSIS/Include/cmsis_gcc.h **** #endif
ARM GAS  /var/folders/9y/n02fl3g16gnf7ppy14xghdy80000gn/T//ccRj2FZx.s 			page 19


  55:Drivers/CMSIS/Include/cmsis_gcc.h **** #ifndef   __USED
  56:Drivers/CMSIS/Include/cmsis_gcc.h ****   #define __USED                                 __attribute__((used))
  57:Drivers/CMSIS/Include/cmsis_gcc.h **** #endif
  58:Drivers/CMSIS/Include/cmsis_gcc.h **** #ifndef   __WEAK
  59:Drivers/CMSIS/Include/cmsis_gcc.h ****   #define __WEAK                                 __attribute__((weak))
  60:Drivers/CMSIS/Include/cmsis_gcc.h **** #endif
  61:Drivers/CMSIS/Include/cmsis_gcc.h **** #ifndef   __PACKED
  62:Drivers/CMSIS/Include/cmsis_gcc.h ****   #define __PACKED                               __attribute__((packed, aligned(1)))
  63:Drivers/CMSIS/Include/cmsis_gcc.h **** #endif
  64:Drivers/CMSIS/Include/cmsis_gcc.h **** #ifndef   __PACKED_STRUCT
  65:Drivers/CMSIS/Include/cmsis_gcc.h ****   #define __PACKED_STRUCT                        struct __attribute__((packed, aligned(1)))
  66:Drivers/CMSIS/Include/cmsis_gcc.h **** #endif
  67:Drivers/CMSIS/Include/cmsis_gcc.h **** #ifndef   __PACKED_UNION
  68:Drivers/CMSIS/Include/cmsis_gcc.h ****   #define __PACKED_UNION                         union __attribute__((packed, aligned(1)))
  69:Drivers/CMSIS/Include/cmsis_gcc.h **** #endif
  70:Drivers/CMSIS/Include/cmsis_gcc.h **** #ifndef   __UNALIGNED_UINT32        /* deprecated */
  71:Drivers/CMSIS/Include/cmsis_gcc.h ****   #pragma GCC diagnostic push
  72:Drivers/CMSIS/Include/cmsis_gcc.h ****   #pragma GCC diagnostic ignored "-Wpacked"
  73:Drivers/CMSIS/Include/cmsis_gcc.h ****   #pragma GCC diagnostic ignored "-Wattributes"
  74:Drivers/CMSIS/Include/cmsis_gcc.h ****   struct __attribute__((packed)) T_UINT32 { uint32_t v; };
  75:Drivers/CMSIS/Include/cmsis_gcc.h ****   #pragma GCC diagnostic pop
  76:Drivers/CMSIS/Include/cmsis_gcc.h ****   #define __UNALIGNED_UINT32(x)                  (((struct T_UINT32 *)(x))->v)
  77:Drivers/CMSIS/Include/cmsis_gcc.h **** #endif
  78:Drivers/CMSIS/Include/cmsis_gcc.h **** #ifndef   __UNALIGNED_UINT16_WRITE
  79:Drivers/CMSIS/Include/cmsis_gcc.h ****   #pragma GCC diagnostic push
  80:Drivers/CMSIS/Include/cmsis_gcc.h ****   #pragma GCC diagnostic ignored "-Wpacked"
  81:Drivers/CMSIS/Include/cmsis_gcc.h ****   #pragma GCC diagnostic ignored "-Wattributes"
  82:Drivers/CMSIS/Include/cmsis_gcc.h ****   __PACKED_STRUCT T_UINT16_WRITE { uint16_t v; };
  83:Drivers/CMSIS/Include/cmsis_gcc.h ****   #pragma GCC diagnostic pop
  84:Drivers/CMSIS/Include/cmsis_gcc.h ****   #define __UNALIGNED_UINT16_WRITE(addr, val)    (void)((((struct T_UINT16_WRITE *)(void *)(addr))-
  85:Drivers/CMSIS/Include/cmsis_gcc.h **** #endif
  86:Drivers/CMSIS/Include/cmsis_gcc.h **** #ifndef   __UNALIGNED_UINT16_READ
  87:Drivers/CMSIS/Include/cmsis_gcc.h ****   #pragma GCC diagnostic push
  88:Drivers/CMSIS/Include/cmsis_gcc.h ****   #pragma GCC diagnostic ignored "-Wpacked"
  89:Drivers/CMSIS/Include/cmsis_gcc.h ****   #pragma GCC diagnostic ignored "-Wattributes"
  90:Drivers/CMSIS/Include/cmsis_gcc.h ****   __PACKED_STRUCT T_UINT16_READ { uint16_t v; };
  91:Drivers/CMSIS/Include/cmsis_gcc.h ****   #pragma GCC diagnostic pop
  92:Drivers/CMSIS/Include/cmsis_gcc.h ****   #define __UNALIGNED_UINT16_READ(addr)          (((const struct T_UINT16_READ *)(const void *)(add
  93:Drivers/CMSIS/Include/cmsis_gcc.h **** #endif
  94:Drivers/CMSIS/Include/cmsis_gcc.h **** #ifndef   __UNALIGNED_UINT32_WRITE
  95:Drivers/CMSIS/Include/cmsis_gcc.h ****   #pragma GCC diagnostic push
  96:Drivers/CMSIS/Include/cmsis_gcc.h ****   #pragma GCC diagnostic ignored "-Wpacked"
  97:Drivers/CMSIS/Include/cmsis_gcc.h ****   #pragma GCC diagnostic ignored "-Wattributes"
  98:Drivers/CMSIS/Include/cmsis_gcc.h ****   __PACKED_STRUCT T_UINT32_WRITE { uint32_t v; };
  99:Drivers/CMSIS/Include/cmsis_gcc.h ****   #pragma GCC diagnostic pop
 100:Drivers/CMSIS/Include/cmsis_gcc.h ****   #define __UNALIGNED_UINT32_WRITE(addr, val)    (void)((((struct T_UINT32_WRITE *)(void *)(addr))-
 101:Drivers/CMSIS/Include/cmsis_gcc.h **** #endif
 102:Drivers/CMSIS/Include/cmsis_gcc.h **** #ifndef   __UNALIGNED_UINT32_READ
 103:Drivers/CMSIS/Include/cmsis_gcc.h ****   #pragma GCC diagnostic push
 104:Drivers/CMSIS/Include/cmsis_gcc.h ****   #pragma GCC diagnostic ignored "-Wpacked"
 105:Drivers/CMSIS/Include/cmsis_gcc.h ****   #pragma GCC diagnostic ignored "-Wattributes"
 106:Drivers/CMSIS/Include/cmsis_gcc.h ****   __PACKED_STRUCT T_UINT32_READ { uint32_t v; };
 107:Drivers/CMSIS/Include/cmsis_gcc.h ****   #pragma GCC diagnostic pop
 108:Drivers/CMSIS/Include/cmsis_gcc.h ****   #define __UNALIGNED_UINT32_READ(addr)          (((const struct T_UINT32_READ *)(const void *)(add
 109:Drivers/CMSIS/Include/cmsis_gcc.h **** #endif
 110:Drivers/CMSIS/Include/cmsis_gcc.h **** #ifndef   __ALIGNED
 111:Drivers/CMSIS/Include/cmsis_gcc.h ****   #define __ALIGNED(x)                           __attribute__((aligned(x)))
ARM GAS  /var/folders/9y/n02fl3g16gnf7ppy14xghdy80000gn/T//ccRj2FZx.s 			page 20


 112:Drivers/CMSIS/Include/cmsis_gcc.h **** #endif
 113:Drivers/CMSIS/Include/cmsis_gcc.h **** #ifndef   __RESTRICT
 114:Drivers/CMSIS/Include/cmsis_gcc.h ****   #define __RESTRICT                             __restrict
 115:Drivers/CMSIS/Include/cmsis_gcc.h **** #endif
 116:Drivers/CMSIS/Include/cmsis_gcc.h **** #ifndef   __COMPILER_BARRIER
 117:Drivers/CMSIS/Include/cmsis_gcc.h ****   #define __COMPILER_BARRIER()                   __ASM volatile("":::"memory")
 118:Drivers/CMSIS/Include/cmsis_gcc.h **** #endif
 119:Drivers/CMSIS/Include/cmsis_gcc.h **** 
 120:Drivers/CMSIS/Include/cmsis_gcc.h **** /* #########################  Startup and Lowlevel Init  ######################## */
 121:Drivers/CMSIS/Include/cmsis_gcc.h **** 
 122:Drivers/CMSIS/Include/cmsis_gcc.h **** #ifndef __PROGRAM_START
 123:Drivers/CMSIS/Include/cmsis_gcc.h **** 
 124:Drivers/CMSIS/Include/cmsis_gcc.h **** /**
 125:Drivers/CMSIS/Include/cmsis_gcc.h ****   \brief   Initializes data and bss sections
 126:Drivers/CMSIS/Include/cmsis_gcc.h ****   \details This default implementations initialized all data and additional bss
 127:Drivers/CMSIS/Include/cmsis_gcc.h ****            sections relying on .copy.table and .zero.table specified properly
 128:Drivers/CMSIS/Include/cmsis_gcc.h ****            in the used linker script.
 129:Drivers/CMSIS/Include/cmsis_gcc.h ****   
 130:Drivers/CMSIS/Include/cmsis_gcc.h ****  */
 131:Drivers/CMSIS/Include/cmsis_gcc.h **** __STATIC_FORCEINLINE __NO_RETURN void __cmsis_start(void)
 132:Drivers/CMSIS/Include/cmsis_gcc.h **** {
 133:Drivers/CMSIS/Include/cmsis_gcc.h ****   extern void _start(void) __NO_RETURN;
 134:Drivers/CMSIS/Include/cmsis_gcc.h ****   
 135:Drivers/CMSIS/Include/cmsis_gcc.h ****   typedef struct {
 136:Drivers/CMSIS/Include/cmsis_gcc.h ****     uint32_t const* src;
 137:Drivers/CMSIS/Include/cmsis_gcc.h ****     uint32_t* dest;
 138:Drivers/CMSIS/Include/cmsis_gcc.h ****     uint32_t  wlen;
 139:Drivers/CMSIS/Include/cmsis_gcc.h ****   } __copy_table_t;
 140:Drivers/CMSIS/Include/cmsis_gcc.h ****   
 141:Drivers/CMSIS/Include/cmsis_gcc.h ****   typedef struct {
 142:Drivers/CMSIS/Include/cmsis_gcc.h ****     uint32_t* dest;
 143:Drivers/CMSIS/Include/cmsis_gcc.h ****     uint32_t  wlen;
 144:Drivers/CMSIS/Include/cmsis_gcc.h ****   } __zero_table_t;
 145:Drivers/CMSIS/Include/cmsis_gcc.h ****   
 146:Drivers/CMSIS/Include/cmsis_gcc.h ****   extern const __copy_table_t __copy_table_start__;
 147:Drivers/CMSIS/Include/cmsis_gcc.h ****   extern const __copy_table_t __copy_table_end__;
 148:Drivers/CMSIS/Include/cmsis_gcc.h ****   extern const __zero_table_t __zero_table_start__;
 149:Drivers/CMSIS/Include/cmsis_gcc.h ****   extern const __zero_table_t __zero_table_end__;
 150:Drivers/CMSIS/Include/cmsis_gcc.h **** 
 151:Drivers/CMSIS/Include/cmsis_gcc.h ****   for (__copy_table_t const* pTable = &__copy_table_start__; pTable < &__copy_table_end__; ++pTable
 152:Drivers/CMSIS/Include/cmsis_gcc.h ****     for(uint32_t i=0u; i<pTable->wlen; ++i) {
 153:Drivers/CMSIS/Include/cmsis_gcc.h ****       pTable->dest[i] = pTable->src[i];
 154:Drivers/CMSIS/Include/cmsis_gcc.h ****     }
 155:Drivers/CMSIS/Include/cmsis_gcc.h ****   }
 156:Drivers/CMSIS/Include/cmsis_gcc.h ****  
 157:Drivers/CMSIS/Include/cmsis_gcc.h ****   for (__zero_table_t const* pTable = &__zero_table_start__; pTable < &__zero_table_end__; ++pTable
 158:Drivers/CMSIS/Include/cmsis_gcc.h ****     for(uint32_t i=0u; i<pTable->wlen; ++i) {
 159:Drivers/CMSIS/Include/cmsis_gcc.h ****       pTable->dest[i] = 0u;
 160:Drivers/CMSIS/Include/cmsis_gcc.h ****     }
 161:Drivers/CMSIS/Include/cmsis_gcc.h ****   }
 162:Drivers/CMSIS/Include/cmsis_gcc.h ****  
 163:Drivers/CMSIS/Include/cmsis_gcc.h ****   _start();
 164:Drivers/CMSIS/Include/cmsis_gcc.h **** }
 165:Drivers/CMSIS/Include/cmsis_gcc.h ****   
 166:Drivers/CMSIS/Include/cmsis_gcc.h **** #define __PROGRAM_START           __cmsis_start
 167:Drivers/CMSIS/Include/cmsis_gcc.h **** #endif
 168:Drivers/CMSIS/Include/cmsis_gcc.h **** 
ARM GAS  /var/folders/9y/n02fl3g16gnf7ppy14xghdy80000gn/T//ccRj2FZx.s 			page 21


 169:Drivers/CMSIS/Include/cmsis_gcc.h **** #ifndef __INITIAL_SP
 170:Drivers/CMSIS/Include/cmsis_gcc.h **** #define __INITIAL_SP              __StackTop
 171:Drivers/CMSIS/Include/cmsis_gcc.h **** #endif
 172:Drivers/CMSIS/Include/cmsis_gcc.h **** 
 173:Drivers/CMSIS/Include/cmsis_gcc.h **** #ifndef __STACK_LIMIT
 174:Drivers/CMSIS/Include/cmsis_gcc.h **** #define __STACK_LIMIT             __StackLimit
 175:Drivers/CMSIS/Include/cmsis_gcc.h **** #endif
 176:Drivers/CMSIS/Include/cmsis_gcc.h **** 
 177:Drivers/CMSIS/Include/cmsis_gcc.h **** #ifndef __VECTOR_TABLE
 178:Drivers/CMSIS/Include/cmsis_gcc.h **** #define __VECTOR_TABLE            __Vectors
 179:Drivers/CMSIS/Include/cmsis_gcc.h **** #endif
 180:Drivers/CMSIS/Include/cmsis_gcc.h **** 
 181:Drivers/CMSIS/Include/cmsis_gcc.h **** #ifndef __VECTOR_TABLE_ATTRIBUTE
 182:Drivers/CMSIS/Include/cmsis_gcc.h **** #define __VECTOR_TABLE_ATTRIBUTE  __attribute((used, section(".vectors")))
 183:Drivers/CMSIS/Include/cmsis_gcc.h **** #endif
 184:Drivers/CMSIS/Include/cmsis_gcc.h **** 
 185:Drivers/CMSIS/Include/cmsis_gcc.h **** /* ###########################  Core Function Access  ########################### */
 186:Drivers/CMSIS/Include/cmsis_gcc.h **** /** \ingroup  CMSIS_Core_FunctionInterface
 187:Drivers/CMSIS/Include/cmsis_gcc.h ****     \defgroup CMSIS_Core_RegAccFunctions CMSIS Core Register Access Functions
 188:Drivers/CMSIS/Include/cmsis_gcc.h ****   @{
 189:Drivers/CMSIS/Include/cmsis_gcc.h ****  */
 190:Drivers/CMSIS/Include/cmsis_gcc.h **** 
 191:Drivers/CMSIS/Include/cmsis_gcc.h **** /**
 192:Drivers/CMSIS/Include/cmsis_gcc.h ****   \brief   Enable IRQ Interrupts
 193:Drivers/CMSIS/Include/cmsis_gcc.h ****   \details Enables IRQ interrupts by clearing the I-bit in the CPSR.
 194:Drivers/CMSIS/Include/cmsis_gcc.h ****            Can only be executed in Privileged modes.
 195:Drivers/CMSIS/Include/cmsis_gcc.h ****  */
 196:Drivers/CMSIS/Include/cmsis_gcc.h **** __STATIC_FORCEINLINE void __enable_irq(void)
 197:Drivers/CMSIS/Include/cmsis_gcc.h **** {
 198:Drivers/CMSIS/Include/cmsis_gcc.h ****   __ASM volatile ("cpsie i" : : : "memory");
 199:Drivers/CMSIS/Include/cmsis_gcc.h **** }
 200:Drivers/CMSIS/Include/cmsis_gcc.h **** 
 201:Drivers/CMSIS/Include/cmsis_gcc.h **** 
 202:Drivers/CMSIS/Include/cmsis_gcc.h **** /**
 203:Drivers/CMSIS/Include/cmsis_gcc.h ****   \brief   Disable IRQ Interrupts
 204:Drivers/CMSIS/Include/cmsis_gcc.h ****   \details Disables IRQ interrupts by setting the I-bit in the CPSR.
 205:Drivers/CMSIS/Include/cmsis_gcc.h ****            Can only be executed in Privileged modes.
 206:Drivers/CMSIS/Include/cmsis_gcc.h ****  */
 207:Drivers/CMSIS/Include/cmsis_gcc.h **** __STATIC_FORCEINLINE void __disable_irq(void)
 208:Drivers/CMSIS/Include/cmsis_gcc.h **** {
 209:Drivers/CMSIS/Include/cmsis_gcc.h ****   __ASM volatile ("cpsid i" : : : "memory");
 210:Drivers/CMSIS/Include/cmsis_gcc.h **** }
 211:Drivers/CMSIS/Include/cmsis_gcc.h **** 
 212:Drivers/CMSIS/Include/cmsis_gcc.h **** 
 213:Drivers/CMSIS/Include/cmsis_gcc.h **** /**
 214:Drivers/CMSIS/Include/cmsis_gcc.h ****   \brief   Get Control Register
 215:Drivers/CMSIS/Include/cmsis_gcc.h ****   \details Returns the content of the Control Register.
 216:Drivers/CMSIS/Include/cmsis_gcc.h ****   \return               Control Register value
 217:Drivers/CMSIS/Include/cmsis_gcc.h ****  */
 218:Drivers/CMSIS/Include/cmsis_gcc.h **** __STATIC_FORCEINLINE uint32_t __get_CONTROL(void)
 219:Drivers/CMSIS/Include/cmsis_gcc.h **** {
 220:Drivers/CMSIS/Include/cmsis_gcc.h ****   uint32_t result;
 221:Drivers/CMSIS/Include/cmsis_gcc.h **** 
 222:Drivers/CMSIS/Include/cmsis_gcc.h ****   __ASM volatile ("MRS %0, control" : "=r" (result) );
 223:Drivers/CMSIS/Include/cmsis_gcc.h ****   return(result);
 224:Drivers/CMSIS/Include/cmsis_gcc.h **** }
 225:Drivers/CMSIS/Include/cmsis_gcc.h **** 
ARM GAS  /var/folders/9y/n02fl3g16gnf7ppy14xghdy80000gn/T//ccRj2FZx.s 			page 22


 226:Drivers/CMSIS/Include/cmsis_gcc.h **** 
 227:Drivers/CMSIS/Include/cmsis_gcc.h **** #if (defined (__ARM_FEATURE_CMSE ) && (__ARM_FEATURE_CMSE == 3))
 228:Drivers/CMSIS/Include/cmsis_gcc.h **** /**
 229:Drivers/CMSIS/Include/cmsis_gcc.h ****   \brief   Get Control Register (non-secure)
 230:Drivers/CMSIS/Include/cmsis_gcc.h ****   \details Returns the content of the non-secure Control Register when in secure mode.
 231:Drivers/CMSIS/Include/cmsis_gcc.h ****   \return               non-secure Control Register value
 232:Drivers/CMSIS/Include/cmsis_gcc.h ****  */
 233:Drivers/CMSIS/Include/cmsis_gcc.h **** __STATIC_FORCEINLINE uint32_t __TZ_get_CONTROL_NS(void)
 234:Drivers/CMSIS/Include/cmsis_gcc.h **** {
 235:Drivers/CMSIS/Include/cmsis_gcc.h ****   uint32_t result;
 236:Drivers/CMSIS/Include/cmsis_gcc.h **** 
 237:Drivers/CMSIS/Include/cmsis_gcc.h ****   __ASM volatile ("MRS %0, control_ns" : "=r" (result) );
 238:Drivers/CMSIS/Include/cmsis_gcc.h ****   return(result);
 239:Drivers/CMSIS/Include/cmsis_gcc.h **** }
 240:Drivers/CMSIS/Include/cmsis_gcc.h **** #endif
 241:Drivers/CMSIS/Include/cmsis_gcc.h **** 
 242:Drivers/CMSIS/Include/cmsis_gcc.h **** 
 243:Drivers/CMSIS/Include/cmsis_gcc.h **** /**
 244:Drivers/CMSIS/Include/cmsis_gcc.h ****   \brief   Set Control Register
 245:Drivers/CMSIS/Include/cmsis_gcc.h ****   \details Writes the given value to the Control Register.
 246:Drivers/CMSIS/Include/cmsis_gcc.h ****   \param [in]    control  Control Register value to set
 247:Drivers/CMSIS/Include/cmsis_gcc.h ****  */
 248:Drivers/CMSIS/Include/cmsis_gcc.h **** __STATIC_FORCEINLINE void __set_CONTROL(uint32_t control)
 249:Drivers/CMSIS/Include/cmsis_gcc.h **** {
 250:Drivers/CMSIS/Include/cmsis_gcc.h ****   __ASM volatile ("MSR control, %0" : : "r" (control) : "memory");
 251:Drivers/CMSIS/Include/cmsis_gcc.h **** }
 252:Drivers/CMSIS/Include/cmsis_gcc.h **** 
 253:Drivers/CMSIS/Include/cmsis_gcc.h **** 
 254:Drivers/CMSIS/Include/cmsis_gcc.h **** #if (defined (__ARM_FEATURE_CMSE ) && (__ARM_FEATURE_CMSE == 3))
 255:Drivers/CMSIS/Include/cmsis_gcc.h **** /**
 256:Drivers/CMSIS/Include/cmsis_gcc.h ****   \brief   Set Control Register (non-secure)
 257:Drivers/CMSIS/Include/cmsis_gcc.h ****   \details Writes the given value to the non-secure Control Register when in secure state.
 258:Drivers/CMSIS/Include/cmsis_gcc.h ****   \param [in]    control  Control Register value to set
 259:Drivers/CMSIS/Include/cmsis_gcc.h ****  */
 260:Drivers/CMSIS/Include/cmsis_gcc.h **** __STATIC_FORCEINLINE void __TZ_set_CONTROL_NS(uint32_t control)
 261:Drivers/CMSIS/Include/cmsis_gcc.h **** {
 262:Drivers/CMSIS/Include/cmsis_gcc.h ****   __ASM volatile ("MSR control_ns, %0" : : "r" (control) : "memory");
 263:Drivers/CMSIS/Include/cmsis_gcc.h **** }
 264:Drivers/CMSIS/Include/cmsis_gcc.h **** #endif
 265:Drivers/CMSIS/Include/cmsis_gcc.h **** 
 266:Drivers/CMSIS/Include/cmsis_gcc.h **** 
 267:Drivers/CMSIS/Include/cmsis_gcc.h **** /**
 268:Drivers/CMSIS/Include/cmsis_gcc.h ****   \brief   Get IPSR Register
 269:Drivers/CMSIS/Include/cmsis_gcc.h ****   \details Returns the content of the IPSR Register.
 270:Drivers/CMSIS/Include/cmsis_gcc.h ****   \return               IPSR Register value
 271:Drivers/CMSIS/Include/cmsis_gcc.h ****  */
 272:Drivers/CMSIS/Include/cmsis_gcc.h **** __STATIC_FORCEINLINE uint32_t __get_IPSR(void)
 273:Drivers/CMSIS/Include/cmsis_gcc.h **** {
 274:Drivers/CMSIS/Include/cmsis_gcc.h ****   uint32_t result;
 275:Drivers/CMSIS/Include/cmsis_gcc.h **** 
 276:Drivers/CMSIS/Include/cmsis_gcc.h ****   __ASM volatile ("MRS %0, ipsr" : "=r" (result) );
 277:Drivers/CMSIS/Include/cmsis_gcc.h ****   return(result);
 278:Drivers/CMSIS/Include/cmsis_gcc.h **** }
 279:Drivers/CMSIS/Include/cmsis_gcc.h **** 
 280:Drivers/CMSIS/Include/cmsis_gcc.h **** 
 281:Drivers/CMSIS/Include/cmsis_gcc.h **** /**
 282:Drivers/CMSIS/Include/cmsis_gcc.h ****   \brief   Get APSR Register
ARM GAS  /var/folders/9y/n02fl3g16gnf7ppy14xghdy80000gn/T//ccRj2FZx.s 			page 23


 283:Drivers/CMSIS/Include/cmsis_gcc.h ****   \details Returns the content of the APSR Register.
 284:Drivers/CMSIS/Include/cmsis_gcc.h ****   \return               APSR Register value
 285:Drivers/CMSIS/Include/cmsis_gcc.h ****  */
 286:Drivers/CMSIS/Include/cmsis_gcc.h **** __STATIC_FORCEINLINE uint32_t __get_APSR(void)
 287:Drivers/CMSIS/Include/cmsis_gcc.h **** {
 288:Drivers/CMSIS/Include/cmsis_gcc.h ****   uint32_t result;
 289:Drivers/CMSIS/Include/cmsis_gcc.h **** 
 290:Drivers/CMSIS/Include/cmsis_gcc.h ****   __ASM volatile ("MRS %0, apsr" : "=r" (result) );
 291:Drivers/CMSIS/Include/cmsis_gcc.h ****   return(result);
 292:Drivers/CMSIS/Include/cmsis_gcc.h **** }
 293:Drivers/CMSIS/Include/cmsis_gcc.h **** 
 294:Drivers/CMSIS/Include/cmsis_gcc.h **** 
 295:Drivers/CMSIS/Include/cmsis_gcc.h **** /**
 296:Drivers/CMSIS/Include/cmsis_gcc.h ****   \brief   Get xPSR Register
 297:Drivers/CMSIS/Include/cmsis_gcc.h ****   \details Returns the content of the xPSR Register.
 298:Drivers/CMSIS/Include/cmsis_gcc.h ****   \return               xPSR Register value
 299:Drivers/CMSIS/Include/cmsis_gcc.h ****  */
 300:Drivers/CMSIS/Include/cmsis_gcc.h **** __STATIC_FORCEINLINE uint32_t __get_xPSR(void)
 301:Drivers/CMSIS/Include/cmsis_gcc.h **** {
 302:Drivers/CMSIS/Include/cmsis_gcc.h ****   uint32_t result;
 303:Drivers/CMSIS/Include/cmsis_gcc.h **** 
 304:Drivers/CMSIS/Include/cmsis_gcc.h ****   __ASM volatile ("MRS %0, xpsr" : "=r" (result) );
 305:Drivers/CMSIS/Include/cmsis_gcc.h ****   return(result);
 306:Drivers/CMSIS/Include/cmsis_gcc.h **** }
 307:Drivers/CMSIS/Include/cmsis_gcc.h **** 
 308:Drivers/CMSIS/Include/cmsis_gcc.h **** 
 309:Drivers/CMSIS/Include/cmsis_gcc.h **** /**
 310:Drivers/CMSIS/Include/cmsis_gcc.h ****   \brief   Get Process Stack Pointer
 311:Drivers/CMSIS/Include/cmsis_gcc.h ****   \details Returns the current value of the Process Stack Pointer (PSP).
 312:Drivers/CMSIS/Include/cmsis_gcc.h ****   \return               PSP Register value
 313:Drivers/CMSIS/Include/cmsis_gcc.h ****  */
 314:Drivers/CMSIS/Include/cmsis_gcc.h **** __STATIC_FORCEINLINE uint32_t __get_PSP(void)
 315:Drivers/CMSIS/Include/cmsis_gcc.h **** {
 316:Drivers/CMSIS/Include/cmsis_gcc.h ****   uint32_t result;
 317:Drivers/CMSIS/Include/cmsis_gcc.h **** 
 318:Drivers/CMSIS/Include/cmsis_gcc.h ****   __ASM volatile ("MRS %0, psp"  : "=r" (result) );
 319:Drivers/CMSIS/Include/cmsis_gcc.h ****   return(result);
 320:Drivers/CMSIS/Include/cmsis_gcc.h **** }
 321:Drivers/CMSIS/Include/cmsis_gcc.h **** 
 322:Drivers/CMSIS/Include/cmsis_gcc.h **** 
 323:Drivers/CMSIS/Include/cmsis_gcc.h **** #if (defined (__ARM_FEATURE_CMSE ) && (__ARM_FEATURE_CMSE == 3))
 324:Drivers/CMSIS/Include/cmsis_gcc.h **** /**
 325:Drivers/CMSIS/Include/cmsis_gcc.h ****   \brief   Get Process Stack Pointer (non-secure)
 326:Drivers/CMSIS/Include/cmsis_gcc.h ****   \details Returns the current value of the non-secure Process Stack Pointer (PSP) when in secure s
 327:Drivers/CMSIS/Include/cmsis_gcc.h ****   \return               PSP Register value
 328:Drivers/CMSIS/Include/cmsis_gcc.h ****  */
 329:Drivers/CMSIS/Include/cmsis_gcc.h **** __STATIC_FORCEINLINE uint32_t __TZ_get_PSP_NS(void)
 330:Drivers/CMSIS/Include/cmsis_gcc.h **** {
 331:Drivers/CMSIS/Include/cmsis_gcc.h ****   uint32_t result;
 332:Drivers/CMSIS/Include/cmsis_gcc.h **** 
 333:Drivers/CMSIS/Include/cmsis_gcc.h ****   __ASM volatile ("MRS %0, psp_ns"  : "=r" (result) );
 334:Drivers/CMSIS/Include/cmsis_gcc.h ****   return(result);
 335:Drivers/CMSIS/Include/cmsis_gcc.h **** }
 336:Drivers/CMSIS/Include/cmsis_gcc.h **** #endif
 337:Drivers/CMSIS/Include/cmsis_gcc.h **** 
 338:Drivers/CMSIS/Include/cmsis_gcc.h **** 
 339:Drivers/CMSIS/Include/cmsis_gcc.h **** /**
ARM GAS  /var/folders/9y/n02fl3g16gnf7ppy14xghdy80000gn/T//ccRj2FZx.s 			page 24


 340:Drivers/CMSIS/Include/cmsis_gcc.h ****   \brief   Set Process Stack Pointer
 341:Drivers/CMSIS/Include/cmsis_gcc.h ****   \details Assigns the given value to the Process Stack Pointer (PSP).
 342:Drivers/CMSIS/Include/cmsis_gcc.h ****   \param [in]    topOfProcStack  Process Stack Pointer value to set
 343:Drivers/CMSIS/Include/cmsis_gcc.h ****  */
 344:Drivers/CMSIS/Include/cmsis_gcc.h **** __STATIC_FORCEINLINE void __set_PSP(uint32_t topOfProcStack)
 345:Drivers/CMSIS/Include/cmsis_gcc.h **** {
 346:Drivers/CMSIS/Include/cmsis_gcc.h ****   __ASM volatile ("MSR psp, %0" : : "r" (topOfProcStack) : );
 347:Drivers/CMSIS/Include/cmsis_gcc.h **** }
 348:Drivers/CMSIS/Include/cmsis_gcc.h **** 
 349:Drivers/CMSIS/Include/cmsis_gcc.h **** 
 350:Drivers/CMSIS/Include/cmsis_gcc.h **** #if (defined (__ARM_FEATURE_CMSE ) && (__ARM_FEATURE_CMSE == 3))
 351:Drivers/CMSIS/Include/cmsis_gcc.h **** /**
 352:Drivers/CMSIS/Include/cmsis_gcc.h ****   \brief   Set Process Stack Pointer (non-secure)
 353:Drivers/CMSIS/Include/cmsis_gcc.h ****   \details Assigns the given value to the non-secure Process Stack Pointer (PSP) when in secure sta
 354:Drivers/CMSIS/Include/cmsis_gcc.h ****   \param [in]    topOfProcStack  Process Stack Pointer value to set
 355:Drivers/CMSIS/Include/cmsis_gcc.h ****  */
 356:Drivers/CMSIS/Include/cmsis_gcc.h **** __STATIC_FORCEINLINE void __TZ_set_PSP_NS(uint32_t topOfProcStack)
 357:Drivers/CMSIS/Include/cmsis_gcc.h **** {
 358:Drivers/CMSIS/Include/cmsis_gcc.h ****   __ASM volatile ("MSR psp_ns, %0" : : "r" (topOfProcStack) : );
 359:Drivers/CMSIS/Include/cmsis_gcc.h **** }
 360:Drivers/CMSIS/Include/cmsis_gcc.h **** #endif
 361:Drivers/CMSIS/Include/cmsis_gcc.h **** 
 362:Drivers/CMSIS/Include/cmsis_gcc.h **** 
 363:Drivers/CMSIS/Include/cmsis_gcc.h **** /**
 364:Drivers/CMSIS/Include/cmsis_gcc.h ****   \brief   Get Main Stack Pointer
 365:Drivers/CMSIS/Include/cmsis_gcc.h ****   \details Returns the current value of the Main Stack Pointer (MSP).
 366:Drivers/CMSIS/Include/cmsis_gcc.h ****   \return               MSP Register value
 367:Drivers/CMSIS/Include/cmsis_gcc.h ****  */
 368:Drivers/CMSIS/Include/cmsis_gcc.h **** __STATIC_FORCEINLINE uint32_t __get_MSP(void)
 369:Drivers/CMSIS/Include/cmsis_gcc.h **** {
 370:Drivers/CMSIS/Include/cmsis_gcc.h ****   uint32_t result;
 371:Drivers/CMSIS/Include/cmsis_gcc.h **** 
 372:Drivers/CMSIS/Include/cmsis_gcc.h ****   __ASM volatile ("MRS %0, msp" : "=r" (result) );
 373:Drivers/CMSIS/Include/cmsis_gcc.h ****   return(result);
 374:Drivers/CMSIS/Include/cmsis_gcc.h **** }
 375:Drivers/CMSIS/Include/cmsis_gcc.h **** 
 376:Drivers/CMSIS/Include/cmsis_gcc.h **** 
 377:Drivers/CMSIS/Include/cmsis_gcc.h **** #if (defined (__ARM_FEATURE_CMSE ) && (__ARM_FEATURE_CMSE == 3))
 378:Drivers/CMSIS/Include/cmsis_gcc.h **** /**
 379:Drivers/CMSIS/Include/cmsis_gcc.h ****   \brief   Get Main Stack Pointer (non-secure)
 380:Drivers/CMSIS/Include/cmsis_gcc.h ****   \details Returns the current value of the non-secure Main Stack Pointer (MSP) when in secure stat
 381:Drivers/CMSIS/Include/cmsis_gcc.h ****   \return               MSP Register value
 382:Drivers/CMSIS/Include/cmsis_gcc.h ****  */
 383:Drivers/CMSIS/Include/cmsis_gcc.h **** __STATIC_FORCEINLINE uint32_t __TZ_get_MSP_NS(void)
 384:Drivers/CMSIS/Include/cmsis_gcc.h **** {
 385:Drivers/CMSIS/Include/cmsis_gcc.h ****   uint32_t result;
 386:Drivers/CMSIS/Include/cmsis_gcc.h **** 
 387:Drivers/CMSIS/Include/cmsis_gcc.h ****   __ASM volatile ("MRS %0, msp_ns" : "=r" (result) );
 388:Drivers/CMSIS/Include/cmsis_gcc.h ****   return(result);
 389:Drivers/CMSIS/Include/cmsis_gcc.h **** }
 390:Drivers/CMSIS/Include/cmsis_gcc.h **** #endif
 391:Drivers/CMSIS/Include/cmsis_gcc.h **** 
 392:Drivers/CMSIS/Include/cmsis_gcc.h **** 
 393:Drivers/CMSIS/Include/cmsis_gcc.h **** /**
 394:Drivers/CMSIS/Include/cmsis_gcc.h ****   \brief   Set Main Stack Pointer
 395:Drivers/CMSIS/Include/cmsis_gcc.h ****   \details Assigns the given value to the Main Stack Pointer (MSP).
 396:Drivers/CMSIS/Include/cmsis_gcc.h ****   \param [in]    topOfMainStack  Main Stack Pointer value to set
ARM GAS  /var/folders/9y/n02fl3g16gnf7ppy14xghdy80000gn/T//ccRj2FZx.s 			page 25


 397:Drivers/CMSIS/Include/cmsis_gcc.h ****  */
 398:Drivers/CMSIS/Include/cmsis_gcc.h **** __STATIC_FORCEINLINE void __set_MSP(uint32_t topOfMainStack)
 399:Drivers/CMSIS/Include/cmsis_gcc.h **** {
 400:Drivers/CMSIS/Include/cmsis_gcc.h ****   __ASM volatile ("MSR msp, %0" : : "r" (topOfMainStack) : );
 401:Drivers/CMSIS/Include/cmsis_gcc.h **** }
 402:Drivers/CMSIS/Include/cmsis_gcc.h **** 
 403:Drivers/CMSIS/Include/cmsis_gcc.h **** 
 404:Drivers/CMSIS/Include/cmsis_gcc.h **** #if (defined (__ARM_FEATURE_CMSE ) && (__ARM_FEATURE_CMSE == 3))
 405:Drivers/CMSIS/Include/cmsis_gcc.h **** /**
 406:Drivers/CMSIS/Include/cmsis_gcc.h ****   \brief   Set Main Stack Pointer (non-secure)
 407:Drivers/CMSIS/Include/cmsis_gcc.h ****   \details Assigns the given value to the non-secure Main Stack Pointer (MSP) when in secure state.
 408:Drivers/CMSIS/Include/cmsis_gcc.h ****   \param [in]    topOfMainStack  Main Stack Pointer value to set
 409:Drivers/CMSIS/Include/cmsis_gcc.h ****  */
 410:Drivers/CMSIS/Include/cmsis_gcc.h **** __STATIC_FORCEINLINE void __TZ_set_MSP_NS(uint32_t topOfMainStack)
 411:Drivers/CMSIS/Include/cmsis_gcc.h **** {
 412:Drivers/CMSIS/Include/cmsis_gcc.h ****   __ASM volatile ("MSR msp_ns, %0" : : "r" (topOfMainStack) : );
 413:Drivers/CMSIS/Include/cmsis_gcc.h **** }
 414:Drivers/CMSIS/Include/cmsis_gcc.h **** #endif
 415:Drivers/CMSIS/Include/cmsis_gcc.h **** 
 416:Drivers/CMSIS/Include/cmsis_gcc.h **** 
 417:Drivers/CMSIS/Include/cmsis_gcc.h **** #if (defined (__ARM_FEATURE_CMSE ) && (__ARM_FEATURE_CMSE == 3))
 418:Drivers/CMSIS/Include/cmsis_gcc.h **** /**
 419:Drivers/CMSIS/Include/cmsis_gcc.h ****   \brief   Get Stack Pointer (non-secure)
 420:Drivers/CMSIS/Include/cmsis_gcc.h ****   \details Returns the current value of the non-secure Stack Pointer (SP) when in secure state.
 421:Drivers/CMSIS/Include/cmsis_gcc.h ****   \return               SP Register value
 422:Drivers/CMSIS/Include/cmsis_gcc.h ****  */
 423:Drivers/CMSIS/Include/cmsis_gcc.h **** __STATIC_FORCEINLINE uint32_t __TZ_get_SP_NS(void)
 424:Drivers/CMSIS/Include/cmsis_gcc.h **** {
 425:Drivers/CMSIS/Include/cmsis_gcc.h ****   uint32_t result;
 426:Drivers/CMSIS/Include/cmsis_gcc.h **** 
 427:Drivers/CMSIS/Include/cmsis_gcc.h ****   __ASM volatile ("MRS %0, sp_ns" : "=r" (result) );
 428:Drivers/CMSIS/Include/cmsis_gcc.h ****   return(result);
 429:Drivers/CMSIS/Include/cmsis_gcc.h **** }
 430:Drivers/CMSIS/Include/cmsis_gcc.h **** 
 431:Drivers/CMSIS/Include/cmsis_gcc.h **** 
 432:Drivers/CMSIS/Include/cmsis_gcc.h **** /**
 433:Drivers/CMSIS/Include/cmsis_gcc.h ****   \brief   Set Stack Pointer (non-secure)
 434:Drivers/CMSIS/Include/cmsis_gcc.h ****   \details Assigns the given value to the non-secure Stack Pointer (SP) when in secure state.
 435:Drivers/CMSIS/Include/cmsis_gcc.h ****   \param [in]    topOfStack  Stack Pointer value to set
 436:Drivers/CMSIS/Include/cmsis_gcc.h ****  */
 437:Drivers/CMSIS/Include/cmsis_gcc.h **** __STATIC_FORCEINLINE void __TZ_set_SP_NS(uint32_t topOfStack)
 438:Drivers/CMSIS/Include/cmsis_gcc.h **** {
 439:Drivers/CMSIS/Include/cmsis_gcc.h ****   __ASM volatile ("MSR sp_ns, %0" : : "r" (topOfStack) : );
 440:Drivers/CMSIS/Include/cmsis_gcc.h **** }
 441:Drivers/CMSIS/Include/cmsis_gcc.h **** #endif
 442:Drivers/CMSIS/Include/cmsis_gcc.h **** 
 443:Drivers/CMSIS/Include/cmsis_gcc.h **** 
 444:Drivers/CMSIS/Include/cmsis_gcc.h **** /**
 445:Drivers/CMSIS/Include/cmsis_gcc.h ****   \brief   Get Priority Mask
 446:Drivers/CMSIS/Include/cmsis_gcc.h ****   \details Returns the current state of the priority mask bit from the Priority Mask Register.
 447:Drivers/CMSIS/Include/cmsis_gcc.h ****   \return               Priority Mask value
 448:Drivers/CMSIS/Include/cmsis_gcc.h ****  */
 449:Drivers/CMSIS/Include/cmsis_gcc.h **** __STATIC_FORCEINLINE uint32_t __get_PRIMASK(void)
 450:Drivers/CMSIS/Include/cmsis_gcc.h **** {
 451:Drivers/CMSIS/Include/cmsis_gcc.h ****   uint32_t result;
 452:Drivers/CMSIS/Include/cmsis_gcc.h **** 
 453:Drivers/CMSIS/Include/cmsis_gcc.h ****   __ASM volatile ("MRS %0, primask" : "=r" (result) :: "memory");
ARM GAS  /var/folders/9y/n02fl3g16gnf7ppy14xghdy80000gn/T//ccRj2FZx.s 			page 26


 454:Drivers/CMSIS/Include/cmsis_gcc.h ****   return(result);
 455:Drivers/CMSIS/Include/cmsis_gcc.h **** }
 456:Drivers/CMSIS/Include/cmsis_gcc.h **** 
 457:Drivers/CMSIS/Include/cmsis_gcc.h **** 
 458:Drivers/CMSIS/Include/cmsis_gcc.h **** #if (defined (__ARM_FEATURE_CMSE ) && (__ARM_FEATURE_CMSE == 3))
 459:Drivers/CMSIS/Include/cmsis_gcc.h **** /**
 460:Drivers/CMSIS/Include/cmsis_gcc.h ****   \brief   Get Priority Mask (non-secure)
 461:Drivers/CMSIS/Include/cmsis_gcc.h ****   \details Returns the current state of the non-secure priority mask bit from the Priority Mask Reg
 462:Drivers/CMSIS/Include/cmsis_gcc.h ****   \return               Priority Mask value
 463:Drivers/CMSIS/Include/cmsis_gcc.h ****  */
 464:Drivers/CMSIS/Include/cmsis_gcc.h **** __STATIC_FORCEINLINE uint32_t __TZ_get_PRIMASK_NS(void)
 465:Drivers/CMSIS/Include/cmsis_gcc.h **** {
 466:Drivers/CMSIS/Include/cmsis_gcc.h ****   uint32_t result;
 467:Drivers/CMSIS/Include/cmsis_gcc.h **** 
 468:Drivers/CMSIS/Include/cmsis_gcc.h ****   __ASM volatile ("MRS %0, primask_ns" : "=r" (result) :: "memory");
 469:Drivers/CMSIS/Include/cmsis_gcc.h ****   return(result);
 470:Drivers/CMSIS/Include/cmsis_gcc.h **** }
 471:Drivers/CMSIS/Include/cmsis_gcc.h **** #endif
 472:Drivers/CMSIS/Include/cmsis_gcc.h **** 
 473:Drivers/CMSIS/Include/cmsis_gcc.h **** 
 474:Drivers/CMSIS/Include/cmsis_gcc.h **** /**
 475:Drivers/CMSIS/Include/cmsis_gcc.h ****   \brief   Set Priority Mask
 476:Drivers/CMSIS/Include/cmsis_gcc.h ****   \details Assigns the given value to the Priority Mask Register.
 477:Drivers/CMSIS/Include/cmsis_gcc.h ****   \param [in]    priMask  Priority Mask
 478:Drivers/CMSIS/Include/cmsis_gcc.h ****  */
 479:Drivers/CMSIS/Include/cmsis_gcc.h **** __STATIC_FORCEINLINE void __set_PRIMASK(uint32_t priMask)
 480:Drivers/CMSIS/Include/cmsis_gcc.h **** {
 481:Drivers/CMSIS/Include/cmsis_gcc.h ****   __ASM volatile ("MSR primask, %0" : : "r" (priMask) : "memory");
 482:Drivers/CMSIS/Include/cmsis_gcc.h **** }
 483:Drivers/CMSIS/Include/cmsis_gcc.h **** 
 484:Drivers/CMSIS/Include/cmsis_gcc.h **** 
 485:Drivers/CMSIS/Include/cmsis_gcc.h **** #if (defined (__ARM_FEATURE_CMSE ) && (__ARM_FEATURE_CMSE == 3))
 486:Drivers/CMSIS/Include/cmsis_gcc.h **** /**
 487:Drivers/CMSIS/Include/cmsis_gcc.h ****   \brief   Set Priority Mask (non-secure)
 488:Drivers/CMSIS/Include/cmsis_gcc.h ****   \details Assigns the given value to the non-secure Priority Mask Register when in secure state.
 489:Drivers/CMSIS/Include/cmsis_gcc.h ****   \param [in]    priMask  Priority Mask
 490:Drivers/CMSIS/Include/cmsis_gcc.h ****  */
 491:Drivers/CMSIS/Include/cmsis_gcc.h **** __STATIC_FORCEINLINE void __TZ_set_PRIMASK_NS(uint32_t priMask)
 492:Drivers/CMSIS/Include/cmsis_gcc.h **** {
 493:Drivers/CMSIS/Include/cmsis_gcc.h ****   __ASM volatile ("MSR primask_ns, %0" : : "r" (priMask) : "memory");
 494:Drivers/CMSIS/Include/cmsis_gcc.h **** }
 495:Drivers/CMSIS/Include/cmsis_gcc.h **** #endif
 496:Drivers/CMSIS/Include/cmsis_gcc.h **** 
 497:Drivers/CMSIS/Include/cmsis_gcc.h **** 
 498:Drivers/CMSIS/Include/cmsis_gcc.h **** #if ((defined (__ARM_ARCH_7M__      ) && (__ARM_ARCH_7M__      == 1)) || \
 499:Drivers/CMSIS/Include/cmsis_gcc.h ****      (defined (__ARM_ARCH_7EM__     ) && (__ARM_ARCH_7EM__     == 1)) || \
 500:Drivers/CMSIS/Include/cmsis_gcc.h ****      (defined (__ARM_ARCH_8M_MAIN__ ) && (__ARM_ARCH_8M_MAIN__ == 1))    )
 501:Drivers/CMSIS/Include/cmsis_gcc.h **** /**
 502:Drivers/CMSIS/Include/cmsis_gcc.h ****   \brief   Enable FIQ
 503:Drivers/CMSIS/Include/cmsis_gcc.h ****   \details Enables FIQ interrupts by clearing the F-bit in the CPSR.
 504:Drivers/CMSIS/Include/cmsis_gcc.h ****            Can only be executed in Privileged modes.
 505:Drivers/CMSIS/Include/cmsis_gcc.h ****  */
 506:Drivers/CMSIS/Include/cmsis_gcc.h **** __STATIC_FORCEINLINE void __enable_fault_irq(void)
 507:Drivers/CMSIS/Include/cmsis_gcc.h **** {
 508:Drivers/CMSIS/Include/cmsis_gcc.h ****   __ASM volatile ("cpsie f" : : : "memory");
 509:Drivers/CMSIS/Include/cmsis_gcc.h **** }
 510:Drivers/CMSIS/Include/cmsis_gcc.h **** 
ARM GAS  /var/folders/9y/n02fl3g16gnf7ppy14xghdy80000gn/T//ccRj2FZx.s 			page 27


 511:Drivers/CMSIS/Include/cmsis_gcc.h **** 
 512:Drivers/CMSIS/Include/cmsis_gcc.h **** /**
 513:Drivers/CMSIS/Include/cmsis_gcc.h ****   \brief   Disable FIQ
 514:Drivers/CMSIS/Include/cmsis_gcc.h ****   \details Disables FIQ interrupts by setting the F-bit in the CPSR.
 515:Drivers/CMSIS/Include/cmsis_gcc.h ****            Can only be executed in Privileged modes.
 516:Drivers/CMSIS/Include/cmsis_gcc.h ****  */
 517:Drivers/CMSIS/Include/cmsis_gcc.h **** __STATIC_FORCEINLINE void __disable_fault_irq(void)
 518:Drivers/CMSIS/Include/cmsis_gcc.h **** {
 519:Drivers/CMSIS/Include/cmsis_gcc.h ****   __ASM volatile ("cpsid f" : : : "memory");
 520:Drivers/CMSIS/Include/cmsis_gcc.h **** }
 521:Drivers/CMSIS/Include/cmsis_gcc.h **** 
 522:Drivers/CMSIS/Include/cmsis_gcc.h **** 
 523:Drivers/CMSIS/Include/cmsis_gcc.h **** /**
 524:Drivers/CMSIS/Include/cmsis_gcc.h ****   \brief   Get Base Priority
 525:Drivers/CMSIS/Include/cmsis_gcc.h ****   \details Returns the current value of the Base Priority register.
 526:Drivers/CMSIS/Include/cmsis_gcc.h ****   \return               Base Priority register value
 527:Drivers/CMSIS/Include/cmsis_gcc.h ****  */
 528:Drivers/CMSIS/Include/cmsis_gcc.h **** __STATIC_FORCEINLINE uint32_t __get_BASEPRI(void)
 529:Drivers/CMSIS/Include/cmsis_gcc.h **** {
 530:Drivers/CMSIS/Include/cmsis_gcc.h ****   uint32_t result;
 531:Drivers/CMSIS/Include/cmsis_gcc.h **** 
 532:Drivers/CMSIS/Include/cmsis_gcc.h ****   __ASM volatile ("MRS %0, basepri" : "=r" (result) );
 533:Drivers/CMSIS/Include/cmsis_gcc.h ****   return(result);
 534:Drivers/CMSIS/Include/cmsis_gcc.h **** }
 535:Drivers/CMSIS/Include/cmsis_gcc.h **** 
 536:Drivers/CMSIS/Include/cmsis_gcc.h **** 
 537:Drivers/CMSIS/Include/cmsis_gcc.h **** #if (defined (__ARM_FEATURE_CMSE ) && (__ARM_FEATURE_CMSE == 3))
 538:Drivers/CMSIS/Include/cmsis_gcc.h **** /**
 539:Drivers/CMSIS/Include/cmsis_gcc.h ****   \brief   Get Base Priority (non-secure)
 540:Drivers/CMSIS/Include/cmsis_gcc.h ****   \details Returns the current value of the non-secure Base Priority register when in secure state.
 541:Drivers/CMSIS/Include/cmsis_gcc.h ****   \return               Base Priority register value
 542:Drivers/CMSIS/Include/cmsis_gcc.h ****  */
 543:Drivers/CMSIS/Include/cmsis_gcc.h **** __STATIC_FORCEINLINE uint32_t __TZ_get_BASEPRI_NS(void)
 544:Drivers/CMSIS/Include/cmsis_gcc.h **** {
 545:Drivers/CMSIS/Include/cmsis_gcc.h ****   uint32_t result;
 546:Drivers/CMSIS/Include/cmsis_gcc.h **** 
 547:Drivers/CMSIS/Include/cmsis_gcc.h ****   __ASM volatile ("MRS %0, basepri_ns" : "=r" (result) );
 548:Drivers/CMSIS/Include/cmsis_gcc.h ****   return(result);
 549:Drivers/CMSIS/Include/cmsis_gcc.h **** }
 550:Drivers/CMSIS/Include/cmsis_gcc.h **** #endif
 551:Drivers/CMSIS/Include/cmsis_gcc.h **** 
 552:Drivers/CMSIS/Include/cmsis_gcc.h **** 
 553:Drivers/CMSIS/Include/cmsis_gcc.h **** /**
 554:Drivers/CMSIS/Include/cmsis_gcc.h ****   \brief   Set Base Priority
 555:Drivers/CMSIS/Include/cmsis_gcc.h ****   \details Assigns the given value to the Base Priority register.
 556:Drivers/CMSIS/Include/cmsis_gcc.h ****   \param [in]    basePri  Base Priority value to set
 557:Drivers/CMSIS/Include/cmsis_gcc.h ****  */
 558:Drivers/CMSIS/Include/cmsis_gcc.h **** __STATIC_FORCEINLINE void __set_BASEPRI(uint32_t basePri)
 559:Drivers/CMSIS/Include/cmsis_gcc.h **** {
 560:Drivers/CMSIS/Include/cmsis_gcc.h ****   __ASM volatile ("MSR basepri, %0" : : "r" (basePri) : "memory");
 561:Drivers/CMSIS/Include/cmsis_gcc.h **** }
 562:Drivers/CMSIS/Include/cmsis_gcc.h **** 
 563:Drivers/CMSIS/Include/cmsis_gcc.h **** 
 564:Drivers/CMSIS/Include/cmsis_gcc.h **** #if (defined (__ARM_FEATURE_CMSE ) && (__ARM_FEATURE_CMSE == 3))
 565:Drivers/CMSIS/Include/cmsis_gcc.h **** /**
 566:Drivers/CMSIS/Include/cmsis_gcc.h ****   \brief   Set Base Priority (non-secure)
 567:Drivers/CMSIS/Include/cmsis_gcc.h ****   \details Assigns the given value to the non-secure Base Priority register when in secure state.
ARM GAS  /var/folders/9y/n02fl3g16gnf7ppy14xghdy80000gn/T//ccRj2FZx.s 			page 28


 568:Drivers/CMSIS/Include/cmsis_gcc.h ****   \param [in]    basePri  Base Priority value to set
 569:Drivers/CMSIS/Include/cmsis_gcc.h ****  */
 570:Drivers/CMSIS/Include/cmsis_gcc.h **** __STATIC_FORCEINLINE void __TZ_set_BASEPRI_NS(uint32_t basePri)
 571:Drivers/CMSIS/Include/cmsis_gcc.h **** {
 572:Drivers/CMSIS/Include/cmsis_gcc.h ****   __ASM volatile ("MSR basepri_ns, %0" : : "r" (basePri) : "memory");
 573:Drivers/CMSIS/Include/cmsis_gcc.h **** }
 574:Drivers/CMSIS/Include/cmsis_gcc.h **** #endif
 575:Drivers/CMSIS/Include/cmsis_gcc.h **** 
 576:Drivers/CMSIS/Include/cmsis_gcc.h **** 
 577:Drivers/CMSIS/Include/cmsis_gcc.h **** /**
 578:Drivers/CMSIS/Include/cmsis_gcc.h ****   \brief   Set Base Priority with condition
 579:Drivers/CMSIS/Include/cmsis_gcc.h ****   \details Assigns the given value to the Base Priority register only if BASEPRI masking is disable
 580:Drivers/CMSIS/Include/cmsis_gcc.h ****            or the new value increases the BASEPRI priority level.
 581:Drivers/CMSIS/Include/cmsis_gcc.h ****   \param [in]    basePri  Base Priority value to set
 582:Drivers/CMSIS/Include/cmsis_gcc.h ****  */
 583:Drivers/CMSIS/Include/cmsis_gcc.h **** __STATIC_FORCEINLINE void __set_BASEPRI_MAX(uint32_t basePri)
 584:Drivers/CMSIS/Include/cmsis_gcc.h **** {
 585:Drivers/CMSIS/Include/cmsis_gcc.h ****   __ASM volatile ("MSR basepri_max, %0" : : "r" (basePri) : "memory");
 586:Drivers/CMSIS/Include/cmsis_gcc.h **** }
 587:Drivers/CMSIS/Include/cmsis_gcc.h **** 
 588:Drivers/CMSIS/Include/cmsis_gcc.h **** 
 589:Drivers/CMSIS/Include/cmsis_gcc.h **** /**
 590:Drivers/CMSIS/Include/cmsis_gcc.h ****   \brief   Get Fault Mask
 591:Drivers/CMSIS/Include/cmsis_gcc.h ****   \details Returns the current value of the Fault Mask register.
 592:Drivers/CMSIS/Include/cmsis_gcc.h ****   \return               Fault Mask register value
 593:Drivers/CMSIS/Include/cmsis_gcc.h ****  */
 594:Drivers/CMSIS/Include/cmsis_gcc.h **** __STATIC_FORCEINLINE uint32_t __get_FAULTMASK(void)
 595:Drivers/CMSIS/Include/cmsis_gcc.h **** {
 596:Drivers/CMSIS/Include/cmsis_gcc.h ****   uint32_t result;
 597:Drivers/CMSIS/Include/cmsis_gcc.h **** 
 598:Drivers/CMSIS/Include/cmsis_gcc.h ****   __ASM volatile ("MRS %0, faultmask" : "=r" (result) );
 599:Drivers/CMSIS/Include/cmsis_gcc.h ****   return(result);
 600:Drivers/CMSIS/Include/cmsis_gcc.h **** }
 601:Drivers/CMSIS/Include/cmsis_gcc.h **** 
 602:Drivers/CMSIS/Include/cmsis_gcc.h **** 
 603:Drivers/CMSIS/Include/cmsis_gcc.h **** #if (defined (__ARM_FEATURE_CMSE ) && (__ARM_FEATURE_CMSE == 3))
 604:Drivers/CMSIS/Include/cmsis_gcc.h **** /**
 605:Drivers/CMSIS/Include/cmsis_gcc.h ****   \brief   Get Fault Mask (non-secure)
 606:Drivers/CMSIS/Include/cmsis_gcc.h ****   \details Returns the current value of the non-secure Fault Mask register when in secure state.
 607:Drivers/CMSIS/Include/cmsis_gcc.h ****   \return               Fault Mask register value
 608:Drivers/CMSIS/Include/cmsis_gcc.h ****  */
 609:Drivers/CMSIS/Include/cmsis_gcc.h **** __STATIC_FORCEINLINE uint32_t __TZ_get_FAULTMASK_NS(void)
 610:Drivers/CMSIS/Include/cmsis_gcc.h **** {
 611:Drivers/CMSIS/Include/cmsis_gcc.h ****   uint32_t result;
 612:Drivers/CMSIS/Include/cmsis_gcc.h **** 
 613:Drivers/CMSIS/Include/cmsis_gcc.h ****   __ASM volatile ("MRS %0, faultmask_ns" : "=r" (result) );
 614:Drivers/CMSIS/Include/cmsis_gcc.h ****   return(result);
 615:Drivers/CMSIS/Include/cmsis_gcc.h **** }
 616:Drivers/CMSIS/Include/cmsis_gcc.h **** #endif
 617:Drivers/CMSIS/Include/cmsis_gcc.h **** 
 618:Drivers/CMSIS/Include/cmsis_gcc.h **** 
 619:Drivers/CMSIS/Include/cmsis_gcc.h **** /**
 620:Drivers/CMSIS/Include/cmsis_gcc.h ****   \brief   Set Fault Mask
 621:Drivers/CMSIS/Include/cmsis_gcc.h ****   \details Assigns the given value to the Fault Mask register.
 622:Drivers/CMSIS/Include/cmsis_gcc.h ****   \param [in]    faultMask  Fault Mask value to set
 623:Drivers/CMSIS/Include/cmsis_gcc.h ****  */
 624:Drivers/CMSIS/Include/cmsis_gcc.h **** __STATIC_FORCEINLINE void __set_FAULTMASK(uint32_t faultMask)
ARM GAS  /var/folders/9y/n02fl3g16gnf7ppy14xghdy80000gn/T//ccRj2FZx.s 			page 29


 625:Drivers/CMSIS/Include/cmsis_gcc.h **** {
 626:Drivers/CMSIS/Include/cmsis_gcc.h ****   __ASM volatile ("MSR faultmask, %0" : : "r" (faultMask) : "memory");
 627:Drivers/CMSIS/Include/cmsis_gcc.h **** }
 628:Drivers/CMSIS/Include/cmsis_gcc.h **** 
 629:Drivers/CMSIS/Include/cmsis_gcc.h **** 
 630:Drivers/CMSIS/Include/cmsis_gcc.h **** #if (defined (__ARM_FEATURE_CMSE ) && (__ARM_FEATURE_CMSE == 3))
 631:Drivers/CMSIS/Include/cmsis_gcc.h **** /**
 632:Drivers/CMSIS/Include/cmsis_gcc.h ****   \brief   Set Fault Mask (non-secure)
 633:Drivers/CMSIS/Include/cmsis_gcc.h ****   \details Assigns the given value to the non-secure Fault Mask register when in secure state.
 634:Drivers/CMSIS/Include/cmsis_gcc.h ****   \param [in]    faultMask  Fault Mask value to set
 635:Drivers/CMSIS/Include/cmsis_gcc.h ****  */
 636:Drivers/CMSIS/Include/cmsis_gcc.h **** __STATIC_FORCEINLINE void __TZ_set_FAULTMASK_NS(uint32_t faultMask)
 637:Drivers/CMSIS/Include/cmsis_gcc.h **** {
 638:Drivers/CMSIS/Include/cmsis_gcc.h ****   __ASM volatile ("MSR faultmask_ns, %0" : : "r" (faultMask) : "memory");
 639:Drivers/CMSIS/Include/cmsis_gcc.h **** }
 640:Drivers/CMSIS/Include/cmsis_gcc.h **** #endif
 641:Drivers/CMSIS/Include/cmsis_gcc.h **** 
 642:Drivers/CMSIS/Include/cmsis_gcc.h **** #endif /* ((defined (__ARM_ARCH_7M__      ) && (__ARM_ARCH_7M__      == 1)) || \
 643:Drivers/CMSIS/Include/cmsis_gcc.h ****            (defined (__ARM_ARCH_7EM__     ) && (__ARM_ARCH_7EM__     == 1)) || \
 644:Drivers/CMSIS/Include/cmsis_gcc.h ****            (defined (__ARM_ARCH_8M_MAIN__ ) && (__ARM_ARCH_8M_MAIN__ == 1))    ) */
 645:Drivers/CMSIS/Include/cmsis_gcc.h **** 
 646:Drivers/CMSIS/Include/cmsis_gcc.h **** 
 647:Drivers/CMSIS/Include/cmsis_gcc.h **** #if ((defined (__ARM_ARCH_8M_MAIN__ ) && (__ARM_ARCH_8M_MAIN__ == 1)) || \
 648:Drivers/CMSIS/Include/cmsis_gcc.h ****      (defined (__ARM_ARCH_8M_BASE__ ) && (__ARM_ARCH_8M_BASE__ == 1))    )
 649:Drivers/CMSIS/Include/cmsis_gcc.h **** 
 650:Drivers/CMSIS/Include/cmsis_gcc.h **** /**
 651:Drivers/CMSIS/Include/cmsis_gcc.h ****   \brief   Get Process Stack Pointer Limit
 652:Drivers/CMSIS/Include/cmsis_gcc.h ****   Devices without ARMv8-M Main Extensions (i.e. Cortex-M23) lack the non-secure
 653:Drivers/CMSIS/Include/cmsis_gcc.h ****   Stack Pointer Limit register hence zero is returned always in non-secure
 654:Drivers/CMSIS/Include/cmsis_gcc.h ****   mode.
 655:Drivers/CMSIS/Include/cmsis_gcc.h ****   
 656:Drivers/CMSIS/Include/cmsis_gcc.h ****   \details Returns the current value of the Process Stack Pointer Limit (PSPLIM).
 657:Drivers/CMSIS/Include/cmsis_gcc.h ****   \return               PSPLIM Register value
 658:Drivers/CMSIS/Include/cmsis_gcc.h ****  */
 659:Drivers/CMSIS/Include/cmsis_gcc.h **** __STATIC_FORCEINLINE uint32_t __get_PSPLIM(void)
 660:Drivers/CMSIS/Include/cmsis_gcc.h **** {
 661:Drivers/CMSIS/Include/cmsis_gcc.h **** #if (!(defined (__ARM_ARCH_8M_MAIN__ ) && (__ARM_ARCH_8M_MAIN__ == 1)) && \
 662:Drivers/CMSIS/Include/cmsis_gcc.h ****     (!defined (__ARM_FEATURE_CMSE) || (__ARM_FEATURE_CMSE < 3)))
 663:Drivers/CMSIS/Include/cmsis_gcc.h ****     // without main extensions, the non-secure PSPLIM is RAZ/WI
 664:Drivers/CMSIS/Include/cmsis_gcc.h ****   return 0U;
 665:Drivers/CMSIS/Include/cmsis_gcc.h **** #else
 666:Drivers/CMSIS/Include/cmsis_gcc.h ****   uint32_t result;
 667:Drivers/CMSIS/Include/cmsis_gcc.h ****   __ASM volatile ("MRS %0, psplim"  : "=r" (result) );
 668:Drivers/CMSIS/Include/cmsis_gcc.h ****   return result;
 669:Drivers/CMSIS/Include/cmsis_gcc.h **** #endif
 670:Drivers/CMSIS/Include/cmsis_gcc.h **** }
 671:Drivers/CMSIS/Include/cmsis_gcc.h **** 
 672:Drivers/CMSIS/Include/cmsis_gcc.h **** #if (defined (__ARM_FEATURE_CMSE) && (__ARM_FEATURE_CMSE == 3))
 673:Drivers/CMSIS/Include/cmsis_gcc.h **** /**
 674:Drivers/CMSIS/Include/cmsis_gcc.h ****   \brief   Get Process Stack Pointer Limit (non-secure)
 675:Drivers/CMSIS/Include/cmsis_gcc.h ****   Devices without ARMv8-M Main Extensions (i.e. Cortex-M23) lack the non-secure
 676:Drivers/CMSIS/Include/cmsis_gcc.h ****   Stack Pointer Limit register hence zero is returned always.
 677:Drivers/CMSIS/Include/cmsis_gcc.h **** 
 678:Drivers/CMSIS/Include/cmsis_gcc.h ****   \details Returns the current value of the non-secure Process Stack Pointer Limit (PSPLIM) when in
 679:Drivers/CMSIS/Include/cmsis_gcc.h ****   \return               PSPLIM Register value
 680:Drivers/CMSIS/Include/cmsis_gcc.h ****  */
 681:Drivers/CMSIS/Include/cmsis_gcc.h **** __STATIC_FORCEINLINE uint32_t __TZ_get_PSPLIM_NS(void)
ARM GAS  /var/folders/9y/n02fl3g16gnf7ppy14xghdy80000gn/T//ccRj2FZx.s 			page 30


 682:Drivers/CMSIS/Include/cmsis_gcc.h **** {
 683:Drivers/CMSIS/Include/cmsis_gcc.h **** #if (!(defined (__ARM_ARCH_8M_MAIN__ ) && (__ARM_ARCH_8M_MAIN__ == 1)))
 684:Drivers/CMSIS/Include/cmsis_gcc.h ****   // without main extensions, the non-secure PSPLIM is RAZ/WI
 685:Drivers/CMSIS/Include/cmsis_gcc.h ****   return 0U;
 686:Drivers/CMSIS/Include/cmsis_gcc.h **** #else
 687:Drivers/CMSIS/Include/cmsis_gcc.h ****   uint32_t result;
 688:Drivers/CMSIS/Include/cmsis_gcc.h ****   __ASM volatile ("MRS %0, psplim_ns"  : "=r" (result) );
 689:Drivers/CMSIS/Include/cmsis_gcc.h ****   return result;
 690:Drivers/CMSIS/Include/cmsis_gcc.h **** #endif
 691:Drivers/CMSIS/Include/cmsis_gcc.h **** }
 692:Drivers/CMSIS/Include/cmsis_gcc.h **** #endif
 693:Drivers/CMSIS/Include/cmsis_gcc.h **** 
 694:Drivers/CMSIS/Include/cmsis_gcc.h **** 
 695:Drivers/CMSIS/Include/cmsis_gcc.h **** /**
 696:Drivers/CMSIS/Include/cmsis_gcc.h ****   \brief   Set Process Stack Pointer Limit
 697:Drivers/CMSIS/Include/cmsis_gcc.h ****   Devices without ARMv8-M Main Extensions (i.e. Cortex-M23) lack the non-secure
 698:Drivers/CMSIS/Include/cmsis_gcc.h ****   Stack Pointer Limit register hence the write is silently ignored in non-secure
 699:Drivers/CMSIS/Include/cmsis_gcc.h ****   mode.
 700:Drivers/CMSIS/Include/cmsis_gcc.h ****   
 701:Drivers/CMSIS/Include/cmsis_gcc.h ****   \details Assigns the given value to the Process Stack Pointer Limit (PSPLIM).
 702:Drivers/CMSIS/Include/cmsis_gcc.h ****   \param [in]    ProcStackPtrLimit  Process Stack Pointer Limit value to set
 703:Drivers/CMSIS/Include/cmsis_gcc.h ****  */
 704:Drivers/CMSIS/Include/cmsis_gcc.h **** __STATIC_FORCEINLINE void __set_PSPLIM(uint32_t ProcStackPtrLimit)
 705:Drivers/CMSIS/Include/cmsis_gcc.h **** {
 706:Drivers/CMSIS/Include/cmsis_gcc.h **** #if (!(defined (__ARM_ARCH_8M_MAIN__ ) && (__ARM_ARCH_8M_MAIN__ == 1)) && \
 707:Drivers/CMSIS/Include/cmsis_gcc.h ****     (!defined (__ARM_FEATURE_CMSE) || (__ARM_FEATURE_CMSE < 3)))
 708:Drivers/CMSIS/Include/cmsis_gcc.h ****   // without main extensions, the non-secure PSPLIM is RAZ/WI
 709:Drivers/CMSIS/Include/cmsis_gcc.h ****   (void)ProcStackPtrLimit;
 710:Drivers/CMSIS/Include/cmsis_gcc.h **** #else
 711:Drivers/CMSIS/Include/cmsis_gcc.h ****   __ASM volatile ("MSR psplim, %0" : : "r" (ProcStackPtrLimit));
 712:Drivers/CMSIS/Include/cmsis_gcc.h **** #endif
 713:Drivers/CMSIS/Include/cmsis_gcc.h **** }
 714:Drivers/CMSIS/Include/cmsis_gcc.h **** 
 715:Drivers/CMSIS/Include/cmsis_gcc.h **** 
 716:Drivers/CMSIS/Include/cmsis_gcc.h **** #if (defined (__ARM_FEATURE_CMSE  ) && (__ARM_FEATURE_CMSE   == 3))
 717:Drivers/CMSIS/Include/cmsis_gcc.h **** /**
 718:Drivers/CMSIS/Include/cmsis_gcc.h ****   \brief   Set Process Stack Pointer (non-secure)
 719:Drivers/CMSIS/Include/cmsis_gcc.h ****   Devices without ARMv8-M Main Extensions (i.e. Cortex-M23) lack the non-secure
 720:Drivers/CMSIS/Include/cmsis_gcc.h ****   Stack Pointer Limit register hence the write is silently ignored.
 721:Drivers/CMSIS/Include/cmsis_gcc.h **** 
 722:Drivers/CMSIS/Include/cmsis_gcc.h ****   \details Assigns the given value to the non-secure Process Stack Pointer Limit (PSPLIM) when in s
 723:Drivers/CMSIS/Include/cmsis_gcc.h ****   \param [in]    ProcStackPtrLimit  Process Stack Pointer Limit value to set
 724:Drivers/CMSIS/Include/cmsis_gcc.h ****  */
 725:Drivers/CMSIS/Include/cmsis_gcc.h **** __STATIC_FORCEINLINE void __TZ_set_PSPLIM_NS(uint32_t ProcStackPtrLimit)
 726:Drivers/CMSIS/Include/cmsis_gcc.h **** {
 727:Drivers/CMSIS/Include/cmsis_gcc.h **** #if (!(defined (__ARM_ARCH_8M_MAIN__ ) && (__ARM_ARCH_8M_MAIN__ == 1)))
 728:Drivers/CMSIS/Include/cmsis_gcc.h ****   // without main extensions, the non-secure PSPLIM is RAZ/WI
 729:Drivers/CMSIS/Include/cmsis_gcc.h ****   (void)ProcStackPtrLimit;
 730:Drivers/CMSIS/Include/cmsis_gcc.h **** #else
 731:Drivers/CMSIS/Include/cmsis_gcc.h ****   __ASM volatile ("MSR psplim_ns, %0\n" : : "r" (ProcStackPtrLimit));
 732:Drivers/CMSIS/Include/cmsis_gcc.h **** #endif
 733:Drivers/CMSIS/Include/cmsis_gcc.h **** }
 734:Drivers/CMSIS/Include/cmsis_gcc.h **** #endif
 735:Drivers/CMSIS/Include/cmsis_gcc.h **** 
 736:Drivers/CMSIS/Include/cmsis_gcc.h **** 
 737:Drivers/CMSIS/Include/cmsis_gcc.h **** /**
 738:Drivers/CMSIS/Include/cmsis_gcc.h ****   \brief   Get Main Stack Pointer Limit
ARM GAS  /var/folders/9y/n02fl3g16gnf7ppy14xghdy80000gn/T//ccRj2FZx.s 			page 31


 739:Drivers/CMSIS/Include/cmsis_gcc.h ****   Devices without ARMv8-M Main Extensions (i.e. Cortex-M23) lack the non-secure
 740:Drivers/CMSIS/Include/cmsis_gcc.h ****   Stack Pointer Limit register hence zero is returned always in non-secure
 741:Drivers/CMSIS/Include/cmsis_gcc.h ****   mode.
 742:Drivers/CMSIS/Include/cmsis_gcc.h **** 
 743:Drivers/CMSIS/Include/cmsis_gcc.h ****   \details Returns the current value of the Main Stack Pointer Limit (MSPLIM).
 744:Drivers/CMSIS/Include/cmsis_gcc.h ****   \return               MSPLIM Register value
 745:Drivers/CMSIS/Include/cmsis_gcc.h ****  */
 746:Drivers/CMSIS/Include/cmsis_gcc.h **** __STATIC_FORCEINLINE uint32_t __get_MSPLIM(void)
 747:Drivers/CMSIS/Include/cmsis_gcc.h **** {
 748:Drivers/CMSIS/Include/cmsis_gcc.h **** #if (!(defined (__ARM_ARCH_8M_MAIN__ ) && (__ARM_ARCH_8M_MAIN__ == 1)) && \
 749:Drivers/CMSIS/Include/cmsis_gcc.h ****     (!defined (__ARM_FEATURE_CMSE) || (__ARM_FEATURE_CMSE < 3)))
 750:Drivers/CMSIS/Include/cmsis_gcc.h ****   // without main extensions, the non-secure MSPLIM is RAZ/WI
 751:Drivers/CMSIS/Include/cmsis_gcc.h ****   return 0U;
 752:Drivers/CMSIS/Include/cmsis_gcc.h **** #else
 753:Drivers/CMSIS/Include/cmsis_gcc.h ****   uint32_t result;
 754:Drivers/CMSIS/Include/cmsis_gcc.h ****   __ASM volatile ("MRS %0, msplim" : "=r" (result) );
 755:Drivers/CMSIS/Include/cmsis_gcc.h ****   return result;
 756:Drivers/CMSIS/Include/cmsis_gcc.h **** #endif
 757:Drivers/CMSIS/Include/cmsis_gcc.h **** }
 758:Drivers/CMSIS/Include/cmsis_gcc.h **** 
 759:Drivers/CMSIS/Include/cmsis_gcc.h **** 
 760:Drivers/CMSIS/Include/cmsis_gcc.h **** #if (defined (__ARM_FEATURE_CMSE  ) && (__ARM_FEATURE_CMSE   == 3))
 761:Drivers/CMSIS/Include/cmsis_gcc.h **** /**
 762:Drivers/CMSIS/Include/cmsis_gcc.h ****   \brief   Get Main Stack Pointer Limit (non-secure)
 763:Drivers/CMSIS/Include/cmsis_gcc.h ****   Devices without ARMv8-M Main Extensions (i.e. Cortex-M23) lack the non-secure
 764:Drivers/CMSIS/Include/cmsis_gcc.h ****   Stack Pointer Limit register hence zero is returned always.
 765:Drivers/CMSIS/Include/cmsis_gcc.h **** 
 766:Drivers/CMSIS/Include/cmsis_gcc.h ****   \details Returns the current value of the non-secure Main Stack Pointer Limit(MSPLIM) when in sec
 767:Drivers/CMSIS/Include/cmsis_gcc.h ****   \return               MSPLIM Register value
 768:Drivers/CMSIS/Include/cmsis_gcc.h ****  */
 769:Drivers/CMSIS/Include/cmsis_gcc.h **** __STATIC_FORCEINLINE uint32_t __TZ_get_MSPLIM_NS(void)
 770:Drivers/CMSIS/Include/cmsis_gcc.h **** {
 771:Drivers/CMSIS/Include/cmsis_gcc.h **** #if (!(defined (__ARM_ARCH_8M_MAIN__ ) && (__ARM_ARCH_8M_MAIN__ == 1)))
 772:Drivers/CMSIS/Include/cmsis_gcc.h ****   // without main extensions, the non-secure MSPLIM is RAZ/WI
 773:Drivers/CMSIS/Include/cmsis_gcc.h ****   return 0U;
 774:Drivers/CMSIS/Include/cmsis_gcc.h **** #else
 775:Drivers/CMSIS/Include/cmsis_gcc.h ****   uint32_t result;
 776:Drivers/CMSIS/Include/cmsis_gcc.h ****   __ASM volatile ("MRS %0, msplim_ns" : "=r" (result) );
 777:Drivers/CMSIS/Include/cmsis_gcc.h ****   return result;
 778:Drivers/CMSIS/Include/cmsis_gcc.h **** #endif
 779:Drivers/CMSIS/Include/cmsis_gcc.h **** }
 780:Drivers/CMSIS/Include/cmsis_gcc.h **** #endif
 781:Drivers/CMSIS/Include/cmsis_gcc.h **** 
 782:Drivers/CMSIS/Include/cmsis_gcc.h **** 
 783:Drivers/CMSIS/Include/cmsis_gcc.h **** /**
 784:Drivers/CMSIS/Include/cmsis_gcc.h ****   \brief   Set Main Stack Pointer Limit
 785:Drivers/CMSIS/Include/cmsis_gcc.h ****   Devices without ARMv8-M Main Extensions (i.e. Cortex-M23) lack the non-secure
 786:Drivers/CMSIS/Include/cmsis_gcc.h ****   Stack Pointer Limit register hence the write is silently ignored in non-secure
 787:Drivers/CMSIS/Include/cmsis_gcc.h ****   mode.
 788:Drivers/CMSIS/Include/cmsis_gcc.h **** 
 789:Drivers/CMSIS/Include/cmsis_gcc.h ****   \details Assigns the given value to the Main Stack Pointer Limit (MSPLIM).
 790:Drivers/CMSIS/Include/cmsis_gcc.h ****   \param [in]    MainStackPtrLimit  Main Stack Pointer Limit value to set
 791:Drivers/CMSIS/Include/cmsis_gcc.h ****  */
 792:Drivers/CMSIS/Include/cmsis_gcc.h **** __STATIC_FORCEINLINE void __set_MSPLIM(uint32_t MainStackPtrLimit)
 793:Drivers/CMSIS/Include/cmsis_gcc.h **** {
 794:Drivers/CMSIS/Include/cmsis_gcc.h **** #if (!(defined (__ARM_ARCH_8M_MAIN__ ) && (__ARM_ARCH_8M_MAIN__ == 1)) && \
 795:Drivers/CMSIS/Include/cmsis_gcc.h ****     (!defined (__ARM_FEATURE_CMSE) || (__ARM_FEATURE_CMSE < 3)))
ARM GAS  /var/folders/9y/n02fl3g16gnf7ppy14xghdy80000gn/T//ccRj2FZx.s 			page 32


 796:Drivers/CMSIS/Include/cmsis_gcc.h ****   // without main extensions, the non-secure MSPLIM is RAZ/WI
 797:Drivers/CMSIS/Include/cmsis_gcc.h ****   (void)MainStackPtrLimit;
 798:Drivers/CMSIS/Include/cmsis_gcc.h **** #else
 799:Drivers/CMSIS/Include/cmsis_gcc.h ****   __ASM volatile ("MSR msplim, %0" : : "r" (MainStackPtrLimit));
 800:Drivers/CMSIS/Include/cmsis_gcc.h **** #endif
 801:Drivers/CMSIS/Include/cmsis_gcc.h **** }
 802:Drivers/CMSIS/Include/cmsis_gcc.h **** 
 803:Drivers/CMSIS/Include/cmsis_gcc.h **** 
 804:Drivers/CMSIS/Include/cmsis_gcc.h **** #if (defined (__ARM_FEATURE_CMSE  ) && (__ARM_FEATURE_CMSE   == 3))
 805:Drivers/CMSIS/Include/cmsis_gcc.h **** /**
 806:Drivers/CMSIS/Include/cmsis_gcc.h ****   \brief   Set Main Stack Pointer Limit (non-secure)
 807:Drivers/CMSIS/Include/cmsis_gcc.h ****   Devices without ARMv8-M Main Extensions (i.e. Cortex-M23) lack the non-secure
 808:Drivers/CMSIS/Include/cmsis_gcc.h ****   Stack Pointer Limit register hence the write is silently ignored.
 809:Drivers/CMSIS/Include/cmsis_gcc.h **** 
 810:Drivers/CMSIS/Include/cmsis_gcc.h ****   \details Assigns the given value to the non-secure Main Stack Pointer Limit (MSPLIM) when in secu
 811:Drivers/CMSIS/Include/cmsis_gcc.h ****   \param [in]    MainStackPtrLimit  Main Stack Pointer value to set
 812:Drivers/CMSIS/Include/cmsis_gcc.h ****  */
 813:Drivers/CMSIS/Include/cmsis_gcc.h **** __STATIC_FORCEINLINE void __TZ_set_MSPLIM_NS(uint32_t MainStackPtrLimit)
 814:Drivers/CMSIS/Include/cmsis_gcc.h **** {
 815:Drivers/CMSIS/Include/cmsis_gcc.h **** #if (!(defined (__ARM_ARCH_8M_MAIN__ ) && (__ARM_ARCH_8M_MAIN__ == 1)))
 816:Drivers/CMSIS/Include/cmsis_gcc.h ****   // without main extensions, the non-secure MSPLIM is RAZ/WI
 817:Drivers/CMSIS/Include/cmsis_gcc.h ****   (void)MainStackPtrLimit;
 818:Drivers/CMSIS/Include/cmsis_gcc.h **** #else
 819:Drivers/CMSIS/Include/cmsis_gcc.h ****   __ASM volatile ("MSR msplim_ns, %0" : : "r" (MainStackPtrLimit));
 820:Drivers/CMSIS/Include/cmsis_gcc.h **** #endif
 821:Drivers/CMSIS/Include/cmsis_gcc.h **** }
 822:Drivers/CMSIS/Include/cmsis_gcc.h **** #endif
 823:Drivers/CMSIS/Include/cmsis_gcc.h **** 
 824:Drivers/CMSIS/Include/cmsis_gcc.h **** #endif /* ((defined (__ARM_ARCH_8M_MAIN__ ) && (__ARM_ARCH_8M_MAIN__ == 1)) || \
 825:Drivers/CMSIS/Include/cmsis_gcc.h ****            (defined (__ARM_ARCH_8M_BASE__ ) && (__ARM_ARCH_8M_BASE__ == 1))    ) */
 826:Drivers/CMSIS/Include/cmsis_gcc.h **** 
 827:Drivers/CMSIS/Include/cmsis_gcc.h **** 
 828:Drivers/CMSIS/Include/cmsis_gcc.h **** /**
 829:Drivers/CMSIS/Include/cmsis_gcc.h ****   \brief   Get FPSCR
 830:Drivers/CMSIS/Include/cmsis_gcc.h ****   \details Returns the current value of the Floating Point Status/Control register.
 831:Drivers/CMSIS/Include/cmsis_gcc.h ****   \return               Floating Point Status/Control register value
 832:Drivers/CMSIS/Include/cmsis_gcc.h ****  */
 833:Drivers/CMSIS/Include/cmsis_gcc.h **** __STATIC_FORCEINLINE uint32_t __get_FPSCR(void)
 834:Drivers/CMSIS/Include/cmsis_gcc.h **** {
 835:Drivers/CMSIS/Include/cmsis_gcc.h **** #if ((defined (__FPU_PRESENT) && (__FPU_PRESENT == 1U)) && \
 836:Drivers/CMSIS/Include/cmsis_gcc.h ****      (defined (__FPU_USED   ) && (__FPU_USED    == 1U))     )
 837:Drivers/CMSIS/Include/cmsis_gcc.h **** #if __has_builtin(__builtin_arm_get_fpscr) 
 838:Drivers/CMSIS/Include/cmsis_gcc.h **** // Re-enable using built-in when GCC has been fixed
 839:Drivers/CMSIS/Include/cmsis_gcc.h **** // || (__GNUC__ > 7) || (__GNUC__ == 7 && __GNUC_MINOR__ >= 2)
 840:Drivers/CMSIS/Include/cmsis_gcc.h ****   /* see https://gcc.gnu.org/ml/gcc-patches/2017-04/msg00443.html */
 841:Drivers/CMSIS/Include/cmsis_gcc.h ****   return __builtin_arm_get_fpscr();
 842:Drivers/CMSIS/Include/cmsis_gcc.h **** #else
 843:Drivers/CMSIS/Include/cmsis_gcc.h ****   uint32_t result;
 844:Drivers/CMSIS/Include/cmsis_gcc.h **** 
 845:Drivers/CMSIS/Include/cmsis_gcc.h ****   __ASM volatile ("VMRS %0, fpscr" : "=r" (result) );
 846:Drivers/CMSIS/Include/cmsis_gcc.h ****   return(result);
 847:Drivers/CMSIS/Include/cmsis_gcc.h **** #endif
 848:Drivers/CMSIS/Include/cmsis_gcc.h **** #else
 849:Drivers/CMSIS/Include/cmsis_gcc.h ****   return(0U);
 850:Drivers/CMSIS/Include/cmsis_gcc.h **** #endif
 851:Drivers/CMSIS/Include/cmsis_gcc.h **** }
 852:Drivers/CMSIS/Include/cmsis_gcc.h **** 
ARM GAS  /var/folders/9y/n02fl3g16gnf7ppy14xghdy80000gn/T//ccRj2FZx.s 			page 33


 853:Drivers/CMSIS/Include/cmsis_gcc.h **** 
 854:Drivers/CMSIS/Include/cmsis_gcc.h **** /**
 855:Drivers/CMSIS/Include/cmsis_gcc.h ****   \brief   Set FPSCR
 856:Drivers/CMSIS/Include/cmsis_gcc.h ****   \details Assigns the given value to the Floating Point Status/Control register.
 857:Drivers/CMSIS/Include/cmsis_gcc.h ****   \param [in]    fpscr  Floating Point Status/Control value to set
 858:Drivers/CMSIS/Include/cmsis_gcc.h ****  */
 859:Drivers/CMSIS/Include/cmsis_gcc.h **** __STATIC_FORCEINLINE void __set_FPSCR(uint32_t fpscr)
 860:Drivers/CMSIS/Include/cmsis_gcc.h **** {
 861:Drivers/CMSIS/Include/cmsis_gcc.h **** #if ((defined (__FPU_PRESENT) && (__FPU_PRESENT == 1U)) && \
 862:Drivers/CMSIS/Include/cmsis_gcc.h ****      (defined (__FPU_USED   ) && (__FPU_USED    == 1U))     )
 863:Drivers/CMSIS/Include/cmsis_gcc.h **** #if __has_builtin(__builtin_arm_set_fpscr)
 864:Drivers/CMSIS/Include/cmsis_gcc.h **** // Re-enable using built-in when GCC has been fixed
 865:Drivers/CMSIS/Include/cmsis_gcc.h **** // || (__GNUC__ > 7) || (__GNUC__ == 7 && __GNUC_MINOR__ >= 2)
 866:Drivers/CMSIS/Include/cmsis_gcc.h ****   /* see https://gcc.gnu.org/ml/gcc-patches/2017-04/msg00443.html */
 867:Drivers/CMSIS/Include/cmsis_gcc.h ****   __builtin_arm_set_fpscr(fpscr);
 868:Drivers/CMSIS/Include/cmsis_gcc.h **** #else
 869:Drivers/CMSIS/Include/cmsis_gcc.h ****   __ASM volatile ("VMSR fpscr, %0" : : "r" (fpscr) : "vfpcc", "memory");
 870:Drivers/CMSIS/Include/cmsis_gcc.h **** #endif
 871:Drivers/CMSIS/Include/cmsis_gcc.h **** #else
 872:Drivers/CMSIS/Include/cmsis_gcc.h ****   (void)fpscr;
 873:Drivers/CMSIS/Include/cmsis_gcc.h **** #endif
 874:Drivers/CMSIS/Include/cmsis_gcc.h **** }
 875:Drivers/CMSIS/Include/cmsis_gcc.h **** 
 876:Drivers/CMSIS/Include/cmsis_gcc.h **** 
 877:Drivers/CMSIS/Include/cmsis_gcc.h **** /*@} end of CMSIS_Core_RegAccFunctions */
 878:Drivers/CMSIS/Include/cmsis_gcc.h **** 
 879:Drivers/CMSIS/Include/cmsis_gcc.h **** 
 880:Drivers/CMSIS/Include/cmsis_gcc.h **** /* ##########################  Core Instruction Access  ######################### */
 881:Drivers/CMSIS/Include/cmsis_gcc.h **** /** \defgroup CMSIS_Core_InstructionInterface CMSIS Core Instruction Interface
 882:Drivers/CMSIS/Include/cmsis_gcc.h ****   Access to dedicated instructions
 883:Drivers/CMSIS/Include/cmsis_gcc.h ****   @{
 884:Drivers/CMSIS/Include/cmsis_gcc.h **** */
 885:Drivers/CMSIS/Include/cmsis_gcc.h **** 
 886:Drivers/CMSIS/Include/cmsis_gcc.h **** /* Define macros for porting to both thumb1 and thumb2.
 887:Drivers/CMSIS/Include/cmsis_gcc.h ****  * For thumb1, use low register (r0-r7), specified by constraint "l"
 888:Drivers/CMSIS/Include/cmsis_gcc.h ****  * Otherwise, use general registers, specified by constraint "r" */
 889:Drivers/CMSIS/Include/cmsis_gcc.h **** #if defined (__thumb__) && !defined (__thumb2__)
 890:Drivers/CMSIS/Include/cmsis_gcc.h **** #define __CMSIS_GCC_OUT_REG(r) "=l" (r)
 891:Drivers/CMSIS/Include/cmsis_gcc.h **** #define __CMSIS_GCC_RW_REG(r) "+l" (r)
 892:Drivers/CMSIS/Include/cmsis_gcc.h **** #define __CMSIS_GCC_USE_REG(r) "l" (r)
 893:Drivers/CMSIS/Include/cmsis_gcc.h **** #else
 894:Drivers/CMSIS/Include/cmsis_gcc.h **** #define __CMSIS_GCC_OUT_REG(r) "=r" (r)
 895:Drivers/CMSIS/Include/cmsis_gcc.h **** #define __CMSIS_GCC_RW_REG(r) "+r" (r)
 896:Drivers/CMSIS/Include/cmsis_gcc.h **** #define __CMSIS_GCC_USE_REG(r) "r" (r)
 897:Drivers/CMSIS/Include/cmsis_gcc.h **** #endif
 898:Drivers/CMSIS/Include/cmsis_gcc.h **** 
 899:Drivers/CMSIS/Include/cmsis_gcc.h **** /**
 900:Drivers/CMSIS/Include/cmsis_gcc.h ****   \brief   No Operation
 901:Drivers/CMSIS/Include/cmsis_gcc.h ****   \details No Operation does nothing. This instruction can be used for code alignment purposes.
 902:Drivers/CMSIS/Include/cmsis_gcc.h ****  */
 903:Drivers/CMSIS/Include/cmsis_gcc.h **** #define __NOP()                             __ASM volatile ("nop")
 904:Drivers/CMSIS/Include/cmsis_gcc.h **** 
 905:Drivers/CMSIS/Include/cmsis_gcc.h **** /**
 906:Drivers/CMSIS/Include/cmsis_gcc.h ****   \brief   Wait For Interrupt
 907:Drivers/CMSIS/Include/cmsis_gcc.h ****   \details Wait For Interrupt is a hint instruction that suspends execution until one of a number o
 908:Drivers/CMSIS/Include/cmsis_gcc.h ****  */
 909:Drivers/CMSIS/Include/cmsis_gcc.h **** #define __WFI()                             __ASM volatile ("wfi")
ARM GAS  /var/folders/9y/n02fl3g16gnf7ppy14xghdy80000gn/T//ccRj2FZx.s 			page 34


 910:Drivers/CMSIS/Include/cmsis_gcc.h **** 
 911:Drivers/CMSIS/Include/cmsis_gcc.h **** 
 912:Drivers/CMSIS/Include/cmsis_gcc.h **** /**
 913:Drivers/CMSIS/Include/cmsis_gcc.h ****   \brief   Wait For Event
 914:Drivers/CMSIS/Include/cmsis_gcc.h ****   \details Wait For Event is a hint instruction that permits the processor to enter
 915:Drivers/CMSIS/Include/cmsis_gcc.h ****            a low-power state until one of a number of events occurs.
 916:Drivers/CMSIS/Include/cmsis_gcc.h ****  */
 917:Drivers/CMSIS/Include/cmsis_gcc.h **** #define __WFE()                             __ASM volatile ("wfe")
 918:Drivers/CMSIS/Include/cmsis_gcc.h **** 
 919:Drivers/CMSIS/Include/cmsis_gcc.h **** 
 920:Drivers/CMSIS/Include/cmsis_gcc.h **** /**
 921:Drivers/CMSIS/Include/cmsis_gcc.h ****   \brief   Send Event
 922:Drivers/CMSIS/Include/cmsis_gcc.h ****   \details Send Event is a hint instruction. It causes an event to be signaled to the CPU.
 923:Drivers/CMSIS/Include/cmsis_gcc.h ****  */
 924:Drivers/CMSIS/Include/cmsis_gcc.h **** #define __SEV()                             __ASM volatile ("sev")
 925:Drivers/CMSIS/Include/cmsis_gcc.h **** 
 926:Drivers/CMSIS/Include/cmsis_gcc.h **** 
 927:Drivers/CMSIS/Include/cmsis_gcc.h **** /**
 928:Drivers/CMSIS/Include/cmsis_gcc.h ****   \brief   Instruction Synchronization Barrier
 929:Drivers/CMSIS/Include/cmsis_gcc.h ****   \details Instruction Synchronization Barrier flushes the pipeline in the processor,
 930:Drivers/CMSIS/Include/cmsis_gcc.h ****            so that all instructions following the ISB are fetched from cache or memory,
 931:Drivers/CMSIS/Include/cmsis_gcc.h ****            after the instruction has been completed.
 932:Drivers/CMSIS/Include/cmsis_gcc.h ****  */
 933:Drivers/CMSIS/Include/cmsis_gcc.h **** __STATIC_FORCEINLINE void __ISB(void)
 934:Drivers/CMSIS/Include/cmsis_gcc.h **** {
 935:Drivers/CMSIS/Include/cmsis_gcc.h ****   __ASM volatile ("isb 0xF":::"memory");
 936:Drivers/CMSIS/Include/cmsis_gcc.h **** }
 937:Drivers/CMSIS/Include/cmsis_gcc.h **** 
 938:Drivers/CMSIS/Include/cmsis_gcc.h **** 
 939:Drivers/CMSIS/Include/cmsis_gcc.h **** /**
 940:Drivers/CMSIS/Include/cmsis_gcc.h ****   \brief   Data Synchronization Barrier
 941:Drivers/CMSIS/Include/cmsis_gcc.h ****   \details Acts as a special kind of Data Memory Barrier.
 942:Drivers/CMSIS/Include/cmsis_gcc.h ****            It completes when all explicit memory accesses before this instruction complete.
 943:Drivers/CMSIS/Include/cmsis_gcc.h ****  */
 944:Drivers/CMSIS/Include/cmsis_gcc.h **** __STATIC_FORCEINLINE void __DSB(void)
 945:Drivers/CMSIS/Include/cmsis_gcc.h **** {
 946:Drivers/CMSIS/Include/cmsis_gcc.h ****   __ASM volatile ("dsb 0xF":::"memory");
 947:Drivers/CMSIS/Include/cmsis_gcc.h **** }
 948:Drivers/CMSIS/Include/cmsis_gcc.h **** 
 949:Drivers/CMSIS/Include/cmsis_gcc.h **** 
 950:Drivers/CMSIS/Include/cmsis_gcc.h **** /**
 951:Drivers/CMSIS/Include/cmsis_gcc.h ****   \brief   Data Memory Barrier
 952:Drivers/CMSIS/Include/cmsis_gcc.h ****   \details Ensures the apparent order of the explicit memory operations before
 953:Drivers/CMSIS/Include/cmsis_gcc.h ****            and after the instruction, without ensuring their completion.
 954:Drivers/CMSIS/Include/cmsis_gcc.h ****  */
 955:Drivers/CMSIS/Include/cmsis_gcc.h **** __STATIC_FORCEINLINE void __DMB(void)
 956:Drivers/CMSIS/Include/cmsis_gcc.h **** {
 957:Drivers/CMSIS/Include/cmsis_gcc.h ****   __ASM volatile ("dmb 0xF":::"memory");
 958:Drivers/CMSIS/Include/cmsis_gcc.h **** }
 959:Drivers/CMSIS/Include/cmsis_gcc.h **** 
 960:Drivers/CMSIS/Include/cmsis_gcc.h **** 
 961:Drivers/CMSIS/Include/cmsis_gcc.h **** /**
 962:Drivers/CMSIS/Include/cmsis_gcc.h ****   \brief   Reverse byte order (32 bit)
 963:Drivers/CMSIS/Include/cmsis_gcc.h ****   \details Reverses the byte order in unsigned integer value. For example, 0x12345678 becomes 0x785
 964:Drivers/CMSIS/Include/cmsis_gcc.h ****   \param [in]    value  Value to reverse
 965:Drivers/CMSIS/Include/cmsis_gcc.h ****   \return               Reversed value
 966:Drivers/CMSIS/Include/cmsis_gcc.h ****  */
ARM GAS  /var/folders/9y/n02fl3g16gnf7ppy14xghdy80000gn/T//ccRj2FZx.s 			page 35


 967:Drivers/CMSIS/Include/cmsis_gcc.h **** __STATIC_FORCEINLINE uint32_t __REV(uint32_t value)
 968:Drivers/CMSIS/Include/cmsis_gcc.h **** {
 969:Drivers/CMSIS/Include/cmsis_gcc.h **** #if (__GNUC__ > 4) || (__GNUC__ == 4 && __GNUC_MINOR__ >= 5)
 970:Drivers/CMSIS/Include/cmsis_gcc.h ****   return __builtin_bswap32(value);
 971:Drivers/CMSIS/Include/cmsis_gcc.h **** #else
 972:Drivers/CMSIS/Include/cmsis_gcc.h ****   uint32_t result;
 973:Drivers/CMSIS/Include/cmsis_gcc.h **** 
 974:Drivers/CMSIS/Include/cmsis_gcc.h ****   __ASM volatile ("rev %0, %1" : __CMSIS_GCC_OUT_REG (result) : __CMSIS_GCC_USE_REG (value) );
 975:Drivers/CMSIS/Include/cmsis_gcc.h ****   return result;
 976:Drivers/CMSIS/Include/cmsis_gcc.h **** #endif
 977:Drivers/CMSIS/Include/cmsis_gcc.h **** }
 978:Drivers/CMSIS/Include/cmsis_gcc.h **** 
 979:Drivers/CMSIS/Include/cmsis_gcc.h **** 
 980:Drivers/CMSIS/Include/cmsis_gcc.h **** /**
 981:Drivers/CMSIS/Include/cmsis_gcc.h ****   \brief   Reverse byte order (16 bit)
 982:Drivers/CMSIS/Include/cmsis_gcc.h ****   \details Reverses the byte order within each halfword of a word. For example, 0x12345678 becomes 
 983:Drivers/CMSIS/Include/cmsis_gcc.h ****   \param [in]    value  Value to reverse
 984:Drivers/CMSIS/Include/cmsis_gcc.h ****   \return               Reversed value
 985:Drivers/CMSIS/Include/cmsis_gcc.h ****  */
 986:Drivers/CMSIS/Include/cmsis_gcc.h **** __STATIC_FORCEINLINE uint32_t __REV16(uint32_t value)
 987:Drivers/CMSIS/Include/cmsis_gcc.h **** {
 988:Drivers/CMSIS/Include/cmsis_gcc.h ****   uint32_t result;
 989:Drivers/CMSIS/Include/cmsis_gcc.h **** 
 990:Drivers/CMSIS/Include/cmsis_gcc.h ****   __ASM volatile ("rev16 %0, %1" : __CMSIS_GCC_OUT_REG (result) : __CMSIS_GCC_USE_REG (value) );
 991:Drivers/CMSIS/Include/cmsis_gcc.h ****   return result;
 992:Drivers/CMSIS/Include/cmsis_gcc.h **** }
 993:Drivers/CMSIS/Include/cmsis_gcc.h **** 
 994:Drivers/CMSIS/Include/cmsis_gcc.h **** 
 995:Drivers/CMSIS/Include/cmsis_gcc.h **** /**
 996:Drivers/CMSIS/Include/cmsis_gcc.h ****   \brief   Reverse byte order (16 bit)
 997:Drivers/CMSIS/Include/cmsis_gcc.h ****   \details Reverses the byte order in a 16-bit value and returns the signed 16-bit result. For exam
 998:Drivers/CMSIS/Include/cmsis_gcc.h ****   \param [in]    value  Value to reverse
 999:Drivers/CMSIS/Include/cmsis_gcc.h ****   \return               Reversed value
1000:Drivers/CMSIS/Include/cmsis_gcc.h ****  */
1001:Drivers/CMSIS/Include/cmsis_gcc.h **** __STATIC_FORCEINLINE int16_t __REVSH(int16_t value)
1002:Drivers/CMSIS/Include/cmsis_gcc.h **** {
1003:Drivers/CMSIS/Include/cmsis_gcc.h **** #if (__GNUC__ > 4) || (__GNUC__ == 4 && __GNUC_MINOR__ >= 8)
1004:Drivers/CMSIS/Include/cmsis_gcc.h ****   return (int16_t)__builtin_bswap16(value);
1005:Drivers/CMSIS/Include/cmsis_gcc.h **** #else
1006:Drivers/CMSIS/Include/cmsis_gcc.h ****   int16_t result;
1007:Drivers/CMSIS/Include/cmsis_gcc.h **** 
1008:Drivers/CMSIS/Include/cmsis_gcc.h ****   __ASM volatile ("revsh %0, %1" : __CMSIS_GCC_OUT_REG (result) : __CMSIS_GCC_USE_REG (value) );
1009:Drivers/CMSIS/Include/cmsis_gcc.h ****   return result;
1010:Drivers/CMSIS/Include/cmsis_gcc.h **** #endif
1011:Drivers/CMSIS/Include/cmsis_gcc.h **** }
1012:Drivers/CMSIS/Include/cmsis_gcc.h **** 
1013:Drivers/CMSIS/Include/cmsis_gcc.h **** 
1014:Drivers/CMSIS/Include/cmsis_gcc.h **** /**
1015:Drivers/CMSIS/Include/cmsis_gcc.h ****   \brief   Rotate Right in unsigned value (32 bit)
1016:Drivers/CMSIS/Include/cmsis_gcc.h ****   \details Rotate Right (immediate) provides the value of the contents of a register rotated by a v
1017:Drivers/CMSIS/Include/cmsis_gcc.h ****   \param [in]    op1  Value to rotate
1018:Drivers/CMSIS/Include/cmsis_gcc.h ****   \param [in]    op2  Number of Bits to rotate
1019:Drivers/CMSIS/Include/cmsis_gcc.h ****   \return               Rotated value
1020:Drivers/CMSIS/Include/cmsis_gcc.h ****  */
1021:Drivers/CMSIS/Include/cmsis_gcc.h **** __STATIC_FORCEINLINE uint32_t __ROR(uint32_t op1, uint32_t op2)
1022:Drivers/CMSIS/Include/cmsis_gcc.h **** {
1023:Drivers/CMSIS/Include/cmsis_gcc.h ****   op2 %= 32U;
ARM GAS  /var/folders/9y/n02fl3g16gnf7ppy14xghdy80000gn/T//ccRj2FZx.s 			page 36


1024:Drivers/CMSIS/Include/cmsis_gcc.h ****   if (op2 == 0U)
1025:Drivers/CMSIS/Include/cmsis_gcc.h ****   {
1026:Drivers/CMSIS/Include/cmsis_gcc.h ****     return op1;
1027:Drivers/CMSIS/Include/cmsis_gcc.h ****   }
1028:Drivers/CMSIS/Include/cmsis_gcc.h ****   return (op1 >> op2) | (op1 << (32U - op2));
1029:Drivers/CMSIS/Include/cmsis_gcc.h **** }
1030:Drivers/CMSIS/Include/cmsis_gcc.h **** 
1031:Drivers/CMSIS/Include/cmsis_gcc.h **** 
1032:Drivers/CMSIS/Include/cmsis_gcc.h **** /**
1033:Drivers/CMSIS/Include/cmsis_gcc.h ****   \brief   Breakpoint
1034:Drivers/CMSIS/Include/cmsis_gcc.h ****   \details Causes the processor to enter Debug state.
1035:Drivers/CMSIS/Include/cmsis_gcc.h ****            Debug tools can use this to investigate system state when the instruction at a particula
1036:Drivers/CMSIS/Include/cmsis_gcc.h ****   \param [in]    value  is ignored by the processor.
1037:Drivers/CMSIS/Include/cmsis_gcc.h ****                  If required, a debugger can use it to store additional information about the break
1038:Drivers/CMSIS/Include/cmsis_gcc.h ****  */
1039:Drivers/CMSIS/Include/cmsis_gcc.h **** #define __BKPT(value)                       __ASM volatile ("bkpt "#value)
1040:Drivers/CMSIS/Include/cmsis_gcc.h **** 
1041:Drivers/CMSIS/Include/cmsis_gcc.h **** 
1042:Drivers/CMSIS/Include/cmsis_gcc.h **** /**
1043:Drivers/CMSIS/Include/cmsis_gcc.h ****   \brief   Reverse bit order of value
1044:Drivers/CMSIS/Include/cmsis_gcc.h ****   \details Reverses the bit order of the given value.
1045:Drivers/CMSIS/Include/cmsis_gcc.h ****   \param [in]    value  Value to reverse
1046:Drivers/CMSIS/Include/cmsis_gcc.h ****   \return               Reversed value
1047:Drivers/CMSIS/Include/cmsis_gcc.h ****  */
1048:Drivers/CMSIS/Include/cmsis_gcc.h **** __STATIC_FORCEINLINE uint32_t __RBIT(uint32_t value)
 253              		.loc 3 1048 31 is_stmt 1 view .LVU63
 254              	.LBB159:
1049:Drivers/CMSIS/Include/cmsis_gcc.h **** {
1050:Drivers/CMSIS/Include/cmsis_gcc.h ****   uint32_t result;
 255              		.loc 3 1050 3 view .LVU64
1051:Drivers/CMSIS/Include/cmsis_gcc.h **** 
1052:Drivers/CMSIS/Include/cmsis_gcc.h **** #if ((defined (__ARM_ARCH_7M__      ) && (__ARM_ARCH_7M__      == 1)) || \
1053:Drivers/CMSIS/Include/cmsis_gcc.h ****      (defined (__ARM_ARCH_7EM__     ) && (__ARM_ARCH_7EM__     == 1)) || \
1054:Drivers/CMSIS/Include/cmsis_gcc.h ****      (defined (__ARM_ARCH_8M_MAIN__ ) && (__ARM_ARCH_8M_MAIN__ == 1))    )
1055:Drivers/CMSIS/Include/cmsis_gcc.h ****    __ASM volatile ("rbit %0, %1" : "=r" (result) : "r" (value) );
 256              		.loc 3 1055 4 view .LVU65
 257              		.syntax unified
 258              	@ 1055 "Drivers/CMSIS/Include/cmsis_gcc.h" 1
 259 0004 92FAA2F2 		rbit r2, r2
 260              	@ 0 "" 2
 261              	.LVL16:
1056:Drivers/CMSIS/Include/cmsis_gcc.h **** #else
1057:Drivers/CMSIS/Include/cmsis_gcc.h ****   uint32_t s = (4U /*sizeof(v)*/ * 8U) - 1U; /* extra shift needed at end */
1058:Drivers/CMSIS/Include/cmsis_gcc.h **** 
1059:Drivers/CMSIS/Include/cmsis_gcc.h ****   result = value;                      /* r will be reversed bits of v; first get LSB of v */
1060:Drivers/CMSIS/Include/cmsis_gcc.h ****   for (value >>= 1U; value != 0U; value >>= 1U)
1061:Drivers/CMSIS/Include/cmsis_gcc.h ****   {
1062:Drivers/CMSIS/Include/cmsis_gcc.h ****     result <<= 1U;
1063:Drivers/CMSIS/Include/cmsis_gcc.h ****     result |= value & 1U;
1064:Drivers/CMSIS/Include/cmsis_gcc.h ****     s--;
1065:Drivers/CMSIS/Include/cmsis_gcc.h ****   }
1066:Drivers/CMSIS/Include/cmsis_gcc.h ****   result <<= s;                        /* shift when v's highest bits are zero */
1067:Drivers/CMSIS/Include/cmsis_gcc.h **** #endif
1068:Drivers/CMSIS/Include/cmsis_gcc.h ****   return result;
 262              		.loc 3 1068 3 view .LVU66
 263              		.loc 3 1068 3 is_stmt 0 view .LVU67
 264              		.thumb
ARM GAS  /var/folders/9y/n02fl3g16gnf7ppy14xghdy80000gn/T//ccRj2FZx.s 			page 37


 265              		.syntax unified
 266              	.LBE159:
 267              	.LBE158:
 268              	.LBB160:
 269              	.LBI160:
1069:Drivers/CMSIS/Include/cmsis_gcc.h **** }
1070:Drivers/CMSIS/Include/cmsis_gcc.h **** 
1071:Drivers/CMSIS/Include/cmsis_gcc.h **** 
1072:Drivers/CMSIS/Include/cmsis_gcc.h **** /**
1073:Drivers/CMSIS/Include/cmsis_gcc.h ****   \brief   Count leading zeros
1074:Drivers/CMSIS/Include/cmsis_gcc.h ****   \details Counts the number of leading zeros of a data value.
1075:Drivers/CMSIS/Include/cmsis_gcc.h ****   \param [in]  value  Value to count the leading zeros
1076:Drivers/CMSIS/Include/cmsis_gcc.h ****   \return             number of leading zeros in value
1077:Drivers/CMSIS/Include/cmsis_gcc.h ****  */
1078:Drivers/CMSIS/Include/cmsis_gcc.h **** __STATIC_FORCEINLINE uint8_t __CLZ(uint32_t value)
 270              		.loc 3 1078 30 is_stmt 1 view .LVU68
 271              	.LBB161:
1079:Drivers/CMSIS/Include/cmsis_gcc.h **** {
1080:Drivers/CMSIS/Include/cmsis_gcc.h ****   /* Even though __builtin_clz produces a CLZ instruction on ARM, formally
1081:Drivers/CMSIS/Include/cmsis_gcc.h ****      __builtin_clz(0) is undefined behaviour, so handle this case specially.
1082:Drivers/CMSIS/Include/cmsis_gcc.h ****      This guarantees ARM-compatible results if happening to compile on a non-ARM
1083:Drivers/CMSIS/Include/cmsis_gcc.h ****      target, and ensures the compiler doesn't decide to activate any
1084:Drivers/CMSIS/Include/cmsis_gcc.h ****      optimisations using the logic "value was passed to __builtin_clz, so it
1085:Drivers/CMSIS/Include/cmsis_gcc.h ****      is non-zero".
1086:Drivers/CMSIS/Include/cmsis_gcc.h ****      ARM GCC 7.3 and possibly earlier will optimise this test away, leaving a
1087:Drivers/CMSIS/Include/cmsis_gcc.h ****      single CLZ instruction.
1088:Drivers/CMSIS/Include/cmsis_gcc.h ****    */
1089:Drivers/CMSIS/Include/cmsis_gcc.h ****   if (value == 0U)
 272              		.loc 3 1089 3 view .LVU69
 273              		.loc 3 1089 6 is_stmt 0 view .LVU70
 274 0008 12B1     		cbz	r2, .L33
1090:Drivers/CMSIS/Include/cmsis_gcc.h ****   {
1091:Drivers/CMSIS/Include/cmsis_gcc.h ****     return 32U;
1092:Drivers/CMSIS/Include/cmsis_gcc.h ****   }
1093:Drivers/CMSIS/Include/cmsis_gcc.h ****   return __builtin_clz(value);
 275              		.loc 3 1093 3 is_stmt 1 view .LVU71
 276              		.loc 3 1093 10 is_stmt 0 view .LVU72
 277 000a B2FA82F2 		clz	r2, r2
 278              	.LVL17:
 279              		.loc 3 1093 10 view .LVU73
 280 000e 53E0     		b	.L15
 281              	.LVL18:
 282              	.L33:
1091:Drivers/CMSIS/Include/cmsis_gcc.h ****   }
 283              		.loc 3 1091 12 view .LVU74
 284 0010 2022     		movs	r2, #32
 285              	.LVL19:
1091:Drivers/CMSIS/Include/cmsis_gcc.h ****   }
 286              		.loc 3 1091 12 view .LVU75
 287              	.LBE161:
 288              	.LBE160:
 167:Drivers/STM32WLxx_HAL_Driver/Src/stm32wlxx_ll_gpio.c **** #endif /* CORE_CM0PLUS */
 168:Drivers/STM32WLxx_HAL_Driver/Src/stm32wlxx_ll_gpio.c **** 
 169:Drivers/STM32WLxx_HAL_Driver/Src/stm32wlxx_ll_gpio.c ****   /* Configure the port pins */
 170:Drivers/STM32WLxx_HAL_Driver/Src/stm32wlxx_ll_gpio.c ****   while (((GPIO_InitStruct->Pin) >> pinpos) != 0x00u)
 289              		.loc 1 170 3 is_stmt 1 view .LVU76
 290              		.loc 1 170 9 is_stmt 0 view .LVU77
ARM GAS  /var/folders/9y/n02fl3g16gnf7ppy14xghdy80000gn/T//ccRj2FZx.s 			page 38


 291 0012 51E0     		b	.L15
 292              	.LVL20:
 293              	.L34:
 294              	.LBB162:
 295              	.LBB163:
 296              	.LBB164:
 297              	.LBB165:
1091:Drivers/CMSIS/Include/cmsis_gcc.h ****   }
 298              		.loc 3 1091 12 view .LVU78
 299 0014 2024     		movs	r4, #32
 300              	.LVL21:
1091:Drivers/CMSIS/Include/cmsis_gcc.h ****   }
 301              		.loc 3 1091 12 view .LVU79
 302 0016 62E0     		b	.L17
 303              	.LVL22:
 304              	.L35:
1091:Drivers/CMSIS/Include/cmsis_gcc.h ****   }
 305              		.loc 3 1091 12 view .LVU80
 306              	.LBE165:
 307              	.LBE164:
 308              	.LBB167:
 309              	.LBB168:
 310 0018 2024     		movs	r4, #32
 311              	.LVL23:
1091:Drivers/CMSIS/Include/cmsis_gcc.h ****   }
 312              		.loc 3 1091 12 view .LVU81
 313 001a 6DE0     		b	.L18
 314              	.LVL24:
 315              	.L48:
1091:Drivers/CMSIS/Include/cmsis_gcc.h ****   }
 316              		.loc 3 1091 12 view .LVU82
 317              	.LBE168:
 318              	.LBE167:
 319              	.LBE163:
 320              	.LBE162:
 171:Drivers/STM32WLxx_HAL_Driver/Src/stm32wlxx_ll_gpio.c ****   {
 172:Drivers/STM32WLxx_HAL_Driver/Src/stm32wlxx_ll_gpio.c ****     /* Get current io position */
 173:Drivers/STM32WLxx_HAL_Driver/Src/stm32wlxx_ll_gpio.c ****     currentpin = (GPIO_InitStruct->Pin) & (0x00000001uL << pinpos);
 174:Drivers/STM32WLxx_HAL_Driver/Src/stm32wlxx_ll_gpio.c **** 
 175:Drivers/STM32WLxx_HAL_Driver/Src/stm32wlxx_ll_gpio.c ****     if (currentpin != 0x00u)
 176:Drivers/STM32WLxx_HAL_Driver/Src/stm32wlxx_ll_gpio.c ****     {
 177:Drivers/STM32WLxx_HAL_Driver/Src/stm32wlxx_ll_gpio.c ****       /* Pin Mode configuration */
 178:Drivers/STM32WLxx_HAL_Driver/Src/stm32wlxx_ll_gpio.c ****       LL_GPIO_SetPinMode(GPIOx, currentpin, GPIO_InitStruct->Mode);
 179:Drivers/STM32WLxx_HAL_Driver/Src/stm32wlxx_ll_gpio.c **** 
 180:Drivers/STM32WLxx_HAL_Driver/Src/stm32wlxx_ll_gpio.c ****       if ((GPIO_InitStruct->Mode == LL_GPIO_MODE_OUTPUT) || (GPIO_InitStruct->Mode == LL_GPIO_MODE_
 181:Drivers/STM32WLxx_HAL_Driver/Src/stm32wlxx_ll_gpio.c ****       {
 182:Drivers/STM32WLxx_HAL_Driver/Src/stm32wlxx_ll_gpio.c ****         /* Check Speed mode parameters */
 183:Drivers/STM32WLxx_HAL_Driver/Src/stm32wlxx_ll_gpio.c ****         assert_param(IS_LL_GPIO_SPEED(GPIO_InitStruct->Speed));
 321              		.loc 1 183 9 is_stmt 1 view .LVU83
 184:Drivers/STM32WLxx_HAL_Driver/Src/stm32wlxx_ll_gpio.c **** 
 185:Drivers/STM32WLxx_HAL_Driver/Src/stm32wlxx_ll_gpio.c ****         /* Speed mode configuration */
 186:Drivers/STM32WLxx_HAL_Driver/Src/stm32wlxx_ll_gpio.c ****         LL_GPIO_SetPinSpeed(GPIOx, currentpin, GPIO_InitStruct->Speed);
 322              		.loc 1 186 9 view .LVU84
 323 001c 8E68     		ldr	r6, [r1, #8]
 324              	.LVL25:
 325              	.LBB177:
 326              	.LBI177:
ARM GAS  /var/folders/9y/n02fl3g16gnf7ppy14xghdy80000gn/T//ccRj2FZx.s 			page 39


 327              		.file 4 "Drivers/STM32WLxx_HAL_Driver/Inc/stm32wlxx_ll_gpio.h"
   1:Drivers/STM32WLxx_HAL_Driver/Inc/stm32wlxx_ll_gpio.h **** /**
   2:Drivers/STM32WLxx_HAL_Driver/Inc/stm32wlxx_ll_gpio.h ****   ******************************************************************************
   3:Drivers/STM32WLxx_HAL_Driver/Inc/stm32wlxx_ll_gpio.h ****   * @file    stm32wlxx_ll_gpio.h
   4:Drivers/STM32WLxx_HAL_Driver/Inc/stm32wlxx_ll_gpio.h ****   * @author  MCD Application Team
   5:Drivers/STM32WLxx_HAL_Driver/Inc/stm32wlxx_ll_gpio.h ****   * @brief   Header file of GPIO LL module.
   6:Drivers/STM32WLxx_HAL_Driver/Inc/stm32wlxx_ll_gpio.h ****   ******************************************************************************
   7:Drivers/STM32WLxx_HAL_Driver/Inc/stm32wlxx_ll_gpio.h ****   * @attention
   8:Drivers/STM32WLxx_HAL_Driver/Inc/stm32wlxx_ll_gpio.h ****   *
   9:Drivers/STM32WLxx_HAL_Driver/Inc/stm32wlxx_ll_gpio.h ****   * Copyright (c) 2020 STMicroelectronics.
  10:Drivers/STM32WLxx_HAL_Driver/Inc/stm32wlxx_ll_gpio.h ****   * All rights reserved.
  11:Drivers/STM32WLxx_HAL_Driver/Inc/stm32wlxx_ll_gpio.h ****   *
  12:Drivers/STM32WLxx_HAL_Driver/Inc/stm32wlxx_ll_gpio.h ****   * This software is licensed under terms that can be found in the LICENSE file
  13:Drivers/STM32WLxx_HAL_Driver/Inc/stm32wlxx_ll_gpio.h ****   * in the root directory of this software component.
  14:Drivers/STM32WLxx_HAL_Driver/Inc/stm32wlxx_ll_gpio.h ****   * If no LICENSE file comes with this software, it is provided AS-IS.
  15:Drivers/STM32WLxx_HAL_Driver/Inc/stm32wlxx_ll_gpio.h ****   *
  16:Drivers/STM32WLxx_HAL_Driver/Inc/stm32wlxx_ll_gpio.h ****   ******************************************************************************
  17:Drivers/STM32WLxx_HAL_Driver/Inc/stm32wlxx_ll_gpio.h ****   */
  18:Drivers/STM32WLxx_HAL_Driver/Inc/stm32wlxx_ll_gpio.h **** 
  19:Drivers/STM32WLxx_HAL_Driver/Inc/stm32wlxx_ll_gpio.h **** /* Define to prevent recursive inclusion -------------------------------------*/
  20:Drivers/STM32WLxx_HAL_Driver/Inc/stm32wlxx_ll_gpio.h **** #ifndef STM32WLxx_LL_GPIO_H
  21:Drivers/STM32WLxx_HAL_Driver/Inc/stm32wlxx_ll_gpio.h **** #define STM32WLxx_LL_GPIO_H
  22:Drivers/STM32WLxx_HAL_Driver/Inc/stm32wlxx_ll_gpio.h **** 
  23:Drivers/STM32WLxx_HAL_Driver/Inc/stm32wlxx_ll_gpio.h **** #ifdef __cplusplus
  24:Drivers/STM32WLxx_HAL_Driver/Inc/stm32wlxx_ll_gpio.h **** extern "C" {
  25:Drivers/STM32WLxx_HAL_Driver/Inc/stm32wlxx_ll_gpio.h **** #endif
  26:Drivers/STM32WLxx_HAL_Driver/Inc/stm32wlxx_ll_gpio.h **** 
  27:Drivers/STM32WLxx_HAL_Driver/Inc/stm32wlxx_ll_gpio.h **** /* Includes ------------------------------------------------------------------*/
  28:Drivers/STM32WLxx_HAL_Driver/Inc/stm32wlxx_ll_gpio.h **** #include "stm32wlxx.h"
  29:Drivers/STM32WLxx_HAL_Driver/Inc/stm32wlxx_ll_gpio.h **** 
  30:Drivers/STM32WLxx_HAL_Driver/Inc/stm32wlxx_ll_gpio.h **** /** @addtogroup STM32WLxx_LL_Driver
  31:Drivers/STM32WLxx_HAL_Driver/Inc/stm32wlxx_ll_gpio.h ****   * @{
  32:Drivers/STM32WLxx_HAL_Driver/Inc/stm32wlxx_ll_gpio.h ****   */
  33:Drivers/STM32WLxx_HAL_Driver/Inc/stm32wlxx_ll_gpio.h **** 
  34:Drivers/STM32WLxx_HAL_Driver/Inc/stm32wlxx_ll_gpio.h **** #if defined (GPIOA) || defined (GPIOB) || defined (GPIOC) ||defined (GPIOH)
  35:Drivers/STM32WLxx_HAL_Driver/Inc/stm32wlxx_ll_gpio.h **** 
  36:Drivers/STM32WLxx_HAL_Driver/Inc/stm32wlxx_ll_gpio.h **** /** @defgroup GPIO_LL GPIO
  37:Drivers/STM32WLxx_HAL_Driver/Inc/stm32wlxx_ll_gpio.h ****   * @{
  38:Drivers/STM32WLxx_HAL_Driver/Inc/stm32wlxx_ll_gpio.h ****   */
  39:Drivers/STM32WLxx_HAL_Driver/Inc/stm32wlxx_ll_gpio.h **** 
  40:Drivers/STM32WLxx_HAL_Driver/Inc/stm32wlxx_ll_gpio.h **** /* Private types -------------------------------------------------------------*/
  41:Drivers/STM32WLxx_HAL_Driver/Inc/stm32wlxx_ll_gpio.h **** /* Private variables ---------------------------------------------------------*/
  42:Drivers/STM32WLxx_HAL_Driver/Inc/stm32wlxx_ll_gpio.h **** /* Private constants ---------------------------------------------------------*/
  43:Drivers/STM32WLxx_HAL_Driver/Inc/stm32wlxx_ll_gpio.h **** /* Private macros ------------------------------------------------------------*/
  44:Drivers/STM32WLxx_HAL_Driver/Inc/stm32wlxx_ll_gpio.h **** #if defined(USE_FULL_LL_DRIVER)
  45:Drivers/STM32WLxx_HAL_Driver/Inc/stm32wlxx_ll_gpio.h **** /** @defgroup GPIO_LL_Private_Macros GPIO Private Macros
  46:Drivers/STM32WLxx_HAL_Driver/Inc/stm32wlxx_ll_gpio.h ****   * @{
  47:Drivers/STM32WLxx_HAL_Driver/Inc/stm32wlxx_ll_gpio.h ****   */
  48:Drivers/STM32WLxx_HAL_Driver/Inc/stm32wlxx_ll_gpio.h **** 
  49:Drivers/STM32WLxx_HAL_Driver/Inc/stm32wlxx_ll_gpio.h **** /**
  50:Drivers/STM32WLxx_HAL_Driver/Inc/stm32wlxx_ll_gpio.h ****   * @}
  51:Drivers/STM32WLxx_HAL_Driver/Inc/stm32wlxx_ll_gpio.h ****   */
  52:Drivers/STM32WLxx_HAL_Driver/Inc/stm32wlxx_ll_gpio.h **** #endif /*USE_FULL_LL_DRIVER*/
  53:Drivers/STM32WLxx_HAL_Driver/Inc/stm32wlxx_ll_gpio.h **** 
  54:Drivers/STM32WLxx_HAL_Driver/Inc/stm32wlxx_ll_gpio.h **** /* Exported types ------------------------------------------------------------*/
  55:Drivers/STM32WLxx_HAL_Driver/Inc/stm32wlxx_ll_gpio.h **** #if defined(USE_FULL_LL_DRIVER)
  56:Drivers/STM32WLxx_HAL_Driver/Inc/stm32wlxx_ll_gpio.h **** /** @defgroup GPIO_LL_ES_INIT GPIO Exported Init structures
ARM GAS  /var/folders/9y/n02fl3g16gnf7ppy14xghdy80000gn/T//ccRj2FZx.s 			page 40


  57:Drivers/STM32WLxx_HAL_Driver/Inc/stm32wlxx_ll_gpio.h ****   * @{
  58:Drivers/STM32WLxx_HAL_Driver/Inc/stm32wlxx_ll_gpio.h ****   */
  59:Drivers/STM32WLxx_HAL_Driver/Inc/stm32wlxx_ll_gpio.h **** 
  60:Drivers/STM32WLxx_HAL_Driver/Inc/stm32wlxx_ll_gpio.h **** /**
  61:Drivers/STM32WLxx_HAL_Driver/Inc/stm32wlxx_ll_gpio.h ****   * @brief LL GPIO Init Structure definition
  62:Drivers/STM32WLxx_HAL_Driver/Inc/stm32wlxx_ll_gpio.h ****   */
  63:Drivers/STM32WLxx_HAL_Driver/Inc/stm32wlxx_ll_gpio.h **** typedef struct
  64:Drivers/STM32WLxx_HAL_Driver/Inc/stm32wlxx_ll_gpio.h **** {
  65:Drivers/STM32WLxx_HAL_Driver/Inc/stm32wlxx_ll_gpio.h ****   uint32_t Pin;          /*!< Specifies the GPIO pins to be configured.
  66:Drivers/STM32WLxx_HAL_Driver/Inc/stm32wlxx_ll_gpio.h ****                               This parameter can be any value of @ref GPIO_LL_EC_PIN */
  67:Drivers/STM32WLxx_HAL_Driver/Inc/stm32wlxx_ll_gpio.h **** 
  68:Drivers/STM32WLxx_HAL_Driver/Inc/stm32wlxx_ll_gpio.h ****   uint32_t Mode;         /*!< Specifies the operating mode for the selected pins.
  69:Drivers/STM32WLxx_HAL_Driver/Inc/stm32wlxx_ll_gpio.h ****                               This parameter can be a value of @ref GPIO_LL_EC_MODE.
  70:Drivers/STM32WLxx_HAL_Driver/Inc/stm32wlxx_ll_gpio.h **** 
  71:Drivers/STM32WLxx_HAL_Driver/Inc/stm32wlxx_ll_gpio.h ****                               GPIO HW configuration can be modified afterwards using
  72:Drivers/STM32WLxx_HAL_Driver/Inc/stm32wlxx_ll_gpio.h ****                               unitary function @ref LL_GPIO_SetPinMode().*/
  73:Drivers/STM32WLxx_HAL_Driver/Inc/stm32wlxx_ll_gpio.h **** 
  74:Drivers/STM32WLxx_HAL_Driver/Inc/stm32wlxx_ll_gpio.h ****   uint32_t Speed;        /*!< Specifies the speed for the selected pins.
  75:Drivers/STM32WLxx_HAL_Driver/Inc/stm32wlxx_ll_gpio.h ****                               This parameter can be a value of @ref GPIO_LL_EC_SPEED.
  76:Drivers/STM32WLxx_HAL_Driver/Inc/stm32wlxx_ll_gpio.h **** 
  77:Drivers/STM32WLxx_HAL_Driver/Inc/stm32wlxx_ll_gpio.h ****                               GPIO HW configuration can be modified afterwards using
  78:Drivers/STM32WLxx_HAL_Driver/Inc/stm32wlxx_ll_gpio.h ****                               unitary function @ref LL_GPIO_SetPinSpeed().*/
  79:Drivers/STM32WLxx_HAL_Driver/Inc/stm32wlxx_ll_gpio.h **** 
  80:Drivers/STM32WLxx_HAL_Driver/Inc/stm32wlxx_ll_gpio.h ****   uint32_t OutputType;   /*!< Specifies the operating output type for the selected pins.
  81:Drivers/STM32WLxx_HAL_Driver/Inc/stm32wlxx_ll_gpio.h ****                               This parameter can be a value of @ref GPIO_LL_EC_OUTPUT.
  82:Drivers/STM32WLxx_HAL_Driver/Inc/stm32wlxx_ll_gpio.h **** 
  83:Drivers/STM32WLxx_HAL_Driver/Inc/stm32wlxx_ll_gpio.h ****                               GPIO HW configuration can be modified afterwards using
  84:Drivers/STM32WLxx_HAL_Driver/Inc/stm32wlxx_ll_gpio.h ****                               unitary function @ref LL_GPIO_SetPinOutputType().*/
  85:Drivers/STM32WLxx_HAL_Driver/Inc/stm32wlxx_ll_gpio.h **** 
  86:Drivers/STM32WLxx_HAL_Driver/Inc/stm32wlxx_ll_gpio.h ****   uint32_t Pull;         /*!< Specifies the operating Pull-up/Pull down for the selected pins.
  87:Drivers/STM32WLxx_HAL_Driver/Inc/stm32wlxx_ll_gpio.h ****                               This parameter can be a value of @ref GPIO_LL_EC_PULL.
  88:Drivers/STM32WLxx_HAL_Driver/Inc/stm32wlxx_ll_gpio.h **** 
  89:Drivers/STM32WLxx_HAL_Driver/Inc/stm32wlxx_ll_gpio.h ****                               GPIO HW configuration can be modified afterwards using
  90:Drivers/STM32WLxx_HAL_Driver/Inc/stm32wlxx_ll_gpio.h ****                               unitary function @ref LL_GPIO_SetPinPull().*/
  91:Drivers/STM32WLxx_HAL_Driver/Inc/stm32wlxx_ll_gpio.h **** 
  92:Drivers/STM32WLxx_HAL_Driver/Inc/stm32wlxx_ll_gpio.h ****   uint32_t Alternate;    /*!< Specifies the Peripheral to be connected to the selected pins.
  93:Drivers/STM32WLxx_HAL_Driver/Inc/stm32wlxx_ll_gpio.h ****                               This parameter can be a value of @ref GPIO_LL_EC_AF.
  94:Drivers/STM32WLxx_HAL_Driver/Inc/stm32wlxx_ll_gpio.h **** 
  95:Drivers/STM32WLxx_HAL_Driver/Inc/stm32wlxx_ll_gpio.h ****                               GPIO HW configuration can be modified afterwards using
  96:Drivers/STM32WLxx_HAL_Driver/Inc/stm32wlxx_ll_gpio.h ****                               unitary function @ref LL_GPIO_SetAFPin_0_7() and LL_GPIO_SetAFPin_8_1
  97:Drivers/STM32WLxx_HAL_Driver/Inc/stm32wlxx_ll_gpio.h **** } LL_GPIO_InitTypeDef;
  98:Drivers/STM32WLxx_HAL_Driver/Inc/stm32wlxx_ll_gpio.h **** 
  99:Drivers/STM32WLxx_HAL_Driver/Inc/stm32wlxx_ll_gpio.h **** /**
 100:Drivers/STM32WLxx_HAL_Driver/Inc/stm32wlxx_ll_gpio.h ****   * @}
 101:Drivers/STM32WLxx_HAL_Driver/Inc/stm32wlxx_ll_gpio.h ****   */
 102:Drivers/STM32WLxx_HAL_Driver/Inc/stm32wlxx_ll_gpio.h **** #endif /* USE_FULL_LL_DRIVER */
 103:Drivers/STM32WLxx_HAL_Driver/Inc/stm32wlxx_ll_gpio.h **** 
 104:Drivers/STM32WLxx_HAL_Driver/Inc/stm32wlxx_ll_gpio.h **** /* Exported constants --------------------------------------------------------*/
 105:Drivers/STM32WLxx_HAL_Driver/Inc/stm32wlxx_ll_gpio.h **** /** @defgroup GPIO_LL_Exported_Constants GPIO Exported Constants
 106:Drivers/STM32WLxx_HAL_Driver/Inc/stm32wlxx_ll_gpio.h ****   * @{
 107:Drivers/STM32WLxx_HAL_Driver/Inc/stm32wlxx_ll_gpio.h ****   */
 108:Drivers/STM32WLxx_HAL_Driver/Inc/stm32wlxx_ll_gpio.h **** 
 109:Drivers/STM32WLxx_HAL_Driver/Inc/stm32wlxx_ll_gpio.h **** /** @defgroup GPIO_LL_EC_PIN PIN
 110:Drivers/STM32WLxx_HAL_Driver/Inc/stm32wlxx_ll_gpio.h ****   * @{
 111:Drivers/STM32WLxx_HAL_Driver/Inc/stm32wlxx_ll_gpio.h ****   */
 112:Drivers/STM32WLxx_HAL_Driver/Inc/stm32wlxx_ll_gpio.h **** #define LL_GPIO_PIN_0                      GPIO_BSRR_BS0 /*!< Select pin 0 */
 113:Drivers/STM32WLxx_HAL_Driver/Inc/stm32wlxx_ll_gpio.h **** #define LL_GPIO_PIN_1                      GPIO_BSRR_BS1 /*!< Select pin 1 */
ARM GAS  /var/folders/9y/n02fl3g16gnf7ppy14xghdy80000gn/T//ccRj2FZx.s 			page 41


 114:Drivers/STM32WLxx_HAL_Driver/Inc/stm32wlxx_ll_gpio.h **** #define LL_GPIO_PIN_2                      GPIO_BSRR_BS2 /*!< Select pin 2 */
 115:Drivers/STM32WLxx_HAL_Driver/Inc/stm32wlxx_ll_gpio.h **** #define LL_GPIO_PIN_3                      GPIO_BSRR_BS3 /*!< Select pin 3 */
 116:Drivers/STM32WLxx_HAL_Driver/Inc/stm32wlxx_ll_gpio.h **** #define LL_GPIO_PIN_4                      GPIO_BSRR_BS4 /*!< Select pin 4 */
 117:Drivers/STM32WLxx_HAL_Driver/Inc/stm32wlxx_ll_gpio.h **** #define LL_GPIO_PIN_5                      GPIO_BSRR_BS5 /*!< Select pin 5 */
 118:Drivers/STM32WLxx_HAL_Driver/Inc/stm32wlxx_ll_gpio.h **** #define LL_GPIO_PIN_6                      GPIO_BSRR_BS6 /*!< Select pin 6 */
 119:Drivers/STM32WLxx_HAL_Driver/Inc/stm32wlxx_ll_gpio.h **** #define LL_GPIO_PIN_7                      GPIO_BSRR_BS7 /*!< Select pin 7 */
 120:Drivers/STM32WLxx_HAL_Driver/Inc/stm32wlxx_ll_gpio.h **** #define LL_GPIO_PIN_8                      GPIO_BSRR_BS8 /*!< Select pin 8 */
 121:Drivers/STM32WLxx_HAL_Driver/Inc/stm32wlxx_ll_gpio.h **** #define LL_GPIO_PIN_9                      GPIO_BSRR_BS9 /*!< Select pin 9 */
 122:Drivers/STM32WLxx_HAL_Driver/Inc/stm32wlxx_ll_gpio.h **** #define LL_GPIO_PIN_10                     GPIO_BSRR_BS10 /*!< Select pin 10 */
 123:Drivers/STM32WLxx_HAL_Driver/Inc/stm32wlxx_ll_gpio.h **** #define LL_GPIO_PIN_11                     GPIO_BSRR_BS11 /*!< Select pin 11 */
 124:Drivers/STM32WLxx_HAL_Driver/Inc/stm32wlxx_ll_gpio.h **** #define LL_GPIO_PIN_12                     GPIO_BSRR_BS12 /*!< Select pin 12 */
 125:Drivers/STM32WLxx_HAL_Driver/Inc/stm32wlxx_ll_gpio.h **** #define LL_GPIO_PIN_13                     GPIO_BSRR_BS13 /*!< Select pin 13 */
 126:Drivers/STM32WLxx_HAL_Driver/Inc/stm32wlxx_ll_gpio.h **** #define LL_GPIO_PIN_14                     GPIO_BSRR_BS14 /*!< Select pin 14 */
 127:Drivers/STM32WLxx_HAL_Driver/Inc/stm32wlxx_ll_gpio.h **** #define LL_GPIO_PIN_15                     GPIO_BSRR_BS15 /*!< Select pin 15 */
 128:Drivers/STM32WLxx_HAL_Driver/Inc/stm32wlxx_ll_gpio.h **** #define LL_GPIO_PIN_ALL                    (GPIO_BSRR_BS0 | GPIO_BSRR_BS1  | GPIO_BSRR_BS2  | \
 129:Drivers/STM32WLxx_HAL_Driver/Inc/stm32wlxx_ll_gpio.h ****                                             GPIO_BSRR_BS3  | GPIO_BSRR_BS4  | GPIO_BSRR_BS5  | \
 130:Drivers/STM32WLxx_HAL_Driver/Inc/stm32wlxx_ll_gpio.h ****                                             GPIO_BSRR_BS6  | GPIO_BSRR_BS7  | GPIO_BSRR_BS8  | \
 131:Drivers/STM32WLxx_HAL_Driver/Inc/stm32wlxx_ll_gpio.h ****                                             GPIO_BSRR_BS9  | GPIO_BSRR_BS10 | GPIO_BSRR_BS11 | \
 132:Drivers/STM32WLxx_HAL_Driver/Inc/stm32wlxx_ll_gpio.h ****                                             GPIO_BSRR_BS12 | GPIO_BSRR_BS13 | GPIO_BSRR_BS14 | \
 133:Drivers/STM32WLxx_HAL_Driver/Inc/stm32wlxx_ll_gpio.h ****                                             GPIO_BSRR_BS15) /*!< Select all pins */
 134:Drivers/STM32WLxx_HAL_Driver/Inc/stm32wlxx_ll_gpio.h **** /**
 135:Drivers/STM32WLxx_HAL_Driver/Inc/stm32wlxx_ll_gpio.h ****   * @}
 136:Drivers/STM32WLxx_HAL_Driver/Inc/stm32wlxx_ll_gpio.h ****   */
 137:Drivers/STM32WLxx_HAL_Driver/Inc/stm32wlxx_ll_gpio.h **** 
 138:Drivers/STM32WLxx_HAL_Driver/Inc/stm32wlxx_ll_gpio.h **** /** @defgroup GPIO_LL_EC_MODE Mode
 139:Drivers/STM32WLxx_HAL_Driver/Inc/stm32wlxx_ll_gpio.h ****   * @{
 140:Drivers/STM32WLxx_HAL_Driver/Inc/stm32wlxx_ll_gpio.h ****   */
 141:Drivers/STM32WLxx_HAL_Driver/Inc/stm32wlxx_ll_gpio.h **** #define LL_GPIO_MODE_INPUT                 (0x00000000U) /*!< Select input mode */
 142:Drivers/STM32WLxx_HAL_Driver/Inc/stm32wlxx_ll_gpio.h **** #define LL_GPIO_MODE_OUTPUT                GPIO_MODER_MODE0_0  /*!< Select output mode */
 143:Drivers/STM32WLxx_HAL_Driver/Inc/stm32wlxx_ll_gpio.h **** #define LL_GPIO_MODE_ALTERNATE             GPIO_MODER_MODE0_1  /*!< Select alternate function mode 
 144:Drivers/STM32WLxx_HAL_Driver/Inc/stm32wlxx_ll_gpio.h **** #define LL_GPIO_MODE_ANALOG                GPIO_MODER_MODE0    /*!< Select analog mode */
 145:Drivers/STM32WLxx_HAL_Driver/Inc/stm32wlxx_ll_gpio.h **** /**
 146:Drivers/STM32WLxx_HAL_Driver/Inc/stm32wlxx_ll_gpio.h ****   * @}
 147:Drivers/STM32WLxx_HAL_Driver/Inc/stm32wlxx_ll_gpio.h ****   */
 148:Drivers/STM32WLxx_HAL_Driver/Inc/stm32wlxx_ll_gpio.h **** 
 149:Drivers/STM32WLxx_HAL_Driver/Inc/stm32wlxx_ll_gpio.h **** /** @defgroup GPIO_LL_EC_OUTPUT Output Type
 150:Drivers/STM32WLxx_HAL_Driver/Inc/stm32wlxx_ll_gpio.h ****   * @{
 151:Drivers/STM32WLxx_HAL_Driver/Inc/stm32wlxx_ll_gpio.h ****   */
 152:Drivers/STM32WLxx_HAL_Driver/Inc/stm32wlxx_ll_gpio.h **** #define LL_GPIO_OUTPUT_PUSHPULL            (0x00000000U) /*!< Select push-pull as output type */
 153:Drivers/STM32WLxx_HAL_Driver/Inc/stm32wlxx_ll_gpio.h **** #define LL_GPIO_OUTPUT_OPENDRAIN           GPIO_OTYPER_OT0 /*!< Select open-drain as output type */
 154:Drivers/STM32WLxx_HAL_Driver/Inc/stm32wlxx_ll_gpio.h **** /**
 155:Drivers/STM32WLxx_HAL_Driver/Inc/stm32wlxx_ll_gpio.h ****   * @}
 156:Drivers/STM32WLxx_HAL_Driver/Inc/stm32wlxx_ll_gpio.h ****   */
 157:Drivers/STM32WLxx_HAL_Driver/Inc/stm32wlxx_ll_gpio.h **** 
 158:Drivers/STM32WLxx_HAL_Driver/Inc/stm32wlxx_ll_gpio.h **** /** @defgroup GPIO_LL_EC_SPEED Output Speed
 159:Drivers/STM32WLxx_HAL_Driver/Inc/stm32wlxx_ll_gpio.h ****   * @{
 160:Drivers/STM32WLxx_HAL_Driver/Inc/stm32wlxx_ll_gpio.h ****   */
 161:Drivers/STM32WLxx_HAL_Driver/Inc/stm32wlxx_ll_gpio.h **** #define LL_GPIO_SPEED_FREQ_LOW             (0x00000000U) /*!< Select I/O low output speed    */
 162:Drivers/STM32WLxx_HAL_Driver/Inc/stm32wlxx_ll_gpio.h **** #define LL_GPIO_SPEED_FREQ_MEDIUM          GPIO_OSPEEDR_OSPEED0_0 /*!< Select I/O medium output spe
 163:Drivers/STM32WLxx_HAL_Driver/Inc/stm32wlxx_ll_gpio.h **** #define LL_GPIO_SPEED_FREQ_HIGH            GPIO_OSPEEDR_OSPEED0_1 /*!< Select I/O fast output speed
 164:Drivers/STM32WLxx_HAL_Driver/Inc/stm32wlxx_ll_gpio.h **** #define LL_GPIO_SPEED_FREQ_VERY_HIGH       GPIO_OSPEEDR_OSPEED0   /*!< Select I/O high output speed
 165:Drivers/STM32WLxx_HAL_Driver/Inc/stm32wlxx_ll_gpio.h **** /**
 166:Drivers/STM32WLxx_HAL_Driver/Inc/stm32wlxx_ll_gpio.h ****   * @}
 167:Drivers/STM32WLxx_HAL_Driver/Inc/stm32wlxx_ll_gpio.h ****   */
 168:Drivers/STM32WLxx_HAL_Driver/Inc/stm32wlxx_ll_gpio.h **** 
 169:Drivers/STM32WLxx_HAL_Driver/Inc/stm32wlxx_ll_gpio.h **** /** @defgroup GPIO_LL_EC_PULL Pull Up Pull Down
 170:Drivers/STM32WLxx_HAL_Driver/Inc/stm32wlxx_ll_gpio.h ****   * @{
ARM GAS  /var/folders/9y/n02fl3g16gnf7ppy14xghdy80000gn/T//ccRj2FZx.s 			page 42


 171:Drivers/STM32WLxx_HAL_Driver/Inc/stm32wlxx_ll_gpio.h ****   */
 172:Drivers/STM32WLxx_HAL_Driver/Inc/stm32wlxx_ll_gpio.h **** #define LL_GPIO_PULL_NO                    (0x00000000U) /*!< Select I/O no pull */
 173:Drivers/STM32WLxx_HAL_Driver/Inc/stm32wlxx_ll_gpio.h **** #define LL_GPIO_PULL_UP                    GPIO_PUPDR_PUPD0_0 /*!< Select I/O pull up */
 174:Drivers/STM32WLxx_HAL_Driver/Inc/stm32wlxx_ll_gpio.h **** #define LL_GPIO_PULL_DOWN                  GPIO_PUPDR_PUPD0_1 /*!< Select I/O pull down */
 175:Drivers/STM32WLxx_HAL_Driver/Inc/stm32wlxx_ll_gpio.h **** /**
 176:Drivers/STM32WLxx_HAL_Driver/Inc/stm32wlxx_ll_gpio.h ****   * @}
 177:Drivers/STM32WLxx_HAL_Driver/Inc/stm32wlxx_ll_gpio.h ****   */
 178:Drivers/STM32WLxx_HAL_Driver/Inc/stm32wlxx_ll_gpio.h **** 
 179:Drivers/STM32WLxx_HAL_Driver/Inc/stm32wlxx_ll_gpio.h **** /** @defgroup GPIO_LL_EC_AF Alternate Function
 180:Drivers/STM32WLxx_HAL_Driver/Inc/stm32wlxx_ll_gpio.h ****   * @{
 181:Drivers/STM32WLxx_HAL_Driver/Inc/stm32wlxx_ll_gpio.h ****   */
 182:Drivers/STM32WLxx_HAL_Driver/Inc/stm32wlxx_ll_gpio.h **** #define LL_GPIO_AF_0                       (0x0000000U) /*!< Select alternate function 0 */
 183:Drivers/STM32WLxx_HAL_Driver/Inc/stm32wlxx_ll_gpio.h **** #define LL_GPIO_AF_1                       (0x0000001U) /*!< Select alternate function 1 */
 184:Drivers/STM32WLxx_HAL_Driver/Inc/stm32wlxx_ll_gpio.h **** #define LL_GPIO_AF_2                       (0x0000002U) /*!< Select alternate function 2 */
 185:Drivers/STM32WLxx_HAL_Driver/Inc/stm32wlxx_ll_gpio.h **** #define LL_GPIO_AF_3                       (0x0000003U) /*!< Select alternate function 3 */
 186:Drivers/STM32WLxx_HAL_Driver/Inc/stm32wlxx_ll_gpio.h **** #define LL_GPIO_AF_4                       (0x0000004U) /*!< Select alternate function 4 */
 187:Drivers/STM32WLxx_HAL_Driver/Inc/stm32wlxx_ll_gpio.h **** #define LL_GPIO_AF_5                       (0x0000005U) /*!< Select alternate function 5 */
 188:Drivers/STM32WLxx_HAL_Driver/Inc/stm32wlxx_ll_gpio.h **** #define LL_GPIO_AF_6                       (0x0000006U) /*!< Select alternate function 6 */
 189:Drivers/STM32WLxx_HAL_Driver/Inc/stm32wlxx_ll_gpio.h **** #define LL_GPIO_AF_7                       (0x0000007U) /*!< Select alternate function 7 */
 190:Drivers/STM32WLxx_HAL_Driver/Inc/stm32wlxx_ll_gpio.h **** #define LL_GPIO_AF_8                       (0x0000008U) /*!< Select alternate function 8 */
 191:Drivers/STM32WLxx_HAL_Driver/Inc/stm32wlxx_ll_gpio.h **** #define LL_GPIO_AF_9                       (0x0000009U) /*!< Select alternate function 9 */
 192:Drivers/STM32WLxx_HAL_Driver/Inc/stm32wlxx_ll_gpio.h **** #define LL_GPIO_AF_10                      (0x000000AU) /*!< Select alternate function 10 */
 193:Drivers/STM32WLxx_HAL_Driver/Inc/stm32wlxx_ll_gpio.h **** #define LL_GPIO_AF_11                      (0x000000BU) /*!< Select alternate function 11 */
 194:Drivers/STM32WLxx_HAL_Driver/Inc/stm32wlxx_ll_gpio.h **** #define LL_GPIO_AF_12                      (0x000000CU) /*!< Select alternate function 12 */
 195:Drivers/STM32WLxx_HAL_Driver/Inc/stm32wlxx_ll_gpio.h **** #define LL_GPIO_AF_13                      (0x000000DU) /*!< Select alternate function 13 */
 196:Drivers/STM32WLxx_HAL_Driver/Inc/stm32wlxx_ll_gpio.h **** #define LL_GPIO_AF_14                      (0x000000EU) /*!< Select alternate function 14 */
 197:Drivers/STM32WLxx_HAL_Driver/Inc/stm32wlxx_ll_gpio.h **** #define LL_GPIO_AF_15                      (0x000000FU) /*!< Select alternate function 15 */
 198:Drivers/STM32WLxx_HAL_Driver/Inc/stm32wlxx_ll_gpio.h **** /**
 199:Drivers/STM32WLxx_HAL_Driver/Inc/stm32wlxx_ll_gpio.h ****   * @}
 200:Drivers/STM32WLxx_HAL_Driver/Inc/stm32wlxx_ll_gpio.h ****   */
 201:Drivers/STM32WLxx_HAL_Driver/Inc/stm32wlxx_ll_gpio.h **** 
 202:Drivers/STM32WLxx_HAL_Driver/Inc/stm32wlxx_ll_gpio.h **** /**
 203:Drivers/STM32WLxx_HAL_Driver/Inc/stm32wlxx_ll_gpio.h ****   * @}
 204:Drivers/STM32WLxx_HAL_Driver/Inc/stm32wlxx_ll_gpio.h ****   */
 205:Drivers/STM32WLxx_HAL_Driver/Inc/stm32wlxx_ll_gpio.h **** 
 206:Drivers/STM32WLxx_HAL_Driver/Inc/stm32wlxx_ll_gpio.h **** /* Exported macro ------------------------------------------------------------*/
 207:Drivers/STM32WLxx_HAL_Driver/Inc/stm32wlxx_ll_gpio.h **** /** @defgroup GPIO_LL_Exported_Macros GPIO Exported Macros
 208:Drivers/STM32WLxx_HAL_Driver/Inc/stm32wlxx_ll_gpio.h ****   * @{
 209:Drivers/STM32WLxx_HAL_Driver/Inc/stm32wlxx_ll_gpio.h ****   */
 210:Drivers/STM32WLxx_HAL_Driver/Inc/stm32wlxx_ll_gpio.h **** 
 211:Drivers/STM32WLxx_HAL_Driver/Inc/stm32wlxx_ll_gpio.h **** /** @defgroup GPIO_LL_EM_WRITE_READ Common Write and read registers Macros
 212:Drivers/STM32WLxx_HAL_Driver/Inc/stm32wlxx_ll_gpio.h ****   * @{
 213:Drivers/STM32WLxx_HAL_Driver/Inc/stm32wlxx_ll_gpio.h ****   */
 214:Drivers/STM32WLxx_HAL_Driver/Inc/stm32wlxx_ll_gpio.h **** 
 215:Drivers/STM32WLxx_HAL_Driver/Inc/stm32wlxx_ll_gpio.h **** /**
 216:Drivers/STM32WLxx_HAL_Driver/Inc/stm32wlxx_ll_gpio.h ****   * @brief  Write a value in GPIO register
 217:Drivers/STM32WLxx_HAL_Driver/Inc/stm32wlxx_ll_gpio.h ****   * @param  __INSTANCE__ GPIO Instance
 218:Drivers/STM32WLxx_HAL_Driver/Inc/stm32wlxx_ll_gpio.h ****   * @param  __REG__ Register to be written
 219:Drivers/STM32WLxx_HAL_Driver/Inc/stm32wlxx_ll_gpio.h ****   * @param  __VALUE__ Value to be written in the register
 220:Drivers/STM32WLxx_HAL_Driver/Inc/stm32wlxx_ll_gpio.h ****   * @retval None
 221:Drivers/STM32WLxx_HAL_Driver/Inc/stm32wlxx_ll_gpio.h ****   */
 222:Drivers/STM32WLxx_HAL_Driver/Inc/stm32wlxx_ll_gpio.h **** #define LL_GPIO_WriteReg(__INSTANCE__, __REG__, __VALUE__) WRITE_REG(__INSTANCE__->__REG__, (__VALU
 223:Drivers/STM32WLxx_HAL_Driver/Inc/stm32wlxx_ll_gpio.h **** 
 224:Drivers/STM32WLxx_HAL_Driver/Inc/stm32wlxx_ll_gpio.h **** /**
 225:Drivers/STM32WLxx_HAL_Driver/Inc/stm32wlxx_ll_gpio.h ****   * @brief  Read a value in GPIO register
 226:Drivers/STM32WLxx_HAL_Driver/Inc/stm32wlxx_ll_gpio.h ****   * @param  __INSTANCE__ GPIO Instance
 227:Drivers/STM32WLxx_HAL_Driver/Inc/stm32wlxx_ll_gpio.h ****   * @param  __REG__ Register to be read
ARM GAS  /var/folders/9y/n02fl3g16gnf7ppy14xghdy80000gn/T//ccRj2FZx.s 			page 43


 228:Drivers/STM32WLxx_HAL_Driver/Inc/stm32wlxx_ll_gpio.h ****   * @retval Register value
 229:Drivers/STM32WLxx_HAL_Driver/Inc/stm32wlxx_ll_gpio.h ****   */
 230:Drivers/STM32WLxx_HAL_Driver/Inc/stm32wlxx_ll_gpio.h **** #define LL_GPIO_ReadReg(__INSTANCE__, __REG__) READ_REG(__INSTANCE__->__REG__)
 231:Drivers/STM32WLxx_HAL_Driver/Inc/stm32wlxx_ll_gpio.h **** /**
 232:Drivers/STM32WLxx_HAL_Driver/Inc/stm32wlxx_ll_gpio.h ****   * @}
 233:Drivers/STM32WLxx_HAL_Driver/Inc/stm32wlxx_ll_gpio.h ****   */
 234:Drivers/STM32WLxx_HAL_Driver/Inc/stm32wlxx_ll_gpio.h **** 
 235:Drivers/STM32WLxx_HAL_Driver/Inc/stm32wlxx_ll_gpio.h **** /**
 236:Drivers/STM32WLxx_HAL_Driver/Inc/stm32wlxx_ll_gpio.h ****   * @}
 237:Drivers/STM32WLxx_HAL_Driver/Inc/stm32wlxx_ll_gpio.h ****   */
 238:Drivers/STM32WLxx_HAL_Driver/Inc/stm32wlxx_ll_gpio.h **** 
 239:Drivers/STM32WLxx_HAL_Driver/Inc/stm32wlxx_ll_gpio.h **** /* Exported functions --------------------------------------------------------*/
 240:Drivers/STM32WLxx_HAL_Driver/Inc/stm32wlxx_ll_gpio.h **** /** @defgroup GPIO_LL_Exported_Functions GPIO Exported Functions
 241:Drivers/STM32WLxx_HAL_Driver/Inc/stm32wlxx_ll_gpio.h ****   * @{
 242:Drivers/STM32WLxx_HAL_Driver/Inc/stm32wlxx_ll_gpio.h ****   */
 243:Drivers/STM32WLxx_HAL_Driver/Inc/stm32wlxx_ll_gpio.h **** 
 244:Drivers/STM32WLxx_HAL_Driver/Inc/stm32wlxx_ll_gpio.h **** /** @defgroup GPIO_LL_EF_Port_Configuration Port Configuration
 245:Drivers/STM32WLxx_HAL_Driver/Inc/stm32wlxx_ll_gpio.h ****   * @{
 246:Drivers/STM32WLxx_HAL_Driver/Inc/stm32wlxx_ll_gpio.h ****   */
 247:Drivers/STM32WLxx_HAL_Driver/Inc/stm32wlxx_ll_gpio.h **** 
 248:Drivers/STM32WLxx_HAL_Driver/Inc/stm32wlxx_ll_gpio.h **** /**
 249:Drivers/STM32WLxx_HAL_Driver/Inc/stm32wlxx_ll_gpio.h ****   * @brief  Configure gpio mode for a dedicated pin on dedicated port.
 250:Drivers/STM32WLxx_HAL_Driver/Inc/stm32wlxx_ll_gpio.h ****   * @note   I/O mode can be Input mode, General purpose output, Alternate function mode or Analog.
 251:Drivers/STM32WLxx_HAL_Driver/Inc/stm32wlxx_ll_gpio.h ****   * @note   Warning: only one pin can be passed as parameter.
 252:Drivers/STM32WLxx_HAL_Driver/Inc/stm32wlxx_ll_gpio.h ****   * @rmtoll MODER        MODEy         LL_GPIO_SetPinMode
 253:Drivers/STM32WLxx_HAL_Driver/Inc/stm32wlxx_ll_gpio.h ****   * @param  GPIOx GPIO Port
 254:Drivers/STM32WLxx_HAL_Driver/Inc/stm32wlxx_ll_gpio.h ****   * @param  Pin This parameter can be one of the following values:
 255:Drivers/STM32WLxx_HAL_Driver/Inc/stm32wlxx_ll_gpio.h ****   *         @arg @ref LL_GPIO_PIN_0
 256:Drivers/STM32WLxx_HAL_Driver/Inc/stm32wlxx_ll_gpio.h ****   *         @arg @ref LL_GPIO_PIN_1
 257:Drivers/STM32WLxx_HAL_Driver/Inc/stm32wlxx_ll_gpio.h ****   *         @arg @ref LL_GPIO_PIN_2
 258:Drivers/STM32WLxx_HAL_Driver/Inc/stm32wlxx_ll_gpio.h ****   *         @arg @ref LL_GPIO_PIN_3
 259:Drivers/STM32WLxx_HAL_Driver/Inc/stm32wlxx_ll_gpio.h ****   *         @arg @ref LL_GPIO_PIN_4
 260:Drivers/STM32WLxx_HAL_Driver/Inc/stm32wlxx_ll_gpio.h ****   *         @arg @ref LL_GPIO_PIN_5
 261:Drivers/STM32WLxx_HAL_Driver/Inc/stm32wlxx_ll_gpio.h ****   *         @arg @ref LL_GPIO_PIN_6
 262:Drivers/STM32WLxx_HAL_Driver/Inc/stm32wlxx_ll_gpio.h ****   *         @arg @ref LL_GPIO_PIN_7
 263:Drivers/STM32WLxx_HAL_Driver/Inc/stm32wlxx_ll_gpio.h ****   *         @arg @ref LL_GPIO_PIN_8
 264:Drivers/STM32WLxx_HAL_Driver/Inc/stm32wlxx_ll_gpio.h ****   *         @arg @ref LL_GPIO_PIN_9
 265:Drivers/STM32WLxx_HAL_Driver/Inc/stm32wlxx_ll_gpio.h ****   *         @arg @ref LL_GPIO_PIN_10
 266:Drivers/STM32WLxx_HAL_Driver/Inc/stm32wlxx_ll_gpio.h ****   *         @arg @ref LL_GPIO_PIN_11
 267:Drivers/STM32WLxx_HAL_Driver/Inc/stm32wlxx_ll_gpio.h ****   *         @arg @ref LL_GPIO_PIN_12
 268:Drivers/STM32WLxx_HAL_Driver/Inc/stm32wlxx_ll_gpio.h ****   *         @arg @ref LL_GPIO_PIN_13
 269:Drivers/STM32WLxx_HAL_Driver/Inc/stm32wlxx_ll_gpio.h ****   *         @arg @ref LL_GPIO_PIN_14
 270:Drivers/STM32WLxx_HAL_Driver/Inc/stm32wlxx_ll_gpio.h ****   *         @arg @ref LL_GPIO_PIN_15
 271:Drivers/STM32WLxx_HAL_Driver/Inc/stm32wlxx_ll_gpio.h ****   * @param  Mode This parameter can be one of the following values:
 272:Drivers/STM32WLxx_HAL_Driver/Inc/stm32wlxx_ll_gpio.h ****   *         @arg @ref LL_GPIO_MODE_INPUT
 273:Drivers/STM32WLxx_HAL_Driver/Inc/stm32wlxx_ll_gpio.h ****   *         @arg @ref LL_GPIO_MODE_OUTPUT
 274:Drivers/STM32WLxx_HAL_Driver/Inc/stm32wlxx_ll_gpio.h ****   *         @arg @ref LL_GPIO_MODE_ALTERNATE
 275:Drivers/STM32WLxx_HAL_Driver/Inc/stm32wlxx_ll_gpio.h ****   *         @arg @ref LL_GPIO_MODE_ANALOG
 276:Drivers/STM32WLxx_HAL_Driver/Inc/stm32wlxx_ll_gpio.h ****   * @retval None
 277:Drivers/STM32WLxx_HAL_Driver/Inc/stm32wlxx_ll_gpio.h ****   */
 278:Drivers/STM32WLxx_HAL_Driver/Inc/stm32wlxx_ll_gpio.h **** __STATIC_INLINE void LL_GPIO_SetPinMode(GPIO_TypeDef *GPIOx, uint32_t Pin, uint32_t Mode)
 279:Drivers/STM32WLxx_HAL_Driver/Inc/stm32wlxx_ll_gpio.h **** {
 280:Drivers/STM32WLxx_HAL_Driver/Inc/stm32wlxx_ll_gpio.h **** #if defined(CORE_CM0PLUS)
 281:Drivers/STM32WLxx_HAL_Driver/Inc/stm32wlxx_ll_gpio.h ****   MODIFY_REG(GPIOx->MODER, ((Pin * Pin) * GPIO_MODER_MODE0), ((Pin * Pin) * Mode));
 282:Drivers/STM32WLxx_HAL_Driver/Inc/stm32wlxx_ll_gpio.h **** #else
 283:Drivers/STM32WLxx_HAL_Driver/Inc/stm32wlxx_ll_gpio.h ****   MODIFY_REG(GPIOx->MODER, (GPIO_MODER_MODE0 << (POSITION_VAL(Pin) * 2U)), (Mode << (POSITION_VAL(P
 284:Drivers/STM32WLxx_HAL_Driver/Inc/stm32wlxx_ll_gpio.h **** #endif /* CORE_CM0PLUS */
ARM GAS  /var/folders/9y/n02fl3g16gnf7ppy14xghdy80000gn/T//ccRj2FZx.s 			page 44


 285:Drivers/STM32WLxx_HAL_Driver/Inc/stm32wlxx_ll_gpio.h **** }
 286:Drivers/STM32WLxx_HAL_Driver/Inc/stm32wlxx_ll_gpio.h **** 
 287:Drivers/STM32WLxx_HAL_Driver/Inc/stm32wlxx_ll_gpio.h **** /**
 288:Drivers/STM32WLxx_HAL_Driver/Inc/stm32wlxx_ll_gpio.h ****   * @brief  Return gpio mode for a dedicated pin on dedicated port.
 289:Drivers/STM32WLxx_HAL_Driver/Inc/stm32wlxx_ll_gpio.h ****   * @note   I/O mode can be Input mode, General purpose output, Alternate function mode or Analog.
 290:Drivers/STM32WLxx_HAL_Driver/Inc/stm32wlxx_ll_gpio.h ****   * @note   Warning: only one pin can be passed as parameter.
 291:Drivers/STM32WLxx_HAL_Driver/Inc/stm32wlxx_ll_gpio.h ****   * @rmtoll MODER        MODEy         LL_GPIO_GetPinMode
 292:Drivers/STM32WLxx_HAL_Driver/Inc/stm32wlxx_ll_gpio.h ****   * @param  GPIOx GPIO Port
 293:Drivers/STM32WLxx_HAL_Driver/Inc/stm32wlxx_ll_gpio.h ****   * @param  Pin This parameter can be one of the following values:
 294:Drivers/STM32WLxx_HAL_Driver/Inc/stm32wlxx_ll_gpio.h ****   *         @arg @ref LL_GPIO_PIN_0
 295:Drivers/STM32WLxx_HAL_Driver/Inc/stm32wlxx_ll_gpio.h ****   *         @arg @ref LL_GPIO_PIN_1
 296:Drivers/STM32WLxx_HAL_Driver/Inc/stm32wlxx_ll_gpio.h ****   *         @arg @ref LL_GPIO_PIN_2
 297:Drivers/STM32WLxx_HAL_Driver/Inc/stm32wlxx_ll_gpio.h ****   *         @arg @ref LL_GPIO_PIN_3
 298:Drivers/STM32WLxx_HAL_Driver/Inc/stm32wlxx_ll_gpio.h ****   *         @arg @ref LL_GPIO_PIN_4
 299:Drivers/STM32WLxx_HAL_Driver/Inc/stm32wlxx_ll_gpio.h ****   *         @arg @ref LL_GPIO_PIN_5
 300:Drivers/STM32WLxx_HAL_Driver/Inc/stm32wlxx_ll_gpio.h ****   *         @arg @ref LL_GPIO_PIN_6
 301:Drivers/STM32WLxx_HAL_Driver/Inc/stm32wlxx_ll_gpio.h ****   *         @arg @ref LL_GPIO_PIN_7
 302:Drivers/STM32WLxx_HAL_Driver/Inc/stm32wlxx_ll_gpio.h ****   *         @arg @ref LL_GPIO_PIN_8
 303:Drivers/STM32WLxx_HAL_Driver/Inc/stm32wlxx_ll_gpio.h ****   *         @arg @ref LL_GPIO_PIN_9
 304:Drivers/STM32WLxx_HAL_Driver/Inc/stm32wlxx_ll_gpio.h ****   *         @arg @ref LL_GPIO_PIN_10
 305:Drivers/STM32WLxx_HAL_Driver/Inc/stm32wlxx_ll_gpio.h ****   *         @arg @ref LL_GPIO_PIN_11
 306:Drivers/STM32WLxx_HAL_Driver/Inc/stm32wlxx_ll_gpio.h ****   *         @arg @ref LL_GPIO_PIN_12
 307:Drivers/STM32WLxx_HAL_Driver/Inc/stm32wlxx_ll_gpio.h ****   *         @arg @ref LL_GPIO_PIN_13
 308:Drivers/STM32WLxx_HAL_Driver/Inc/stm32wlxx_ll_gpio.h ****   *         @arg @ref LL_GPIO_PIN_14
 309:Drivers/STM32WLxx_HAL_Driver/Inc/stm32wlxx_ll_gpio.h ****   *         @arg @ref LL_GPIO_PIN_15
 310:Drivers/STM32WLxx_HAL_Driver/Inc/stm32wlxx_ll_gpio.h ****   * @retval Returned value can be one of the following values:
 311:Drivers/STM32WLxx_HAL_Driver/Inc/stm32wlxx_ll_gpio.h ****   *         @arg @ref LL_GPIO_MODE_INPUT
 312:Drivers/STM32WLxx_HAL_Driver/Inc/stm32wlxx_ll_gpio.h ****   *         @arg @ref LL_GPIO_MODE_OUTPUT
 313:Drivers/STM32WLxx_HAL_Driver/Inc/stm32wlxx_ll_gpio.h ****   *         @arg @ref LL_GPIO_MODE_ALTERNATE
 314:Drivers/STM32WLxx_HAL_Driver/Inc/stm32wlxx_ll_gpio.h ****   *         @arg @ref LL_GPIO_MODE_ANALOG
 315:Drivers/STM32WLxx_HAL_Driver/Inc/stm32wlxx_ll_gpio.h ****   */
 316:Drivers/STM32WLxx_HAL_Driver/Inc/stm32wlxx_ll_gpio.h **** __STATIC_INLINE uint32_t LL_GPIO_GetPinMode(GPIO_TypeDef *GPIOx, uint32_t Pin)
 317:Drivers/STM32WLxx_HAL_Driver/Inc/stm32wlxx_ll_gpio.h **** {
 318:Drivers/STM32WLxx_HAL_Driver/Inc/stm32wlxx_ll_gpio.h **** #if defined(CORE_CM0PLUS)
 319:Drivers/STM32WLxx_HAL_Driver/Inc/stm32wlxx_ll_gpio.h ****   return (uint32_t)(READ_BIT(GPIOx->MODER, ((Pin * Pin) * GPIO_MODER_MODE0)) / (Pin * Pin));
 320:Drivers/STM32WLxx_HAL_Driver/Inc/stm32wlxx_ll_gpio.h **** #else
 321:Drivers/STM32WLxx_HAL_Driver/Inc/stm32wlxx_ll_gpio.h ****   return (uint32_t)(READ_BIT(GPIOx->MODER,
 322:Drivers/STM32WLxx_HAL_Driver/Inc/stm32wlxx_ll_gpio.h ****                              (GPIO_MODER_MODE0 << (POSITION_VAL(Pin) * 2U))) >> (POSITION_VAL(Pin) 
 323:Drivers/STM32WLxx_HAL_Driver/Inc/stm32wlxx_ll_gpio.h **** #endif /* CORE_CM0PLUS */
 324:Drivers/STM32WLxx_HAL_Driver/Inc/stm32wlxx_ll_gpio.h **** }
 325:Drivers/STM32WLxx_HAL_Driver/Inc/stm32wlxx_ll_gpio.h **** 
 326:Drivers/STM32WLxx_HAL_Driver/Inc/stm32wlxx_ll_gpio.h **** /**
 327:Drivers/STM32WLxx_HAL_Driver/Inc/stm32wlxx_ll_gpio.h ****   * @brief  Configure gpio output type for several pins on dedicated port.
 328:Drivers/STM32WLxx_HAL_Driver/Inc/stm32wlxx_ll_gpio.h ****   * @note   Output type as to be set when gpio pin is in output or
 329:Drivers/STM32WLxx_HAL_Driver/Inc/stm32wlxx_ll_gpio.h ****   *         alternate modes. Possible type are Push-pull or Open-drain.
 330:Drivers/STM32WLxx_HAL_Driver/Inc/stm32wlxx_ll_gpio.h ****   * @rmtoll OTYPER       OTy           LL_GPIO_SetPinOutputType
 331:Drivers/STM32WLxx_HAL_Driver/Inc/stm32wlxx_ll_gpio.h ****   * @param  GPIOx GPIO Port
 332:Drivers/STM32WLxx_HAL_Driver/Inc/stm32wlxx_ll_gpio.h ****   * @param  PinMask This parameter can be a combination of the following values:
 333:Drivers/STM32WLxx_HAL_Driver/Inc/stm32wlxx_ll_gpio.h ****   *         @arg @ref LL_GPIO_PIN_0
 334:Drivers/STM32WLxx_HAL_Driver/Inc/stm32wlxx_ll_gpio.h ****   *         @arg @ref LL_GPIO_PIN_1
 335:Drivers/STM32WLxx_HAL_Driver/Inc/stm32wlxx_ll_gpio.h ****   *         @arg @ref LL_GPIO_PIN_2
 336:Drivers/STM32WLxx_HAL_Driver/Inc/stm32wlxx_ll_gpio.h ****   *         @arg @ref LL_GPIO_PIN_3
 337:Drivers/STM32WLxx_HAL_Driver/Inc/stm32wlxx_ll_gpio.h ****   *         @arg @ref LL_GPIO_PIN_4
 338:Drivers/STM32WLxx_HAL_Driver/Inc/stm32wlxx_ll_gpio.h ****   *         @arg @ref LL_GPIO_PIN_5
 339:Drivers/STM32WLxx_HAL_Driver/Inc/stm32wlxx_ll_gpio.h ****   *         @arg @ref LL_GPIO_PIN_6
 340:Drivers/STM32WLxx_HAL_Driver/Inc/stm32wlxx_ll_gpio.h ****   *         @arg @ref LL_GPIO_PIN_7
 341:Drivers/STM32WLxx_HAL_Driver/Inc/stm32wlxx_ll_gpio.h ****   *         @arg @ref LL_GPIO_PIN_8
ARM GAS  /var/folders/9y/n02fl3g16gnf7ppy14xghdy80000gn/T//ccRj2FZx.s 			page 45


 342:Drivers/STM32WLxx_HAL_Driver/Inc/stm32wlxx_ll_gpio.h ****   *         @arg @ref LL_GPIO_PIN_9
 343:Drivers/STM32WLxx_HAL_Driver/Inc/stm32wlxx_ll_gpio.h ****   *         @arg @ref LL_GPIO_PIN_10
 344:Drivers/STM32WLxx_HAL_Driver/Inc/stm32wlxx_ll_gpio.h ****   *         @arg @ref LL_GPIO_PIN_11
 345:Drivers/STM32WLxx_HAL_Driver/Inc/stm32wlxx_ll_gpio.h ****   *         @arg @ref LL_GPIO_PIN_12
 346:Drivers/STM32WLxx_HAL_Driver/Inc/stm32wlxx_ll_gpio.h ****   *         @arg @ref LL_GPIO_PIN_13
 347:Drivers/STM32WLxx_HAL_Driver/Inc/stm32wlxx_ll_gpio.h ****   *         @arg @ref LL_GPIO_PIN_14
 348:Drivers/STM32WLxx_HAL_Driver/Inc/stm32wlxx_ll_gpio.h ****   *         @arg @ref LL_GPIO_PIN_15
 349:Drivers/STM32WLxx_HAL_Driver/Inc/stm32wlxx_ll_gpio.h ****   *         @arg @ref LL_GPIO_PIN_ALL
 350:Drivers/STM32WLxx_HAL_Driver/Inc/stm32wlxx_ll_gpio.h ****   * @param  OutputType This parameter can be one of the following values:
 351:Drivers/STM32WLxx_HAL_Driver/Inc/stm32wlxx_ll_gpio.h ****   *         @arg @ref LL_GPIO_OUTPUT_PUSHPULL
 352:Drivers/STM32WLxx_HAL_Driver/Inc/stm32wlxx_ll_gpio.h ****   *         @arg @ref LL_GPIO_OUTPUT_OPENDRAIN
 353:Drivers/STM32WLxx_HAL_Driver/Inc/stm32wlxx_ll_gpio.h ****   * @retval None
 354:Drivers/STM32WLxx_HAL_Driver/Inc/stm32wlxx_ll_gpio.h ****   */
 355:Drivers/STM32WLxx_HAL_Driver/Inc/stm32wlxx_ll_gpio.h **** __STATIC_INLINE void LL_GPIO_SetPinOutputType(GPIO_TypeDef *GPIOx, uint32_t PinMask, uint32_t Outpu
 356:Drivers/STM32WLxx_HAL_Driver/Inc/stm32wlxx_ll_gpio.h **** {
 357:Drivers/STM32WLxx_HAL_Driver/Inc/stm32wlxx_ll_gpio.h ****   MODIFY_REG(GPIOx->OTYPER, PinMask, (PinMask * OutputType));
 358:Drivers/STM32WLxx_HAL_Driver/Inc/stm32wlxx_ll_gpio.h **** }
 359:Drivers/STM32WLxx_HAL_Driver/Inc/stm32wlxx_ll_gpio.h **** 
 360:Drivers/STM32WLxx_HAL_Driver/Inc/stm32wlxx_ll_gpio.h **** /**
 361:Drivers/STM32WLxx_HAL_Driver/Inc/stm32wlxx_ll_gpio.h ****   * @brief  Return gpio output type for several pins on dedicated port.
 362:Drivers/STM32WLxx_HAL_Driver/Inc/stm32wlxx_ll_gpio.h ****   * @note   Output type as to be set when gpio pin is in output or
 363:Drivers/STM32WLxx_HAL_Driver/Inc/stm32wlxx_ll_gpio.h ****   *         alternate modes. Possible type are Push-pull or Open-drain.
 364:Drivers/STM32WLxx_HAL_Driver/Inc/stm32wlxx_ll_gpio.h ****   * @note   Warning: only one pin can be passed as parameter.
 365:Drivers/STM32WLxx_HAL_Driver/Inc/stm32wlxx_ll_gpio.h ****   * @rmtoll OTYPER       OTy           LL_GPIO_GetPinOutputType
 366:Drivers/STM32WLxx_HAL_Driver/Inc/stm32wlxx_ll_gpio.h ****   * @param  GPIOx GPIO Port
 367:Drivers/STM32WLxx_HAL_Driver/Inc/stm32wlxx_ll_gpio.h ****   * @param  Pin This parameter can be one of the following values:
 368:Drivers/STM32WLxx_HAL_Driver/Inc/stm32wlxx_ll_gpio.h ****   *         @arg @ref LL_GPIO_PIN_0
 369:Drivers/STM32WLxx_HAL_Driver/Inc/stm32wlxx_ll_gpio.h ****   *         @arg @ref LL_GPIO_PIN_1
 370:Drivers/STM32WLxx_HAL_Driver/Inc/stm32wlxx_ll_gpio.h ****   *         @arg @ref LL_GPIO_PIN_2
 371:Drivers/STM32WLxx_HAL_Driver/Inc/stm32wlxx_ll_gpio.h ****   *         @arg @ref LL_GPIO_PIN_3
 372:Drivers/STM32WLxx_HAL_Driver/Inc/stm32wlxx_ll_gpio.h ****   *         @arg @ref LL_GPIO_PIN_4
 373:Drivers/STM32WLxx_HAL_Driver/Inc/stm32wlxx_ll_gpio.h ****   *         @arg @ref LL_GPIO_PIN_5
 374:Drivers/STM32WLxx_HAL_Driver/Inc/stm32wlxx_ll_gpio.h ****   *         @arg @ref LL_GPIO_PIN_6
 375:Drivers/STM32WLxx_HAL_Driver/Inc/stm32wlxx_ll_gpio.h ****   *         @arg @ref LL_GPIO_PIN_7
 376:Drivers/STM32WLxx_HAL_Driver/Inc/stm32wlxx_ll_gpio.h ****   *         @arg @ref LL_GPIO_PIN_8
 377:Drivers/STM32WLxx_HAL_Driver/Inc/stm32wlxx_ll_gpio.h ****   *         @arg @ref LL_GPIO_PIN_9
 378:Drivers/STM32WLxx_HAL_Driver/Inc/stm32wlxx_ll_gpio.h ****   *         @arg @ref LL_GPIO_PIN_10
 379:Drivers/STM32WLxx_HAL_Driver/Inc/stm32wlxx_ll_gpio.h ****   *         @arg @ref LL_GPIO_PIN_11
 380:Drivers/STM32WLxx_HAL_Driver/Inc/stm32wlxx_ll_gpio.h ****   *         @arg @ref LL_GPIO_PIN_12
 381:Drivers/STM32WLxx_HAL_Driver/Inc/stm32wlxx_ll_gpio.h ****   *         @arg @ref LL_GPIO_PIN_13
 382:Drivers/STM32WLxx_HAL_Driver/Inc/stm32wlxx_ll_gpio.h ****   *         @arg @ref LL_GPIO_PIN_14
 383:Drivers/STM32WLxx_HAL_Driver/Inc/stm32wlxx_ll_gpio.h ****   *         @arg @ref LL_GPIO_PIN_15
 384:Drivers/STM32WLxx_HAL_Driver/Inc/stm32wlxx_ll_gpio.h ****   *         @arg @ref LL_GPIO_PIN_ALL
 385:Drivers/STM32WLxx_HAL_Driver/Inc/stm32wlxx_ll_gpio.h ****   * @retval Returned value can be one of the following values:
 386:Drivers/STM32WLxx_HAL_Driver/Inc/stm32wlxx_ll_gpio.h ****   *         @arg @ref LL_GPIO_OUTPUT_PUSHPULL
 387:Drivers/STM32WLxx_HAL_Driver/Inc/stm32wlxx_ll_gpio.h ****   *         @arg @ref LL_GPIO_OUTPUT_OPENDRAIN
 388:Drivers/STM32WLxx_HAL_Driver/Inc/stm32wlxx_ll_gpio.h ****   */
 389:Drivers/STM32WLxx_HAL_Driver/Inc/stm32wlxx_ll_gpio.h **** __STATIC_INLINE uint32_t LL_GPIO_GetPinOutputType(GPIO_TypeDef *GPIOx, uint32_t Pin)
 390:Drivers/STM32WLxx_HAL_Driver/Inc/stm32wlxx_ll_gpio.h **** {
 391:Drivers/STM32WLxx_HAL_Driver/Inc/stm32wlxx_ll_gpio.h **** #if defined(CORE_CM0PLUS)
 392:Drivers/STM32WLxx_HAL_Driver/Inc/stm32wlxx_ll_gpio.h ****   return (uint32_t)(READ_BIT(GPIOx->OTYPER, Pin) / Pin);
 393:Drivers/STM32WLxx_HAL_Driver/Inc/stm32wlxx_ll_gpio.h **** #else
 394:Drivers/STM32WLxx_HAL_Driver/Inc/stm32wlxx_ll_gpio.h ****   return (uint32_t)(READ_BIT(GPIOx->OTYPER, Pin) >> POSITION_VAL(Pin));
 395:Drivers/STM32WLxx_HAL_Driver/Inc/stm32wlxx_ll_gpio.h **** #endif /* CORE_CM0PLUS */
 396:Drivers/STM32WLxx_HAL_Driver/Inc/stm32wlxx_ll_gpio.h **** }
 397:Drivers/STM32WLxx_HAL_Driver/Inc/stm32wlxx_ll_gpio.h **** 
 398:Drivers/STM32WLxx_HAL_Driver/Inc/stm32wlxx_ll_gpio.h **** /**
ARM GAS  /var/folders/9y/n02fl3g16gnf7ppy14xghdy80000gn/T//ccRj2FZx.s 			page 46


 399:Drivers/STM32WLxx_HAL_Driver/Inc/stm32wlxx_ll_gpio.h ****   * @brief  Configure gpio speed for a dedicated pin on dedicated port.
 400:Drivers/STM32WLxx_HAL_Driver/Inc/stm32wlxx_ll_gpio.h ****   * @note   I/O speed can be Low, Medium, Fast or High speed.
 401:Drivers/STM32WLxx_HAL_Driver/Inc/stm32wlxx_ll_gpio.h ****   * @note   Warning: only one pin can be passed as parameter.
 402:Drivers/STM32WLxx_HAL_Driver/Inc/stm32wlxx_ll_gpio.h ****   * @note   Refer to datasheet for frequency specifications and the power
 403:Drivers/STM32WLxx_HAL_Driver/Inc/stm32wlxx_ll_gpio.h ****   *         supply and load conditions for each speed.
 404:Drivers/STM32WLxx_HAL_Driver/Inc/stm32wlxx_ll_gpio.h ****   * @rmtoll OSPEEDR      OSPEEDy       LL_GPIO_SetPinSpeed
 405:Drivers/STM32WLxx_HAL_Driver/Inc/stm32wlxx_ll_gpio.h ****   * @param  GPIOx GPIO Port
 406:Drivers/STM32WLxx_HAL_Driver/Inc/stm32wlxx_ll_gpio.h ****   * @param  Pin This parameter can be one of the following values:
 407:Drivers/STM32WLxx_HAL_Driver/Inc/stm32wlxx_ll_gpio.h ****   *         @arg @ref LL_GPIO_PIN_0
 408:Drivers/STM32WLxx_HAL_Driver/Inc/stm32wlxx_ll_gpio.h ****   *         @arg @ref LL_GPIO_PIN_1
 409:Drivers/STM32WLxx_HAL_Driver/Inc/stm32wlxx_ll_gpio.h ****   *         @arg @ref LL_GPIO_PIN_2
 410:Drivers/STM32WLxx_HAL_Driver/Inc/stm32wlxx_ll_gpio.h ****   *         @arg @ref LL_GPIO_PIN_3
 411:Drivers/STM32WLxx_HAL_Driver/Inc/stm32wlxx_ll_gpio.h ****   *         @arg @ref LL_GPIO_PIN_4
 412:Drivers/STM32WLxx_HAL_Driver/Inc/stm32wlxx_ll_gpio.h ****   *         @arg @ref LL_GPIO_PIN_5
 413:Drivers/STM32WLxx_HAL_Driver/Inc/stm32wlxx_ll_gpio.h ****   *         @arg @ref LL_GPIO_PIN_6
 414:Drivers/STM32WLxx_HAL_Driver/Inc/stm32wlxx_ll_gpio.h ****   *         @arg @ref LL_GPIO_PIN_7
 415:Drivers/STM32WLxx_HAL_Driver/Inc/stm32wlxx_ll_gpio.h ****   *         @arg @ref LL_GPIO_PIN_8
 416:Drivers/STM32WLxx_HAL_Driver/Inc/stm32wlxx_ll_gpio.h ****   *         @arg @ref LL_GPIO_PIN_9
 417:Drivers/STM32WLxx_HAL_Driver/Inc/stm32wlxx_ll_gpio.h ****   *         @arg @ref LL_GPIO_PIN_10
 418:Drivers/STM32WLxx_HAL_Driver/Inc/stm32wlxx_ll_gpio.h ****   *         @arg @ref LL_GPIO_PIN_11
 419:Drivers/STM32WLxx_HAL_Driver/Inc/stm32wlxx_ll_gpio.h ****   *         @arg @ref LL_GPIO_PIN_12
 420:Drivers/STM32WLxx_HAL_Driver/Inc/stm32wlxx_ll_gpio.h ****   *         @arg @ref LL_GPIO_PIN_13
 421:Drivers/STM32WLxx_HAL_Driver/Inc/stm32wlxx_ll_gpio.h ****   *         @arg @ref LL_GPIO_PIN_14
 422:Drivers/STM32WLxx_HAL_Driver/Inc/stm32wlxx_ll_gpio.h ****   *         @arg @ref LL_GPIO_PIN_15
 423:Drivers/STM32WLxx_HAL_Driver/Inc/stm32wlxx_ll_gpio.h ****   * @param  Speed This parameter can be one of the following values:
 424:Drivers/STM32WLxx_HAL_Driver/Inc/stm32wlxx_ll_gpio.h ****   *         @arg @ref LL_GPIO_SPEED_FREQ_LOW
 425:Drivers/STM32WLxx_HAL_Driver/Inc/stm32wlxx_ll_gpio.h ****   *         @arg @ref LL_GPIO_SPEED_FREQ_MEDIUM
 426:Drivers/STM32WLxx_HAL_Driver/Inc/stm32wlxx_ll_gpio.h ****   *         @arg @ref LL_GPIO_SPEED_FREQ_HIGH
 427:Drivers/STM32WLxx_HAL_Driver/Inc/stm32wlxx_ll_gpio.h ****   *         @arg @ref LL_GPIO_SPEED_FREQ_VERY_HIGH
 428:Drivers/STM32WLxx_HAL_Driver/Inc/stm32wlxx_ll_gpio.h ****   * @retval None
 429:Drivers/STM32WLxx_HAL_Driver/Inc/stm32wlxx_ll_gpio.h ****   */
 430:Drivers/STM32WLxx_HAL_Driver/Inc/stm32wlxx_ll_gpio.h **** __STATIC_INLINE void LL_GPIO_SetPinSpeed(GPIO_TypeDef *GPIOx, uint32_t Pin, uint32_t  Speed)
 328              		.loc 4 430 22 view .LVU85
 329              	.LBB178:
 431:Drivers/STM32WLxx_HAL_Driver/Inc/stm32wlxx_ll_gpio.h **** {
 432:Drivers/STM32WLxx_HAL_Driver/Inc/stm32wlxx_ll_gpio.h **** #if defined(CORE_CM0PLUS)
 433:Drivers/STM32WLxx_HAL_Driver/Inc/stm32wlxx_ll_gpio.h ****   MODIFY_REG(GPIOx->OSPEEDR, ((Pin * Pin) * GPIO_OSPEEDR_OSPEED0), ((Pin * Pin) * Speed));
 434:Drivers/STM32WLxx_HAL_Driver/Inc/stm32wlxx_ll_gpio.h **** #else
 435:Drivers/STM32WLxx_HAL_Driver/Inc/stm32wlxx_ll_gpio.h ****   MODIFY_REG(GPIOx->OSPEEDR, (GPIO_OSPEEDR_OSPEED0 << (POSITION_VAL(Pin) * 2U)),
 330              		.loc 4 435 3 view .LVU86
 331 001e 8568     		ldr	r5, [r0, #8]
 332              	.LVL26:
 333              	.LBB179:
 334              	.LBI179:
1048:Drivers/CMSIS/Include/cmsis_gcc.h **** {
 335              		.loc 3 1048 31 view .LVU87
 336              	.LBB180:
1050:Drivers/CMSIS/Include/cmsis_gcc.h **** 
 337              		.loc 3 1050 3 view .LVU88
1055:Drivers/CMSIS/Include/cmsis_gcc.h **** #else
 338              		.loc 3 1055 4 view .LVU89
 339              		.syntax unified
 340              	@ 1055 "Drivers/CMSIS/Include/cmsis_gcc.h" 1
 341 0020 93FAA3F4 		rbit r4, r3
 342              	@ 0 "" 2
 343              	.LVL27:
1068:Drivers/CMSIS/Include/cmsis_gcc.h **** }
ARM GAS  /var/folders/9y/n02fl3g16gnf7ppy14xghdy80000gn/T//ccRj2FZx.s 			page 47


 344              		.loc 3 1068 3 view .LVU90
1068:Drivers/CMSIS/Include/cmsis_gcc.h **** }
 345              		.loc 3 1068 3 is_stmt 0 view .LVU91
 346              		.thumb
 347              		.syntax unified
 348              	.LBE180:
 349              	.LBE179:
 350              	.LBB181:
 351              	.LBI181:
1078:Drivers/CMSIS/Include/cmsis_gcc.h **** {
 352              		.loc 3 1078 30 is_stmt 1 view .LVU92
 353              	.LBB182:
1089:Drivers/CMSIS/Include/cmsis_gcc.h ****   {
 354              		.loc 3 1089 3 view .LVU93
1089:Drivers/CMSIS/Include/cmsis_gcc.h ****   {
 355              		.loc 3 1089 6 is_stmt 0 view .LVU94
 356 0024 DCB1     		cbz	r4, .L36
 357              		.loc 3 1093 3 is_stmt 1 view .LVU95
 358              		.loc 3 1093 10 is_stmt 0 view .LVU96
 359 0026 B4FA84F4 		clz	r4, r4
 360              	.LVL28:
 361              	.L20:
 362              		.loc 3 1093 10 view .LVU97
 363              	.LBE182:
 364              	.LBE181:
 365              		.loc 4 435 3 view .LVU98
 366 002a 6400     		lsls	r4, r4, #1
 367 002c 4FF0030C 		mov	ip, #3
 368 0030 0CFA04F4 		lsl	r4, ip, r4
 369 0034 25EA0405 		bic	r5, r5, r4
 370              	.LVL29:
 371              	.LBB184:
 372              	.LBI184:
1048:Drivers/CMSIS/Include/cmsis_gcc.h **** {
 373              		.loc 3 1048 31 is_stmt 1 view .LVU99
 374              	.LBB185:
1050:Drivers/CMSIS/Include/cmsis_gcc.h **** 
 375              		.loc 3 1050 3 view .LVU100
1055:Drivers/CMSIS/Include/cmsis_gcc.h **** #else
 376              		.loc 3 1055 4 view .LVU101
 377              		.syntax unified
 378              	@ 1055 "Drivers/CMSIS/Include/cmsis_gcc.h" 1
 379 0038 93FAA3F4 		rbit r4, r3
 380              	@ 0 "" 2
 381              	.LVL30:
1068:Drivers/CMSIS/Include/cmsis_gcc.h **** }
 382              		.loc 3 1068 3 view .LVU102
1068:Drivers/CMSIS/Include/cmsis_gcc.h **** }
 383              		.loc 3 1068 3 is_stmt 0 view .LVU103
 384              		.thumb
 385              		.syntax unified
 386              	.LBE185:
 387              	.LBE184:
 388              	.LBB186:
 389              	.LBI186:
1078:Drivers/CMSIS/Include/cmsis_gcc.h **** {
 390              		.loc 3 1078 30 is_stmt 1 view .LVU104
ARM GAS  /var/folders/9y/n02fl3g16gnf7ppy14xghdy80000gn/T//ccRj2FZx.s 			page 48


 391              	.LBB187:
1089:Drivers/CMSIS/Include/cmsis_gcc.h ****   {
 392              		.loc 3 1089 3 view .LVU105
1089:Drivers/CMSIS/Include/cmsis_gcc.h ****   {
 393              		.loc 3 1089 6 is_stmt 0 view .LVU106
 394 003c 8CB1     		cbz	r4, .L37
 395              		.loc 3 1093 3 is_stmt 1 view .LVU107
 396              		.loc 3 1093 10 is_stmt 0 view .LVU108
 397 003e B4FA84F4 		clz	r4, r4
 398              	.LVL31:
 399              	.L21:
 400              		.loc 3 1093 10 view .LVU109
 401              	.LBE187:
 402              	.LBE186:
 403              		.loc 4 435 3 view .LVU110
 404 0042 6400     		lsls	r4, r4, #1
 405 0044 06FA04F4 		lsl	r4, r6, r4
 406 0048 2C43     		orrs	r4, r4, r5
 407 004a 8460     		str	r4, [r0, #8]
 408              	.LVL32:
 409              		.loc 4 435 3 view .LVU111
 410              	.LBE178:
 411              	.LBE177:
 187:Drivers/STM32WLxx_HAL_Driver/Src/stm32wlxx_ll_gpio.c **** 
 188:Drivers/STM32WLxx_HAL_Driver/Src/stm32wlxx_ll_gpio.c ****         /* Check Output mode parameters */
 189:Drivers/STM32WLxx_HAL_Driver/Src/stm32wlxx_ll_gpio.c ****         assert_param(IS_LL_GPIO_OUTPUT_TYPE(GPIO_InitStruct->OutputType));
 412              		.loc 1 189 9 is_stmt 1 view .LVU112
 190:Drivers/STM32WLxx_HAL_Driver/Src/stm32wlxx_ll_gpio.c **** 
 191:Drivers/STM32WLxx_HAL_Driver/Src/stm32wlxx_ll_gpio.c ****         /* Output mode configuration*/
 192:Drivers/STM32WLxx_HAL_Driver/Src/stm32wlxx_ll_gpio.c ****         LL_GPIO_SetPinOutputType(GPIOx, currentpin, GPIO_InitStruct->OutputType);
 413              		.loc 1 192 9 view .LVU113
 414 004c CD68     		ldr	r5, [r1, #12]
 415              	.LVL33:
 416              	.LBB192:
 417              	.LBI192:
 355:Drivers/STM32WLxx_HAL_Driver/Inc/stm32wlxx_ll_gpio.h **** {
 418              		.loc 4 355 22 view .LVU114
 419              	.LBB193:
 357:Drivers/STM32WLxx_HAL_Driver/Inc/stm32wlxx_ll_gpio.h **** }
 420              		.loc 4 357 3 view .LVU115
 421 004e 4468     		ldr	r4, [r0, #4]
 422 0050 24EA0304 		bic	r4, r4, r3
 423 0054 03FB05F5 		mul	r5, r3, r5
 424              	.LVL34:
 357:Drivers/STM32WLxx_HAL_Driver/Inc/stm32wlxx_ll_gpio.h **** }
 425              		.loc 4 357 3 is_stmt 0 view .LVU116
 426 0058 2C43     		orrs	r4, r4, r5
 427 005a 4460     		str	r4, [r0, #4]
 428              	.LVL35:
 358:Drivers/STM32WLxx_HAL_Driver/Inc/stm32wlxx_ll_gpio.h **** 
 429              		.loc 4 358 1 view .LVU117
 430 005c 55E0     		b	.L19
 431              	.LVL36:
 432              	.L36:
 358:Drivers/STM32WLxx_HAL_Driver/Inc/stm32wlxx_ll_gpio.h **** 
 433              		.loc 4 358 1 view .LVU118
 434              	.LBE193:
ARM GAS  /var/folders/9y/n02fl3g16gnf7ppy14xghdy80000gn/T//ccRj2FZx.s 			page 49


 435              	.LBE192:
 436              	.LBB194:
 437              	.LBB191:
 438              	.LBB189:
 439              	.LBB183:
1091:Drivers/CMSIS/Include/cmsis_gcc.h ****   }
 440              		.loc 3 1091 12 view .LVU119
 441 005e 2024     		movs	r4, #32
 442              	.LVL37:
1091:Drivers/CMSIS/Include/cmsis_gcc.h ****   }
 443              		.loc 3 1091 12 view .LVU120
 444 0060 E3E7     		b	.L20
 445              	.LVL38:
 446              	.L37:
1091:Drivers/CMSIS/Include/cmsis_gcc.h ****   }
 447              		.loc 3 1091 12 view .LVU121
 448              	.LBE183:
 449              	.LBE189:
 450              	.LBB190:
 451              	.LBB188:
 452 0062 2024     		movs	r4, #32
 453              	.LVL39:
1091:Drivers/CMSIS/Include/cmsis_gcc.h ****   }
 454              		.loc 3 1091 12 view .LVU122
 455 0064 EDE7     		b	.L21
 456              	.LVL40:
 457              	.L38:
1091:Drivers/CMSIS/Include/cmsis_gcc.h ****   }
 458              		.loc 3 1091 12 view .LVU123
 459              	.LBE188:
 460              	.LBE190:
 461              	.LBE191:
 462              	.LBE194:
 463              	.LBB195:
 464              	.LBB196:
 465              	.LBB197:
 466              	.LBB198:
 467 0066 2024     		movs	r4, #32
 468              	.LVL41:
1091:Drivers/CMSIS/Include/cmsis_gcc.h ****   }
 469              		.loc 3 1091 12 view .LVU124
 470 0068 57E0     		b	.L22
 471              	.LVL42:
 472              	.L39:
1091:Drivers/CMSIS/Include/cmsis_gcc.h ****   }
 473              		.loc 3 1091 12 view .LVU125
 474              	.LBE198:
 475              	.LBE197:
 476              	.LBB200:
 477              	.LBB201:
 478 006a 2024     		movs	r4, #32
 479              	.LVL43:
1091:Drivers/CMSIS/Include/cmsis_gcc.h ****   }
 480              		.loc 3 1091 12 view .LVU126
 481 006c 62E0     		b	.L23
 482              	.LVL44:
 483              	.L40:
ARM GAS  /var/folders/9y/n02fl3g16gnf7ppy14xghdy80000gn/T//ccRj2FZx.s 			page 50


1091:Drivers/CMSIS/Include/cmsis_gcc.h ****   }
 484              		.loc 3 1091 12 view .LVU127
 485              	.LBE201:
 486              	.LBE200:
 487              	.LBE196:
 488              	.LBE195:
 489              	.LBB210:
 490              	.LBB211:
 491              	.LBB212:
 492              	.LBB213:
 493 006e 2024     		movs	r4, #32
 494              	.LVL45:
1091:Drivers/CMSIS/Include/cmsis_gcc.h ****   }
 495              		.loc 3 1091 12 view .LVU128
 496 0070 72E0     		b	.L26
 497              	.LVL46:
 498              	.L41:
1091:Drivers/CMSIS/Include/cmsis_gcc.h ****   }
 499              		.loc 3 1091 12 view .LVU129
 500              	.LBE213:
 501              	.LBE212:
 502              	.LBB215:
 503              	.LBB216:
 504 0072 2024     		movs	r4, #32
 505              	.LVL47:
 506              	.L27:
1091:Drivers/CMSIS/Include/cmsis_gcc.h ****   }
 507              		.loc 3 1091 12 view .LVU130
 508              	.LBE216:
 509              	.LBE215:
 436:Drivers/STM32WLxx_HAL_Driver/Inc/stm32wlxx_ll_gpio.h ****              (Speed << (POSITION_VAL(Pin) * 2U)));
 437:Drivers/STM32WLxx_HAL_Driver/Inc/stm32wlxx_ll_gpio.h **** #endif /* CORE_CM0PLUS */
 438:Drivers/STM32WLxx_HAL_Driver/Inc/stm32wlxx_ll_gpio.h **** }
 439:Drivers/STM32WLxx_HAL_Driver/Inc/stm32wlxx_ll_gpio.h **** 
 440:Drivers/STM32WLxx_HAL_Driver/Inc/stm32wlxx_ll_gpio.h **** /**
 441:Drivers/STM32WLxx_HAL_Driver/Inc/stm32wlxx_ll_gpio.h ****   * @brief  Return gpio speed for a dedicated pin on dedicated port.
 442:Drivers/STM32WLxx_HAL_Driver/Inc/stm32wlxx_ll_gpio.h ****   * @note   I/O speed can be Low, Medium, Fast or High speed.
 443:Drivers/STM32WLxx_HAL_Driver/Inc/stm32wlxx_ll_gpio.h ****   * @note   Warning: only one pin can be passed as parameter.
 444:Drivers/STM32WLxx_HAL_Driver/Inc/stm32wlxx_ll_gpio.h ****   * @note   Refer to datasheet for frequency specifications and the power
 445:Drivers/STM32WLxx_HAL_Driver/Inc/stm32wlxx_ll_gpio.h ****   *         supply and load conditions for each speed.
 446:Drivers/STM32WLxx_HAL_Driver/Inc/stm32wlxx_ll_gpio.h ****   * @rmtoll OSPEEDR      OSPEEDy       LL_GPIO_GetPinSpeed
 447:Drivers/STM32WLxx_HAL_Driver/Inc/stm32wlxx_ll_gpio.h ****   * @param  GPIOx GPIO Port
 448:Drivers/STM32WLxx_HAL_Driver/Inc/stm32wlxx_ll_gpio.h ****   * @param  Pin This parameter can be one of the following values:
 449:Drivers/STM32WLxx_HAL_Driver/Inc/stm32wlxx_ll_gpio.h ****   *         @arg @ref LL_GPIO_PIN_0
 450:Drivers/STM32WLxx_HAL_Driver/Inc/stm32wlxx_ll_gpio.h ****   *         @arg @ref LL_GPIO_PIN_1
 451:Drivers/STM32WLxx_HAL_Driver/Inc/stm32wlxx_ll_gpio.h ****   *         @arg @ref LL_GPIO_PIN_2
 452:Drivers/STM32WLxx_HAL_Driver/Inc/stm32wlxx_ll_gpio.h ****   *         @arg @ref LL_GPIO_PIN_3
 453:Drivers/STM32WLxx_HAL_Driver/Inc/stm32wlxx_ll_gpio.h ****   *         @arg @ref LL_GPIO_PIN_4
 454:Drivers/STM32WLxx_HAL_Driver/Inc/stm32wlxx_ll_gpio.h ****   *         @arg @ref LL_GPIO_PIN_5
 455:Drivers/STM32WLxx_HAL_Driver/Inc/stm32wlxx_ll_gpio.h ****   *         @arg @ref LL_GPIO_PIN_6
 456:Drivers/STM32WLxx_HAL_Driver/Inc/stm32wlxx_ll_gpio.h ****   *         @arg @ref LL_GPIO_PIN_7
 457:Drivers/STM32WLxx_HAL_Driver/Inc/stm32wlxx_ll_gpio.h ****   *         @arg @ref LL_GPIO_PIN_8
 458:Drivers/STM32WLxx_HAL_Driver/Inc/stm32wlxx_ll_gpio.h ****   *         @arg @ref LL_GPIO_PIN_9
 459:Drivers/STM32WLxx_HAL_Driver/Inc/stm32wlxx_ll_gpio.h ****   *         @arg @ref LL_GPIO_PIN_10
 460:Drivers/STM32WLxx_HAL_Driver/Inc/stm32wlxx_ll_gpio.h ****   *         @arg @ref LL_GPIO_PIN_11
 461:Drivers/STM32WLxx_HAL_Driver/Inc/stm32wlxx_ll_gpio.h ****   *         @arg @ref LL_GPIO_PIN_12
 462:Drivers/STM32WLxx_HAL_Driver/Inc/stm32wlxx_ll_gpio.h ****   *         @arg @ref LL_GPIO_PIN_13
ARM GAS  /var/folders/9y/n02fl3g16gnf7ppy14xghdy80000gn/T//ccRj2FZx.s 			page 51


 463:Drivers/STM32WLxx_HAL_Driver/Inc/stm32wlxx_ll_gpio.h ****   *         @arg @ref LL_GPIO_PIN_14
 464:Drivers/STM32WLxx_HAL_Driver/Inc/stm32wlxx_ll_gpio.h ****   *         @arg @ref LL_GPIO_PIN_15
 465:Drivers/STM32WLxx_HAL_Driver/Inc/stm32wlxx_ll_gpio.h ****   * @retval Returned value can be one of the following values:
 466:Drivers/STM32WLxx_HAL_Driver/Inc/stm32wlxx_ll_gpio.h ****   *         @arg @ref LL_GPIO_SPEED_FREQ_LOW
 467:Drivers/STM32WLxx_HAL_Driver/Inc/stm32wlxx_ll_gpio.h ****   *         @arg @ref LL_GPIO_SPEED_FREQ_MEDIUM
 468:Drivers/STM32WLxx_HAL_Driver/Inc/stm32wlxx_ll_gpio.h ****   *         @arg @ref LL_GPIO_SPEED_FREQ_HIGH
 469:Drivers/STM32WLxx_HAL_Driver/Inc/stm32wlxx_ll_gpio.h ****   *         @arg @ref LL_GPIO_SPEED_FREQ_VERY_HIGH
 470:Drivers/STM32WLxx_HAL_Driver/Inc/stm32wlxx_ll_gpio.h ****   */
 471:Drivers/STM32WLxx_HAL_Driver/Inc/stm32wlxx_ll_gpio.h **** __STATIC_INLINE uint32_t LL_GPIO_GetPinSpeed(GPIO_TypeDef *GPIOx, uint32_t Pin)
 472:Drivers/STM32WLxx_HAL_Driver/Inc/stm32wlxx_ll_gpio.h **** {
 473:Drivers/STM32WLxx_HAL_Driver/Inc/stm32wlxx_ll_gpio.h **** #if defined(CORE_CM0PLUS)
 474:Drivers/STM32WLxx_HAL_Driver/Inc/stm32wlxx_ll_gpio.h ****   return (uint32_t)(READ_BIT(GPIOx->OSPEEDR, ((Pin * Pin) * GPIO_OSPEEDR_OSPEED0)) / (Pin * Pin));
 475:Drivers/STM32WLxx_HAL_Driver/Inc/stm32wlxx_ll_gpio.h **** #else
 476:Drivers/STM32WLxx_HAL_Driver/Inc/stm32wlxx_ll_gpio.h ****   return (uint32_t)(READ_BIT(GPIOx->OSPEEDR,
 477:Drivers/STM32WLxx_HAL_Driver/Inc/stm32wlxx_ll_gpio.h ****                              (GPIO_OSPEEDR_OSPEED0 << (POSITION_VAL(Pin) * 2U))) >> (POSITION_VAL(P
 478:Drivers/STM32WLxx_HAL_Driver/Inc/stm32wlxx_ll_gpio.h **** #endif /* CORE_CM0PLUS */
 479:Drivers/STM32WLxx_HAL_Driver/Inc/stm32wlxx_ll_gpio.h **** }
 480:Drivers/STM32WLxx_HAL_Driver/Inc/stm32wlxx_ll_gpio.h **** 
 481:Drivers/STM32WLxx_HAL_Driver/Inc/stm32wlxx_ll_gpio.h **** /**
 482:Drivers/STM32WLxx_HAL_Driver/Inc/stm32wlxx_ll_gpio.h ****   * @brief  Configure gpio pull-up or pull-down for a dedicated pin on a dedicated port.
 483:Drivers/STM32WLxx_HAL_Driver/Inc/stm32wlxx_ll_gpio.h ****   * @note   Warning: only one pin can be passed as parameter.
 484:Drivers/STM32WLxx_HAL_Driver/Inc/stm32wlxx_ll_gpio.h ****   * @rmtoll PUPDR        PUPDy         LL_GPIO_SetPinPull
 485:Drivers/STM32WLxx_HAL_Driver/Inc/stm32wlxx_ll_gpio.h ****   * @param  GPIOx GPIO Port
 486:Drivers/STM32WLxx_HAL_Driver/Inc/stm32wlxx_ll_gpio.h ****   * @param  Pin This parameter can be one of the following values:
 487:Drivers/STM32WLxx_HAL_Driver/Inc/stm32wlxx_ll_gpio.h ****   *         @arg @ref LL_GPIO_PIN_0
 488:Drivers/STM32WLxx_HAL_Driver/Inc/stm32wlxx_ll_gpio.h ****   *         @arg @ref LL_GPIO_PIN_1
 489:Drivers/STM32WLxx_HAL_Driver/Inc/stm32wlxx_ll_gpio.h ****   *         @arg @ref LL_GPIO_PIN_2
 490:Drivers/STM32WLxx_HAL_Driver/Inc/stm32wlxx_ll_gpio.h ****   *         @arg @ref LL_GPIO_PIN_3
 491:Drivers/STM32WLxx_HAL_Driver/Inc/stm32wlxx_ll_gpio.h ****   *         @arg @ref LL_GPIO_PIN_4
 492:Drivers/STM32WLxx_HAL_Driver/Inc/stm32wlxx_ll_gpio.h ****   *         @arg @ref LL_GPIO_PIN_5
 493:Drivers/STM32WLxx_HAL_Driver/Inc/stm32wlxx_ll_gpio.h ****   *         @arg @ref LL_GPIO_PIN_6
 494:Drivers/STM32WLxx_HAL_Driver/Inc/stm32wlxx_ll_gpio.h ****   *         @arg @ref LL_GPIO_PIN_7
 495:Drivers/STM32WLxx_HAL_Driver/Inc/stm32wlxx_ll_gpio.h ****   *         @arg @ref LL_GPIO_PIN_8
 496:Drivers/STM32WLxx_HAL_Driver/Inc/stm32wlxx_ll_gpio.h ****   *         @arg @ref LL_GPIO_PIN_9
 497:Drivers/STM32WLxx_HAL_Driver/Inc/stm32wlxx_ll_gpio.h ****   *         @arg @ref LL_GPIO_PIN_10
 498:Drivers/STM32WLxx_HAL_Driver/Inc/stm32wlxx_ll_gpio.h ****   *         @arg @ref LL_GPIO_PIN_11
 499:Drivers/STM32WLxx_HAL_Driver/Inc/stm32wlxx_ll_gpio.h ****   *         @arg @ref LL_GPIO_PIN_12
 500:Drivers/STM32WLxx_HAL_Driver/Inc/stm32wlxx_ll_gpio.h ****   *         @arg @ref LL_GPIO_PIN_13
 501:Drivers/STM32WLxx_HAL_Driver/Inc/stm32wlxx_ll_gpio.h ****   *         @arg @ref LL_GPIO_PIN_14
 502:Drivers/STM32WLxx_HAL_Driver/Inc/stm32wlxx_ll_gpio.h ****   *         @arg @ref LL_GPIO_PIN_15
 503:Drivers/STM32WLxx_HAL_Driver/Inc/stm32wlxx_ll_gpio.h ****   * @param  Pull This parameter can be one of the following values:
 504:Drivers/STM32WLxx_HAL_Driver/Inc/stm32wlxx_ll_gpio.h ****   *         @arg @ref LL_GPIO_PULL_NO
 505:Drivers/STM32WLxx_HAL_Driver/Inc/stm32wlxx_ll_gpio.h ****   *         @arg @ref LL_GPIO_PULL_UP
 506:Drivers/STM32WLxx_HAL_Driver/Inc/stm32wlxx_ll_gpio.h ****   *         @arg @ref LL_GPIO_PULL_DOWN
 507:Drivers/STM32WLxx_HAL_Driver/Inc/stm32wlxx_ll_gpio.h ****   * @retval None
 508:Drivers/STM32WLxx_HAL_Driver/Inc/stm32wlxx_ll_gpio.h ****   */
 509:Drivers/STM32WLxx_HAL_Driver/Inc/stm32wlxx_ll_gpio.h **** __STATIC_INLINE void LL_GPIO_SetPinPull(GPIO_TypeDef *GPIOx, uint32_t Pin, uint32_t Pull)
 510:Drivers/STM32WLxx_HAL_Driver/Inc/stm32wlxx_ll_gpio.h **** {
 511:Drivers/STM32WLxx_HAL_Driver/Inc/stm32wlxx_ll_gpio.h **** #if defined(CORE_CM0PLUS)
 512:Drivers/STM32WLxx_HAL_Driver/Inc/stm32wlxx_ll_gpio.h ****   MODIFY_REG(GPIOx->PUPDR, ((Pin * Pin) * GPIO_PUPDR_PUPD0), ((Pin * Pin) * Pull));
 513:Drivers/STM32WLxx_HAL_Driver/Inc/stm32wlxx_ll_gpio.h **** #else
 514:Drivers/STM32WLxx_HAL_Driver/Inc/stm32wlxx_ll_gpio.h ****   MODIFY_REG(GPIOx->PUPDR, (GPIO_PUPDR_PUPD0 << (POSITION_VAL(Pin) * 2U)), (Pull << (POSITION_VAL(P
 515:Drivers/STM32WLxx_HAL_Driver/Inc/stm32wlxx_ll_gpio.h **** #endif /* CORE_CM0PLUS */
 516:Drivers/STM32WLxx_HAL_Driver/Inc/stm32wlxx_ll_gpio.h **** }
 517:Drivers/STM32WLxx_HAL_Driver/Inc/stm32wlxx_ll_gpio.h **** 
 518:Drivers/STM32WLxx_HAL_Driver/Inc/stm32wlxx_ll_gpio.h **** /**
 519:Drivers/STM32WLxx_HAL_Driver/Inc/stm32wlxx_ll_gpio.h ****   * @brief  Return gpio pull-up or pull-down for a dedicated pin on a dedicated port
ARM GAS  /var/folders/9y/n02fl3g16gnf7ppy14xghdy80000gn/T//ccRj2FZx.s 			page 52


 520:Drivers/STM32WLxx_HAL_Driver/Inc/stm32wlxx_ll_gpio.h ****   * @note   Warning: only one pin can be passed as parameter.
 521:Drivers/STM32WLxx_HAL_Driver/Inc/stm32wlxx_ll_gpio.h ****   * @rmtoll PUPDR        PUPDy         LL_GPIO_GetPinPull
 522:Drivers/STM32WLxx_HAL_Driver/Inc/stm32wlxx_ll_gpio.h ****   * @param  GPIOx GPIO Port
 523:Drivers/STM32WLxx_HAL_Driver/Inc/stm32wlxx_ll_gpio.h ****   * @param  Pin This parameter can be one of the following values:
 524:Drivers/STM32WLxx_HAL_Driver/Inc/stm32wlxx_ll_gpio.h ****   *         @arg @ref LL_GPIO_PIN_0
 525:Drivers/STM32WLxx_HAL_Driver/Inc/stm32wlxx_ll_gpio.h ****   *         @arg @ref LL_GPIO_PIN_1
 526:Drivers/STM32WLxx_HAL_Driver/Inc/stm32wlxx_ll_gpio.h ****   *         @arg @ref LL_GPIO_PIN_2
 527:Drivers/STM32WLxx_HAL_Driver/Inc/stm32wlxx_ll_gpio.h ****   *         @arg @ref LL_GPIO_PIN_3
 528:Drivers/STM32WLxx_HAL_Driver/Inc/stm32wlxx_ll_gpio.h ****   *         @arg @ref LL_GPIO_PIN_4
 529:Drivers/STM32WLxx_HAL_Driver/Inc/stm32wlxx_ll_gpio.h ****   *         @arg @ref LL_GPIO_PIN_5
 530:Drivers/STM32WLxx_HAL_Driver/Inc/stm32wlxx_ll_gpio.h ****   *         @arg @ref LL_GPIO_PIN_6
 531:Drivers/STM32WLxx_HAL_Driver/Inc/stm32wlxx_ll_gpio.h ****   *         @arg @ref LL_GPIO_PIN_7
 532:Drivers/STM32WLxx_HAL_Driver/Inc/stm32wlxx_ll_gpio.h ****   *         @arg @ref LL_GPIO_PIN_8
 533:Drivers/STM32WLxx_HAL_Driver/Inc/stm32wlxx_ll_gpio.h ****   *         @arg @ref LL_GPIO_PIN_9
 534:Drivers/STM32WLxx_HAL_Driver/Inc/stm32wlxx_ll_gpio.h ****   *         @arg @ref LL_GPIO_PIN_10
 535:Drivers/STM32WLxx_HAL_Driver/Inc/stm32wlxx_ll_gpio.h ****   *         @arg @ref LL_GPIO_PIN_11
 536:Drivers/STM32WLxx_HAL_Driver/Inc/stm32wlxx_ll_gpio.h ****   *         @arg @ref LL_GPIO_PIN_12
 537:Drivers/STM32WLxx_HAL_Driver/Inc/stm32wlxx_ll_gpio.h ****   *         @arg @ref LL_GPIO_PIN_13
 538:Drivers/STM32WLxx_HAL_Driver/Inc/stm32wlxx_ll_gpio.h ****   *         @arg @ref LL_GPIO_PIN_14
 539:Drivers/STM32WLxx_HAL_Driver/Inc/stm32wlxx_ll_gpio.h ****   *         @arg @ref LL_GPIO_PIN_15
 540:Drivers/STM32WLxx_HAL_Driver/Inc/stm32wlxx_ll_gpio.h ****   * @retval Returned value can be one of the following values:
 541:Drivers/STM32WLxx_HAL_Driver/Inc/stm32wlxx_ll_gpio.h ****   *         @arg @ref LL_GPIO_PULL_NO
 542:Drivers/STM32WLxx_HAL_Driver/Inc/stm32wlxx_ll_gpio.h ****   *         @arg @ref LL_GPIO_PULL_UP
 543:Drivers/STM32WLxx_HAL_Driver/Inc/stm32wlxx_ll_gpio.h ****   *         @arg @ref LL_GPIO_PULL_DOWN
 544:Drivers/STM32WLxx_HAL_Driver/Inc/stm32wlxx_ll_gpio.h ****   */
 545:Drivers/STM32WLxx_HAL_Driver/Inc/stm32wlxx_ll_gpio.h **** __STATIC_INLINE uint32_t LL_GPIO_GetPinPull(GPIO_TypeDef *GPIOx, uint32_t Pin)
 546:Drivers/STM32WLxx_HAL_Driver/Inc/stm32wlxx_ll_gpio.h **** {
 547:Drivers/STM32WLxx_HAL_Driver/Inc/stm32wlxx_ll_gpio.h **** #if defined(CORE_CM0PLUS)
 548:Drivers/STM32WLxx_HAL_Driver/Inc/stm32wlxx_ll_gpio.h ****   return (uint32_t)(READ_BIT(GPIOx->PUPDR, ((Pin * Pin) * GPIO_PUPDR_PUPD0)) / (Pin * Pin));
 549:Drivers/STM32WLxx_HAL_Driver/Inc/stm32wlxx_ll_gpio.h **** #else
 550:Drivers/STM32WLxx_HAL_Driver/Inc/stm32wlxx_ll_gpio.h ****   return (uint32_t)(READ_BIT(GPIOx->PUPDR,
 551:Drivers/STM32WLxx_HAL_Driver/Inc/stm32wlxx_ll_gpio.h ****                              (GPIO_PUPDR_PUPD0 << (POSITION_VAL(Pin) * 2U))) >> (POSITION_VAL(Pin) 
 552:Drivers/STM32WLxx_HAL_Driver/Inc/stm32wlxx_ll_gpio.h **** #endif /* CORE_CM0PLUS */
 553:Drivers/STM32WLxx_HAL_Driver/Inc/stm32wlxx_ll_gpio.h **** }
 554:Drivers/STM32WLxx_HAL_Driver/Inc/stm32wlxx_ll_gpio.h **** 
 555:Drivers/STM32WLxx_HAL_Driver/Inc/stm32wlxx_ll_gpio.h **** /**
 556:Drivers/STM32WLxx_HAL_Driver/Inc/stm32wlxx_ll_gpio.h ****   * @brief  Configure gpio alternate function of a dedicated pin from 0 to 7 for a dedicated port.
 557:Drivers/STM32WLxx_HAL_Driver/Inc/stm32wlxx_ll_gpio.h ****   * @note   Possible values are from AF0 to AF15 depending on target.
 558:Drivers/STM32WLxx_HAL_Driver/Inc/stm32wlxx_ll_gpio.h ****   * @note   Warning: only one pin can be passed as parameter.
 559:Drivers/STM32WLxx_HAL_Driver/Inc/stm32wlxx_ll_gpio.h ****   * @rmtoll AFRL         AFSELy        LL_GPIO_SetAFPin_0_7
 560:Drivers/STM32WLxx_HAL_Driver/Inc/stm32wlxx_ll_gpio.h ****   * @param  GPIOx GPIO Port
 561:Drivers/STM32WLxx_HAL_Driver/Inc/stm32wlxx_ll_gpio.h ****   * @param  Pin This parameter can be one of the following values:
 562:Drivers/STM32WLxx_HAL_Driver/Inc/stm32wlxx_ll_gpio.h ****   *         @arg @ref LL_GPIO_PIN_0
 563:Drivers/STM32WLxx_HAL_Driver/Inc/stm32wlxx_ll_gpio.h ****   *         @arg @ref LL_GPIO_PIN_1
 564:Drivers/STM32WLxx_HAL_Driver/Inc/stm32wlxx_ll_gpio.h ****   *         @arg @ref LL_GPIO_PIN_2
 565:Drivers/STM32WLxx_HAL_Driver/Inc/stm32wlxx_ll_gpio.h ****   *         @arg @ref LL_GPIO_PIN_3
 566:Drivers/STM32WLxx_HAL_Driver/Inc/stm32wlxx_ll_gpio.h ****   *         @arg @ref LL_GPIO_PIN_4
 567:Drivers/STM32WLxx_HAL_Driver/Inc/stm32wlxx_ll_gpio.h ****   *         @arg @ref LL_GPIO_PIN_5
 568:Drivers/STM32WLxx_HAL_Driver/Inc/stm32wlxx_ll_gpio.h ****   *         @arg @ref LL_GPIO_PIN_6
 569:Drivers/STM32WLxx_HAL_Driver/Inc/stm32wlxx_ll_gpio.h ****   *         @arg @ref LL_GPIO_PIN_7
 570:Drivers/STM32WLxx_HAL_Driver/Inc/stm32wlxx_ll_gpio.h ****   * @param  Alternate This parameter can be one of the following values:
 571:Drivers/STM32WLxx_HAL_Driver/Inc/stm32wlxx_ll_gpio.h ****   *         @arg @ref LL_GPIO_AF_0
 572:Drivers/STM32WLxx_HAL_Driver/Inc/stm32wlxx_ll_gpio.h ****   *         @arg @ref LL_GPIO_AF_1
 573:Drivers/STM32WLxx_HAL_Driver/Inc/stm32wlxx_ll_gpio.h ****   *         @arg @ref LL_GPIO_AF_2
 574:Drivers/STM32WLxx_HAL_Driver/Inc/stm32wlxx_ll_gpio.h ****   *         @arg @ref LL_GPIO_AF_3
 575:Drivers/STM32WLxx_HAL_Driver/Inc/stm32wlxx_ll_gpio.h ****   *         @arg @ref LL_GPIO_AF_4
 576:Drivers/STM32WLxx_HAL_Driver/Inc/stm32wlxx_ll_gpio.h ****   *         @arg @ref LL_GPIO_AF_5
ARM GAS  /var/folders/9y/n02fl3g16gnf7ppy14xghdy80000gn/T//ccRj2FZx.s 			page 53


 577:Drivers/STM32WLxx_HAL_Driver/Inc/stm32wlxx_ll_gpio.h ****   *         @arg @ref LL_GPIO_AF_6
 578:Drivers/STM32WLxx_HAL_Driver/Inc/stm32wlxx_ll_gpio.h ****   *         @arg @ref LL_GPIO_AF_7
 579:Drivers/STM32WLxx_HAL_Driver/Inc/stm32wlxx_ll_gpio.h ****   *         @arg @ref LL_GPIO_AF_8
 580:Drivers/STM32WLxx_HAL_Driver/Inc/stm32wlxx_ll_gpio.h ****   *         @arg @ref LL_GPIO_AF_9
 581:Drivers/STM32WLxx_HAL_Driver/Inc/stm32wlxx_ll_gpio.h ****   *         @arg @ref LL_GPIO_AF_10
 582:Drivers/STM32WLxx_HAL_Driver/Inc/stm32wlxx_ll_gpio.h ****   *         @arg @ref LL_GPIO_AF_11
 583:Drivers/STM32WLxx_HAL_Driver/Inc/stm32wlxx_ll_gpio.h ****   *         @arg @ref LL_GPIO_AF_12
 584:Drivers/STM32WLxx_HAL_Driver/Inc/stm32wlxx_ll_gpio.h ****   *         @arg @ref LL_GPIO_AF_13
 585:Drivers/STM32WLxx_HAL_Driver/Inc/stm32wlxx_ll_gpio.h ****   *         @arg @ref LL_GPIO_AF_14
 586:Drivers/STM32WLxx_HAL_Driver/Inc/stm32wlxx_ll_gpio.h ****   *         @arg @ref LL_GPIO_AF_15
 587:Drivers/STM32WLxx_HAL_Driver/Inc/stm32wlxx_ll_gpio.h ****   * @retval None
 588:Drivers/STM32WLxx_HAL_Driver/Inc/stm32wlxx_ll_gpio.h ****   */
 589:Drivers/STM32WLxx_HAL_Driver/Inc/stm32wlxx_ll_gpio.h **** __STATIC_INLINE void LL_GPIO_SetAFPin_0_7(GPIO_TypeDef *GPIOx, uint32_t Pin, uint32_t Alternate)
 590:Drivers/STM32WLxx_HAL_Driver/Inc/stm32wlxx_ll_gpio.h **** {
 591:Drivers/STM32WLxx_HAL_Driver/Inc/stm32wlxx_ll_gpio.h **** #if defined(CORE_CM0PLUS)
 592:Drivers/STM32WLxx_HAL_Driver/Inc/stm32wlxx_ll_gpio.h ****   MODIFY_REG(GPIOx->AFR[0], ((((Pin * Pin) * Pin) * Pin) * GPIO_AFRL_AFSEL0),
 593:Drivers/STM32WLxx_HAL_Driver/Inc/stm32wlxx_ll_gpio.h ****              ((((Pin * Pin) * Pin) * Pin) * Alternate));
 594:Drivers/STM32WLxx_HAL_Driver/Inc/stm32wlxx_ll_gpio.h **** #else
 595:Drivers/STM32WLxx_HAL_Driver/Inc/stm32wlxx_ll_gpio.h ****   MODIFY_REG(GPIOx->AFR[0], (GPIO_AFRL_AFSEL0 << (POSITION_VAL(Pin) * 4U)),
 510              		.loc 4 595 3 view .LVU131
 511 0074 A400     		lsls	r4, r4, #2
 512 0076 06FA04F4 		lsl	r4, r6, r4
 513 007a 2C43     		orrs	r4, r4, r5
 514 007c 0462     		str	r4, [r0, #32]
 515              	.LVL48:
 516              	.L24:
 517              		.loc 4 595 3 view .LVU132
 518              	.LBE211:
 519              	.LBE210:
 193:Drivers/STM32WLxx_HAL_Driver/Src/stm32wlxx_ll_gpio.c ****       }
 194:Drivers/STM32WLxx_HAL_Driver/Src/stm32wlxx_ll_gpio.c **** 
 195:Drivers/STM32WLxx_HAL_Driver/Src/stm32wlxx_ll_gpio.c ****       /* Pull-up Pull down resistor configuration*/
 196:Drivers/STM32WLxx_HAL_Driver/Src/stm32wlxx_ll_gpio.c ****       LL_GPIO_SetPinPull(GPIOx, currentpin, GPIO_InitStruct->Pull);
 197:Drivers/STM32WLxx_HAL_Driver/Src/stm32wlxx_ll_gpio.c **** 
 198:Drivers/STM32WLxx_HAL_Driver/Src/stm32wlxx_ll_gpio.c ****       if (GPIO_InitStruct->Mode == LL_GPIO_MODE_ALTERNATE)
 199:Drivers/STM32WLxx_HAL_Driver/Src/stm32wlxx_ll_gpio.c ****       {
 200:Drivers/STM32WLxx_HAL_Driver/Src/stm32wlxx_ll_gpio.c ****         /* Check Alternate parameter */
 201:Drivers/STM32WLxx_HAL_Driver/Src/stm32wlxx_ll_gpio.c ****         assert_param(IS_LL_GPIO_ALTERNATE(GPIO_InitStruct->Alternate));
 202:Drivers/STM32WLxx_HAL_Driver/Src/stm32wlxx_ll_gpio.c **** 
 203:Drivers/STM32WLxx_HAL_Driver/Src/stm32wlxx_ll_gpio.c ****         /* Alternate function configuration mode configuration */
 204:Drivers/STM32WLxx_HAL_Driver/Src/stm32wlxx_ll_gpio.c ****         if (currentpin < LL_GPIO_PIN_8)
 205:Drivers/STM32WLxx_HAL_Driver/Src/stm32wlxx_ll_gpio.c ****         {
 206:Drivers/STM32WLxx_HAL_Driver/Src/stm32wlxx_ll_gpio.c ****           LL_GPIO_SetAFPin_0_7(GPIOx, currentpin, GPIO_InitStruct->Alternate);
 207:Drivers/STM32WLxx_HAL_Driver/Src/stm32wlxx_ll_gpio.c ****         }
 208:Drivers/STM32WLxx_HAL_Driver/Src/stm32wlxx_ll_gpio.c ****         else
 209:Drivers/STM32WLxx_HAL_Driver/Src/stm32wlxx_ll_gpio.c ****         {
 210:Drivers/STM32WLxx_HAL_Driver/Src/stm32wlxx_ll_gpio.c ****           LL_GPIO_SetAFPin_8_15(GPIOx, currentpin, GPIO_InitStruct->Alternate);
 211:Drivers/STM32WLxx_HAL_Driver/Src/stm32wlxx_ll_gpio.c ****         }
 212:Drivers/STM32WLxx_HAL_Driver/Src/stm32wlxx_ll_gpio.c ****       }
 213:Drivers/STM32WLxx_HAL_Driver/Src/stm32wlxx_ll_gpio.c **** 
 214:Drivers/STM32WLxx_HAL_Driver/Src/stm32wlxx_ll_gpio.c ****       /* Pin Mode configuration */
 215:Drivers/STM32WLxx_HAL_Driver/Src/stm32wlxx_ll_gpio.c ****       LL_GPIO_SetPinMode(GPIOx, currentpin, GPIO_InitStruct->Mode);
 520              		.loc 1 215 7 is_stmt 1 view .LVU133
 521 007e 4E68     		ldr	r6, [r1, #4]
 522              	.LVL49:
 523              	.LBB225:
 524              	.LBI225:
ARM GAS  /var/folders/9y/n02fl3g16gnf7ppy14xghdy80000gn/T//ccRj2FZx.s 			page 54


 278:Drivers/STM32WLxx_HAL_Driver/Inc/stm32wlxx_ll_gpio.h **** {
 525              		.loc 4 278 22 view .LVU134
 526              	.LBB226:
 283:Drivers/STM32WLxx_HAL_Driver/Inc/stm32wlxx_ll_gpio.h **** #endif /* CORE_CM0PLUS */
 527              		.loc 4 283 3 view .LVU135
 528 0080 0568     		ldr	r5, [r0]
 529              	.LVL50:
 530              	.LBB227:
 531              	.LBI227:
1048:Drivers/CMSIS/Include/cmsis_gcc.h **** {
 532              		.loc 3 1048 31 view .LVU136
 533              	.LBB228:
1050:Drivers/CMSIS/Include/cmsis_gcc.h **** 
 534              		.loc 3 1050 3 view .LVU137
1055:Drivers/CMSIS/Include/cmsis_gcc.h **** #else
 535              		.loc 3 1055 4 view .LVU138
 536              		.syntax unified
 537              	@ 1055 "Drivers/CMSIS/Include/cmsis_gcc.h" 1
 538 0082 93FAA3F4 		rbit r4, r3
 539              	@ 0 "" 2
 540              	.LVL51:
1068:Drivers/CMSIS/Include/cmsis_gcc.h **** }
 541              		.loc 3 1068 3 view .LVU139
1068:Drivers/CMSIS/Include/cmsis_gcc.h **** }
 542              		.loc 3 1068 3 is_stmt 0 view .LVU140
 543              		.thumb
 544              		.syntax unified
 545              	.LBE228:
 546              	.LBE227:
 547              	.LBB229:
 548              	.LBI229:
1078:Drivers/CMSIS/Include/cmsis_gcc.h **** {
 549              		.loc 3 1078 30 is_stmt 1 view .LVU141
 550              	.LBB230:
1089:Drivers/CMSIS/Include/cmsis_gcc.h ****   {
 551              		.loc 3 1089 3 view .LVU142
1089:Drivers/CMSIS/Include/cmsis_gcc.h ****   {
 552              		.loc 3 1089 6 is_stmt 0 view .LVU143
 553 0086 002C     		cmp	r4, #0
 554 0088 00F09180 		beq	.L44
 555              		.loc 3 1093 3 is_stmt 1 view .LVU144
 556              		.loc 3 1093 10 is_stmt 0 view .LVU145
 557 008c B4FA84F4 		clz	r4, r4
 558              	.LVL52:
 559              	.L30:
 560              		.loc 3 1093 10 view .LVU146
 561              	.LBE230:
 562              	.LBE229:
 283:Drivers/STM32WLxx_HAL_Driver/Inc/stm32wlxx_ll_gpio.h **** #endif /* CORE_CM0PLUS */
 563              		.loc 4 283 3 view .LVU147
 564 0090 6400     		lsls	r4, r4, #1
 565 0092 4FF0030C 		mov	ip, #3
 566 0096 0CFA04F4 		lsl	r4, ip, r4
 567 009a 25EA0404 		bic	r4, r5, r4
 568              	.LVL53:
 569              	.LBB232:
 570              	.LBI232:
ARM GAS  /var/folders/9y/n02fl3g16gnf7ppy14xghdy80000gn/T//ccRj2FZx.s 			page 55


1048:Drivers/CMSIS/Include/cmsis_gcc.h **** {
 571              		.loc 3 1048 31 is_stmt 1 view .LVU148
 572              	.LBB233:
1050:Drivers/CMSIS/Include/cmsis_gcc.h **** 
 573              		.loc 3 1050 3 view .LVU149
1055:Drivers/CMSIS/Include/cmsis_gcc.h **** #else
 574              		.loc 3 1055 4 view .LVU150
 575              		.syntax unified
 576              	@ 1055 "Drivers/CMSIS/Include/cmsis_gcc.h" 1
 577 009e 93FAA3F3 		rbit r3, r3
 578              	@ 0 "" 2
 579              	.LVL54:
1068:Drivers/CMSIS/Include/cmsis_gcc.h **** }
 580              		.loc 3 1068 3 view .LVU151
1068:Drivers/CMSIS/Include/cmsis_gcc.h **** }
 581              		.loc 3 1068 3 is_stmt 0 view .LVU152
 582              		.thumb
 583              		.syntax unified
 584              	.LBE233:
 585              	.LBE232:
 586              	.LBB234:
 587              	.LBI234:
1078:Drivers/CMSIS/Include/cmsis_gcc.h **** {
 588              		.loc 3 1078 30 is_stmt 1 view .LVU153
 589              	.LBB235:
1089:Drivers/CMSIS/Include/cmsis_gcc.h ****   {
 590              		.loc 3 1089 3 view .LVU154
1089:Drivers/CMSIS/Include/cmsis_gcc.h ****   {
 591              		.loc 3 1089 6 is_stmt 0 view .LVU155
 592 00a2 002B     		cmp	r3, #0
 593 00a4 00F08580 		beq	.L45
 594              		.loc 3 1093 3 is_stmt 1 view .LVU156
 595              		.loc 3 1093 10 is_stmt 0 view .LVU157
 596 00a8 B3FA83F3 		clz	r3, r3
 597              	.LVL55:
 598              	.L31:
 599              		.loc 3 1093 10 view .LVU158
 600              	.LBE235:
 601              	.LBE234:
 283:Drivers/STM32WLxx_HAL_Driver/Inc/stm32wlxx_ll_gpio.h **** #endif /* CORE_CM0PLUS */
 602              		.loc 4 283 3 view .LVU159
 603 00ac 5B00     		lsls	r3, r3, #1
 604 00ae 06FA03F3 		lsl	r3, r6, r3
 605 00b2 2343     		orrs	r3, r3, r4
 606 00b4 0360     		str	r3, [r0]
 607              	.LVL56:
 608              	.L16:
 283:Drivers/STM32WLxx_HAL_Driver/Inc/stm32wlxx_ll_gpio.h **** #endif /* CORE_CM0PLUS */
 609              		.loc 4 283 3 view .LVU160
 610              	.LBE226:
 611              	.LBE225:
 216:Drivers/STM32WLxx_HAL_Driver/Src/stm32wlxx_ll_gpio.c ****     }
 217:Drivers/STM32WLxx_HAL_Driver/Src/stm32wlxx_ll_gpio.c ****     pinpos++;
 612              		.loc 1 217 5 is_stmt 1 view .LVU161
 613              		.loc 1 217 11 is_stmt 0 view .LVU162
 614 00b6 0132     		adds	r2, r2, #1
 615              	.LVL57:
ARM GAS  /var/folders/9y/n02fl3g16gnf7ppy14xghdy80000gn/T//ccRj2FZx.s 			page 56


 616              	.L15:
 170:Drivers/STM32WLxx_HAL_Driver/Src/stm32wlxx_ll_gpio.c ****   {
 617              		.loc 1 170 9 is_stmt 1 view .LVU163
 170:Drivers/STM32WLxx_HAL_Driver/Src/stm32wlxx_ll_gpio.c ****   {
 618              		.loc 1 170 27 is_stmt 0 view .LVU164
 619 00b8 0B68     		ldr	r3, [r1]
 170:Drivers/STM32WLxx_HAL_Driver/Src/stm32wlxx_ll_gpio.c ****   {
 620              		.loc 1 170 9 view .LVU165
 621 00ba 33FA02F4 		lsrs	r4, r3, r2
 622 00be 7AD0     		beq	.L47
 173:Drivers/STM32WLxx_HAL_Driver/Src/stm32wlxx_ll_gpio.c **** 
 623              		.loc 1 173 5 is_stmt 1 view .LVU166
 173:Drivers/STM32WLxx_HAL_Driver/Src/stm32wlxx_ll_gpio.c **** 
 624              		.loc 1 173 57 is_stmt 0 view .LVU167
 625 00c0 4FF0010C 		mov	ip, #1
 626 00c4 0CFA02FC 		lsl	ip, ip, r2
 627              	.LVL58:
 175:Drivers/STM32WLxx_HAL_Driver/Src/stm32wlxx_ll_gpio.c ****     {
 628              		.loc 1 175 5 is_stmt 1 view .LVU168
 175:Drivers/STM32WLxx_HAL_Driver/Src/stm32wlxx_ll_gpio.c ****     {
 629              		.loc 1 175 8 is_stmt 0 view .LVU169
 630 00c8 1CEA0303 		ands	r3, ip, r3
 631              	.LVL59:
 175:Drivers/STM32WLxx_HAL_Driver/Src/stm32wlxx_ll_gpio.c ****     {
