ARM GAS  /var/folders/9y/n02fl3g16gnf7ppy14xghdy80000gn/T//ccQAAiS2.s 			page 1


   1              		.cpu cortex-m4
   2              		.eabi_attribute 20, 1
   3              		.eabi_attribute 21, 1
   4              		.eabi_attribute 23, 3
   5              		.eabi_attribute 24, 1
   6              		.eabi_attribute 25, 1
   7              		.eabi_attribute 26, 1
   8              		.eabi_attribute 30, 1
   9              		.eabi_attribute 34, 1
  10              		.eabi_attribute 18, 4
  11              		.file	"subghz_phy_app.c"
  12              		.text
  13              	.Ltext0:
  14              		.cfi_sections	.debug_frame
  15              		.section	.text.OnTxDone,"ax",%progbits
  16              		.align	1
  17              		.arch armv7e-m
  18              		.syntax unified
  19              		.thumb
  20              		.thumb_func
  21              		.fpu softvfp
  23              	OnTxDone:
  24              	.LFB1164:
  25              		.file 1 "SubGHz_Phy/App/subghz_phy_app.c"
   1:SubGHz_Phy/App/subghz_phy_app.c **** /* USER CODE BEGIN Header */
   2:SubGHz_Phy/App/subghz_phy_app.c **** /**
   3:SubGHz_Phy/App/subghz_phy_app.c ****   ******************************************************************************
   4:SubGHz_Phy/App/subghz_phy_app.c ****   * @file    subghz_phy_app.c
   5:SubGHz_Phy/App/subghz_phy_app.c ****   * @author  MCD Application Team
   6:SubGHz_Phy/App/subghz_phy_app.c ****   * @brief   Application of the SubGHz_Phy Middleware
   7:SubGHz_Phy/App/subghz_phy_app.c ****   ******************************************************************************
   8:SubGHz_Phy/App/subghz_phy_app.c ****   * @attention
   9:SubGHz_Phy/App/subghz_phy_app.c ****   *
  10:SubGHz_Phy/App/subghz_phy_app.c ****   * Copyright (c) 2022 STMicroelectronics.
  11:SubGHz_Phy/App/subghz_phy_app.c ****   * All rights reserved.
  12:SubGHz_Phy/App/subghz_phy_app.c ****   *
  13:SubGHz_Phy/App/subghz_phy_app.c ****   * This software is licensed under terms that can be found in the LICENSE file
  14:SubGHz_Phy/App/subghz_phy_app.c ****   * in the root directory of this software component.
  15:SubGHz_Phy/App/subghz_phy_app.c ****   * If no LICENSE file comes with this software, it is provided AS-IS.
  16:SubGHz_Phy/App/subghz_phy_app.c ****   *
  17:SubGHz_Phy/App/subghz_phy_app.c ****   ******************************************************************************
  18:SubGHz_Phy/App/subghz_phy_app.c ****   */
  19:SubGHz_Phy/App/subghz_phy_app.c **** /* USER CODE END Header */
  20:SubGHz_Phy/App/subghz_phy_app.c **** 
  21:SubGHz_Phy/App/subghz_phy_app.c **** /* Includes ------------------------------------------------------------------*/
  22:SubGHz_Phy/App/subghz_phy_app.c **** #include "platform.h"
  23:SubGHz_Phy/App/subghz_phy_app.c **** #include "sys_app.h"
  24:SubGHz_Phy/App/subghz_phy_app.c **** #include "subghz_phy_app.h"
  25:SubGHz_Phy/App/subghz_phy_app.c **** #include "radio.h"
  26:SubGHz_Phy/App/subghz_phy_app.c **** 
  27:SubGHz_Phy/App/subghz_phy_app.c **** /* USER CODE BEGIN Includes */
  28:SubGHz_Phy/App/subghz_phy_app.c **** /* USER CODE END Includes */
  29:SubGHz_Phy/App/subghz_phy_app.c **** 
  30:SubGHz_Phy/App/subghz_phy_app.c **** /* External variables ---------------------------------------------------------*/
  31:SubGHz_Phy/App/subghz_phy_app.c **** /* USER CODE BEGIN EV */
  32:SubGHz_Phy/App/subghz_phy_app.c **** 
  33:SubGHz_Phy/App/subghz_phy_app.c **** /* USER CODE END EV */
ARM GAS  /var/folders/9y/n02fl3g16gnf7ppy14xghdy80000gn/T//ccQAAiS2.s 			page 2


  34:SubGHz_Phy/App/subghz_phy_app.c **** 
  35:SubGHz_Phy/App/subghz_phy_app.c **** /* Private typedef -----------------------------------------------------------*/
  36:SubGHz_Phy/App/subghz_phy_app.c **** 
  37:SubGHz_Phy/App/subghz_phy_app.c **** /* USER CODE BEGIN PTD */
  38:SubGHz_Phy/App/subghz_phy_app.c **** /* USER CODE END PTD */
  39:SubGHz_Phy/App/subghz_phy_app.c **** 
  40:SubGHz_Phy/App/subghz_phy_app.c **** /* Private define ------------------------------------------------------------*/
  41:SubGHz_Phy/App/subghz_phy_app.c **** /* USER CODE BEGIN PD */
  42:SubGHz_Phy/App/subghz_phy_app.c **** /* USER CODE END PD */
  43:SubGHz_Phy/App/subghz_phy_app.c **** 
  44:SubGHz_Phy/App/subghz_phy_app.c **** /* Private macro -------------------------------------------------------------*/
  45:SubGHz_Phy/App/subghz_phy_app.c **** /* USER CODE BEGIN PM */
  46:SubGHz_Phy/App/subghz_phy_app.c **** 
  47:SubGHz_Phy/App/subghz_phy_app.c **** /* USER CODE END PM */
  48:SubGHz_Phy/App/subghz_phy_app.c **** 
  49:SubGHz_Phy/App/subghz_phy_app.c **** /* Private variables ---------------------------------------------------------*/
  50:SubGHz_Phy/App/subghz_phy_app.c **** /* Radio events function pointer */
  51:SubGHz_Phy/App/subghz_phy_app.c **** static RadioEvents_t RadioEvents;
  52:SubGHz_Phy/App/subghz_phy_app.c **** /* USER CODE BEGIN PV */
  53:SubGHz_Phy/App/subghz_phy_app.c **** 
  54:SubGHz_Phy/App/subghz_phy_app.c **** /* USER CODE END PV */
  55:SubGHz_Phy/App/subghz_phy_app.c **** 
  56:SubGHz_Phy/App/subghz_phy_app.c **** /* Private function prototypes -----------------------------------------------*/
  57:SubGHz_Phy/App/subghz_phy_app.c **** /*!
  58:SubGHz_Phy/App/subghz_phy_app.c ****  * @brief Function to be executed on Radio Tx Done event
  59:SubGHz_Phy/App/subghz_phy_app.c ****  */
  60:SubGHz_Phy/App/subghz_phy_app.c **** static void OnTxDone(void);
  61:SubGHz_Phy/App/subghz_phy_app.c **** 
  62:SubGHz_Phy/App/subghz_phy_app.c **** /**
  63:SubGHz_Phy/App/subghz_phy_app.c ****   * @brief Function to be executed on Radio Rx Done event
  64:SubGHz_Phy/App/subghz_phy_app.c ****   * @param  payload ptr of buffer received
  65:SubGHz_Phy/App/subghz_phy_app.c ****   * @param  size buffer size
  66:SubGHz_Phy/App/subghz_phy_app.c ****   * @param  rssi
  67:SubGHz_Phy/App/subghz_phy_app.c ****   * @param  LoraSnr_FskCfo
  68:SubGHz_Phy/App/subghz_phy_app.c ****   */
  69:SubGHz_Phy/App/subghz_phy_app.c **** static void OnRxDone(uint8_t *payload, uint16_t size, int16_t rssi, int8_t LoraSnr_FskCfo);
  70:SubGHz_Phy/App/subghz_phy_app.c **** 
  71:SubGHz_Phy/App/subghz_phy_app.c **** /**
  72:SubGHz_Phy/App/subghz_phy_app.c ****   * @brief Function executed on Radio Tx Timeout event
  73:SubGHz_Phy/App/subghz_phy_app.c ****   */
  74:SubGHz_Phy/App/subghz_phy_app.c **** static void OnTxTimeout(void);
  75:SubGHz_Phy/App/subghz_phy_app.c **** 
  76:SubGHz_Phy/App/subghz_phy_app.c **** /**
  77:SubGHz_Phy/App/subghz_phy_app.c ****   * @brief Function executed on Radio Rx Timeout event
  78:SubGHz_Phy/App/subghz_phy_app.c ****   */
  79:SubGHz_Phy/App/subghz_phy_app.c **** static void OnRxTimeout(void);
  80:SubGHz_Phy/App/subghz_phy_app.c **** 
  81:SubGHz_Phy/App/subghz_phy_app.c **** /**
  82:SubGHz_Phy/App/subghz_phy_app.c ****   * @brief Function executed on Radio Rx Error event
  83:SubGHz_Phy/App/subghz_phy_app.c ****   */
  84:SubGHz_Phy/App/subghz_phy_app.c **** static void OnRxError(void);
  85:SubGHz_Phy/App/subghz_phy_app.c **** 
  86:SubGHz_Phy/App/subghz_phy_app.c **** /* USER CODE BEGIN PFP */
  87:SubGHz_Phy/App/subghz_phy_app.c **** /* USER CODE END PFP */
  88:SubGHz_Phy/App/subghz_phy_app.c **** 
  89:SubGHz_Phy/App/subghz_phy_app.c **** /* Exported functions ---------------------------------------------------------*/
  90:SubGHz_Phy/App/subghz_phy_app.c **** void SubghzApp_Init(void)
ARM GAS  /var/folders/9y/n02fl3g16gnf7ppy14xghdy80000gn/T//ccQAAiS2.s 			page 3


  91:SubGHz_Phy/App/subghz_phy_app.c **** {
  92:SubGHz_Phy/App/subghz_phy_app.c ****   /* USER CODE BEGIN SubghzApp_Init_1 */
  93:SubGHz_Phy/App/subghz_phy_app.c **** 
  94:SubGHz_Phy/App/subghz_phy_app.c ****   /* USER CODE END SubghzApp_Init_1 */
  95:SubGHz_Phy/App/subghz_phy_app.c **** 
  96:SubGHz_Phy/App/subghz_phy_app.c ****   /* Radio initialization */
  97:SubGHz_Phy/App/subghz_phy_app.c ****   RadioEvents.TxDone = OnTxDone;
  98:SubGHz_Phy/App/subghz_phy_app.c ****   RadioEvents.RxDone = OnRxDone;
  99:SubGHz_Phy/App/subghz_phy_app.c ****   RadioEvents.TxTimeout = OnTxTimeout;
 100:SubGHz_Phy/App/subghz_phy_app.c ****   RadioEvents.RxTimeout = OnRxTimeout;
 101:SubGHz_Phy/App/subghz_phy_app.c ****   RadioEvents.RxError = OnRxError;
 102:SubGHz_Phy/App/subghz_phy_app.c **** 
 103:SubGHz_Phy/App/subghz_phy_app.c ****   Radio.Init(&RadioEvents);
 104:SubGHz_Phy/App/subghz_phy_app.c **** 
 105:SubGHz_Phy/App/subghz_phy_app.c ****   /* USER CODE BEGIN SubghzApp_Init_2 */
 106:SubGHz_Phy/App/subghz_phy_app.c **** 
 107:SubGHz_Phy/App/subghz_phy_app.c ****   /* USER CODE END SubghzApp_Init_2 */
 108:SubGHz_Phy/App/subghz_phy_app.c **** }
 109:SubGHz_Phy/App/subghz_phy_app.c **** 
 110:SubGHz_Phy/App/subghz_phy_app.c **** /* USER CODE BEGIN EF */
 111:SubGHz_Phy/App/subghz_phy_app.c **** 
 112:SubGHz_Phy/App/subghz_phy_app.c **** /* USER CODE END EF */
 113:SubGHz_Phy/App/subghz_phy_app.c **** 
 114:SubGHz_Phy/App/subghz_phy_app.c **** /* Private functions ---------------------------------------------------------*/
 115:SubGHz_Phy/App/subghz_phy_app.c **** static void OnTxDone(void)
 116:SubGHz_Phy/App/subghz_phy_app.c **** {
  26              		.loc 1 116 1 view -0
  27              		.cfi_startproc
  28              		@ args = 0, pretend = 0, frame = 0
  29              		@ frame_needed = 0, uses_anonymous_args = 0
  30              		@ link register save eliminated.
 117:SubGHz_Phy/App/subghz_phy_app.c ****   /* USER CODE BEGIN OnTxDone */
 118:SubGHz_Phy/App/subghz_phy_app.c ****   /* USER CODE END OnTxDone */
 119:SubGHz_Phy/App/subghz_phy_app.c **** }
  31              		.loc 1 119 1 view .LVU1
  32 0000 7047     		bx	lr
  33              		.cfi_endproc
  34              	.LFE1164:
  36              		.section	.text.OnRxDone,"ax",%progbits
  37              		.align	1
  38              		.syntax unified
  39              		.thumb
  40              		.thumb_func
  41              		.fpu softvfp
  43              	OnRxDone:
  44              	.LVL0:
  45              	.LFB1165:
 120:SubGHz_Phy/App/subghz_phy_app.c **** 
 121:SubGHz_Phy/App/subghz_phy_app.c **** static void OnRxDone(uint8_t *payload, uint16_t size, int16_t rssi, int8_t LoraSnr_FskCfo)
 122:SubGHz_Phy/App/subghz_phy_app.c **** {
  46              		.loc 1 122 1 view -0
  47              		.cfi_startproc
  48              		@ args = 0, pretend = 0, frame = 0
  49              		@ frame_needed = 0, uses_anonymous_args = 0
  50              		@ link register save eliminated.
 123:SubGHz_Phy/App/subghz_phy_app.c ****   /* USER CODE BEGIN OnRxDone */
 124:SubGHz_Phy/App/subghz_phy_app.c ****   /* USER CODE END OnRxDone */
ARM GAS  /var/folders/9y/n02fl3g16gnf7ppy14xghdy80000gn/T//ccQAAiS2.s 			page 4


 125:SubGHz_Phy/App/subghz_phy_app.c **** }
  51              		.loc 1 125 1 view .LVU3
  52 0000 7047     		bx	lr
  53              		.cfi_endproc
  54              	.LFE1165:
  56              		.section	.text.OnTxTimeout,"ax",%progbits
  57              		.align	1
  58              		.syntax unified
  59              		.thumb
  60              		.thumb_func
  61              		.fpu softvfp
  63              	OnTxTimeout:
  64              	.LFB1166:
 126:SubGHz_Phy/App/subghz_phy_app.c **** 
 127:SubGHz_Phy/App/subghz_phy_app.c **** static void OnTxTimeout(void)
 128:SubGHz_Phy/App/subghz_phy_app.c **** {
  65              		.loc 1 128 1 view -0
  66              		.cfi_startproc
  67              		@ args = 0, pretend = 0, frame = 0
  68              		@ frame_needed = 0, uses_anonymous_args = 0
  69              		@ link register save eliminated.
 129:SubGHz_Phy/App/subghz_phy_app.c ****   /* USER CODE BEGIN OnTxTimeout */
 130:SubGHz_Phy/App/subghz_phy_app.c ****   /* USER CODE END OnTxTimeout */
 131:SubGHz_Phy/App/subghz_phy_app.c **** }
  70              		.loc 1 131 1 view .LVU5
  71 0000 7047     		bx	lr
  72              		.cfi_endproc
  73              	.LFE1166:
  75              		.section	.text.OnRxTimeout,"ax",%progbits
  76              		.align	1
  77              		.syntax unified
  78              		.thumb
  79              		.thumb_func
  80              		.fpu softvfp
  82              	OnRxTimeout:
  83              	.LFB1167:
 132:SubGHz_Phy/App/subghz_phy_app.c **** 
 133:SubGHz_Phy/App/subghz_phy_app.c **** static void OnRxTimeout(void)
 134:SubGHz_Phy/App/subghz_phy_app.c **** {
  84              		.loc 1 134 1 view -0
  85              		.cfi_startproc
  86              		@ args = 0, pretend = 0, frame = 0
  87              		@ frame_needed = 0, uses_anonymous_args = 0
  88              		@ link register save eliminated.
 135:SubGHz_Phy/App/subghz_phy_app.c ****   /* USER CODE BEGIN OnRxTimeout */
 136:SubGHz_Phy/App/subghz_phy_app.c ****   /* USER CODE END OnRxTimeout */
 137:SubGHz_Phy/App/subghz_phy_app.c **** }
  89              		.loc 1 137 1 view .LVU7
  90 0000 7047     		bx	lr
  91              		.cfi_endproc
  92              	.LFE1167:
  94              		.section	.text.OnRxError,"ax",%progbits
  95              		.align	1
  96              		.syntax unified
  97              		.thumb
  98              		.thumb_func
  99              		.fpu softvfp
ARM GAS  /var/folders/9y/n02fl3g16gnf7ppy14xghdy80000gn/T//ccQAAiS2.s 			page 5


 101              	OnRxError:
 102              	.LFB1168:
 138:SubGHz_Phy/App/subghz_phy_app.c **** 
 139:SubGHz_Phy/App/subghz_phy_app.c **** static void OnRxError(void)
 140:SubGHz_Phy/App/subghz_phy_app.c **** {
 103              		.loc 1 140 1 view -0
 104              		.cfi_startproc
 105              		@ args = 0, pretend = 0, frame = 0
 106              		@ frame_needed = 0, uses_anonymous_args = 0
 107              		@ link register save eliminated.
 141:SubGHz_Phy/App/subghz_phy_app.c ****   /* USER CODE BEGIN OnRxError */
 142:SubGHz_Phy/App/subghz_phy_app.c ****   /* USER CODE END OnRxError */
 143:SubGHz_Phy/App/subghz_phy_app.c **** }
 108              		.loc 1 143 1 view .LVU9
 109 0000 7047     		bx	lr
 110              		.cfi_endproc
 111              	.LFE1168:
 113              		.section	.text.SubghzApp_Init,"ax",%progbits
 114              		.align	1
 115              		.global	SubghzApp_Init
 116              		.syntax unified
 117              		.thumb
 118              		.thumb_func
 119              		.fpu softvfp
 121              	SubghzApp_Init:
 122              	.LFB1163:
  91:SubGHz_Phy/App/subghz_phy_app.c ****   /* USER CODE BEGIN SubghzApp_Init_1 */
 123              		.loc 1 91 1 view -0
 124              		.cfi_startproc
 125              		@ args = 0, pretend = 0, frame = 0
 126              		@ frame_needed = 0, uses_anonymous_args = 0
 127 0000 08B5     		push	{r3, lr}
 128              		.cfi_def_cfa_offset 8
 129              		.cfi_offset 3, -8
 130              		.cfi_offset 14, -4
  97:SubGHz_Phy/App/subghz_phy_app.c ****   RadioEvents.RxDone = OnRxDone;
 131              		.loc 1 97 3 view .LVU11
  97:SubGHz_Phy/App/subghz_phy_app.c ****   RadioEvents.RxDone = OnRxDone;
 132              		.loc 1 97 22 is_stmt 0 view .LVU12
 133 0002 0748     		ldr	r0, .L8
 134 0004 074B     		ldr	r3, .L8+4
 135 0006 0360     		str	r3, [r0]
  98:SubGHz_Phy/App/subghz_phy_app.c ****   RadioEvents.TxTimeout = OnTxTimeout;
 136              		.loc 1 98 3 is_stmt 1 view .LVU13
  98:SubGHz_Phy/App/subghz_phy_app.c ****   RadioEvents.TxTimeout = OnTxTimeout;
 137              		.loc 1 98 22 is_stmt 0 view .LVU14
 138 0008 074B     		ldr	r3, .L8+8
 139 000a 8360     		str	r3, [r0, #8]
  99:SubGHz_Phy/App/subghz_phy_app.c ****   RadioEvents.RxTimeout = OnRxTimeout;
 140              		.loc 1 99 3 is_stmt 1 view .LVU15
  99:SubGHz_Phy/App/subghz_phy_app.c ****   RadioEvents.RxTimeout = OnRxTimeout;
 141              		.loc 1 99 25 is_stmt 0 view .LVU16
 142 000c 074B     		ldr	r3, .L8+12
 143 000e 4360     		str	r3, [r0, #4]
 100:SubGHz_Phy/App/subghz_phy_app.c ****   RadioEvents.RxError = OnRxError;
 144              		.loc 1 100 3 is_stmt 1 view .LVU17
 100:SubGHz_Phy/App/subghz_phy_app.c ****   RadioEvents.RxError = OnRxError;
ARM GAS  /var/folders/9y/n02fl3g16gnf7ppy14xghdy80000gn/T//ccQAAiS2.s 			page 6


 145              		.loc 1 100 25 is_stmt 0 view .LVU18
 146 0010 074B     		ldr	r3, .L8+16
 147 0012 C360     		str	r3, [r0, #12]
 101:SubGHz_Phy/App/subghz_phy_app.c **** 
 148              		.loc 1 101 3 is_stmt 1 view .LVU19
 101:SubGHz_Phy/App/subghz_phy_app.c **** 
 149              		.loc 1 101 23 is_stmt 0 view .LVU20
 150 0014 074B     		ldr	r3, .L8+20
 151 0016 0361     		str	r3, [r0, #16]
 103:SubGHz_Phy/App/subghz_phy_app.c **** 
 152              		.loc 1 103 3 is_stmt 1 view .LVU21
 103:SubGHz_Phy/App/subghz_phy_app.c **** 
 153              		.loc 1 103 8 is_stmt 0 view .LVU22
 154 0018 074B     		ldr	r3, .L8+24
 155 001a 1B68     		ldr	r3, [r3]
 103:SubGHz_Phy/App/subghz_phy_app.c **** 
 156              		.loc 1 103 3 view .LVU23
 157 001c 9847     		blx	r3
 158              	.LVL1:
 108:SubGHz_Phy/App/subghz_phy_app.c **** 
 159              		.loc 1 108 1 view .LVU24
 160 001e 08BD     		pop	{r3, pc}
 161              	.L9:
 162              		.align	2
 163              	.L8:
 164 0020 00000000 		.word	.LANCHOR0
 165 0024 00000000 		.word	OnTxDone
 166 0028 00000000 		.word	OnRxDone
 167 002c 00000000 		.word	OnTxTimeout
 168 0030 00000000 		.word	OnRxTimeout
 169 0034 00000000 		.word	OnRxError
 170 0038 00000000 		.word	Radio
 171              		.cfi_endproc
 172              	.LFE1163:
 174              		.section	.bss.RadioEvents,"aw",%nobits
 175              		.align	2
 176              		.set	.LANCHOR0,. + 0
 179              	RadioEvents:
 180 0000 00000000 		.space	28
 180      00000000 
 180      00000000 
 180      00000000 
 180      00000000 
 181              		.text
 182              	.Letext0:
 183              		.file 2 "/opt/homebrew/Cellar/arm-none-eabi-gcc/10.3-2021.07/gcc/arm-none-eabi/include/machine/_de
 184              		.file 3 "/opt/homebrew/Cellar/arm-none-eabi-gcc/10.3-2021.07/gcc/arm-none-eabi/include/sys/_stdint
 185              		.file 4 "Middlewares/Third_Party/SubGHz_Phy/radio.h"
 186              		.file 5 "Middlewares/Third_Party/SubGHz_Phy/radio_ex.h"
 187              		.file 6 "Drivers/STM32WLxx_HAL_Driver/Inc/stm32wlxx_ll_dma.h"
ARM GAS  /var/folders/9y/n02fl3g16gnf7ppy14xghdy80000gn/T//ccQAAiS2.s 			page 7

