ARM GAS  /var/folders/9y/n02fl3g16gnf7ppy14xghdy80000gn/T//ccVB0K4R.s 			page 1


   1              		.cpu cortex-m4
   2              		.eabi_attribute 20, 1
   3              		.eabi_attribute 21, 1
   4              		.eabi_attribute 23, 3
   5              		.eabi_attribute 24, 1
   6              		.eabi_attribute 25, 1
   7              		.eabi_attribute 26, 1
   8              		.eabi_attribute 30, 1
   9              		.eabi_attribute 34, 1
  10              		.eabi_attribute 18, 4
  11              		.file	"syscalls.c"
  12              		.text
  13              	.Ltext0:
  14              		.cfi_sections	.debug_frame
  15              		.section	.text.initialise_monitor_handles,"ax",%progbits
  16              		.align	1
  17              		.global	initialise_monitor_handles
  18              		.arch armv7e-m
  19              		.syntax unified
  20              		.thumb
  21              		.thumb_func
  22              		.fpu softvfp
  24              	initialise_monitor_handles:
  25              	.LFB25:
  26              		.file 1 "Core/Src/syscalls.c"
   1:Core/Src/syscalls.c **** /**
   2:Core/Src/syscalls.c ****  ******************************************************************************
   3:Core/Src/syscalls.c ****  * @file      syscalls.c
   4:Core/Src/syscalls.c ****  * @author    Auto-generated by STM32CubeIDE
   5:Core/Src/syscalls.c ****  * @brief     STM32CubeIDE Minimal System calls file
   6:Core/Src/syscalls.c ****  *
   7:Core/Src/syscalls.c ****  *            For more information about which c-functions
   8:Core/Src/syscalls.c ****  *            need which of these lowlevel functions
   9:Core/Src/syscalls.c ****  *            please consult the Newlib libc-manual
  10:Core/Src/syscalls.c ****  ******************************************************************************
  11:Core/Src/syscalls.c ****  * @attention
  12:Core/Src/syscalls.c ****  *
  13:Core/Src/syscalls.c ****  * <h2><center>&copy; Copyright (c) 2020 STMicroelectronics.
  14:Core/Src/syscalls.c ****  * All rights reserved.</center></h2>
  15:Core/Src/syscalls.c ****  *
  16:Core/Src/syscalls.c ****  * This software component is licensed by ST under BSD 3-Clause license,
  17:Core/Src/syscalls.c ****  * the "License"; You may not use this file except in compliance with the
  18:Core/Src/syscalls.c ****  * License. You may obtain a copy of the License at:
  19:Core/Src/syscalls.c ****  *                        opensource.org/licenses/BSD-3-Clause
  20:Core/Src/syscalls.c ****  *
  21:Core/Src/syscalls.c ****  ******************************************************************************
  22:Core/Src/syscalls.c ****  */
  23:Core/Src/syscalls.c **** 
  24:Core/Src/syscalls.c **** /* Includes */
  25:Core/Src/syscalls.c **** #include <sys/stat.h>
  26:Core/Src/syscalls.c **** #include <stdlib.h>
  27:Core/Src/syscalls.c **** #include <errno.h>
  28:Core/Src/syscalls.c **** #include <stdio.h>
  29:Core/Src/syscalls.c **** #include <signal.h>
  30:Core/Src/syscalls.c **** #include <time.h>
  31:Core/Src/syscalls.c **** #include <sys/time.h>
  32:Core/Src/syscalls.c **** #include <sys/times.h>
ARM GAS  /var/folders/9y/n02fl3g16gnf7ppy14xghdy80000gn/T//ccVB0K4R.s 			page 2


  33:Core/Src/syscalls.c **** 
  34:Core/Src/syscalls.c **** 
  35:Core/Src/syscalls.c **** /* Variables */
  36:Core/Src/syscalls.c **** extern int __io_putchar(int ch) __attribute__((weak));
  37:Core/Src/syscalls.c **** extern int __io_getchar(void) __attribute__((weak));
  38:Core/Src/syscalls.c **** 
  39:Core/Src/syscalls.c **** 
  40:Core/Src/syscalls.c **** char *__env[1] = { 0 };
  41:Core/Src/syscalls.c **** char **environ = __env;
  42:Core/Src/syscalls.c **** 
  43:Core/Src/syscalls.c **** 
  44:Core/Src/syscalls.c **** /* Functions */
  45:Core/Src/syscalls.c **** void initialise_monitor_handles()
  46:Core/Src/syscalls.c **** {
  27              		.loc 1 46 1 view -0
  28              		.cfi_startproc
  29              		@ args = 0, pretend = 0, frame = 0
  30              		@ frame_needed = 0, uses_anonymous_args = 0
  31              		@ link register save eliminated.
  47:Core/Src/syscalls.c **** }
  32              		.loc 1 47 1 view .LVU1
  33 0000 7047     		bx	lr
  34              		.cfi_endproc
  35              	.LFE25:
  37              		.section	.text._getpid,"ax",%progbits
  38              		.align	1
  39              		.global	_getpid
  40              		.syntax unified
  41              		.thumb
  42              		.thumb_func
  43              		.fpu softvfp
  45              	_getpid:
  46              	.LFB26:
  48:Core/Src/syscalls.c **** 
  49:Core/Src/syscalls.c **** int _getpid(void)
  50:Core/Src/syscalls.c **** {
  47              		.loc 1 50 1 view -0
  48              		.cfi_startproc
  49              		@ args = 0, pretend = 0, frame = 0
  50              		@ frame_needed = 0, uses_anonymous_args = 0
  51              		@ link register save eliminated.
  51:Core/Src/syscalls.c **** 	return 1;
  52              		.loc 1 51 2 view .LVU3
  52:Core/Src/syscalls.c **** }
  53              		.loc 1 52 1 is_stmt 0 view .LVU4
  54 0000 0120     		movs	r0, #1
  55 0002 7047     		bx	lr
  56              		.cfi_endproc
  57              	.LFE26:
  59              		.section	.text._kill,"ax",%progbits
  60              		.align	1
  61              		.global	_kill
  62              		.syntax unified
  63              		.thumb
  64              		.thumb_func
  65              		.fpu softvfp
  67              	_kill:
ARM GAS  /var/folders/9y/n02fl3g16gnf7ppy14xghdy80000gn/T//ccVB0K4R.s 			page 3


  68              	.LVL0:
  69              	.LFB27:
  53:Core/Src/syscalls.c **** 
  54:Core/Src/syscalls.c **** int _kill(int pid, int sig)
  55:Core/Src/syscalls.c **** {
  70              		.loc 1 55 1 is_stmt 1 view -0
  71              		.cfi_startproc
  72              		@ args = 0, pretend = 0, frame = 0
  73              		@ frame_needed = 0, uses_anonymous_args = 0
  74              		.loc 1 55 1 is_stmt 0 view .LVU6
  75 0000 08B5     		push	{r3, lr}
  76              		.cfi_def_cfa_offset 8
  77              		.cfi_offset 3, -8
  78              		.cfi_offset 14, -4
  56:Core/Src/syscalls.c **** 	errno = EINVAL;
  79              		.loc 1 56 2 is_stmt 1 view .LVU7
  80 0002 FFF7FEFF 		bl	__errno
  81              	.LVL1:
  82              		.loc 1 56 8 is_stmt 0 view .LVU8
  83 0006 1623     		movs	r3, #22
  84 0008 0360     		str	r3, [r0]
  57:Core/Src/syscalls.c **** 	return -1;
  85              		.loc 1 57 2 is_stmt 1 view .LVU9
  58:Core/Src/syscalls.c **** }
  86              		.loc 1 58 1 is_stmt 0 view .LVU10
  87 000a 4FF0FF30 		mov	r0, #-1
  88 000e 08BD     		pop	{r3, pc}
  89              		.cfi_endproc
  90              	.LFE27:
  92              		.section	.text._exit,"ax",%progbits
  93              		.align	1
  94              		.global	_exit
  95              		.syntax unified
  96              		.thumb
  97              		.thumb_func
  98              		.fpu softvfp
 100              	_exit:
 101              	.LVL2:
 102              	.LFB28:
  59:Core/Src/syscalls.c **** 
  60:Core/Src/syscalls.c **** void _exit (int status)
  61:Core/Src/syscalls.c **** {
 103              		.loc 1 61 1 is_stmt 1 view -0
 104              		.cfi_startproc
 105              		@ Volatile: function does not return.
 106              		@ args = 0, pretend = 0, frame = 0
 107              		@ frame_needed = 0, uses_anonymous_args = 0
 108              		.loc 1 61 1 is_stmt 0 view .LVU12
 109 0000 08B5     		push	{r3, lr}
 110              		.cfi_def_cfa_offset 8
 111              		.cfi_offset 3, -8
 112              		.cfi_offset 14, -4
  62:Core/Src/syscalls.c **** 	_kill(status, -1);
 113              		.loc 1 62 2 is_stmt 1 view .LVU13
 114 0002 4FF0FF31 		mov	r1, #-1
 115 0006 FFF7FEFF 		bl	_kill
 116              	.LVL3:
ARM GAS  /var/folders/9y/n02fl3g16gnf7ppy14xghdy80000gn/T//ccVB0K4R.s 			page 4


 117              	.L6:
  63:Core/Src/syscalls.c **** 	while (1) {}		/* Make sure we hang here */
 118              		.loc 1 63 2 discriminator 1 view .LVU14
 119              		.loc 1 63 13 discriminator 1 view .LVU15
 120              		.loc 1 63 8 discriminator 1 view .LVU16
 121 000a FEE7     		b	.L6
 122              		.cfi_endproc
 123              	.LFE28:
 125              		.section	.text._read,"ax",%progbits
 126              		.align	1
 127              		.weak	_read
 128              		.syntax unified
 129              		.thumb
 130              		.thumb_func
 131              		.fpu softvfp
 133              	_read:
 134              	.LVL4:
 135              	.LFB29:
  64:Core/Src/syscalls.c **** }
  65:Core/Src/syscalls.c **** 
  66:Core/Src/syscalls.c **** __attribute__((weak)) int _read(int file, char *ptr, int len)
  67:Core/Src/syscalls.c **** {
 136              		.loc 1 67 1 view -0
 137              		.cfi_startproc
 138              		@ args = 0, pretend = 0, frame = 0
 139              		@ frame_needed = 0, uses_anonymous_args = 0
 140              		.loc 1 67 1 is_stmt 0 view .LVU18
 141 0000 70B5     		push	{r4, r5, r6, lr}
 142              		.cfi_def_cfa_offset 16
 143              		.cfi_offset 4, -16
 144              		.cfi_offset 5, -12
 145              		.cfi_offset 6, -8
 146              		.cfi_offset 14, -4
 147 0002 0C46     		mov	r4, r1
 148 0004 1646     		mov	r6, r2
  68:Core/Src/syscalls.c **** 	int DataIdx;
 149              		.loc 1 68 2 is_stmt 1 view .LVU19
  69:Core/Src/syscalls.c **** 
  70:Core/Src/syscalls.c **** 	for (DataIdx = 0; DataIdx < len; DataIdx++)
 150              		.loc 1 70 2 view .LVU20
 151              	.LVL5:
 152              		.loc 1 70 15 is_stmt 0 view .LVU21
 153 0006 0025     		movs	r5, #0
 154              		.loc 1 70 2 view .LVU22
 155 0008 06E0     		b	.L9
 156              	.LVL6:
 157              	.L10:
  71:Core/Src/syscalls.c **** 	{
  72:Core/Src/syscalls.c **** 		*ptr++ = __io_getchar();
 158              		.loc 1 72 3 is_stmt 1 discriminator 3 view .LVU23
 159              		.loc 1 72 12 is_stmt 0 discriminator 3 view .LVU24
 160 000a FFF7FEFF 		bl	__io_getchar
 161              	.LVL7:
 162              		.loc 1 72 7 discriminator 3 view .LVU25
 163 000e 2146     		mov	r1, r4
 164              	.LVL8:
 165              		.loc 1 72 10 discriminator 3 view .LVU26
ARM GAS  /var/folders/9y/n02fl3g16gnf7ppy14xghdy80000gn/T//ccVB0K4R.s 			page 5


 166 0010 01F8010B 		strb	r0, [r1], #1
 167              	.LVL9:
  70:Core/Src/syscalls.c **** 	{
 168              		.loc 1 70 35 is_stmt 1 discriminator 3 view .LVU27
  70:Core/Src/syscalls.c **** 	{
 169              		.loc 1 70 42 is_stmt 0 discriminator 3 view .LVU28
 170 0014 0135     		adds	r5, r5, #1
 171              	.LVL10:
 172              		.loc 1 72 7 discriminator 3 view .LVU29
 173 0016 0C46     		mov	r4, r1
 174              	.LVL11:
 175              	.L9:
  70:Core/Src/syscalls.c **** 	{
 176              		.loc 1 70 20 is_stmt 1 discriminator 1 view .LVU30
  70:Core/Src/syscalls.c **** 	{
 177              		.loc 1 70 2 is_stmt 0 discriminator 1 view .LVU31
 178 0018 B542     		cmp	r5, r6
 179 001a F6DB     		blt	.L10
  73:Core/Src/syscalls.c **** 	}
  74:Core/Src/syscalls.c **** 
  75:Core/Src/syscalls.c **** return len;
 180              		.loc 1 75 1 is_stmt 1 view .LVU32
  76:Core/Src/syscalls.c **** }
 181              		.loc 1 76 1 is_stmt 0 view .LVU33
 182 001c 3046     		mov	r0, r6
 183 001e 70BD     		pop	{r4, r5, r6, pc}
 184              		.loc 1 76 1 view .LVU34
 185              		.cfi_endproc
 186              	.LFE29:
 188              		.section	.text._write,"ax",%progbits
 189              		.align	1
 190              		.weak	_write
 191              		.syntax unified
 192              		.thumb
 193              		.thumb_func
 194              		.fpu softvfp
 196              	_write:
 197              	.LVL12:
 198              	.LFB30:
  77:Core/Src/syscalls.c **** 
  78:Core/Src/syscalls.c **** __attribute__((weak)) int _write(int file, char *ptr, int len)
  79:Core/Src/syscalls.c **** {
 199              		.loc 1 79 1 is_stmt 1 view -0
 200              		.cfi_startproc
 201              		@ args = 0, pretend = 0, frame = 0
 202              		@ frame_needed = 0, uses_anonymous_args = 0
 203              		.loc 1 79 1 is_stmt 0 view .LVU36
 204 0000 70B5     		push	{r4, r5, r6, lr}
 205              		.cfi_def_cfa_offset 16
 206              		.cfi_offset 4, -16
 207              		.cfi_offset 5, -12
 208              		.cfi_offset 6, -8
 209              		.cfi_offset 14, -4
 210 0002 0C46     		mov	r4, r1
 211 0004 1646     		mov	r6, r2
  80:Core/Src/syscalls.c **** 	int DataIdx;
 212              		.loc 1 80 2 is_stmt 1 view .LVU37
ARM GAS  /var/folders/9y/n02fl3g16gnf7ppy14xghdy80000gn/T//ccVB0K4R.s 			page 6


  81:Core/Src/syscalls.c **** 
  82:Core/Src/syscalls.c **** 	for (DataIdx = 0; DataIdx < len; DataIdx++)
 213              		.loc 1 82 2 view .LVU38
 214              	.LVL13:
 215              		.loc 1 82 15 is_stmt 0 view .LVU39
 216 0006 0025     		movs	r5, #0
 217              		.loc 1 82 2 view .LVU40
 218 0008 04E0     		b	.L13
 219              	.LVL14:
 220              	.L14:
  83:Core/Src/syscalls.c **** 	{
  84:Core/Src/syscalls.c **** 		__io_putchar(*ptr++);
 221              		.loc 1 84 3 is_stmt 1 discriminator 3 view .LVU41
 222              		.loc 1 84 3 is_stmt 0 discriminator 3 view .LVU42
 223 000a 14F8010B 		ldrb	r0, [r4], #1	@ zero_extendqisi2
 224              	.LVL15:
 225              		.loc 1 84 3 discriminator 3 view .LVU43
 226 000e FFF7FEFF 		bl	__io_putchar
 227              	.LVL16:
  82:Core/Src/syscalls.c **** 	{
 228              		.loc 1 82 35 is_stmt 1 discriminator 3 view .LVU44
  82:Core/Src/syscalls.c **** 	{
 229              		.loc 1 82 42 is_stmt 0 discriminator 3 view .LVU45
 230 0012 0135     		adds	r5, r5, #1
 231              	.LVL17:
 232              	.L13:
  82:Core/Src/syscalls.c **** 	{
 233              		.loc 1 82 20 is_stmt 1 discriminator 1 view .LVU46
  82:Core/Src/syscalls.c **** 	{
 234              		.loc 1 82 2 is_stmt 0 discriminator 1 view .LVU47
 235 0014 B542     		cmp	r5, r6
 236 0016 F8DB     		blt	.L14
  85:Core/Src/syscalls.c **** 	}
  86:Core/Src/syscalls.c **** 	return len;
 237              		.loc 1 86 2 is_stmt 1 view .LVU48
  87:Core/Src/syscalls.c **** }
 238              		.loc 1 87 1 is_stmt 0 view .LVU49
 239 0018 3046     		mov	r0, r6
 240 001a 70BD     		pop	{r4, r5, r6, pc}
 241              		.loc 1 87 1 view .LVU50
 242              		.cfi_endproc
 243              	.LFE30:
 245              		.section	.text._close,"ax",%progbits
 246              		.align	1
 247              		.global	_close
 248              		.syntax unified
 249              		.thumb
 250              		.thumb_func
 251              		.fpu softvfp
 253              	_close:
 254              	.LVL18:
 255              	.LFB31:
  88:Core/Src/syscalls.c **** 
  89:Core/Src/syscalls.c **** int _close(int file)
  90:Core/Src/syscalls.c **** {
 256              		.loc 1 90 1 is_stmt 1 view -0
 257              		.cfi_startproc
ARM GAS  /var/folders/9y/n02fl3g16gnf7ppy14xghdy80000gn/T//ccVB0K4R.s 			page 7


 258              		@ args = 0, pretend = 0, frame = 0
 259              		@ frame_needed = 0, uses_anonymous_args = 0
 260              		@ link register save eliminated.
  91:Core/Src/syscalls.c **** 	return -1;
 261              		.loc 1 91 2 view .LVU52
  92:Core/Src/syscalls.c **** }
 262              		.loc 1 92 1 is_stmt 0 view .LVU53
 263 0000 4FF0FF30 		mov	r0, #-1
 264              	.LVL19:
 265              		.loc 1 92 1 view .LVU54
 266 0004 7047     		bx	lr
 267              		.cfi_endproc
 268              	.LFE31:
 270              		.section	.text._fstat,"ax",%progbits
 271              		.align	1
 272              		.global	_fstat
 273              		.syntax unified
 274              		.thumb
 275              		.thumb_func
 276              		.fpu softvfp
 278              	_fstat:
 279              	.LVL20:
 280              	.LFB32:
  93:Core/Src/syscalls.c **** 
  94:Core/Src/syscalls.c **** 
  95:Core/Src/syscalls.c **** int _fstat(int file, struct stat *st)
  96:Core/Src/syscalls.c **** {
 281              		.loc 1 96 1 is_stmt 1 view -0
 282              		.cfi_startproc
 283              		@ args = 0, pretend = 0, frame = 0
 284              		@ frame_needed = 0, uses_anonymous_args = 0
 285              		@ link register save eliminated.
  97:Core/Src/syscalls.c **** 	st->st_mode = S_IFCHR;
 286              		.loc 1 97 2 view .LVU56
 287              		.loc 1 97 14 is_stmt 0 view .LVU57
 288 0000 4FF40053 		mov	r3, #8192
 289 0004 4B60     		str	r3, [r1, #4]
  98:Core/Src/syscalls.c **** 	return 0;
 290              		.loc 1 98 2 is_stmt 1 view .LVU58
  99:Core/Src/syscalls.c **** }
 291              		.loc 1 99 1 is_stmt 0 view .LVU59
 292 0006 0020     		movs	r0, #0
 293              	.LVL21:
 294              		.loc 1 99 1 view .LVU60
 295 0008 7047     		bx	lr
 296              		.cfi_endproc
 297              	.LFE32:
 299              		.section	.text._isatty,"ax",%progbits
 300              		.align	1
 301              		.global	_isatty
 302              		.syntax unified
 303              		.thumb
 304              		.thumb_func
 305              		.fpu softvfp
 307              	_isatty:
 308              	.LVL22:
 309              	.LFB33:
ARM GAS  /var/folders/9y/n02fl3g16gnf7ppy14xghdy80000gn/T//ccVB0K4R.s 			page 8


 100:Core/Src/syscalls.c **** 
 101:Core/Src/syscalls.c **** int _isatty(int file)
 102:Core/Src/syscalls.c **** {
 310              		.loc 1 102 1 is_stmt 1 view -0
 311              		.cfi_startproc
 312              		@ args = 0, pretend = 0, frame = 0
 313              		@ frame_needed = 0, uses_anonymous_args = 0
 314              		@ link register save eliminated.
 103:Core/Src/syscalls.c **** 	return 1;
 315              		.loc 1 103 2 view .LVU62
 104:Core/Src/syscalls.c **** }
 316              		.loc 1 104 1 is_stmt 0 view .LVU63
 317 0000 0120     		movs	r0, #1
 318              	.LVL23:
 319              		.loc 1 104 1 view .LVU64
 320 0002 7047     		bx	lr
 321              		.cfi_endproc
 322              	.LFE33:
 324              		.section	.text._lseek,"ax",%progbits
 325              		.align	1
 326              		.global	_lseek
 327              		.syntax unified
 328              		.thumb
 329              		.thumb_func
 330              		.fpu softvfp
 332              	_lseek:
 333              	.LVL24:
 334              	.LFB34:
 105:Core/Src/syscalls.c **** 
 106:Core/Src/syscalls.c **** int _lseek(int file, int ptr, int dir)
 107:Core/Src/syscalls.c **** {
 335              		.loc 1 107 1 is_stmt 1 view -0
 336              		.cfi_startproc
 337              		@ args = 0, pretend = 0, frame = 0
 338              		@ frame_needed = 0, uses_anonymous_args = 0
 339              		@ link register save eliminated.
 108:Core/Src/syscalls.c **** 	return 0;
 340              		.loc 1 108 2 view .LVU66
 109:Core/Src/syscalls.c **** }
 341              		.loc 1 109 1 is_stmt 0 view .LVU67
 342 0000 0020     		movs	r0, #0
 343              	.LVL25:
 344              		.loc 1 109 1 view .LVU68
 345 0002 7047     		bx	lr
 346              		.cfi_endproc
 347              	.LFE34:
 349              		.section	.text._open,"ax",%progbits
 350              		.align	1
 351              		.global	_open
 352              		.syntax unified
 353              		.thumb
 354              		.thumb_func
 355              		.fpu softvfp
 357              	_open:
 358              	.LVL26:
 359              	.LFB35:
 110:Core/Src/syscalls.c **** 
ARM GAS  /var/folders/9y/n02fl3g16gnf7ppy14xghdy80000gn/T//ccVB0K4R.s 			page 9


 111:Core/Src/syscalls.c **** int _open(char *path, int flags, ...)
 112:Core/Src/syscalls.c **** {
 360              		.loc 1 112 1 is_stmt 1 view -0
 361              		.cfi_startproc
 362              		@ args = 4, pretend = 12, frame = 0
 363              		@ frame_needed = 0, uses_anonymous_args = 1
 364              		@ link register save eliminated.
 365              		.loc 1 112 1 is_stmt 0 view .LVU70
 366 0000 0EB4     		push	{r1, r2, r3}
 367              		.cfi_def_cfa_offset 12
 368              		.cfi_offset 1, -12
 369              		.cfi_offset 2, -8
 370              		.cfi_offset 3, -4
 113:Core/Src/syscalls.c **** 	/* Pretend like we always fail */
 114:Core/Src/syscalls.c **** 	return -1;
 371              		.loc 1 114 2 is_stmt 1 view .LVU71
 115:Core/Src/syscalls.c **** }
 372              		.loc 1 115 1 is_stmt 0 view .LVU72
 373 0002 4FF0FF30 		mov	r0, #-1
 374              	.LVL27:
 375              		.loc 1 115 1 view .LVU73
 376 0006 03B0     		add	sp, sp, #12
 377              		.cfi_restore 3
 378              		.cfi_restore 2
 379              		.cfi_restore 1
 380              		.cfi_def_cfa_offset 0
 381 0008 7047     		bx	lr
 382              		.cfi_endproc
 383              	.LFE35:
 385              		.section	.text._wait,"ax",%progbits
 386              		.align	1
 387              		.global	_wait
 388              		.syntax unified
 389              		.thumb
 390              		.thumb_func
 391              		.fpu softvfp
 393              	_wait:
 394              	.LVL28:
 395              	.LFB36:
 116:Core/Src/syscalls.c **** 
 117:Core/Src/syscalls.c **** int _wait(int *status)
 118:Core/Src/syscalls.c **** {
 396              		.loc 1 118 1 is_stmt 1 view -0
 397              		.cfi_startproc
 398              		@ args = 0, pretend = 0, frame = 0
 399              		@ frame_needed = 0, uses_anonymous_args = 0
 400              		.loc 1 118 1 is_stmt 0 view .LVU75
 401 0000 08B5     		push	{r3, lr}
 402              		.cfi_def_cfa_offset 8
 403              		.cfi_offset 3, -8
 404              		.cfi_offset 14, -4
 119:Core/Src/syscalls.c **** 	errno = ECHILD;
 405              		.loc 1 119 2 is_stmt 1 view .LVU76
 406 0002 FFF7FEFF 		bl	__errno
 407              	.LVL29:
 408              		.loc 1 119 8 is_stmt 0 view .LVU77
 409 0006 0A23     		movs	r3, #10
ARM GAS  /var/folders/9y/n02fl3g16gnf7ppy14xghdy80000gn/T//ccVB0K4R.s 			page 10


 410 0008 0360     		str	r3, [r0]
 120:Core/Src/syscalls.c **** 	return -1;
 411              		.loc 1 120 2 is_stmt 1 view .LVU78
 121:Core/Src/syscalls.c **** }
 412              		.loc 1 121 1 is_stmt 0 view .LVU79
 413 000a 4FF0FF30 		mov	r0, #-1
 414 000e 08BD     		pop	{r3, pc}
 415              		.cfi_endproc
 416              	.LFE36:
 418              		.section	.text._unlink,"ax",%progbits
 419              		.align	1
 420              		.global	_unlink
 421              		.syntax unified
 422              		.thumb
 423              		.thumb_func
 424              		.fpu softvfp
 426              	_unlink:
 427              	.LVL30:
 428              	.LFB37:
 122:Core/Src/syscalls.c **** 
 123:Core/Src/syscalls.c **** int _unlink(char *name)
 124:Core/Src/syscalls.c **** {
 429              		.loc 1 124 1 is_stmt 1 view -0
 430              		.cfi_startproc
 431              		@ args = 0, pretend = 0, frame = 0
 432              		@ frame_needed = 0, uses_anonymous_args = 0
 433              		.loc 1 124 1 is_stmt 0 view .LVU81
 434 0000 08B5     		push	{r3, lr}
 435              		.cfi_def_cfa_offset 8
 436              		.cfi_offset 3, -8
 437              		.cfi_offset 14, -4
 125:Core/Src/syscalls.c **** 	errno = ENOENT;
 438              		.loc 1 125 2 is_stmt 1 view .LVU82
 439 0002 FFF7FEFF 		bl	__errno
 440              	.LVL31:
 441              		.loc 1 125 8 is_stmt 0 view .LVU83
 442 0006 0223     		movs	r3, #2
 443 0008 0360     		str	r3, [r0]
 126:Core/Src/syscalls.c **** 	return -1;
 444              		.loc 1 126 2 is_stmt 1 view .LVU84
 127:Core/Src/syscalls.c **** }
 445              		.loc 1 127 1 is_stmt 0 view .LVU85
 446 000a 4FF0FF30 		mov	r0, #-1
 447 000e 08BD     		pop	{r3, pc}
 448              		.cfi_endproc
 449              	.LFE37:
 451              		.section	.text._times,"ax",%progbits
 452              		.align	1
 453              		.global	_times
 454              		.syntax unified
 455              		.thumb
 456              		.thumb_func
 457              		.fpu softvfp
 459              	_times:
 460              	.LVL32:
 461              	.LFB38:
 128:Core/Src/syscalls.c **** 
ARM GAS  /var/folders/9y/n02fl3g16gnf7ppy14xghdy80000gn/T//ccVB0K4R.s 			page 11


 129:Core/Src/syscalls.c **** int _times(struct tms *buf)
 130:Core/Src/syscalls.c **** {
 462              		.loc 1 130 1 is_stmt 1 view -0
 463              		.cfi_startproc
 464              		@ args = 0, pretend = 0, frame = 0
 465              		@ frame_needed = 0, uses_anonymous_args = 0
 466              		@ link register save eliminated.
 131:Core/Src/syscalls.c **** 	return -1;
 467              		.loc 1 131 2 view .LVU87
 132:Core/Src/syscalls.c **** }
 468              		.loc 1 132 1 is_stmt 0 view .LVU88
 469 0000 4FF0FF30 		mov	r0, #-1
 470              	.LVL33:
 471              		.loc 1 132 1 view .LVU89
 472 0004 7047     		bx	lr
 473              		.cfi_endproc
 474              	.LFE38:
 476              		.section	.text._stat,"ax",%progbits
 477              		.align	1
 478              		.global	_stat
 479              		.syntax unified
 480              		.thumb
 481              		.thumb_func
 482              		.fpu softvfp
 484              	_stat:
 485              	.LVL34:
 486              	.LFB39:
 133:Core/Src/syscalls.c **** 
 134:Core/Src/syscalls.c **** int _stat(char *file, struct stat *st)
 135:Core/Src/syscalls.c **** {
 487              		.loc 1 135 1 is_stmt 1 view -0
 488              		.cfi_startproc
 489              		@ args = 0, pretend = 0, frame = 0
 490              		@ frame_needed = 0, uses_anonymous_args = 0
 491              		@ link register save eliminated.
 136:Core/Src/syscalls.c **** 	st->st_mode = S_IFCHR;
 492              		.loc 1 136 2 view .LVU91
 493              		.loc 1 136 14 is_stmt 0 view .LVU92
 494 0000 4FF40053 		mov	r3, #8192
 495 0004 4B60     		str	r3, [r1, #4]
 137:Core/Src/syscalls.c **** 	return 0;
 496              		.loc 1 137 2 is_stmt 1 view .LVU93
 138:Core/Src/syscalls.c **** }
 497              		.loc 1 138 1 is_stmt 0 view .LVU94
 498 0006 0020     		movs	r0, #0
 499              	.LVL35:
 500              		.loc 1 138 1 view .LVU95
 501 0008 7047     		bx	lr
 502              		.cfi_endproc
 503              	.LFE39:
 505              		.section	.text._link,"ax",%progbits
 506              		.align	1
 507              		.global	_link
 508              		.syntax unified
 509              		.thumb
 510              		.thumb_func
 511              		.fpu softvfp
ARM GAS  /var/folders/9y/n02fl3g16gnf7ppy14xghdy80000gn/T//ccVB0K4R.s 			page 12


 513              	_link:
 514              	.LVL36:
 515              	.LFB40:
 139:Core/Src/syscalls.c **** 
 140:Core/Src/syscalls.c **** int _link(char *old, char *new)
 141:Core/Src/syscalls.c **** {
 516              		.loc 1 141 1 is_stmt 1 view -0
 517              		.cfi_startproc
 518              		@ args = 0, pretend = 0, frame = 0
 519              		@ frame_needed = 0, uses_anonymous_args = 0
 520              		.loc 1 141 1 is_stmt 0 view .LVU97
 521 0000 08B5     		push	{r3, lr}
 522              		.cfi_def_cfa_offset 8
 523              		.cfi_offset 3, -8
 524              		.cfi_offset 14, -4
 142:Core/Src/syscalls.c **** 	errno = EMLINK;
 525              		.loc 1 142 2 is_stmt 1 view .LVU98
 526 0002 FFF7FEFF 		bl	__errno
 527              	.LVL37:
 528              		.loc 1 142 8 is_stmt 0 view .LVU99
 529 0006 1F23     		movs	r3, #31
 530 0008 0360     		str	r3, [r0]
 143:Core/Src/syscalls.c **** 	return -1;
 531              		.loc 1 143 2 is_stmt 1 view .LVU100
 144:Core/Src/syscalls.c **** }
 532              		.loc 1 144 1 is_stmt 0 view .LVU101
 533 000a 4FF0FF30 		mov	r0, #-1
 534 000e 08BD     		pop	{r3, pc}
 535              		.cfi_endproc
 536              	.LFE40:
 538              		.section	.text._fork,"ax",%progbits
 539              		.align	1
 540              		.global	_fork
 541              		.syntax unified
 542              		.thumb
 543              		.thumb_func
 544              		.fpu softvfp
 546              	_fork:
 547              	.LFB41:
 145:Core/Src/syscalls.c **** 
 146:Core/Src/syscalls.c **** int _fork(void)
 147:Core/Src/syscalls.c **** {
 548              		.loc 1 147 1 is_stmt 1 view -0
 549              		.cfi_startproc
 550              		@ args = 0, pretend = 0, frame = 0
 551              		@ frame_needed = 0, uses_anonymous_args = 0
 552 0000 08B5     		push	{r3, lr}
 553              		.cfi_def_cfa_offset 8
 554              		.cfi_offset 3, -8
 555              		.cfi_offset 14, -4
 148:Core/Src/syscalls.c **** 	errno = EAGAIN;
 556              		.loc 1 148 2 view .LVU103
 557 0002 FFF7FEFF 		bl	__errno
 558              	.LVL38:
 559              		.loc 1 148 8 is_stmt 0 view .LVU104
 560 0006 0B23     		movs	r3, #11
 561 0008 0360     		str	r3, [r0]
ARM GAS  /var/folders/9y/n02fl3g16gnf7ppy14xghdy80000gn/T//ccVB0K4R.s 			page 13


 149:Core/Src/syscalls.c **** 	return -1;
 562              		.loc 1 149 2 is_stmt 1 view .LVU105
 150:Core/Src/syscalls.c **** }
 563              		.loc 1 150 1 is_stmt 0 view .LVU106
 564 000a 4FF0FF30 		mov	r0, #-1
 565 000e 08BD     		pop	{r3, pc}
 566              		.cfi_endproc
 567              	.LFE41:
 569              		.section	.text._execve,"ax",%progbits
 570              		.align	1
 571              		.global	_execve
 572              		.syntax unified
 573              		.thumb
 574              		.thumb_func
 575              		.fpu softvfp
 577              	_execve:
 578              	.LVL39:
 579              	.LFB42:
 151:Core/Src/syscalls.c **** 
 152:Core/Src/syscalls.c **** int _execve(char *name, char **argv, char **env)
 153:Core/Src/syscalls.c **** {
 580              		.loc 1 153 1 is_stmt 1 view -0
 581              		.cfi_startproc
 582              		@ args = 0, pretend = 0, frame = 0
 583              		@ frame_needed = 0, uses_anonymous_args = 0
 584              		.loc 1 153 1 is_stmt 0 view .LVU108
 585 0000 08B5     		push	{r3, lr}
 586              		.cfi_def_cfa_offset 8
 587              		.cfi_offset 3, -8
 588              		.cfi_offset 14, -4
 154:Core/Src/syscalls.c **** 	errno = ENOMEM;
 589              		.loc 1 154 2 is_stmt 1 view .LVU109
 590 0002 FFF7FEFF 		bl	__errno
 591              	.LVL40:
 592              		.loc 1 154 8 is_stmt 0 view .LVU110
 593 0006 0C23     		movs	r3, #12
 594 0008 0360     		str	r3, [r0]
 155:Core/Src/syscalls.c **** 	return -1;
 595              		.loc 1 155 2 is_stmt 1 view .LVU111
 156:Core/Src/syscalls.c **** }
 596              		.loc 1 156 1 is_stmt 0 view .LVU112
 597 000a 4FF0FF30 		mov	r0, #-1
 598 000e 08BD     		pop	{r3, pc}
 599              		.cfi_endproc
 600              	.LFE42:
 602              		.global	environ
 603              		.global	__env
 604              		.section	.bss.__env,"aw",%nobits
 605              		.align	2
 608              	__env:
 609 0000 00000000 		.space	4
 610              		.section	.data.environ,"aw"
 611              		.align	2
 614              	environ:
 615 0000 00000000 		.word	__env
 616              		.weak	__io_putchar
 617              		.weak	__io_getchar
ARM GAS  /var/folders/9y/n02fl3g16gnf7ppy14xghdy80000gn/T//ccVB0K4R.s 			page 14


 618              		.text
 619              	.Letext0:
 620              		.file 2 "/opt/homebrew/Cellar/arm-none-eabi-gcc/10.3-2021.07/gcc/arm-none-eabi/include/machine/_de
 621              		.file 3 "/opt/homebrew/Cellar/arm-none-eabi-gcc/10.3-2021.07/gcc/arm-none-eabi/include/sys/_types.
 622              		.file 4 "/opt/homebrew/Cellar/arm-none-eabi-gcc/10.3-2021.07/gcc/arm-none-eabi/include/sys/_timeva
 623              		.file 5 "/opt/homebrew/Cellar/arm-none-eabi-gcc/10.3-2021.07/gcc/arm-none-eabi/include/sys/_timesp
 624              		.file 6 "/opt/homebrew/Cellar/arm-none-eabi-gcc/10.3-2021.07/gcc/arm-none-eabi/include/sys/types.h
 625              		.file 7 "/opt/homebrew/Cellar/arm-none-eabi-gcc/10.3-2021.07/gcc/arm-none-eabi/include/sys/stat.h"
 626              		.file 8 "/opt/homebrew/Cellar/arm-none-eabi-gcc/10.3-2021.07/gcc/arm-none-eabi/include/sys/times.h
 627              		.file 9 "/opt/homebrew/Cellar/arm-none-eabi-gcc/10.3-2021.07/gcc/arm-none-eabi/include/sys/errno.h
ARM GAS  /var/folders/9y/n02fl3g16gnf7ppy14xghdy80000gn/T//ccVB0K4R.s 			page 15

