ARM GAS  /var/folders/9y/n02fl3g16gnf7ppy14xghdy80000gn/T//ccTkjYAj.s 			page 1


   1              		.cpu cortex-m4
   2              		.eabi_attribute 20, 1
   3              		.eabi_attribute 21, 1
   4              		.eabi_attribute 23, 3
   5              		.eabi_attribute 24, 1
   6              		.eabi_attribute 25, 1
   7              		.eabi_attribute 26, 1
   8              		.eabi_attribute 30, 1
   9              		.eabi_attribute 34, 1
  10              		.eabi_attribute 18, 4
  11              		.file	"i2c.c"
  12              		.text
  13              	.Ltext0:
  14              		.cfi_sections	.debug_frame
  15              		.section	.text.MX_I2C2_Init,"ax",%progbits
  16              		.align	1
  17              		.global	MX_I2C2_Init
  18              		.arch armv7e-m
  19              		.syntax unified
  20              		.thumb
  21              		.thumb_func
  22              		.fpu softvfp
  24              	MX_I2C2_Init:
  25              	.LFB1163:
  26              		.file 1 "Core/Src/i2c.c"
   1:Core/Src/i2c.c **** /* USER CODE BEGIN Header */
   2:Core/Src/i2c.c **** /**
   3:Core/Src/i2c.c ****  ******************************************************************************
   4:Core/Src/i2c.c ****  * @file    i2c.c
   5:Core/Src/i2c.c ****  * @brief   This file provides code for the configuration
   6:Core/Src/i2c.c ****  *          of the I2C instances.
   7:Core/Src/i2c.c ****  ******************************************************************************
   8:Core/Src/i2c.c ****  * @attention
   9:Core/Src/i2c.c ****  *
  10:Core/Src/i2c.c ****  * Copyright (c) 2022 STMicroelectronics.
  11:Core/Src/i2c.c ****  * All rights reserved.
  12:Core/Src/i2c.c ****  *
  13:Core/Src/i2c.c ****  * This software is licensed under terms that can be found in the LICENSE file
  14:Core/Src/i2c.c ****  * in the root directory of this software component.
  15:Core/Src/i2c.c ****  * If no LICENSE file comes with this software, it is provided AS-IS.
  16:Core/Src/i2c.c ****  *
  17:Core/Src/i2c.c ****  ******************************************************************************
  18:Core/Src/i2c.c ****  */
  19:Core/Src/i2c.c **** /* USER CODE END Header */
  20:Core/Src/i2c.c **** /* Includes ------------------------------------------------------------------*/
  21:Core/Src/i2c.c **** #include "i2c.h"
  22:Core/Src/i2c.c **** 
  23:Core/Src/i2c.c **** /* USER CODE BEGIN 0 */
  24:Core/Src/i2c.c **** #define LCD_ADDRESS 0x27
  25:Core/Src/i2c.c **** #define I2C2_TX_DMA_REQUEST 0xE
  26:Core/Src/i2c.c **** #define I2C2_RX_DMA_REQUEST 0xD
  27:Core/Src/i2c.c **** 
  28:Core/Src/i2c.c **** volatile uint8_t tx_finished;
  29:Core/Src/i2c.c **** volatile uint8_t rx_finished;
  30:Core/Src/i2c.c **** /* USER CODE END 0 */
  31:Core/Src/i2c.c **** 
  32:Core/Src/i2c.c **** /* I2C2 init function */
ARM GAS  /var/folders/9y/n02fl3g16gnf7ppy14xghdy80000gn/T//ccTkjYAj.s 			page 2


  33:Core/Src/i2c.c **** void MX_I2C2_Init(void)
  34:Core/Src/i2c.c **** {
  27              		.loc 1 34 1 view -0
  28              		.cfi_startproc
  29              		@ args = 0, pretend = 0, frame = 120
  30              		@ frame_needed = 0, uses_anonymous_args = 0
  31 0000 2DE9F043 		push	{r4, r5, r6, r7, r8, r9, lr}
  32              		.cfi_def_cfa_offset 28
  33              		.cfi_offset 4, -28
  34              		.cfi_offset 5, -24
  35              		.cfi_offset 6, -20
  36              		.cfi_offset 7, -16
  37              		.cfi_offset 8, -12
  38              		.cfi_offset 9, -8
  39              		.cfi_offset 14, -4
  40 0004 9FB0     		sub	sp, sp, #124
  41              		.cfi_def_cfa_offset 152
  35:Core/Src/i2c.c **** 
  36:Core/Src/i2c.c ****   /* USER CODE BEGIN I2C2_Init 0 */
  37:Core/Src/i2c.c **** 
  38:Core/Src/i2c.c ****   /* USER CODE END I2C2_Init 0 */
  39:Core/Src/i2c.c **** 
  40:Core/Src/i2c.c ****   LL_I2C_InitTypeDef I2C_InitStruct = {0};
  42              		.loc 1 40 3 view .LVU1
  43              		.loc 1 40 22 is_stmt 0 view .LVU2
  44 0006 0021     		movs	r1, #0
  45 0008 1791     		str	r1, [sp, #92]
  46 000a 1891     		str	r1, [sp, #96]
  47 000c 1991     		str	r1, [sp, #100]
  48 000e 1A91     		str	r1, [sp, #104]
  49 0010 1B91     		str	r1, [sp, #108]
  50 0012 1C91     		str	r1, [sp, #112]
  51 0014 1D91     		str	r1, [sp, #116]
  41:Core/Src/i2c.c **** 
  42:Core/Src/i2c.c ****   LL_GPIO_InitTypeDef GPIO_InitStruct = {0};
  52              		.loc 1 42 3 is_stmt 1 view .LVU3
  53              		.loc 1 42 23 is_stmt 0 view .LVU4
  54 0016 1191     		str	r1, [sp, #68]
  55 0018 1291     		str	r1, [sp, #72]
  56 001a 1391     		str	r1, [sp, #76]
  57 001c 1491     		str	r1, [sp, #80]
  58 001e 1591     		str	r1, [sp, #84]
  59 0020 1691     		str	r1, [sp, #88]
  43:Core/Src/i2c.c ****   RCC_PeriphCLKInitTypeDef PeriphClkInitStruct = {0};
  60              		.loc 1 43 3 is_stmt 1 view .LVU5
  61              		.loc 1 43 28 is_stmt 0 view .LVU6
  62 0022 3822     		movs	r2, #56
  63 0024 03A8     		add	r0, sp, #12
  64 0026 FFF7FEFF 		bl	memset
  65              	.LVL0:
  44:Core/Src/i2c.c **** 
  45:Core/Src/i2c.c ****   /** Initializes the peripherals clocks
  46:Core/Src/i2c.c ****   */
  47:Core/Src/i2c.c ****   PeriphClkInitStruct.PeriphClockSelection = RCC_PERIPHCLK_I2C2;
  66              		.loc 1 47 3 is_stmt 1 view .LVU7
  67              		.loc 1 47 44 is_stmt 0 view .LVU8
  68 002a 8023     		movs	r3, #128
ARM GAS  /var/folders/9y/n02fl3g16gnf7ppy14xghdy80000gn/T//ccTkjYAj.s 			page 3


  69 002c 0393     		str	r3, [sp, #12]
  48:Core/Src/i2c.c ****   PeriphClkInitStruct.I2c2ClockSelection = RCC_I2C2CLKSOURCE_PCLK1;
  70              		.loc 1 48 3 is_stmt 1 view .LVU9
  71              		.loc 1 48 42 is_stmt 0 view .LVU10
  72 002e 4FF44023 		mov	r3, #786432
  73 0032 0993     		str	r3, [sp, #36]
  49:Core/Src/i2c.c ****   if (HAL_RCCEx_PeriphCLKConfig(&PeriphClkInitStruct) != HAL_OK)
  74              		.loc 1 49 3 is_stmt 1 view .LVU11
  75              		.loc 1 49 7 is_stmt 0 view .LVU12
  76 0034 03A8     		add	r0, sp, #12
  77 0036 FFF7FEFF 		bl	HAL_RCCEx_PeriphCLKConfig
  78              	.LVL1:
  79              		.loc 1 49 6 view .LVU13
  80 003a 0028     		cmp	r0, #0
  81 003c 40F0B280 		bne	.L4
  82              	.L2:
  50:Core/Src/i2c.c ****   {
  51:Core/Src/i2c.c ****     Error_Handler();
  52:Core/Src/i2c.c ****   }
  53:Core/Src/i2c.c **** 
  54:Core/Src/i2c.c ****   LL_AHB2_GRP1_EnableClock(LL_AHB2_GRP1_PERIPH_GPIOA);
  83              		.loc 1 54 3 is_stmt 1 view .LVU14
  84              	.LVL2:
  85              	.LBB50:
  86              	.LBI50:
  87              		.file 2 "Drivers/STM32WLxx_HAL_Driver/Inc/stm32wlxx_ll_bus.h"
   1:Drivers/STM32WLxx_HAL_Driver/Inc/stm32wlxx_ll_bus.h **** /**
   2:Drivers/STM32WLxx_HAL_Driver/Inc/stm32wlxx_ll_bus.h ****   ******************************************************************************
   3:Drivers/STM32WLxx_HAL_Driver/Inc/stm32wlxx_ll_bus.h ****   * @file    stm32wlxx_ll_bus.h
   4:Drivers/STM32WLxx_HAL_Driver/Inc/stm32wlxx_ll_bus.h ****   * @author  MCD Application Team
   5:Drivers/STM32WLxx_HAL_Driver/Inc/stm32wlxx_ll_bus.h ****   * @brief   Header file of BUS LL module.
   6:Drivers/STM32WLxx_HAL_Driver/Inc/stm32wlxx_ll_bus.h ****   ******************************************************************************
   7:Drivers/STM32WLxx_HAL_Driver/Inc/stm32wlxx_ll_bus.h ****   * @attention
   8:Drivers/STM32WLxx_HAL_Driver/Inc/stm32wlxx_ll_bus.h ****   *
   9:Drivers/STM32WLxx_HAL_Driver/Inc/stm32wlxx_ll_bus.h ****   * Copyright (c) 2020 STMicroelectronics.
  10:Drivers/STM32WLxx_HAL_Driver/Inc/stm32wlxx_ll_bus.h ****   * All rights reserved.
  11:Drivers/STM32WLxx_HAL_Driver/Inc/stm32wlxx_ll_bus.h ****   *
  12:Drivers/STM32WLxx_HAL_Driver/Inc/stm32wlxx_ll_bus.h ****   * This software is licensed under terms that can be found in the LICENSE file
  13:Drivers/STM32WLxx_HAL_Driver/Inc/stm32wlxx_ll_bus.h ****   * in the root directory of this software component.
  14:Drivers/STM32WLxx_HAL_Driver/Inc/stm32wlxx_ll_bus.h ****   * If no LICENSE file comes with this software, it is provided AS-IS.
  15:Drivers/STM32WLxx_HAL_Driver/Inc/stm32wlxx_ll_bus.h ****   *
  16:Drivers/STM32WLxx_HAL_Driver/Inc/stm32wlxx_ll_bus.h ****   ******************************************************************************
  17:Drivers/STM32WLxx_HAL_Driver/Inc/stm32wlxx_ll_bus.h ****   @verbatim
  18:Drivers/STM32WLxx_HAL_Driver/Inc/stm32wlxx_ll_bus.h ****                       ##### RCC Limitations #####
  19:Drivers/STM32WLxx_HAL_Driver/Inc/stm32wlxx_ll_bus.h ****   ==============================================================================
  20:Drivers/STM32WLxx_HAL_Driver/Inc/stm32wlxx_ll_bus.h ****     [..]
  21:Drivers/STM32WLxx_HAL_Driver/Inc/stm32wlxx_ll_bus.h ****       A delay between an RCC peripheral clock enable and the effective peripheral
  22:Drivers/STM32WLxx_HAL_Driver/Inc/stm32wlxx_ll_bus.h ****       enabling should be taken into account in order to manage the peripheral read/write
  23:Drivers/STM32WLxx_HAL_Driver/Inc/stm32wlxx_ll_bus.h ****       from/to registers.w<
  24:Drivers/STM32WLxx_HAL_Driver/Inc/stm32wlxx_ll_bus.h ****       (+) This delay depends on the peripheral mapping.
  25:Drivers/STM32WLxx_HAL_Driver/Inc/stm32wlxx_ll_bus.h ****         (++) AHB & APB peripherals, 1 dummy read is necessary
  26:Drivers/STM32WLxx_HAL_Driver/Inc/stm32wlxx_ll_bus.h **** 
  27:Drivers/STM32WLxx_HAL_Driver/Inc/stm32wlxx_ll_bus.h ****     [..]
  28:Drivers/STM32WLxx_HAL_Driver/Inc/stm32wlxx_ll_bus.h ****       Workarounds:
  29:Drivers/STM32WLxx_HAL_Driver/Inc/stm32wlxx_ll_bus.h ****       (#) For AHB & APB peripherals, a dummy read to the peripheral register has been
  30:Drivers/STM32WLxx_HAL_Driver/Inc/stm32wlxx_ll_bus.h ****           inserted in each LL_{BUS}_GRP{x}_EnableClock() function.
  31:Drivers/STM32WLxx_HAL_Driver/Inc/stm32wlxx_ll_bus.h **** 
ARM GAS  /var/folders/9y/n02fl3g16gnf7ppy14xghdy80000gn/T//ccTkjYAj.s 			page 4


  32:Drivers/STM32WLxx_HAL_Driver/Inc/stm32wlxx_ll_bus.h ****   @endverbatim
  33:Drivers/STM32WLxx_HAL_Driver/Inc/stm32wlxx_ll_bus.h ****   ******************************************************************************
  34:Drivers/STM32WLxx_HAL_Driver/Inc/stm32wlxx_ll_bus.h ****   */
  35:Drivers/STM32WLxx_HAL_Driver/Inc/stm32wlxx_ll_bus.h **** 
  36:Drivers/STM32WLxx_HAL_Driver/Inc/stm32wlxx_ll_bus.h **** /* Define to prevent recursive inclusion -------------------------------------*/
  37:Drivers/STM32WLxx_HAL_Driver/Inc/stm32wlxx_ll_bus.h **** #ifndef __STM32WLxx_LL_BUS_H
  38:Drivers/STM32WLxx_HAL_Driver/Inc/stm32wlxx_ll_bus.h **** #define __STM32WLxx_LL_BUS_H
  39:Drivers/STM32WLxx_HAL_Driver/Inc/stm32wlxx_ll_bus.h **** 
  40:Drivers/STM32WLxx_HAL_Driver/Inc/stm32wlxx_ll_bus.h **** #ifdef __cplusplus
  41:Drivers/STM32WLxx_HAL_Driver/Inc/stm32wlxx_ll_bus.h **** extern "C" {
  42:Drivers/STM32WLxx_HAL_Driver/Inc/stm32wlxx_ll_bus.h **** #endif
  43:Drivers/STM32WLxx_HAL_Driver/Inc/stm32wlxx_ll_bus.h **** 
  44:Drivers/STM32WLxx_HAL_Driver/Inc/stm32wlxx_ll_bus.h **** /* Includes ------------------------------------------------------------------*/
  45:Drivers/STM32WLxx_HAL_Driver/Inc/stm32wlxx_ll_bus.h **** #include "stm32wlxx.h"
  46:Drivers/STM32WLxx_HAL_Driver/Inc/stm32wlxx_ll_bus.h **** 
  47:Drivers/STM32WLxx_HAL_Driver/Inc/stm32wlxx_ll_bus.h **** /** @addtogroup STM32WLxx_LL_Driver
  48:Drivers/STM32WLxx_HAL_Driver/Inc/stm32wlxx_ll_bus.h ****   * @{
  49:Drivers/STM32WLxx_HAL_Driver/Inc/stm32wlxx_ll_bus.h ****   */
  50:Drivers/STM32WLxx_HAL_Driver/Inc/stm32wlxx_ll_bus.h **** 
  51:Drivers/STM32WLxx_HAL_Driver/Inc/stm32wlxx_ll_bus.h **** #if defined(RCC)
  52:Drivers/STM32WLxx_HAL_Driver/Inc/stm32wlxx_ll_bus.h **** 
  53:Drivers/STM32WLxx_HAL_Driver/Inc/stm32wlxx_ll_bus.h **** /** @defgroup BUS_LL BUS
  54:Drivers/STM32WLxx_HAL_Driver/Inc/stm32wlxx_ll_bus.h ****   * @{
  55:Drivers/STM32WLxx_HAL_Driver/Inc/stm32wlxx_ll_bus.h ****   */
  56:Drivers/STM32WLxx_HAL_Driver/Inc/stm32wlxx_ll_bus.h **** 
  57:Drivers/STM32WLxx_HAL_Driver/Inc/stm32wlxx_ll_bus.h **** /* Private types -------------------------------------------------------------*/
  58:Drivers/STM32WLxx_HAL_Driver/Inc/stm32wlxx_ll_bus.h **** /* Private variables ---------------------------------------------------------*/
  59:Drivers/STM32WLxx_HAL_Driver/Inc/stm32wlxx_ll_bus.h **** 
  60:Drivers/STM32WLxx_HAL_Driver/Inc/stm32wlxx_ll_bus.h **** /* Private constants ---------------------------------------------------------*/
  61:Drivers/STM32WLxx_HAL_Driver/Inc/stm32wlxx_ll_bus.h **** 
  62:Drivers/STM32WLxx_HAL_Driver/Inc/stm32wlxx_ll_bus.h **** /* Private macros ------------------------------------------------------------*/
  63:Drivers/STM32WLxx_HAL_Driver/Inc/stm32wlxx_ll_bus.h **** 
  64:Drivers/STM32WLxx_HAL_Driver/Inc/stm32wlxx_ll_bus.h **** /* Exported types ------------------------------------------------------------*/
  65:Drivers/STM32WLxx_HAL_Driver/Inc/stm32wlxx_ll_bus.h **** 
  66:Drivers/STM32WLxx_HAL_Driver/Inc/stm32wlxx_ll_bus.h **** /* Exported constants --------------------------------------------------------*/
  67:Drivers/STM32WLxx_HAL_Driver/Inc/stm32wlxx_ll_bus.h **** /** @defgroup BUS_LL_Exported_Constants BUS Exported Constants
  68:Drivers/STM32WLxx_HAL_Driver/Inc/stm32wlxx_ll_bus.h ****   * @{
  69:Drivers/STM32WLxx_HAL_Driver/Inc/stm32wlxx_ll_bus.h ****   */
  70:Drivers/STM32WLxx_HAL_Driver/Inc/stm32wlxx_ll_bus.h **** 
  71:Drivers/STM32WLxx_HAL_Driver/Inc/stm32wlxx_ll_bus.h **** /** @defgroup BUS_LL_EC_AHB1_GRP1_PERIPH  AHB1 GRP1 PERIPH
  72:Drivers/STM32WLxx_HAL_Driver/Inc/stm32wlxx_ll_bus.h ****   * @{
  73:Drivers/STM32WLxx_HAL_Driver/Inc/stm32wlxx_ll_bus.h ****   */
  74:Drivers/STM32WLxx_HAL_Driver/Inc/stm32wlxx_ll_bus.h **** #define LL_AHB1_GRP1_PERIPH_ALL            (0xFFFFFFFFU)
  75:Drivers/STM32WLxx_HAL_Driver/Inc/stm32wlxx_ll_bus.h **** #define LL_AHB1_GRP1_PERIPH_DMA1           RCC_AHB1ENR_DMA1EN
  76:Drivers/STM32WLxx_HAL_Driver/Inc/stm32wlxx_ll_bus.h **** #define LL_AHB1_GRP1_PERIPH_DMA2           RCC_AHB1ENR_DMA2EN
  77:Drivers/STM32WLxx_HAL_Driver/Inc/stm32wlxx_ll_bus.h **** #define LL_AHB1_GRP1_PERIPH_DMAMUX1        RCC_AHB1ENR_DMAMUX1EN
  78:Drivers/STM32WLxx_HAL_Driver/Inc/stm32wlxx_ll_bus.h **** #define LL_AHB1_GRP1_PERIPH_CRC            RCC_AHB1ENR_CRCEN
  79:Drivers/STM32WLxx_HAL_Driver/Inc/stm32wlxx_ll_bus.h **** /**
  80:Drivers/STM32WLxx_HAL_Driver/Inc/stm32wlxx_ll_bus.h ****   * @}
  81:Drivers/STM32WLxx_HAL_Driver/Inc/stm32wlxx_ll_bus.h ****   */
  82:Drivers/STM32WLxx_HAL_Driver/Inc/stm32wlxx_ll_bus.h **** 
  83:Drivers/STM32WLxx_HAL_Driver/Inc/stm32wlxx_ll_bus.h **** /** @defgroup BUS_LL_EC_AHB2_GRP1_PERIPH  AHB2 GRP1 PERIPH
  84:Drivers/STM32WLxx_HAL_Driver/Inc/stm32wlxx_ll_bus.h ****   * @{
  85:Drivers/STM32WLxx_HAL_Driver/Inc/stm32wlxx_ll_bus.h ****   */
  86:Drivers/STM32WLxx_HAL_Driver/Inc/stm32wlxx_ll_bus.h **** #define LL_AHB2_GRP1_PERIPH_ALL            (0xFFFFFFFFU)
  87:Drivers/STM32WLxx_HAL_Driver/Inc/stm32wlxx_ll_bus.h **** #define LL_AHB2_GRP1_PERIPH_GPIOA          RCC_AHB2ENR_GPIOAEN
  88:Drivers/STM32WLxx_HAL_Driver/Inc/stm32wlxx_ll_bus.h **** #define LL_AHB2_GRP1_PERIPH_GPIOB          RCC_AHB2ENR_GPIOBEN
ARM GAS  /var/folders/9y/n02fl3g16gnf7ppy14xghdy80000gn/T//ccTkjYAj.s 			page 5


  89:Drivers/STM32WLxx_HAL_Driver/Inc/stm32wlxx_ll_bus.h **** #define LL_AHB2_GRP1_PERIPH_GPIOC          RCC_AHB2ENR_GPIOCEN
  90:Drivers/STM32WLxx_HAL_Driver/Inc/stm32wlxx_ll_bus.h **** #define LL_AHB2_GRP1_PERIPH_GPIOH          RCC_AHB2ENR_GPIOHEN
  91:Drivers/STM32WLxx_HAL_Driver/Inc/stm32wlxx_ll_bus.h **** /**
  92:Drivers/STM32WLxx_HAL_Driver/Inc/stm32wlxx_ll_bus.h ****   * @}
  93:Drivers/STM32WLxx_HAL_Driver/Inc/stm32wlxx_ll_bus.h ****   */
  94:Drivers/STM32WLxx_HAL_Driver/Inc/stm32wlxx_ll_bus.h **** 
  95:Drivers/STM32WLxx_HAL_Driver/Inc/stm32wlxx_ll_bus.h **** /** @defgroup BUS_LL_EC_AHB3_GRP1_PERIPH  AHB3 GRP1 PERIPH
  96:Drivers/STM32WLxx_HAL_Driver/Inc/stm32wlxx_ll_bus.h ****   * @{
  97:Drivers/STM32WLxx_HAL_Driver/Inc/stm32wlxx_ll_bus.h ****   */
  98:Drivers/STM32WLxx_HAL_Driver/Inc/stm32wlxx_ll_bus.h **** #define LL_AHB3_GRP1_PERIPH_ALL            (0xFFFFFFFFU)
  99:Drivers/STM32WLxx_HAL_Driver/Inc/stm32wlxx_ll_bus.h **** #define LL_AHB3_GRP1_PERIPH_PKA            RCC_AHB3ENR_PKAEN
 100:Drivers/STM32WLxx_HAL_Driver/Inc/stm32wlxx_ll_bus.h **** #define LL_AHB3_GRP1_PERIPH_AES            RCC_AHB3ENR_AESEN
 101:Drivers/STM32WLxx_HAL_Driver/Inc/stm32wlxx_ll_bus.h **** #define LL_AHB3_GRP1_PERIPH_RNG            RCC_AHB3ENR_RNGEN
 102:Drivers/STM32WLxx_HAL_Driver/Inc/stm32wlxx_ll_bus.h **** #define LL_AHB3_GRP1_PERIPH_HSEM           RCC_AHB3ENR_HSEMEN
 103:Drivers/STM32WLxx_HAL_Driver/Inc/stm32wlxx_ll_bus.h **** #if defined(DUAL_CORE)
 104:Drivers/STM32WLxx_HAL_Driver/Inc/stm32wlxx_ll_bus.h **** #define LL_AHB3_GRP1_PERIPH_IPCC           RCC_AHB3ENR_IPCCEN
 105:Drivers/STM32WLxx_HAL_Driver/Inc/stm32wlxx_ll_bus.h **** #endif /* DUAL_CORE */
 106:Drivers/STM32WLxx_HAL_Driver/Inc/stm32wlxx_ll_bus.h **** #define LL_AHB3_GRP1_PERIPH_SRAM1          RCC_AHB3SMENR_SRAM1SMEN
 107:Drivers/STM32WLxx_HAL_Driver/Inc/stm32wlxx_ll_bus.h **** #define LL_AHB3_GRP1_PERIPH_SRAM2          RCC_AHB3SMENR_SRAM2SMEN
 108:Drivers/STM32WLxx_HAL_Driver/Inc/stm32wlxx_ll_bus.h **** #define LL_AHB3_GRP1_PERIPH_FLASH          RCC_AHB3ENR_FLASHEN
 109:Drivers/STM32WLxx_HAL_Driver/Inc/stm32wlxx_ll_bus.h **** /**
 110:Drivers/STM32WLxx_HAL_Driver/Inc/stm32wlxx_ll_bus.h ****   * @}
 111:Drivers/STM32WLxx_HAL_Driver/Inc/stm32wlxx_ll_bus.h ****   */
 112:Drivers/STM32WLxx_HAL_Driver/Inc/stm32wlxx_ll_bus.h **** 
 113:Drivers/STM32WLxx_HAL_Driver/Inc/stm32wlxx_ll_bus.h **** /** @defgroup BUS_LL_EC_APB1_GRP1_PERIPH  APB1 GRP1 PERIPH
 114:Drivers/STM32WLxx_HAL_Driver/Inc/stm32wlxx_ll_bus.h ****   * @{
 115:Drivers/STM32WLxx_HAL_Driver/Inc/stm32wlxx_ll_bus.h ****   */
 116:Drivers/STM32WLxx_HAL_Driver/Inc/stm32wlxx_ll_bus.h **** #define LL_APB1_GRP1_PERIPH_ALL            (0xFFFFFFFFU)
 117:Drivers/STM32WLxx_HAL_Driver/Inc/stm32wlxx_ll_bus.h **** #define LL_APB1_GRP1_PERIPH_TIM2           RCC_APB1ENR1_TIM2EN
 118:Drivers/STM32WLxx_HAL_Driver/Inc/stm32wlxx_ll_bus.h **** #define LL_APB1_GRP1_PERIPH_RTCAPB         RCC_APB1ENR1_RTCAPBEN
 119:Drivers/STM32WLxx_HAL_Driver/Inc/stm32wlxx_ll_bus.h **** #define LL_APB1_GRP1_PERIPH_WWDG           RCC_APB1ENR1_WWDGEN
 120:Drivers/STM32WLxx_HAL_Driver/Inc/stm32wlxx_ll_bus.h **** #define LL_APB1_GRP1_PERIPH_SPI2           RCC_APB1ENR1_SPI2EN
 121:Drivers/STM32WLxx_HAL_Driver/Inc/stm32wlxx_ll_bus.h **** #define LL_APB1_GRP1_PERIPH_USART2         RCC_APB1ENR1_USART2EN
 122:Drivers/STM32WLxx_HAL_Driver/Inc/stm32wlxx_ll_bus.h **** #define LL_APB1_GRP1_PERIPH_I2C1           RCC_APB1ENR1_I2C1EN
 123:Drivers/STM32WLxx_HAL_Driver/Inc/stm32wlxx_ll_bus.h **** #define LL_APB1_GRP1_PERIPH_I2C2           RCC_APB1ENR1_I2C2EN
 124:Drivers/STM32WLxx_HAL_Driver/Inc/stm32wlxx_ll_bus.h **** #define LL_APB1_GRP1_PERIPH_I2C3           RCC_APB1ENR1_I2C3EN
 125:Drivers/STM32WLxx_HAL_Driver/Inc/stm32wlxx_ll_bus.h **** #define LL_APB1_GRP1_PERIPH_DAC            RCC_APB1ENR1_DACEN
 126:Drivers/STM32WLxx_HAL_Driver/Inc/stm32wlxx_ll_bus.h **** #define LL_APB1_GRP1_PERIPH_LPTIM1         RCC_APB1ENR1_LPTIM1EN
 127:Drivers/STM32WLxx_HAL_Driver/Inc/stm32wlxx_ll_bus.h **** /**
 128:Drivers/STM32WLxx_HAL_Driver/Inc/stm32wlxx_ll_bus.h ****   * @}
 129:Drivers/STM32WLxx_HAL_Driver/Inc/stm32wlxx_ll_bus.h ****   */
 130:Drivers/STM32WLxx_HAL_Driver/Inc/stm32wlxx_ll_bus.h **** 
 131:Drivers/STM32WLxx_HAL_Driver/Inc/stm32wlxx_ll_bus.h **** 
 132:Drivers/STM32WLxx_HAL_Driver/Inc/stm32wlxx_ll_bus.h **** /** @defgroup BUS_LL_EC_APB1_GRP2_PERIPH  APB1 GRP2 PERIPH
 133:Drivers/STM32WLxx_HAL_Driver/Inc/stm32wlxx_ll_bus.h ****   * @{
 134:Drivers/STM32WLxx_HAL_Driver/Inc/stm32wlxx_ll_bus.h ****   */
 135:Drivers/STM32WLxx_HAL_Driver/Inc/stm32wlxx_ll_bus.h **** #define LL_APB1_GRP2_PERIPH_ALL            (0xFFFFFFFFU)
 136:Drivers/STM32WLxx_HAL_Driver/Inc/stm32wlxx_ll_bus.h **** #define LL_APB1_GRP2_PERIPH_LPUART1        RCC_APB1ENR2_LPUART1EN
 137:Drivers/STM32WLxx_HAL_Driver/Inc/stm32wlxx_ll_bus.h **** #define LL_APB1_GRP2_PERIPH_LPTIM2         RCC_APB1ENR2_LPTIM2EN
 138:Drivers/STM32WLxx_HAL_Driver/Inc/stm32wlxx_ll_bus.h **** #define LL_APB1_GRP2_PERIPH_LPTIM3         RCC_APB1ENR2_LPTIM3EN
 139:Drivers/STM32WLxx_HAL_Driver/Inc/stm32wlxx_ll_bus.h **** /**
 140:Drivers/STM32WLxx_HAL_Driver/Inc/stm32wlxx_ll_bus.h ****   * @}
 141:Drivers/STM32WLxx_HAL_Driver/Inc/stm32wlxx_ll_bus.h ****   */
 142:Drivers/STM32WLxx_HAL_Driver/Inc/stm32wlxx_ll_bus.h **** 
 143:Drivers/STM32WLxx_HAL_Driver/Inc/stm32wlxx_ll_bus.h **** /** @defgroup BUS_LL_EC_APB2_GRP1_PERIPH  APB2 GRP1 PERIPH
 144:Drivers/STM32WLxx_HAL_Driver/Inc/stm32wlxx_ll_bus.h ****   * @{
 145:Drivers/STM32WLxx_HAL_Driver/Inc/stm32wlxx_ll_bus.h ****   */
ARM GAS  /var/folders/9y/n02fl3g16gnf7ppy14xghdy80000gn/T//ccTkjYAj.s 			page 6


 146:Drivers/STM32WLxx_HAL_Driver/Inc/stm32wlxx_ll_bus.h **** #define LL_APB2_GRP1_PERIPH_ALL            (0xFFFFFFFFU)
 147:Drivers/STM32WLxx_HAL_Driver/Inc/stm32wlxx_ll_bus.h **** #define LL_APB2_GRP1_PERIPH_ADC            RCC_APB2ENR_ADCEN
 148:Drivers/STM32WLxx_HAL_Driver/Inc/stm32wlxx_ll_bus.h **** #define LL_APB2_GRP1_PERIPH_TIM1           RCC_APB2ENR_TIM1EN
 149:Drivers/STM32WLxx_HAL_Driver/Inc/stm32wlxx_ll_bus.h **** #define LL_APB2_GRP1_PERIPH_SPI1           RCC_APB2ENR_SPI1EN
 150:Drivers/STM32WLxx_HAL_Driver/Inc/stm32wlxx_ll_bus.h **** #define LL_APB2_GRP1_PERIPH_USART1         RCC_APB2ENR_USART1EN
 151:Drivers/STM32WLxx_HAL_Driver/Inc/stm32wlxx_ll_bus.h **** #define LL_APB2_GRP1_PERIPH_TIM16          RCC_APB2ENR_TIM16EN
 152:Drivers/STM32WLxx_HAL_Driver/Inc/stm32wlxx_ll_bus.h **** #define LL_APB2_GRP1_PERIPH_TIM17          RCC_APB2ENR_TIM17EN
 153:Drivers/STM32WLxx_HAL_Driver/Inc/stm32wlxx_ll_bus.h **** /**
 154:Drivers/STM32WLxx_HAL_Driver/Inc/stm32wlxx_ll_bus.h ****   * @}
 155:Drivers/STM32WLxx_HAL_Driver/Inc/stm32wlxx_ll_bus.h ****   */
 156:Drivers/STM32WLxx_HAL_Driver/Inc/stm32wlxx_ll_bus.h **** 
 157:Drivers/STM32WLxx_HAL_Driver/Inc/stm32wlxx_ll_bus.h **** /** @defgroup BUS_LL_EC_APB3_GRP1_PERIPH  APB3 GRP1 PERIPH
 158:Drivers/STM32WLxx_HAL_Driver/Inc/stm32wlxx_ll_bus.h ****   * @{
 159:Drivers/STM32WLxx_HAL_Driver/Inc/stm32wlxx_ll_bus.h ****   */
 160:Drivers/STM32WLxx_HAL_Driver/Inc/stm32wlxx_ll_bus.h **** #define LL_APB3_GRP1_PERIPH_ALL            (0xFFFFFFFFU)
 161:Drivers/STM32WLxx_HAL_Driver/Inc/stm32wlxx_ll_bus.h **** #define LL_APB3_GRP1_PERIPH_SUBGHZSPI      RCC_APB3ENR_SUBGHZSPIEN
 162:Drivers/STM32WLxx_HAL_Driver/Inc/stm32wlxx_ll_bus.h **** /**
 163:Drivers/STM32WLxx_HAL_Driver/Inc/stm32wlxx_ll_bus.h ****   * @}
 164:Drivers/STM32WLxx_HAL_Driver/Inc/stm32wlxx_ll_bus.h ****   */
 165:Drivers/STM32WLxx_HAL_Driver/Inc/stm32wlxx_ll_bus.h **** 
 166:Drivers/STM32WLxx_HAL_Driver/Inc/stm32wlxx_ll_bus.h **** #if defined(DUAL_CORE)
 167:Drivers/STM32WLxx_HAL_Driver/Inc/stm32wlxx_ll_bus.h **** /** @defgroup BUS_LL_EC_C2_AHB1_GRP1_PERIPH  C2 AHB1 GRP1 PERIPH
 168:Drivers/STM32WLxx_HAL_Driver/Inc/stm32wlxx_ll_bus.h ****   * @{
 169:Drivers/STM32WLxx_HAL_Driver/Inc/stm32wlxx_ll_bus.h ****   */
 170:Drivers/STM32WLxx_HAL_Driver/Inc/stm32wlxx_ll_bus.h **** #define LL_C2_AHB1_GRP1_PERIPH_DMA1         RCC_C2AHB1ENR_DMA1EN
 171:Drivers/STM32WLxx_HAL_Driver/Inc/stm32wlxx_ll_bus.h **** #define LL_C2_AHB1_GRP1_PERIPH_DMA2         RCC_C2AHB1ENR_DMA2EN
 172:Drivers/STM32WLxx_HAL_Driver/Inc/stm32wlxx_ll_bus.h **** #define LL_C2_AHB1_GRP1_PERIPH_DMAMUX1      RCC_C2AHB1ENR_DMAMUX1EN
 173:Drivers/STM32WLxx_HAL_Driver/Inc/stm32wlxx_ll_bus.h **** #define LL_C2_AHB1_GRP1_PERIPH_CRC          RCC_C2AHB1ENR_CRCEN
 174:Drivers/STM32WLxx_HAL_Driver/Inc/stm32wlxx_ll_bus.h **** /**
 175:Drivers/STM32WLxx_HAL_Driver/Inc/stm32wlxx_ll_bus.h ****   * @}
 176:Drivers/STM32WLxx_HAL_Driver/Inc/stm32wlxx_ll_bus.h ****   */
 177:Drivers/STM32WLxx_HAL_Driver/Inc/stm32wlxx_ll_bus.h **** 
 178:Drivers/STM32WLxx_HAL_Driver/Inc/stm32wlxx_ll_bus.h **** 
 179:Drivers/STM32WLxx_HAL_Driver/Inc/stm32wlxx_ll_bus.h **** /** @defgroup BUS_LL_EC_C2_AHB2_GRP1_PERIPH  C2 AHB2 GRP1 PERIPH
 180:Drivers/STM32WLxx_HAL_Driver/Inc/stm32wlxx_ll_bus.h ****   * @{
 181:Drivers/STM32WLxx_HAL_Driver/Inc/stm32wlxx_ll_bus.h ****   */
 182:Drivers/STM32WLxx_HAL_Driver/Inc/stm32wlxx_ll_bus.h **** #define LL_C2_AHB2_GRP1_PERIPH_GPIOA        RCC_C2AHB2ENR_GPIOAEN
 183:Drivers/STM32WLxx_HAL_Driver/Inc/stm32wlxx_ll_bus.h **** #define LL_C2_AHB2_GRP1_PERIPH_GPIOB        RCC_C2AHB2ENR_GPIOBEN
 184:Drivers/STM32WLxx_HAL_Driver/Inc/stm32wlxx_ll_bus.h **** #define LL_C2_AHB2_GRP1_PERIPH_GPIOC        RCC_C2AHB2ENR_GPIOCEN
 185:Drivers/STM32WLxx_HAL_Driver/Inc/stm32wlxx_ll_bus.h **** #define LL_C2_AHB2_GRP1_PERIPH_GPIOH        RCC_C2AHB2ENR_GPIOHEN
 186:Drivers/STM32WLxx_HAL_Driver/Inc/stm32wlxx_ll_bus.h **** /**
 187:Drivers/STM32WLxx_HAL_Driver/Inc/stm32wlxx_ll_bus.h ****   * @}
 188:Drivers/STM32WLxx_HAL_Driver/Inc/stm32wlxx_ll_bus.h ****   */
 189:Drivers/STM32WLxx_HAL_Driver/Inc/stm32wlxx_ll_bus.h **** 
 190:Drivers/STM32WLxx_HAL_Driver/Inc/stm32wlxx_ll_bus.h **** 
 191:Drivers/STM32WLxx_HAL_Driver/Inc/stm32wlxx_ll_bus.h **** /** @defgroup BUS_LL_EC_C2_AHB3_GRP1_PERIPH  C2 AHB3 GRP1 PERIPH
 192:Drivers/STM32WLxx_HAL_Driver/Inc/stm32wlxx_ll_bus.h ****   * @{
 193:Drivers/STM32WLxx_HAL_Driver/Inc/stm32wlxx_ll_bus.h ****   */
 194:Drivers/STM32WLxx_HAL_Driver/Inc/stm32wlxx_ll_bus.h **** #define LL_C2_AHB3_GRP1_PERIPH_PKA          RCC_C2AHB3ENR_PKAEN
 195:Drivers/STM32WLxx_HAL_Driver/Inc/stm32wlxx_ll_bus.h **** #define LL_C2_AHB3_GRP1_PERIPH_AES          RCC_C2AHB3ENR_AESEN
 196:Drivers/STM32WLxx_HAL_Driver/Inc/stm32wlxx_ll_bus.h **** #define LL_C2_AHB3_GRP1_PERIPH_RNG          RCC_C2AHB3ENR_RNGEN
 197:Drivers/STM32WLxx_HAL_Driver/Inc/stm32wlxx_ll_bus.h **** #define LL_C2_AHB3_GRP1_PERIPH_HSEM         RCC_C2AHB3ENR_HSEMEN
 198:Drivers/STM32WLxx_HAL_Driver/Inc/stm32wlxx_ll_bus.h **** #define LL_C2_AHB3_GRP1_PERIPH_IPCC         RCC_C2AHB3ENR_IPCCEN
 199:Drivers/STM32WLxx_HAL_Driver/Inc/stm32wlxx_ll_bus.h **** #define LL_C2_AHB3_GRP1_PERIPH_FLASH        RCC_C2AHB3ENR_FLASHEN
 200:Drivers/STM32WLxx_HAL_Driver/Inc/stm32wlxx_ll_bus.h **** #define LL_C2_AHB3_GRP1_PERIPH_SRAM1        RCC_C2AHB3SMENR_SRAM1SMEN
 201:Drivers/STM32WLxx_HAL_Driver/Inc/stm32wlxx_ll_bus.h **** #define LL_C2_AHB3_GRP1_PERIPH_SRAM2        RCC_C2AHB3SMENR_SRAM2SMEN
 202:Drivers/STM32WLxx_HAL_Driver/Inc/stm32wlxx_ll_bus.h **** /**
ARM GAS  /var/folders/9y/n02fl3g16gnf7ppy14xghdy80000gn/T//ccTkjYAj.s 			page 7


 203:Drivers/STM32WLxx_HAL_Driver/Inc/stm32wlxx_ll_bus.h ****   * @}
 204:Drivers/STM32WLxx_HAL_Driver/Inc/stm32wlxx_ll_bus.h ****   */
 205:Drivers/STM32WLxx_HAL_Driver/Inc/stm32wlxx_ll_bus.h **** 
 206:Drivers/STM32WLxx_HAL_Driver/Inc/stm32wlxx_ll_bus.h **** 
 207:Drivers/STM32WLxx_HAL_Driver/Inc/stm32wlxx_ll_bus.h **** /** @defgroup BUS_LL_EC_C2_APB1_GRP1_PERIPH  C2 APB1 GRP1 PERIPH
 208:Drivers/STM32WLxx_HAL_Driver/Inc/stm32wlxx_ll_bus.h ****   * @{
 209:Drivers/STM32WLxx_HAL_Driver/Inc/stm32wlxx_ll_bus.h ****   */
 210:Drivers/STM32WLxx_HAL_Driver/Inc/stm32wlxx_ll_bus.h **** #define LL_C2_APB1_GRP1_PERIPH_TIM2         RCC_C2APB1ENR1_TIM2EN
 211:Drivers/STM32WLxx_HAL_Driver/Inc/stm32wlxx_ll_bus.h **** #define LL_C2_APB1_GRP1_PERIPH_RTCAPB       RCC_C2APB1ENR1_RTCAPBEN
 212:Drivers/STM32WLxx_HAL_Driver/Inc/stm32wlxx_ll_bus.h **** #define LL_C2_APB1_GRP1_PERIPH_SPI2         RCC_C2APB1ENR1_SPI2EN
 213:Drivers/STM32WLxx_HAL_Driver/Inc/stm32wlxx_ll_bus.h **** #define LL_C2_APB1_GRP1_PERIPH_USART2       RCC_C2APB1ENR1_USART2EN
 214:Drivers/STM32WLxx_HAL_Driver/Inc/stm32wlxx_ll_bus.h **** #define LL_C2_APB1_GRP1_PERIPH_I2C1         RCC_C2APB1ENR1_I2C1EN
 215:Drivers/STM32WLxx_HAL_Driver/Inc/stm32wlxx_ll_bus.h **** #define LL_C2_APB1_GRP1_PERIPH_I2C2         RCC_C2APB1ENR1_I2C2EN
 216:Drivers/STM32WLxx_HAL_Driver/Inc/stm32wlxx_ll_bus.h **** #define LL_C2_APB1_GRP1_PERIPH_I2C3         RCC_C2APB1ENR1_I2C3EN
 217:Drivers/STM32WLxx_HAL_Driver/Inc/stm32wlxx_ll_bus.h **** #define LL_C2_APB1_GRP1_PERIPH_DAC          RCC_C2APB1ENR1_DACEN
 218:Drivers/STM32WLxx_HAL_Driver/Inc/stm32wlxx_ll_bus.h **** #define LL_C2_APB1_GRP1_PERIPH_LPTIM1       RCC_C2APB1ENR1_LPTIM1EN
 219:Drivers/STM32WLxx_HAL_Driver/Inc/stm32wlxx_ll_bus.h **** /**
 220:Drivers/STM32WLxx_HAL_Driver/Inc/stm32wlxx_ll_bus.h ****   * @}
 221:Drivers/STM32WLxx_HAL_Driver/Inc/stm32wlxx_ll_bus.h ****   */
 222:Drivers/STM32WLxx_HAL_Driver/Inc/stm32wlxx_ll_bus.h **** 
 223:Drivers/STM32WLxx_HAL_Driver/Inc/stm32wlxx_ll_bus.h **** 
 224:Drivers/STM32WLxx_HAL_Driver/Inc/stm32wlxx_ll_bus.h **** /** @defgroup BUS_LL_EC_C2_APB1_GRP2_PERIPH  C2 APB1 GRP2 PERIPH
 225:Drivers/STM32WLxx_HAL_Driver/Inc/stm32wlxx_ll_bus.h ****   * @{
 226:Drivers/STM32WLxx_HAL_Driver/Inc/stm32wlxx_ll_bus.h ****   */
 227:Drivers/STM32WLxx_HAL_Driver/Inc/stm32wlxx_ll_bus.h **** #define LL_C2_APB1_GRP2_PERIPH_LPUART1      RCC_C2APB1ENR2_LPUART1EN
 228:Drivers/STM32WLxx_HAL_Driver/Inc/stm32wlxx_ll_bus.h **** #define LL_C2_APB1_GRP2_PERIPH_LPTIM2       RCC_C2APB1ENR2_LPTIM2EN
 229:Drivers/STM32WLxx_HAL_Driver/Inc/stm32wlxx_ll_bus.h **** #define LL_C2_APB1_GRP2_PERIPH_LPTIM3       RCC_C2APB1ENR2_LPTIM3EN
 230:Drivers/STM32WLxx_HAL_Driver/Inc/stm32wlxx_ll_bus.h **** /**
 231:Drivers/STM32WLxx_HAL_Driver/Inc/stm32wlxx_ll_bus.h ****   * @}
 232:Drivers/STM32WLxx_HAL_Driver/Inc/stm32wlxx_ll_bus.h ****   */
 233:Drivers/STM32WLxx_HAL_Driver/Inc/stm32wlxx_ll_bus.h **** 
 234:Drivers/STM32WLxx_HAL_Driver/Inc/stm32wlxx_ll_bus.h **** 
 235:Drivers/STM32WLxx_HAL_Driver/Inc/stm32wlxx_ll_bus.h **** /** @defgroup BUS_LL_EC_C2_APB2_GRP1_PERIPH  C2 APB2 GRP1 PERIPH
 236:Drivers/STM32WLxx_HAL_Driver/Inc/stm32wlxx_ll_bus.h ****   * @{
 237:Drivers/STM32WLxx_HAL_Driver/Inc/stm32wlxx_ll_bus.h ****   */
 238:Drivers/STM32WLxx_HAL_Driver/Inc/stm32wlxx_ll_bus.h **** #define LL_C2_APB2_GRP1_PERIPH_ADC          RCC_C2APB2ENR_ADCEN
 239:Drivers/STM32WLxx_HAL_Driver/Inc/stm32wlxx_ll_bus.h **** #define LL_C2_APB2_GRP1_PERIPH_TIM1         RCC_C2APB2ENR_TIM1EN
 240:Drivers/STM32WLxx_HAL_Driver/Inc/stm32wlxx_ll_bus.h **** #define LL_C2_APB2_GRP1_PERIPH_SPI1         RCC_C2APB2ENR_SPI1EN
 241:Drivers/STM32WLxx_HAL_Driver/Inc/stm32wlxx_ll_bus.h **** #define LL_C2_APB2_GRP1_PERIPH_USART1       RCC_C2APB2ENR_USART1EN
 242:Drivers/STM32WLxx_HAL_Driver/Inc/stm32wlxx_ll_bus.h **** #define LL_C2_APB2_GRP1_PERIPH_TIM16        RCC_C2APB2ENR_TIM16EN
 243:Drivers/STM32WLxx_HAL_Driver/Inc/stm32wlxx_ll_bus.h **** #define LL_C2_APB2_GRP1_PERIPH_TIM17        RCC_C2APB2ENR_TIM17EN
 244:Drivers/STM32WLxx_HAL_Driver/Inc/stm32wlxx_ll_bus.h **** /**
 245:Drivers/STM32WLxx_HAL_Driver/Inc/stm32wlxx_ll_bus.h ****   * @}
 246:Drivers/STM32WLxx_HAL_Driver/Inc/stm32wlxx_ll_bus.h ****   */
 247:Drivers/STM32WLxx_HAL_Driver/Inc/stm32wlxx_ll_bus.h **** 
 248:Drivers/STM32WLxx_HAL_Driver/Inc/stm32wlxx_ll_bus.h **** 
 249:Drivers/STM32WLxx_HAL_Driver/Inc/stm32wlxx_ll_bus.h **** /** @defgroup BUS_LL_EC_C2_APB3_GRP1_PERIPH  C2 APB3 GRP1 PERIPH
 250:Drivers/STM32WLxx_HAL_Driver/Inc/stm32wlxx_ll_bus.h ****   * @{
 251:Drivers/STM32WLxx_HAL_Driver/Inc/stm32wlxx_ll_bus.h ****   */
 252:Drivers/STM32WLxx_HAL_Driver/Inc/stm32wlxx_ll_bus.h **** #define LL_C2_APB3_GRP1_PERIPH_SUBGHZSPI    RCC_C2APB3ENR_SUBGHZSPIEN
 253:Drivers/STM32WLxx_HAL_Driver/Inc/stm32wlxx_ll_bus.h **** /**
 254:Drivers/STM32WLxx_HAL_Driver/Inc/stm32wlxx_ll_bus.h ****   * @}
 255:Drivers/STM32WLxx_HAL_Driver/Inc/stm32wlxx_ll_bus.h ****   */
 256:Drivers/STM32WLxx_HAL_Driver/Inc/stm32wlxx_ll_bus.h **** #endif /* DUAL_CORE */
 257:Drivers/STM32WLxx_HAL_Driver/Inc/stm32wlxx_ll_bus.h **** 
 258:Drivers/STM32WLxx_HAL_Driver/Inc/stm32wlxx_ll_bus.h **** /**
 259:Drivers/STM32WLxx_HAL_Driver/Inc/stm32wlxx_ll_bus.h ****   * @}
ARM GAS  /var/folders/9y/n02fl3g16gnf7ppy14xghdy80000gn/T//ccTkjYAj.s 			page 8


 260:Drivers/STM32WLxx_HAL_Driver/Inc/stm32wlxx_ll_bus.h ****   */
 261:Drivers/STM32WLxx_HAL_Driver/Inc/stm32wlxx_ll_bus.h **** 
 262:Drivers/STM32WLxx_HAL_Driver/Inc/stm32wlxx_ll_bus.h **** /* Exported macro ------------------------------------------------------------*/
 263:Drivers/STM32WLxx_HAL_Driver/Inc/stm32wlxx_ll_bus.h **** 
 264:Drivers/STM32WLxx_HAL_Driver/Inc/stm32wlxx_ll_bus.h **** /* Exported functions --------------------------------------------------------*/
 265:Drivers/STM32WLxx_HAL_Driver/Inc/stm32wlxx_ll_bus.h **** 
 266:Drivers/STM32WLxx_HAL_Driver/Inc/stm32wlxx_ll_bus.h **** /** @defgroup BUS_LL_Exported_Functions BUS Exported Functions
 267:Drivers/STM32WLxx_HAL_Driver/Inc/stm32wlxx_ll_bus.h ****   * @{
 268:Drivers/STM32WLxx_HAL_Driver/Inc/stm32wlxx_ll_bus.h ****   */
 269:Drivers/STM32WLxx_HAL_Driver/Inc/stm32wlxx_ll_bus.h **** 
 270:Drivers/STM32WLxx_HAL_Driver/Inc/stm32wlxx_ll_bus.h **** /** @defgroup BUS_LL_EF_AHB1 AHB1
 271:Drivers/STM32WLxx_HAL_Driver/Inc/stm32wlxx_ll_bus.h ****   * @{
 272:Drivers/STM32WLxx_HAL_Driver/Inc/stm32wlxx_ll_bus.h ****   */
 273:Drivers/STM32WLxx_HAL_Driver/Inc/stm32wlxx_ll_bus.h **** 
 274:Drivers/STM32WLxx_HAL_Driver/Inc/stm32wlxx_ll_bus.h **** /**
 275:Drivers/STM32WLxx_HAL_Driver/Inc/stm32wlxx_ll_bus.h ****   * @brief  Enable AHB1 peripherals clock.
 276:Drivers/STM32WLxx_HAL_Driver/Inc/stm32wlxx_ll_bus.h ****   * @rmtoll AHB1ENR      DMA1EN        LL_AHB1_GRP1_EnableClock\n
 277:Drivers/STM32WLxx_HAL_Driver/Inc/stm32wlxx_ll_bus.h ****   *         AHB1ENR      DMA2EN        LL_AHB1_GRP1_EnableClock\n
 278:Drivers/STM32WLxx_HAL_Driver/Inc/stm32wlxx_ll_bus.h ****   *         AHB1ENR      DMAMUX1EN     LL_AHB1_GRP1_EnableClock\n
 279:Drivers/STM32WLxx_HAL_Driver/Inc/stm32wlxx_ll_bus.h ****   *         AHB1ENR      CRCEN         LL_AHB1_GRP1_EnableClock\n
 280:Drivers/STM32WLxx_HAL_Driver/Inc/stm32wlxx_ll_bus.h ****   * @param  Periphs This parameter can be a combination of the following values:
 281:Drivers/STM32WLxx_HAL_Driver/Inc/stm32wlxx_ll_bus.h ****   *         @arg @ref LL_AHB1_GRP1_PERIPH_DMA1
 282:Drivers/STM32WLxx_HAL_Driver/Inc/stm32wlxx_ll_bus.h ****   *         @arg @ref LL_AHB1_GRP1_PERIPH_DMA2
 283:Drivers/STM32WLxx_HAL_Driver/Inc/stm32wlxx_ll_bus.h ****   *         @arg @ref LL_AHB1_GRP1_PERIPH_DMAMUX1
 284:Drivers/STM32WLxx_HAL_Driver/Inc/stm32wlxx_ll_bus.h ****   *         @arg @ref LL_AHB1_GRP1_PERIPH_CRC
 285:Drivers/STM32WLxx_HAL_Driver/Inc/stm32wlxx_ll_bus.h ****   * @retval None
 286:Drivers/STM32WLxx_HAL_Driver/Inc/stm32wlxx_ll_bus.h ****   */
 287:Drivers/STM32WLxx_HAL_Driver/Inc/stm32wlxx_ll_bus.h **** __STATIC_INLINE void LL_AHB1_GRP1_EnableClock(uint32_t Periphs)
 288:Drivers/STM32WLxx_HAL_Driver/Inc/stm32wlxx_ll_bus.h **** {
 289:Drivers/STM32WLxx_HAL_Driver/Inc/stm32wlxx_ll_bus.h ****   __IO uint32_t tmpreg;
 290:Drivers/STM32WLxx_HAL_Driver/Inc/stm32wlxx_ll_bus.h ****   SET_BIT(RCC->AHB1ENR, Periphs);
 291:Drivers/STM32WLxx_HAL_Driver/Inc/stm32wlxx_ll_bus.h ****   /* Delay after an RCC peripheral clock enabling */
 292:Drivers/STM32WLxx_HAL_Driver/Inc/stm32wlxx_ll_bus.h ****   tmpreg = READ_BIT(RCC->AHB1ENR, Periphs);
 293:Drivers/STM32WLxx_HAL_Driver/Inc/stm32wlxx_ll_bus.h ****   (void)tmpreg;
 294:Drivers/STM32WLxx_HAL_Driver/Inc/stm32wlxx_ll_bus.h **** }
 295:Drivers/STM32WLxx_HAL_Driver/Inc/stm32wlxx_ll_bus.h **** 
 296:Drivers/STM32WLxx_HAL_Driver/Inc/stm32wlxx_ll_bus.h **** /**
 297:Drivers/STM32WLxx_HAL_Driver/Inc/stm32wlxx_ll_bus.h ****   * @brief  Check if AHB1 peripheral clock is enabled or not
 298:Drivers/STM32WLxx_HAL_Driver/Inc/stm32wlxx_ll_bus.h ****   * @rmtoll AHB1ENR      DMA1EN        LL_AHB1_GRP1_IsEnabledClock\n
 299:Drivers/STM32WLxx_HAL_Driver/Inc/stm32wlxx_ll_bus.h ****   *         AHB1ENR      DMA2EN        LL_AHB1_GRP1_IsEnabledClock\n
 300:Drivers/STM32WLxx_HAL_Driver/Inc/stm32wlxx_ll_bus.h ****   *         AHB1ENR      DMAMUX1EN     LL_AHB1_GRP1_IsEnabledClock\n
 301:Drivers/STM32WLxx_HAL_Driver/Inc/stm32wlxx_ll_bus.h ****   *         AHB1ENR      CRCEN         LL_AHB1_GRP1_IsEnabledClock\n
 302:Drivers/STM32WLxx_HAL_Driver/Inc/stm32wlxx_ll_bus.h ****   * @param  Periphs This parameter can be a combination of the following values:
 303:Drivers/STM32WLxx_HAL_Driver/Inc/stm32wlxx_ll_bus.h ****   *         @arg @ref LL_AHB1_GRP1_PERIPH_DMA1
 304:Drivers/STM32WLxx_HAL_Driver/Inc/stm32wlxx_ll_bus.h ****   *         @arg @ref LL_AHB1_GRP1_PERIPH_DMA2
 305:Drivers/STM32WLxx_HAL_Driver/Inc/stm32wlxx_ll_bus.h ****   *         @arg @ref LL_AHB1_GRP1_PERIPH_DMAMUX1
 306:Drivers/STM32WLxx_HAL_Driver/Inc/stm32wlxx_ll_bus.h ****   *         @arg @ref LL_AHB1_GRP1_PERIPH_CRC
 307:Drivers/STM32WLxx_HAL_Driver/Inc/stm32wlxx_ll_bus.h ****   * @retval uint32_t
 308:Drivers/STM32WLxx_HAL_Driver/Inc/stm32wlxx_ll_bus.h ****   */
 309:Drivers/STM32WLxx_HAL_Driver/Inc/stm32wlxx_ll_bus.h **** __STATIC_INLINE uint32_t LL_AHB1_GRP1_IsEnabledClock(uint32_t Periphs)
 310:Drivers/STM32WLxx_HAL_Driver/Inc/stm32wlxx_ll_bus.h **** {
 311:Drivers/STM32WLxx_HAL_Driver/Inc/stm32wlxx_ll_bus.h ****   return ((READ_BIT(RCC->AHB1ENR, Periphs) == (Periphs)) ? 1UL : 0UL);
 312:Drivers/STM32WLxx_HAL_Driver/Inc/stm32wlxx_ll_bus.h **** }
 313:Drivers/STM32WLxx_HAL_Driver/Inc/stm32wlxx_ll_bus.h **** 
 314:Drivers/STM32WLxx_HAL_Driver/Inc/stm32wlxx_ll_bus.h **** /**
 315:Drivers/STM32WLxx_HAL_Driver/Inc/stm32wlxx_ll_bus.h ****   * @brief  Disable AHB1 peripherals clock.
 316:Drivers/STM32WLxx_HAL_Driver/Inc/stm32wlxx_ll_bus.h ****   * @rmtoll AHB1ENR      DMA1EN        LL_AHB1_GRP1_DisableClock\n
ARM GAS  /var/folders/9y/n02fl3g16gnf7ppy14xghdy80000gn/T//ccTkjYAj.s 			page 9


 317:Drivers/STM32WLxx_HAL_Driver/Inc/stm32wlxx_ll_bus.h ****   *         AHB1ENR      DMA2EN        LL_AHB1_GRP1_DisableClock\n
 318:Drivers/STM32WLxx_HAL_Driver/Inc/stm32wlxx_ll_bus.h ****   *         AHB1ENR      DMAMUX1EN     LL_AHB1_GRP1_DisableClock\n
 319:Drivers/STM32WLxx_HAL_Driver/Inc/stm32wlxx_ll_bus.h ****   *         AHB1ENR      CRCEN         LL_AHB1_GRP1_DisableClock\n
 320:Drivers/STM32WLxx_HAL_Driver/Inc/stm32wlxx_ll_bus.h ****   * @param  Periphs This parameter can be a combination of the following values:
 321:Drivers/STM32WLxx_HAL_Driver/Inc/stm32wlxx_ll_bus.h ****   *         @arg @ref LL_AHB1_GRP1_PERIPH_DMA1
 322:Drivers/STM32WLxx_HAL_Driver/Inc/stm32wlxx_ll_bus.h ****   *         @arg @ref LL_AHB1_GRP1_PERIPH_DMA2
 323:Drivers/STM32WLxx_HAL_Driver/Inc/stm32wlxx_ll_bus.h ****   *         @arg @ref LL_AHB1_GRP1_PERIPH_DMAMUX1
 324:Drivers/STM32WLxx_HAL_Driver/Inc/stm32wlxx_ll_bus.h ****   *         @arg @ref LL_AHB1_GRP1_PERIPH_CRC
 325:Drivers/STM32WLxx_HAL_Driver/Inc/stm32wlxx_ll_bus.h ****   * @retval None
 326:Drivers/STM32WLxx_HAL_Driver/Inc/stm32wlxx_ll_bus.h ****   */
 327:Drivers/STM32WLxx_HAL_Driver/Inc/stm32wlxx_ll_bus.h **** __STATIC_INLINE void LL_AHB1_GRP1_DisableClock(uint32_t Periphs)
 328:Drivers/STM32WLxx_HAL_Driver/Inc/stm32wlxx_ll_bus.h **** {
 329:Drivers/STM32WLxx_HAL_Driver/Inc/stm32wlxx_ll_bus.h ****   CLEAR_BIT(RCC->AHB1ENR, Periphs);
 330:Drivers/STM32WLxx_HAL_Driver/Inc/stm32wlxx_ll_bus.h **** }
 331:Drivers/STM32WLxx_HAL_Driver/Inc/stm32wlxx_ll_bus.h **** 
 332:Drivers/STM32WLxx_HAL_Driver/Inc/stm32wlxx_ll_bus.h **** /**
 333:Drivers/STM32WLxx_HAL_Driver/Inc/stm32wlxx_ll_bus.h ****   * @brief  Force AHB1 peripherals reset.
 334:Drivers/STM32WLxx_HAL_Driver/Inc/stm32wlxx_ll_bus.h ****   * @rmtoll AHB1RSTR     DMA1RST       LL_AHB1_GRP1_ForceReset\n
 335:Drivers/STM32WLxx_HAL_Driver/Inc/stm32wlxx_ll_bus.h ****   *         AHB1RSTR     DMA2RST       LL_AHB1_GRP1_ForceReset\n
 336:Drivers/STM32WLxx_HAL_Driver/Inc/stm32wlxx_ll_bus.h ****   *         AHB1RSTR     DMAMUX1RST    LL_AHB1_GRP1_ForceReset\n
 337:Drivers/STM32WLxx_HAL_Driver/Inc/stm32wlxx_ll_bus.h ****   *         AHB1RSTR     CRCRST        LL_AHB1_GRP1_ForceReset\n
 338:Drivers/STM32WLxx_HAL_Driver/Inc/stm32wlxx_ll_bus.h ****   * @param  Periphs This parameter can be a combination of the following values:
 339:Drivers/STM32WLxx_HAL_Driver/Inc/stm32wlxx_ll_bus.h ****   *         @arg @ref LL_AHB1_GRP1_PERIPH_ALL
 340:Drivers/STM32WLxx_HAL_Driver/Inc/stm32wlxx_ll_bus.h ****   *         @arg @ref LL_AHB1_GRP1_PERIPH_DMA1
 341:Drivers/STM32WLxx_HAL_Driver/Inc/stm32wlxx_ll_bus.h ****   *         @arg @ref LL_AHB1_GRP1_PERIPH_DMA2
 342:Drivers/STM32WLxx_HAL_Driver/Inc/stm32wlxx_ll_bus.h ****   *         @arg @ref LL_AHB1_GRP1_PERIPH_DMAMUX1
 343:Drivers/STM32WLxx_HAL_Driver/Inc/stm32wlxx_ll_bus.h ****   *         @arg @ref LL_AHB1_GRP1_PERIPH_CRC
 344:Drivers/STM32WLxx_HAL_Driver/Inc/stm32wlxx_ll_bus.h ****   * @retval None
 345:Drivers/STM32WLxx_HAL_Driver/Inc/stm32wlxx_ll_bus.h ****   */
 346:Drivers/STM32WLxx_HAL_Driver/Inc/stm32wlxx_ll_bus.h **** __STATIC_INLINE void LL_AHB1_GRP1_ForceReset(uint32_t Periphs)
 347:Drivers/STM32WLxx_HAL_Driver/Inc/stm32wlxx_ll_bus.h **** {
 348:Drivers/STM32WLxx_HAL_Driver/Inc/stm32wlxx_ll_bus.h ****   SET_BIT(RCC->AHB1RSTR, Periphs);
 349:Drivers/STM32WLxx_HAL_Driver/Inc/stm32wlxx_ll_bus.h **** }
 350:Drivers/STM32WLxx_HAL_Driver/Inc/stm32wlxx_ll_bus.h **** 
 351:Drivers/STM32WLxx_HAL_Driver/Inc/stm32wlxx_ll_bus.h **** /**
 352:Drivers/STM32WLxx_HAL_Driver/Inc/stm32wlxx_ll_bus.h ****   * @brief  Release AHB1 peripherals reset.
 353:Drivers/STM32WLxx_HAL_Driver/Inc/stm32wlxx_ll_bus.h ****   * @rmtoll AHB1RSTR     DMA1RST       LL_AHB1_GRP1_ReleaseReset\n
 354:Drivers/STM32WLxx_HAL_Driver/Inc/stm32wlxx_ll_bus.h ****   *         AHB1RSTR     DMA2RST       LL_AHB1_GRP1_ReleaseReset\n
 355:Drivers/STM32WLxx_HAL_Driver/Inc/stm32wlxx_ll_bus.h ****   *         AHB1RSTR     DMAMUX1RST     LL_AHB1_GRP1_ReleaseReset\n
 356:Drivers/STM32WLxx_HAL_Driver/Inc/stm32wlxx_ll_bus.h ****   *         AHB1RSTR     CRCRST        LL_AHB1_GRP1_ReleaseReset\n
 357:Drivers/STM32WLxx_HAL_Driver/Inc/stm32wlxx_ll_bus.h ****   * @param  Periphs This parameter can be a combination of the following values:
 358:Drivers/STM32WLxx_HAL_Driver/Inc/stm32wlxx_ll_bus.h ****   *         @arg @ref LL_AHB1_GRP1_PERIPH_ALL
 359:Drivers/STM32WLxx_HAL_Driver/Inc/stm32wlxx_ll_bus.h ****   *         @arg @ref LL_AHB1_GRP1_PERIPH_DMA1
 360:Drivers/STM32WLxx_HAL_Driver/Inc/stm32wlxx_ll_bus.h ****   *         @arg @ref LL_AHB1_GRP1_PERIPH_DMA2
 361:Drivers/STM32WLxx_HAL_Driver/Inc/stm32wlxx_ll_bus.h ****   *         @arg @ref LL_AHB1_GRP1_PERIPH_DMAMUX1
 362:Drivers/STM32WLxx_HAL_Driver/Inc/stm32wlxx_ll_bus.h ****   *         @arg @ref LL_AHB1_GRP1_PERIPH_CRC
 363:Drivers/STM32WLxx_HAL_Driver/Inc/stm32wlxx_ll_bus.h ****   * @retval None
 364:Drivers/STM32WLxx_HAL_Driver/Inc/stm32wlxx_ll_bus.h ****   */
 365:Drivers/STM32WLxx_HAL_Driver/Inc/stm32wlxx_ll_bus.h **** __STATIC_INLINE void LL_AHB1_GRP1_ReleaseReset(uint32_t Periphs)
 366:Drivers/STM32WLxx_HAL_Driver/Inc/stm32wlxx_ll_bus.h **** {
 367:Drivers/STM32WLxx_HAL_Driver/Inc/stm32wlxx_ll_bus.h ****   CLEAR_BIT(RCC->AHB1RSTR, Periphs);
 368:Drivers/STM32WLxx_HAL_Driver/Inc/stm32wlxx_ll_bus.h **** }
 369:Drivers/STM32WLxx_HAL_Driver/Inc/stm32wlxx_ll_bus.h **** 
 370:Drivers/STM32WLxx_HAL_Driver/Inc/stm32wlxx_ll_bus.h **** /**
 371:Drivers/STM32WLxx_HAL_Driver/Inc/stm32wlxx_ll_bus.h ****   * @brief  Enable AHB1 peripherals clock during Low Power (Sleep) mode.
 372:Drivers/STM32WLxx_HAL_Driver/Inc/stm32wlxx_ll_bus.h ****   * @rmtoll AHB1SMENR    DMA1SMEN      LL_AHB1_GRP1_EnableClockSleep\n
 373:Drivers/STM32WLxx_HAL_Driver/Inc/stm32wlxx_ll_bus.h ****   *         AHB1SMENR    DMA2SMEN      LL_AHB1_GRP1_EnableClockSleep\n
ARM GAS  /var/folders/9y/n02fl3g16gnf7ppy14xghdy80000gn/T//ccTkjYAj.s 			page 10


 374:Drivers/STM32WLxx_HAL_Driver/Inc/stm32wlxx_ll_bus.h ****   *         AHB1SMENR    DMAMUX1SMEN   LL_AHB1_GRP1_EnableClockSleep\n
 375:Drivers/STM32WLxx_HAL_Driver/Inc/stm32wlxx_ll_bus.h ****   *         AHB1SMENR    CRCSMEN       LL_AHB1_GRP1_EnableClockSleep\n
 376:Drivers/STM32WLxx_HAL_Driver/Inc/stm32wlxx_ll_bus.h ****   * @param  Periphs This parameter can be a combination of the following values:
 377:Drivers/STM32WLxx_HAL_Driver/Inc/stm32wlxx_ll_bus.h ****   *         @arg @ref LL_AHB1_GRP1_PERIPH_DMA1
 378:Drivers/STM32WLxx_HAL_Driver/Inc/stm32wlxx_ll_bus.h ****   *         @arg @ref LL_AHB1_GRP1_PERIPH_DMA2
 379:Drivers/STM32WLxx_HAL_Driver/Inc/stm32wlxx_ll_bus.h ****   *         @arg @ref LL_AHB1_GRP1_PERIPH_DMAMUX1
 380:Drivers/STM32WLxx_HAL_Driver/Inc/stm32wlxx_ll_bus.h ****   *         @arg @ref LL_AHB1_GRP1_PERIPH_CRC
 381:Drivers/STM32WLxx_HAL_Driver/Inc/stm32wlxx_ll_bus.h ****   * @retval None
 382:Drivers/STM32WLxx_HAL_Driver/Inc/stm32wlxx_ll_bus.h ****   */
 383:Drivers/STM32WLxx_HAL_Driver/Inc/stm32wlxx_ll_bus.h **** __STATIC_INLINE void LL_AHB1_GRP1_EnableClockSleep(uint32_t Periphs)
 384:Drivers/STM32WLxx_HAL_Driver/Inc/stm32wlxx_ll_bus.h **** {
 385:Drivers/STM32WLxx_HAL_Driver/Inc/stm32wlxx_ll_bus.h ****   __IO uint32_t tmpreg;
 386:Drivers/STM32WLxx_HAL_Driver/Inc/stm32wlxx_ll_bus.h ****   SET_BIT(RCC->AHB1SMENR, Periphs);
 387:Drivers/STM32WLxx_HAL_Driver/Inc/stm32wlxx_ll_bus.h ****   /* Delay after an RCC peripheral clock enabling */
 388:Drivers/STM32WLxx_HAL_Driver/Inc/stm32wlxx_ll_bus.h ****   tmpreg = READ_BIT(RCC->AHB1SMENR, Periphs);
 389:Drivers/STM32WLxx_HAL_Driver/Inc/stm32wlxx_ll_bus.h ****   (void)tmpreg;
 390:Drivers/STM32WLxx_HAL_Driver/Inc/stm32wlxx_ll_bus.h **** }
 391:Drivers/STM32WLxx_HAL_Driver/Inc/stm32wlxx_ll_bus.h **** 
 392:Drivers/STM32WLxx_HAL_Driver/Inc/stm32wlxx_ll_bus.h **** /**
 393:Drivers/STM32WLxx_HAL_Driver/Inc/stm32wlxx_ll_bus.h ****   * @brief  Check if AHB1 peripheral clock is enabled by the clock gating during CPU1 CSleep mode
 394:Drivers/STM32WLxx_HAL_Driver/Inc/stm32wlxx_ll_bus.h ****   * @rmtoll AHB1SMENR    DMA1SMEN      LL_AHB1_GRP1_IsEnabledClockSleep\n
 395:Drivers/STM32WLxx_HAL_Driver/Inc/stm32wlxx_ll_bus.h ****   *         AHB1SMENR    DMA2SMEN      LL_AHB1_GRP1_IsEnabledClockSleep\n
 396:Drivers/STM32WLxx_HAL_Driver/Inc/stm32wlxx_ll_bus.h ****   *         AHB1SMENR    DMAMUX1SMEN   LL_AHB1_GRP1_IsEnabledClockSleep\n
 397:Drivers/STM32WLxx_HAL_Driver/Inc/stm32wlxx_ll_bus.h ****   *         AHB1SMENR    CRCSMEN       LL_AHB1_GRP1_IsEnabledClockSleep
 398:Drivers/STM32WLxx_HAL_Driver/Inc/stm32wlxx_ll_bus.h ****   * @param  Periphs This parameter can be a combination of the following values:
 399:Drivers/STM32WLxx_HAL_Driver/Inc/stm32wlxx_ll_bus.h ****   *         @arg @ref LL_AHB1_GRP1_PERIPH_DMA1
 400:Drivers/STM32WLxx_HAL_Driver/Inc/stm32wlxx_ll_bus.h ****   *         @arg @ref LL_AHB1_GRP1_PERIPH_DMA2
 401:Drivers/STM32WLxx_HAL_Driver/Inc/stm32wlxx_ll_bus.h ****   *         @arg @ref LL_AHB1_GRP1_PERIPH_DMAMUX1
 402:Drivers/STM32WLxx_HAL_Driver/Inc/stm32wlxx_ll_bus.h ****   *         @arg @ref LL_AHB1_GRP1_PERIPH_CRC
 403:Drivers/STM32WLxx_HAL_Driver/Inc/stm32wlxx_ll_bus.h ****   * @retval uint32_t
 404:Drivers/STM32WLxx_HAL_Driver/Inc/stm32wlxx_ll_bus.h ****   */
 405:Drivers/STM32WLxx_HAL_Driver/Inc/stm32wlxx_ll_bus.h **** __STATIC_INLINE uint32_t LL_AHB1_GRP1_IsEnabledClockSleep(uint32_t Periphs)
 406:Drivers/STM32WLxx_HAL_Driver/Inc/stm32wlxx_ll_bus.h **** {
 407:Drivers/STM32WLxx_HAL_Driver/Inc/stm32wlxx_ll_bus.h ****   return ((READ_BIT(RCC->AHB1SMENR, Periphs) == (Periphs)) ? 1UL : 0UL);
 408:Drivers/STM32WLxx_HAL_Driver/Inc/stm32wlxx_ll_bus.h **** }
 409:Drivers/STM32WLxx_HAL_Driver/Inc/stm32wlxx_ll_bus.h **** 
 410:Drivers/STM32WLxx_HAL_Driver/Inc/stm32wlxx_ll_bus.h **** /**
 411:Drivers/STM32WLxx_HAL_Driver/Inc/stm32wlxx_ll_bus.h ****   * @brief  Disable AHB1 peripherals clock during Low Power (Sleep) mode.
 412:Drivers/STM32WLxx_HAL_Driver/Inc/stm32wlxx_ll_bus.h ****   * @rmtoll AHB1SMENR    DMA1SMEN      LL_AHB1_GRP1_DisableClockSleep\n
 413:Drivers/STM32WLxx_HAL_Driver/Inc/stm32wlxx_ll_bus.h ****   *         AHB1SMENR    DMA2SMEN      LL_AHB1_GRP1_DisableClockSleep\n
 414:Drivers/STM32WLxx_HAL_Driver/Inc/stm32wlxx_ll_bus.h ****   *         AHB1SMENR    DMAMUX1SMEN   LL_AHB1_GRP1_DisableClockSleep\n
 415:Drivers/STM32WLxx_HAL_Driver/Inc/stm32wlxx_ll_bus.h ****   *         AHB1SMENR    CRCSMEN       LL_AHB1_GRP1_DisableClockSleep\n
 416:Drivers/STM32WLxx_HAL_Driver/Inc/stm32wlxx_ll_bus.h ****   * @param  Periphs This parameter can be a combination of the following values:
 417:Drivers/STM32WLxx_HAL_Driver/Inc/stm32wlxx_ll_bus.h ****   *         @arg @ref LL_AHB1_GRP1_PERIPH_DMA1
 418:Drivers/STM32WLxx_HAL_Driver/Inc/stm32wlxx_ll_bus.h ****   *         @arg @ref LL_AHB1_GRP1_PERIPH_DMA2
 419:Drivers/STM32WLxx_HAL_Driver/Inc/stm32wlxx_ll_bus.h ****   *         @arg @ref LL_AHB1_GRP1_PERIPH_DMAMUX1
 420:Drivers/STM32WLxx_HAL_Driver/Inc/stm32wlxx_ll_bus.h ****   *         @arg @ref LL_AHB1_GRP1_PERIPH_CRC
 421:Drivers/STM32WLxx_HAL_Driver/Inc/stm32wlxx_ll_bus.h ****   * @retval None
 422:Drivers/STM32WLxx_HAL_Driver/Inc/stm32wlxx_ll_bus.h ****   */
 423:Drivers/STM32WLxx_HAL_Driver/Inc/stm32wlxx_ll_bus.h **** __STATIC_INLINE void LL_AHB1_GRP1_DisableClockSleep(uint32_t Periphs)
 424:Drivers/STM32WLxx_HAL_Driver/Inc/stm32wlxx_ll_bus.h **** {
 425:Drivers/STM32WLxx_HAL_Driver/Inc/stm32wlxx_ll_bus.h ****   CLEAR_BIT(RCC->AHB1SMENR, Periphs);
 426:Drivers/STM32WLxx_HAL_Driver/Inc/stm32wlxx_ll_bus.h **** }
 427:Drivers/STM32WLxx_HAL_Driver/Inc/stm32wlxx_ll_bus.h **** 
 428:Drivers/STM32WLxx_HAL_Driver/Inc/stm32wlxx_ll_bus.h **** /**
 429:Drivers/STM32WLxx_HAL_Driver/Inc/stm32wlxx_ll_bus.h ****   * @}
 430:Drivers/STM32WLxx_HAL_Driver/Inc/stm32wlxx_ll_bus.h ****   */
ARM GAS  /var/folders/9y/n02fl3g16gnf7ppy14xghdy80000gn/T//ccTkjYAj.s 			page 11


 431:Drivers/STM32WLxx_HAL_Driver/Inc/stm32wlxx_ll_bus.h **** 
 432:Drivers/STM32WLxx_HAL_Driver/Inc/stm32wlxx_ll_bus.h **** /** @defgroup BUS_LL_EF_AHB2 AHB2
 433:Drivers/STM32WLxx_HAL_Driver/Inc/stm32wlxx_ll_bus.h ****   * @{
 434:Drivers/STM32WLxx_HAL_Driver/Inc/stm32wlxx_ll_bus.h ****   */
 435:Drivers/STM32WLxx_HAL_Driver/Inc/stm32wlxx_ll_bus.h **** 
 436:Drivers/STM32WLxx_HAL_Driver/Inc/stm32wlxx_ll_bus.h **** /**
 437:Drivers/STM32WLxx_HAL_Driver/Inc/stm32wlxx_ll_bus.h ****   * @brief  Enable AHB2 peripherals clock.
 438:Drivers/STM32WLxx_HAL_Driver/Inc/stm32wlxx_ll_bus.h ****   * @rmtoll AHB2ENR      GPIOAEN       LL_AHB2_GRP1_EnableClock\n
 439:Drivers/STM32WLxx_HAL_Driver/Inc/stm32wlxx_ll_bus.h ****   *         AHB2ENR      GPIOBEN       LL_AHB2_GRP1_EnableClock\n
 440:Drivers/STM32WLxx_HAL_Driver/Inc/stm32wlxx_ll_bus.h ****   *         AHB2ENR      GPIOCEN       LL_AHB2_GRP1_EnableClock\n
 441:Drivers/STM32WLxx_HAL_Driver/Inc/stm32wlxx_ll_bus.h ****   *         AHB2ENR      GPIOHEN       LL_AHB2_GRP1_EnableClock\n
 442:Drivers/STM32WLxx_HAL_Driver/Inc/stm32wlxx_ll_bus.h ****   * @param  Periphs This parameter can be a combination of the following values:
 443:Drivers/STM32WLxx_HAL_Driver/Inc/stm32wlxx_ll_bus.h ****   *         @arg @ref LL_AHB2_GRP1_PERIPH_GPIOA
 444:Drivers/STM32WLxx_HAL_Driver/Inc/stm32wlxx_ll_bus.h ****   *         @arg @ref LL_AHB2_GRP1_PERIPH_GPIOB
 445:Drivers/STM32WLxx_HAL_Driver/Inc/stm32wlxx_ll_bus.h ****   *         @arg @ref LL_AHB2_GRP1_PERIPH_GPIOC
 446:Drivers/STM32WLxx_HAL_Driver/Inc/stm32wlxx_ll_bus.h ****   *         @arg @ref LL_AHB2_GRP1_PERIPH_GPIOH
 447:Drivers/STM32WLxx_HAL_Driver/Inc/stm32wlxx_ll_bus.h ****   * @retval None
 448:Drivers/STM32WLxx_HAL_Driver/Inc/stm32wlxx_ll_bus.h ****   */
 449:Drivers/STM32WLxx_HAL_Driver/Inc/stm32wlxx_ll_bus.h **** __STATIC_INLINE void LL_AHB2_GRP1_EnableClock(uint32_t Periphs)
  88              		.loc 2 449 22 view .LVU15
  89              	.LBB51:
 450:Drivers/STM32WLxx_HAL_Driver/Inc/stm32wlxx_ll_bus.h **** {
 451:Drivers/STM32WLxx_HAL_Driver/Inc/stm32wlxx_ll_bus.h ****   __IO uint32_t tmpreg;
  90              		.loc 2 451 3 view .LVU16
 452:Drivers/STM32WLxx_HAL_Driver/Inc/stm32wlxx_ll_bus.h ****   SET_BIT(RCC->AHB2ENR, Periphs);
  91              		.loc 2 452 3 view .LVU17
  92 0040 4FF0B044 		mov	r4, #1476395008
  93 0044 E36C     		ldr	r3, [r4, #76]
  94 0046 43F00103 		orr	r3, r3, #1
  95 004a E364     		str	r3, [r4, #76]
 453:Drivers/STM32WLxx_HAL_Driver/Inc/stm32wlxx_ll_bus.h ****   /* Delay after an RCC peripheral clock enabling */
 454:Drivers/STM32WLxx_HAL_Driver/Inc/stm32wlxx_ll_bus.h ****   tmpreg = READ_BIT(RCC->AHB2ENR, Periphs);
  96              		.loc 2 454 3 view .LVU18
  97              		.loc 2 454 12 is_stmt 0 view .LVU19
  98 004c E36C     		ldr	r3, [r4, #76]
  99 004e 03F00103 		and	r3, r3, #1
 100              		.loc 2 454 10 view .LVU20
 101 0052 0293     		str	r3, [sp, #8]
 455:Drivers/STM32WLxx_HAL_Driver/Inc/stm32wlxx_ll_bus.h ****   (void)tmpreg;
 102              		.loc 2 455 3 is_stmt 1 view .LVU21
 103 0054 029B     		ldr	r3, [sp, #8]
 104              	.LVL3:
 105              		.loc 2 455 3 is_stmt 0 view .LVU22
 106              	.LBE51:
 107              	.LBE50:
  55:Core/Src/i2c.c ****   LL_AHB2_GRP1_EnableClock(LL_AHB2_GRP1_PERIPH_GPIOB);
 108              		.loc 1 55 3 is_stmt 1 view .LVU23
 109              	.LBB52:
 110              	.LBI52:
 449:Drivers/STM32WLxx_HAL_Driver/Inc/stm32wlxx_ll_bus.h **** {
 111              		.loc 2 449 22 view .LVU24
 112              	.LBB53:
 451:Drivers/STM32WLxx_HAL_Driver/Inc/stm32wlxx_ll_bus.h ****   SET_BIT(RCC->AHB2ENR, Periphs);
 113              		.loc 2 451 3 view .LVU25
 452:Drivers/STM32WLxx_HAL_Driver/Inc/stm32wlxx_ll_bus.h ****   /* Delay after an RCC peripheral clock enabling */
 114              		.loc 2 452 3 view .LVU26
 115 0056 E36C     		ldr	r3, [r4, #76]
ARM GAS  /var/folders/9y/n02fl3g16gnf7ppy14xghdy80000gn/T//ccTkjYAj.s 			page 12


 116 0058 43F00203 		orr	r3, r3, #2
 117 005c E364     		str	r3, [r4, #76]
 454:Drivers/STM32WLxx_HAL_Driver/Inc/stm32wlxx_ll_bus.h ****   (void)tmpreg;
 118              		.loc 2 454 3 view .LVU27
 454:Drivers/STM32WLxx_HAL_Driver/Inc/stm32wlxx_ll_bus.h ****   (void)tmpreg;
 119              		.loc 2 454 12 is_stmt 0 view .LVU28
 120 005e E36C     		ldr	r3, [r4, #76]
 121 0060 03F00203 		and	r3, r3, #2
 454:Drivers/STM32WLxx_HAL_Driver/Inc/stm32wlxx_ll_bus.h ****   (void)tmpreg;
 122              		.loc 2 454 10 view .LVU29
 123 0064 0193     		str	r3, [sp, #4]
 124              		.loc 2 455 3 is_stmt 1 view .LVU30
 125 0066 019B     		ldr	r3, [sp, #4]
 126              	.LVL4:
 127              		.loc 2 455 3 is_stmt 0 view .LVU31
 128              	.LBE53:
 129              	.LBE52:
  56:Core/Src/i2c.c ****   /**I2C2 GPIO Configuration
  57:Core/Src/i2c.c ****   PA15   ------> I2C2_SDA
  58:Core/Src/i2c.c ****   PB15   ------> I2C2_SCL
  59:Core/Src/i2c.c ****   */
  60:Core/Src/i2c.c ****   GPIO_InitStruct.Pin = LL_GPIO_PIN_15;
 130              		.loc 1 60 3 is_stmt 1 view .LVU32
 131              		.loc 1 60 23 is_stmt 0 view .LVU33
 132 0068 4FF40049 		mov	r9, #32768
 133 006c CDF84490 		str	r9, [sp, #68]
  61:Core/Src/i2c.c ****   GPIO_InitStruct.Mode = LL_GPIO_MODE_ALTERNATE;
 134              		.loc 1 61 3 is_stmt 1 view .LVU34
 135              		.loc 1 61 24 is_stmt 0 view .LVU35
 136 0070 4FF00208 		mov	r8, #2
 137 0074 CDF84880 		str	r8, [sp, #72]
  62:Core/Src/i2c.c ****   GPIO_InitStruct.Speed = LL_GPIO_SPEED_FREQ_LOW;
 138              		.loc 1 62 3 is_stmt 1 view .LVU36
 139              		.loc 1 62 25 is_stmt 0 view .LVU37
 140 0078 0025     		movs	r5, #0
 141 007a 1395     		str	r5, [sp, #76]
  63:Core/Src/i2c.c ****   GPIO_InitStruct.OutputType = LL_GPIO_OUTPUT_OPENDRAIN;
 142              		.loc 1 63 3 is_stmt 1 view .LVU38
 143              		.loc 1 63 30 is_stmt 0 view .LVU39
 144 007c 0127     		movs	r7, #1
 145 007e 1497     		str	r7, [sp, #80]
  64:Core/Src/i2c.c ****   GPIO_InitStruct.Pull = LL_GPIO_PULL_NO;
 146              		.loc 1 64 3 is_stmt 1 view .LVU40
 147              		.loc 1 64 24 is_stmt 0 view .LVU41
 148 0080 1595     		str	r5, [sp, #84]
  65:Core/Src/i2c.c ****   GPIO_InitStruct.Alternate = LL_GPIO_AF_4;
 149              		.loc 1 65 3 is_stmt 1 view .LVU42
 150              		.loc 1 65 29 is_stmt 0 view .LVU43
 151 0082 0426     		movs	r6, #4
 152 0084 1696     		str	r6, [sp, #88]
  66:Core/Src/i2c.c ****   LL_GPIO_Init(GPIOA, &GPIO_InitStruct);
 153              		.loc 1 66 3 is_stmt 1 view .LVU44
 154 0086 11A9     		add	r1, sp, #68
 155 0088 4FF09040 		mov	r0, #1207959552
 156 008c FFF7FEFF 		bl	LL_GPIO_Init
 157              	.LVL5:
  67:Core/Src/i2c.c **** 
ARM GAS  /var/folders/9y/n02fl3g16gnf7ppy14xghdy80000gn/T//ccTkjYAj.s 			page 13


  68:Core/Src/i2c.c ****   GPIO_InitStruct.Pin = LL_GPIO_PIN_15;
 158              		.loc 1 68 3 view .LVU45
 159              		.loc 1 68 23 is_stmt 0 view .LVU46
 160 0090 CDF84490 		str	r9, [sp, #68]
  69:Core/Src/i2c.c ****   GPIO_InitStruct.Mode = LL_GPIO_MODE_ALTERNATE;
 161              		.loc 1 69 3 is_stmt 1 view .LVU47
 162              		.loc 1 69 24 is_stmt 0 view .LVU48
 163 0094 CDF84880 		str	r8, [sp, #72]
  70:Core/Src/i2c.c ****   GPIO_InitStruct.Speed = LL_GPIO_SPEED_FREQ_LOW;
 164              		.loc 1 70 3 is_stmt 1 view .LVU49
 165              		.loc 1 70 25 is_stmt 0 view .LVU50
 166 0098 1395     		str	r5, [sp, #76]
  71:Core/Src/i2c.c ****   GPIO_InitStruct.OutputType = LL_GPIO_OUTPUT_OPENDRAIN;
 167              		.loc 1 71 3 is_stmt 1 view .LVU51
 168              		.loc 1 71 30 is_stmt 0 view .LVU52
 169 009a 1497     		str	r7, [sp, #80]
  72:Core/Src/i2c.c ****   GPIO_InitStruct.Pull = LL_GPIO_PULL_NO;
 170              		.loc 1 72 3 is_stmt 1 view .LVU53
 171              		.loc 1 72 24 is_stmt 0 view .LVU54
 172 009c 1595     		str	r5, [sp, #84]
  73:Core/Src/i2c.c ****   GPIO_InitStruct.Alternate = LL_GPIO_AF_4;
 173              		.loc 1 73 3 is_stmt 1 view .LVU55
 174              		.loc 1 73 29 is_stmt 0 view .LVU56
 175 009e 1696     		str	r6, [sp, #88]
  74:Core/Src/i2c.c ****   LL_GPIO_Init(GPIOB, &GPIO_InitStruct);
 176              		.loc 1 74 3 is_stmt 1 view .LVU57
 177 00a0 11A9     		add	r1, sp, #68
 178 00a2 4248     		ldr	r0, .L5
 179 00a4 FFF7FEFF 		bl	LL_GPIO_Init
 180              	.LVL6:
  75:Core/Src/i2c.c **** 
  76:Core/Src/i2c.c ****   /* Peripheral clock enable */
  77:Core/Src/i2c.c ****   LL_APB1_GRP1_EnableClock(LL_APB1_GRP1_PERIPH_I2C2);
 181              		.loc 1 77 3 view .LVU58
 182              	.LBB54:
 183              	.LBI54:
 456:Drivers/STM32WLxx_HAL_Driver/Inc/stm32wlxx_ll_bus.h **** }
 457:Drivers/STM32WLxx_HAL_Driver/Inc/stm32wlxx_ll_bus.h **** 
 458:Drivers/STM32WLxx_HAL_Driver/Inc/stm32wlxx_ll_bus.h **** /**
 459:Drivers/STM32WLxx_HAL_Driver/Inc/stm32wlxx_ll_bus.h ****   * @brief  Check if AHB2 peripheral clock is enabled or not
 460:Drivers/STM32WLxx_HAL_Driver/Inc/stm32wlxx_ll_bus.h ****   * @rmtoll AHB2ENR      GPIOAEN       LL_AHB2_GRP1_IsEnabledClock\n
 461:Drivers/STM32WLxx_HAL_Driver/Inc/stm32wlxx_ll_bus.h ****   *         AHB2ENR      GPIOBEN       LL_AHB2_GRP1_IsEnabledClock\n
 462:Drivers/STM32WLxx_HAL_Driver/Inc/stm32wlxx_ll_bus.h ****   *         AHB2ENR      GPIOCEN       LL_AHB2_GRP1_IsEnabledClock\n
 463:Drivers/STM32WLxx_HAL_Driver/Inc/stm32wlxx_ll_bus.h ****   *         AHB2ENR      GPIOHEN       LL_AHB2_GRP1_IsEnabledClock\n
 464:Drivers/STM32WLxx_HAL_Driver/Inc/stm32wlxx_ll_bus.h ****   * @param  Periphs This parameter can be a combination of the following values:
 465:Drivers/STM32WLxx_HAL_Driver/Inc/stm32wlxx_ll_bus.h ****   *         @arg @ref LL_AHB2_GRP1_PERIPH_GPIOA
 466:Drivers/STM32WLxx_HAL_Driver/Inc/stm32wlxx_ll_bus.h ****   *         @arg @ref LL_AHB2_GRP1_PERIPH_GPIOB
 467:Drivers/STM32WLxx_HAL_Driver/Inc/stm32wlxx_ll_bus.h ****   *         @arg @ref LL_AHB2_GRP1_PERIPH_GPIOC
 468:Drivers/STM32WLxx_HAL_Driver/Inc/stm32wlxx_ll_bus.h ****   *         @arg @ref LL_AHB2_GRP1_PERIPH_GPIOH
 469:Drivers/STM32WLxx_HAL_Driver/Inc/stm32wlxx_ll_bus.h ****   * @retval uint32_t
 470:Drivers/STM32WLxx_HAL_Driver/Inc/stm32wlxx_ll_bus.h ****   */
 471:Drivers/STM32WLxx_HAL_Driver/Inc/stm32wlxx_ll_bus.h **** __STATIC_INLINE uint32_t LL_AHB2_GRP1_IsEnabledClock(uint32_t Periphs)
 472:Drivers/STM32WLxx_HAL_Driver/Inc/stm32wlxx_ll_bus.h **** {
 473:Drivers/STM32WLxx_HAL_Driver/Inc/stm32wlxx_ll_bus.h ****   return ((READ_BIT(RCC->AHB2ENR, Periphs) == (Periphs)) ? 1UL : 0UL);
 474:Drivers/STM32WLxx_HAL_Driver/Inc/stm32wlxx_ll_bus.h **** }
 475:Drivers/STM32WLxx_HAL_Driver/Inc/stm32wlxx_ll_bus.h **** 
 476:Drivers/STM32WLxx_HAL_Driver/Inc/stm32wlxx_ll_bus.h **** /**
ARM GAS  /var/folders/9y/n02fl3g16gnf7ppy14xghdy80000gn/T//ccTkjYAj.s 			page 14


 477:Drivers/STM32WLxx_HAL_Driver/Inc/stm32wlxx_ll_bus.h ****   * @brief  Disable AHB2 peripherals clock.
 478:Drivers/STM32WLxx_HAL_Driver/Inc/stm32wlxx_ll_bus.h ****   * @rmtoll AHB2ENR      GPIOAEN       LL_AHB2_GRP1_DisableClock\n
 479:Drivers/STM32WLxx_HAL_Driver/Inc/stm32wlxx_ll_bus.h ****   *         AHB2ENR      GPIOBEN       LL_AHB2_GRP1_DisableClock\n
 480:Drivers/STM32WLxx_HAL_Driver/Inc/stm32wlxx_ll_bus.h ****   *         AHB2ENR      GPIOCEN       LL_AHB2_GRP1_DisableClock\n
 481:Drivers/STM32WLxx_HAL_Driver/Inc/stm32wlxx_ll_bus.h ****   *         AHB2ENR      GPIOHEN       LL_AHB2_GRP1_DisableClock\n
 482:Drivers/STM32WLxx_HAL_Driver/Inc/stm32wlxx_ll_bus.h ****   * @param  Periphs This parameter can be a combination of the following values:
 483:Drivers/STM32WLxx_HAL_Driver/Inc/stm32wlxx_ll_bus.h ****   *         @arg @ref LL_AHB2_GRP1_PERIPH_GPIOA
 484:Drivers/STM32WLxx_HAL_Driver/Inc/stm32wlxx_ll_bus.h ****   *         @arg @ref LL_AHB2_GRP1_PERIPH_GPIOB
 485:Drivers/STM32WLxx_HAL_Driver/Inc/stm32wlxx_ll_bus.h ****   *         @arg @ref LL_AHB2_GRP1_PERIPH_GPIOC
 486:Drivers/STM32WLxx_HAL_Driver/Inc/stm32wlxx_ll_bus.h ****   *         @arg @ref LL_AHB2_GRP1_PERIPH_GPIOH
 487:Drivers/STM32WLxx_HAL_Driver/Inc/stm32wlxx_ll_bus.h ****   * @retval None
 488:Drivers/STM32WLxx_HAL_Driver/Inc/stm32wlxx_ll_bus.h ****   */
 489:Drivers/STM32WLxx_HAL_Driver/Inc/stm32wlxx_ll_bus.h **** __STATIC_INLINE void LL_AHB2_GRP1_DisableClock(uint32_t Periphs)
 490:Drivers/STM32WLxx_HAL_Driver/Inc/stm32wlxx_ll_bus.h **** {
 491:Drivers/STM32WLxx_HAL_Driver/Inc/stm32wlxx_ll_bus.h ****   CLEAR_BIT(RCC->AHB2ENR, Periphs);
 492:Drivers/STM32WLxx_HAL_Driver/Inc/stm32wlxx_ll_bus.h **** }
 493:Drivers/STM32WLxx_HAL_Driver/Inc/stm32wlxx_ll_bus.h **** 
 494:Drivers/STM32WLxx_HAL_Driver/Inc/stm32wlxx_ll_bus.h **** /**
 495:Drivers/STM32WLxx_HAL_Driver/Inc/stm32wlxx_ll_bus.h ****   * @brief  Force AHB2 peripherals reset.
 496:Drivers/STM32WLxx_HAL_Driver/Inc/stm32wlxx_ll_bus.h ****   * @rmtoll AHB2RSTR     GPIOARST      LL_AHB2_GRP1_ForceReset\n
 497:Drivers/STM32WLxx_HAL_Driver/Inc/stm32wlxx_ll_bus.h ****   *         AHB2RSTR     GPIOBRST      LL_AHB2_GRP1_ForceReset\n
 498:Drivers/STM32WLxx_HAL_Driver/Inc/stm32wlxx_ll_bus.h ****   *         AHB2RSTR     GPIOCRST      LL_AHB2_GRP1_ForceReset\n
 499:Drivers/STM32WLxx_HAL_Driver/Inc/stm32wlxx_ll_bus.h ****   *         AHB2RSTR     GPIOHRST      LL_AHB2_GRP1_ForceReset
 500:Drivers/STM32WLxx_HAL_Driver/Inc/stm32wlxx_ll_bus.h ****   * @param  Periphs This parameter can be a combination of the following values:
 501:Drivers/STM32WLxx_HAL_Driver/Inc/stm32wlxx_ll_bus.h ****   *         @arg @ref LL_AHB2_GRP1_PERIPH_ALL
 502:Drivers/STM32WLxx_HAL_Driver/Inc/stm32wlxx_ll_bus.h ****   *         @arg @ref LL_AHB2_GRP1_PERIPH_GPIOA
 503:Drivers/STM32WLxx_HAL_Driver/Inc/stm32wlxx_ll_bus.h ****   *         @arg @ref LL_AHB2_GRP1_PERIPH_GPIOB
 504:Drivers/STM32WLxx_HAL_Driver/Inc/stm32wlxx_ll_bus.h ****   *         @arg @ref LL_AHB2_GRP1_PERIPH_GPIOC
 505:Drivers/STM32WLxx_HAL_Driver/Inc/stm32wlxx_ll_bus.h ****   *         @arg @ref LL_AHB2_GRP1_PERIPH_GPIOH
 506:Drivers/STM32WLxx_HAL_Driver/Inc/stm32wlxx_ll_bus.h ****   * @retval None
 507:Drivers/STM32WLxx_HAL_Driver/Inc/stm32wlxx_ll_bus.h ****   */
 508:Drivers/STM32WLxx_HAL_Driver/Inc/stm32wlxx_ll_bus.h **** __STATIC_INLINE void LL_AHB2_GRP1_ForceReset(uint32_t Periphs)
 509:Drivers/STM32WLxx_HAL_Driver/Inc/stm32wlxx_ll_bus.h **** {
 510:Drivers/STM32WLxx_HAL_Driver/Inc/stm32wlxx_ll_bus.h ****   SET_BIT(RCC->AHB2RSTR, Periphs);
 511:Drivers/STM32WLxx_HAL_Driver/Inc/stm32wlxx_ll_bus.h **** }
 512:Drivers/STM32WLxx_HAL_Driver/Inc/stm32wlxx_ll_bus.h **** 
 513:Drivers/STM32WLxx_HAL_Driver/Inc/stm32wlxx_ll_bus.h **** /**
 514:Drivers/STM32WLxx_HAL_Driver/Inc/stm32wlxx_ll_bus.h ****   * @brief  Release AHB2 peripherals reset.
 515:Drivers/STM32WLxx_HAL_Driver/Inc/stm32wlxx_ll_bus.h ****   * @rmtoll AHB2RSTR     GPIOARST      LL_AHB2_GRP1_ReleaseReset\n
 516:Drivers/STM32WLxx_HAL_Driver/Inc/stm32wlxx_ll_bus.h ****   *         AHB2RSTR     GPIOBRST      LL_AHB2_GRP1_ReleaseReset\n
 517:Drivers/STM32WLxx_HAL_Driver/Inc/stm32wlxx_ll_bus.h ****   *         AHB2RSTR     GPIOCRST      LL_AHB2_GRP1_ReleaseReset\n
 518:Drivers/STM32WLxx_HAL_Driver/Inc/stm32wlxx_ll_bus.h ****   *         AHB2RSTR     GPIOHRST      LL_AHB2_GRP1_ReleaseReset\n
 519:Drivers/STM32WLxx_HAL_Driver/Inc/stm32wlxx_ll_bus.h ****   * @param  Periphs This parameter can be a combination of the following values:
 520:Drivers/STM32WLxx_HAL_Driver/Inc/stm32wlxx_ll_bus.h ****   *         @arg @ref LL_AHB2_GRP1_PERIPH_ALL
 521:Drivers/STM32WLxx_HAL_Driver/Inc/stm32wlxx_ll_bus.h ****   *         @arg @ref LL_AHB2_GRP1_PERIPH_GPIOA
 522:Drivers/STM32WLxx_HAL_Driver/Inc/stm32wlxx_ll_bus.h ****   *         @arg @ref LL_AHB2_GRP1_PERIPH_GPIOB
 523:Drivers/STM32WLxx_HAL_Driver/Inc/stm32wlxx_ll_bus.h ****   *         @arg @ref LL_AHB2_GRP1_PERIPH_GPIOC
 524:Drivers/STM32WLxx_HAL_Driver/Inc/stm32wlxx_ll_bus.h ****   *         @arg @ref LL_AHB2_GRP1_PERIPH_GPIOH
 525:Drivers/STM32WLxx_HAL_Driver/Inc/stm32wlxx_ll_bus.h ****   * @retval None
 526:Drivers/STM32WLxx_HAL_Driver/Inc/stm32wlxx_ll_bus.h ****   */
 527:Drivers/STM32WLxx_HAL_Driver/Inc/stm32wlxx_ll_bus.h **** __STATIC_INLINE void LL_AHB2_GRP1_ReleaseReset(uint32_t Periphs)
 528:Drivers/STM32WLxx_HAL_Driver/Inc/stm32wlxx_ll_bus.h **** {
 529:Drivers/STM32WLxx_HAL_Driver/Inc/stm32wlxx_ll_bus.h ****   CLEAR_BIT(RCC->AHB2RSTR, Periphs);
 530:Drivers/STM32WLxx_HAL_Driver/Inc/stm32wlxx_ll_bus.h **** }
 531:Drivers/STM32WLxx_HAL_Driver/Inc/stm32wlxx_ll_bus.h **** 
 532:Drivers/STM32WLxx_HAL_Driver/Inc/stm32wlxx_ll_bus.h **** /**
 533:Drivers/STM32WLxx_HAL_Driver/Inc/stm32wlxx_ll_bus.h ****   * @brief  Enable AHB2 peripherals clock during Low Power (Sleep) mode.
ARM GAS  /var/folders/9y/n02fl3g16gnf7ppy14xghdy80000gn/T//ccTkjYAj.s 			page 15


 534:Drivers/STM32WLxx_HAL_Driver/Inc/stm32wlxx_ll_bus.h ****   * @rmtoll AHB2SMENR    GPIOASMEN     LL_AHB2_GRP1_EnableClockSleep\n
 535:Drivers/STM32WLxx_HAL_Driver/Inc/stm32wlxx_ll_bus.h ****   *         AHB2SMENR    GPIOBSMEN     LL_AHB2_GRP1_EnableClockSleep\n
 536:Drivers/STM32WLxx_HAL_Driver/Inc/stm32wlxx_ll_bus.h ****   *         AHB2SMENR    GPIOCSMEN     LL_AHB2_GRP1_EnableClockSleep\n
 537:Drivers/STM32WLxx_HAL_Driver/Inc/stm32wlxx_ll_bus.h ****   *         AHB2SMENR    GPIOHSMEN     LL_AHB2_GRP1_EnableClockSleep\n
 538:Drivers/STM32WLxx_HAL_Driver/Inc/stm32wlxx_ll_bus.h ****   * @param  Periphs This parameter can be a combination of the following values:
 539:Drivers/STM32WLxx_HAL_Driver/Inc/stm32wlxx_ll_bus.h ****   *         @arg @ref LL_AHB2_GRP1_PERIPH_GPIOA
 540:Drivers/STM32WLxx_HAL_Driver/Inc/stm32wlxx_ll_bus.h ****   *         @arg @ref LL_AHB2_GRP1_PERIPH_GPIOB
 541:Drivers/STM32WLxx_HAL_Driver/Inc/stm32wlxx_ll_bus.h ****   *         @arg @ref LL_AHB2_GRP1_PERIPH_GPIOC
 542:Drivers/STM32WLxx_HAL_Driver/Inc/stm32wlxx_ll_bus.h ****   *         @arg @ref LL_AHB2_GRP1_PERIPH_GPIOH
 543:Drivers/STM32WLxx_HAL_Driver/Inc/stm32wlxx_ll_bus.h ****   * @retval None
 544:Drivers/STM32WLxx_HAL_Driver/Inc/stm32wlxx_ll_bus.h ****   */
 545:Drivers/STM32WLxx_HAL_Driver/Inc/stm32wlxx_ll_bus.h **** __STATIC_INLINE void LL_AHB2_GRP1_EnableClockSleep(uint32_t Periphs)
 546:Drivers/STM32WLxx_HAL_Driver/Inc/stm32wlxx_ll_bus.h **** {
 547:Drivers/STM32WLxx_HAL_Driver/Inc/stm32wlxx_ll_bus.h ****   __IO uint32_t tmpreg;
 548:Drivers/STM32WLxx_HAL_Driver/Inc/stm32wlxx_ll_bus.h ****   SET_BIT(RCC->AHB2SMENR, Periphs);
 549:Drivers/STM32WLxx_HAL_Driver/Inc/stm32wlxx_ll_bus.h ****   /* Delay after an RCC peripheral clock enabling */
 550:Drivers/STM32WLxx_HAL_Driver/Inc/stm32wlxx_ll_bus.h ****   tmpreg = READ_BIT(RCC->AHB2SMENR, Periphs);
 551:Drivers/STM32WLxx_HAL_Driver/Inc/stm32wlxx_ll_bus.h ****   (void)tmpreg;
 552:Drivers/STM32WLxx_HAL_Driver/Inc/stm32wlxx_ll_bus.h **** }
 553:Drivers/STM32WLxx_HAL_Driver/Inc/stm32wlxx_ll_bus.h **** 
 554:Drivers/STM32WLxx_HAL_Driver/Inc/stm32wlxx_ll_bus.h **** /**
 555:Drivers/STM32WLxx_HAL_Driver/Inc/stm32wlxx_ll_bus.h ****   * @brief  Check if AHB2 peripheral clock is enabled by the clock gating during CPU1 CSleep mode
 556:Drivers/STM32WLxx_HAL_Driver/Inc/stm32wlxx_ll_bus.h ****   * @rmtoll AHB2SMENR    GPIOASMEN     LL_AHB2_GRP1_IsEnabledClockSleep\n
 557:Drivers/STM32WLxx_HAL_Driver/Inc/stm32wlxx_ll_bus.h ****   *         AHB2SMENR    GPIOBSMEN     LL_AHB2_GRP1_IsEnabledClockSleep\n
 558:Drivers/STM32WLxx_HAL_Driver/Inc/stm32wlxx_ll_bus.h ****   *         AHB2SMENR    GPIOCSMEN     LL_AHB2_GRP1_IsEnabledClockSleep\n
 559:Drivers/STM32WLxx_HAL_Driver/Inc/stm32wlxx_ll_bus.h ****   *         AHB2SMENR    GPIOHSMEN     LL_AHB2_GRP1_IsEnabledClockSleep
 560:Drivers/STM32WLxx_HAL_Driver/Inc/stm32wlxx_ll_bus.h ****   * @param  Periphs This parameter can be a combination of the following values:
 561:Drivers/STM32WLxx_HAL_Driver/Inc/stm32wlxx_ll_bus.h ****   *         @arg @ref LL_AHB2_GRP1_PERIPH_GPIOA
 562:Drivers/STM32WLxx_HAL_Driver/Inc/stm32wlxx_ll_bus.h ****   *         @arg @ref LL_AHB2_GRP1_PERIPH_GPIOB
 563:Drivers/STM32WLxx_HAL_Driver/Inc/stm32wlxx_ll_bus.h ****   *         @arg @ref LL_AHB2_GRP1_PERIPH_GPIOC
 564:Drivers/STM32WLxx_HAL_Driver/Inc/stm32wlxx_ll_bus.h ****   *         @arg @ref LL_AHB2_GRP1_PERIPH_GPIOH
 565:Drivers/STM32WLxx_HAL_Driver/Inc/stm32wlxx_ll_bus.h ****   * @retval uint32_t
 566:Drivers/STM32WLxx_HAL_Driver/Inc/stm32wlxx_ll_bus.h ****   */
 567:Drivers/STM32WLxx_HAL_Driver/Inc/stm32wlxx_ll_bus.h **** __STATIC_INLINE uint32_t LL_AHB2_GRP1_IsEnabledClockSleep(uint32_t Periphs)
 568:Drivers/STM32WLxx_HAL_Driver/Inc/stm32wlxx_ll_bus.h **** {
 569:Drivers/STM32WLxx_HAL_Driver/Inc/stm32wlxx_ll_bus.h ****   return ((READ_BIT(RCC->AHB2SMENR, Periphs) == (Periphs)) ? 1UL : 0UL);
 570:Drivers/STM32WLxx_HAL_Driver/Inc/stm32wlxx_ll_bus.h **** }
 571:Drivers/STM32WLxx_HAL_Driver/Inc/stm32wlxx_ll_bus.h **** 
 572:Drivers/STM32WLxx_HAL_Driver/Inc/stm32wlxx_ll_bus.h **** /**
 573:Drivers/STM32WLxx_HAL_Driver/Inc/stm32wlxx_ll_bus.h ****   * @brief  Disable AHB2 peripherals clock during Low Power (Sleep) mode.
 574:Drivers/STM32WLxx_HAL_Driver/Inc/stm32wlxx_ll_bus.h ****   * @rmtoll AHB2SMENR    GPIOASMEN     LL_AHB2_GRP1_DisableClockSleep\n
 575:Drivers/STM32WLxx_HAL_Driver/Inc/stm32wlxx_ll_bus.h ****   *         AHB2SMENR    GPIOBSMEN     LL_AHB2_GRP1_DisableClockSleep\n
 576:Drivers/STM32WLxx_HAL_Driver/Inc/stm32wlxx_ll_bus.h ****   *         AHB2SMENR    GPIOCSMEN     LL_AHB2_GRP1_DisableClockSleep\n
 577:Drivers/STM32WLxx_HAL_Driver/Inc/stm32wlxx_ll_bus.h ****   *         AHB2SMENR    GPIOHSMEN     LL_AHB2_GRP1_DisableClockSleep\n
 578:Drivers/STM32WLxx_HAL_Driver/Inc/stm32wlxx_ll_bus.h ****   * @param  Periphs This parameter can be a combination of the following values:
 579:Drivers/STM32WLxx_HAL_Driver/Inc/stm32wlxx_ll_bus.h ****   *         @arg @ref LL_AHB2_GRP1_PERIPH_GPIOA
 580:Drivers/STM32WLxx_HAL_Driver/Inc/stm32wlxx_ll_bus.h ****   *         @arg @ref LL_AHB2_GRP1_PERIPH_GPIOB
 581:Drivers/STM32WLxx_HAL_Driver/Inc/stm32wlxx_ll_bus.h ****   *         @arg @ref LL_AHB2_GRP1_PERIPH_GPIOC
 582:Drivers/STM32WLxx_HAL_Driver/Inc/stm32wlxx_ll_bus.h ****   *         @arg @ref LL_AHB2_GRP1_PERIPH_GPIOH
 583:Drivers/STM32WLxx_HAL_Driver/Inc/stm32wlxx_ll_bus.h ****   * @retval None
 584:Drivers/STM32WLxx_HAL_Driver/Inc/stm32wlxx_ll_bus.h ****   */
 585:Drivers/STM32WLxx_HAL_Driver/Inc/stm32wlxx_ll_bus.h **** __STATIC_INLINE void LL_AHB2_GRP1_DisableClockSleep(uint32_t Periphs)
 586:Drivers/STM32WLxx_HAL_Driver/Inc/stm32wlxx_ll_bus.h **** {
 587:Drivers/STM32WLxx_HAL_Driver/Inc/stm32wlxx_ll_bus.h ****   CLEAR_BIT(RCC->AHB2SMENR, Periphs);
 588:Drivers/STM32WLxx_HAL_Driver/Inc/stm32wlxx_ll_bus.h **** }
 589:Drivers/STM32WLxx_HAL_Driver/Inc/stm32wlxx_ll_bus.h **** 
 590:Drivers/STM32WLxx_HAL_Driver/Inc/stm32wlxx_ll_bus.h **** /**
ARM GAS  /var/folders/9y/n02fl3g16gnf7ppy14xghdy80000gn/T//ccTkjYAj.s 			page 16


 591:Drivers/STM32WLxx_HAL_Driver/Inc/stm32wlxx_ll_bus.h ****   * @}
 592:Drivers/STM32WLxx_HAL_Driver/Inc/stm32wlxx_ll_bus.h ****   */
 593:Drivers/STM32WLxx_HAL_Driver/Inc/stm32wlxx_ll_bus.h **** 
 594:Drivers/STM32WLxx_HAL_Driver/Inc/stm32wlxx_ll_bus.h **** /** @defgroup BUS_LL_EF_AHB3 AHB3
 595:Drivers/STM32WLxx_HAL_Driver/Inc/stm32wlxx_ll_bus.h ****   * @{
 596:Drivers/STM32WLxx_HAL_Driver/Inc/stm32wlxx_ll_bus.h ****   */
 597:Drivers/STM32WLxx_HAL_Driver/Inc/stm32wlxx_ll_bus.h **** 
 598:Drivers/STM32WLxx_HAL_Driver/Inc/stm32wlxx_ll_bus.h **** #if defined(DUAL_CORE) /* Switch added for Documentation generation purpose to exclude IPCC in else
 599:Drivers/STM32WLxx_HAL_Driver/Inc/stm32wlxx_ll_bus.h **** /**
 600:Drivers/STM32WLxx_HAL_Driver/Inc/stm32wlxx_ll_bus.h ****   * @brief  Enable AHB3 peripherals clock.
 601:Drivers/STM32WLxx_HAL_Driver/Inc/stm32wlxx_ll_bus.h ****   * @rmtoll AHB3ENR      PKAEN         LL_AHB3_GRP1_EnableClock\n
 602:Drivers/STM32WLxx_HAL_Driver/Inc/stm32wlxx_ll_bus.h ****   *         AHB3ENR      AESEN         LL_AHB3_GRP1_EnableClock\n
 603:Drivers/STM32WLxx_HAL_Driver/Inc/stm32wlxx_ll_bus.h ****   *         AHB3ENR      RNGEN         LL_AHB3_GRP1_EnableClock\n
 604:Drivers/STM32WLxx_HAL_Driver/Inc/stm32wlxx_ll_bus.h ****   *         AHB3ENR      HSEMEN        LL_AHB3_GRP1_EnableClock\n
 605:Drivers/STM32WLxx_HAL_Driver/Inc/stm32wlxx_ll_bus.h ****   *         AHB3ENR      IPCCEN        LL_AHB3_GRP1_EnableClock\n
 606:Drivers/STM32WLxx_HAL_Driver/Inc/stm32wlxx_ll_bus.h ****   *         AHB3ENR      FLASHEN       LL_AHB3_GRP1_EnableClock
 607:Drivers/STM32WLxx_HAL_Driver/Inc/stm32wlxx_ll_bus.h ****   * @param  Periphs This parameter can be a combination of the following values:
 608:Drivers/STM32WLxx_HAL_Driver/Inc/stm32wlxx_ll_bus.h ****   *         @arg @ref LL_AHB3_GRP1_PERIPH_PKA
 609:Drivers/STM32WLxx_HAL_Driver/Inc/stm32wlxx_ll_bus.h ****   *         @arg @ref LL_AHB3_GRP1_PERIPH_AES
 610:Drivers/STM32WLxx_HAL_Driver/Inc/stm32wlxx_ll_bus.h ****   *         @arg @ref LL_AHB3_GRP1_PERIPH_RNG
 611:Drivers/STM32WLxx_HAL_Driver/Inc/stm32wlxx_ll_bus.h ****   *         @arg @ref LL_AHB3_GRP1_PERIPH_HSEM
 612:Drivers/STM32WLxx_HAL_Driver/Inc/stm32wlxx_ll_bus.h ****   *         @arg @ref LL_AHB3_GRP1_PERIPH_IPCC
 613:Drivers/STM32WLxx_HAL_Driver/Inc/stm32wlxx_ll_bus.h ****   *         @arg @ref LL_AHB3_GRP1_PERIPH_FLASH
 614:Drivers/STM32WLxx_HAL_Driver/Inc/stm32wlxx_ll_bus.h ****   * @retval None
 615:Drivers/STM32WLxx_HAL_Driver/Inc/stm32wlxx_ll_bus.h ****   */
 616:Drivers/STM32WLxx_HAL_Driver/Inc/stm32wlxx_ll_bus.h **** 
 617:Drivers/STM32WLxx_HAL_Driver/Inc/stm32wlxx_ll_bus.h **** #else
 618:Drivers/STM32WLxx_HAL_Driver/Inc/stm32wlxx_ll_bus.h **** /**
 619:Drivers/STM32WLxx_HAL_Driver/Inc/stm32wlxx_ll_bus.h ****   * @brief  Enable AHB3 peripherals clock.
 620:Drivers/STM32WLxx_HAL_Driver/Inc/stm32wlxx_ll_bus.h ****   * @rmtoll AHB3ENR      PKAEN         LL_AHB3_GRP1_EnableClock\n
 621:Drivers/STM32WLxx_HAL_Driver/Inc/stm32wlxx_ll_bus.h ****   *         AHB3ENR      AESEN         LL_AHB3_GRP1_EnableClock\n
 622:Drivers/STM32WLxx_HAL_Driver/Inc/stm32wlxx_ll_bus.h ****   *         AHB3ENR      RNGEN         LL_AHB3_GRP1_EnableClock\n
 623:Drivers/STM32WLxx_HAL_Driver/Inc/stm32wlxx_ll_bus.h ****   *         AHB3ENR      HSEMEN        LL_AHB3_GRP1_EnableClock\n
 624:Drivers/STM32WLxx_HAL_Driver/Inc/stm32wlxx_ll_bus.h ****   *         AHB3ENR      FLASHEN       LL_AHB3_GRP1_EnableClock
 625:Drivers/STM32WLxx_HAL_Driver/Inc/stm32wlxx_ll_bus.h ****   * @param  Periphs This parameter can be a combination of the following values:
 626:Drivers/STM32WLxx_HAL_Driver/Inc/stm32wlxx_ll_bus.h ****   *         @arg @ref LL_AHB3_GRP1_PERIPH_PKA
 627:Drivers/STM32WLxx_HAL_Driver/Inc/stm32wlxx_ll_bus.h ****   *         @arg @ref LL_AHB3_GRP1_PERIPH_AES
 628:Drivers/STM32WLxx_HAL_Driver/Inc/stm32wlxx_ll_bus.h ****   *         @arg @ref LL_AHB3_GRP1_PERIPH_RNG
 629:Drivers/STM32WLxx_HAL_Driver/Inc/stm32wlxx_ll_bus.h ****   *         @arg @ref LL_AHB3_GRP1_PERIPH_HSEM
 630:Drivers/STM32WLxx_HAL_Driver/Inc/stm32wlxx_ll_bus.h ****   *         @arg @ref LL_AHB3_GRP1_PERIPH_FLASH
 631:Drivers/STM32WLxx_HAL_Driver/Inc/stm32wlxx_ll_bus.h ****   * @retval None
 632:Drivers/STM32WLxx_HAL_Driver/Inc/stm32wlxx_ll_bus.h ****   */
 633:Drivers/STM32WLxx_HAL_Driver/Inc/stm32wlxx_ll_bus.h **** #endif /* DUAL_CORE */
 634:Drivers/STM32WLxx_HAL_Driver/Inc/stm32wlxx_ll_bus.h **** __STATIC_INLINE void LL_AHB3_GRP1_EnableClock(uint32_t Periphs)
 635:Drivers/STM32WLxx_HAL_Driver/Inc/stm32wlxx_ll_bus.h **** {
 636:Drivers/STM32WLxx_HAL_Driver/Inc/stm32wlxx_ll_bus.h ****   __IO uint32_t tmpreg;
 637:Drivers/STM32WLxx_HAL_Driver/Inc/stm32wlxx_ll_bus.h ****   SET_BIT(RCC->AHB3ENR, Periphs);
 638:Drivers/STM32WLxx_HAL_Driver/Inc/stm32wlxx_ll_bus.h ****   /* Delay after an RCC peripheral clock enabling */
 639:Drivers/STM32WLxx_HAL_Driver/Inc/stm32wlxx_ll_bus.h ****   tmpreg = READ_BIT(RCC->AHB3ENR, Periphs);
 640:Drivers/STM32WLxx_HAL_Driver/Inc/stm32wlxx_ll_bus.h ****   (void)tmpreg;
 641:Drivers/STM32WLxx_HAL_Driver/Inc/stm32wlxx_ll_bus.h **** }
 642:Drivers/STM32WLxx_HAL_Driver/Inc/stm32wlxx_ll_bus.h **** 
 643:Drivers/STM32WLxx_HAL_Driver/Inc/stm32wlxx_ll_bus.h **** #if defined(DUAL_CORE) /* Switch added for Documentation generation purpose to exclude IPCC in else
 644:Drivers/STM32WLxx_HAL_Driver/Inc/stm32wlxx_ll_bus.h **** /**
 645:Drivers/STM32WLxx_HAL_Driver/Inc/stm32wlxx_ll_bus.h ****   * @brief  Check if AHB3 peripheral clock is enabled or not
 646:Drivers/STM32WLxx_HAL_Driver/Inc/stm32wlxx_ll_bus.h ****   * @rmtoll AHB3ENR      PKAEN         LL_AHB3_GRP1_IsEnabledClock\n
 647:Drivers/STM32WLxx_HAL_Driver/Inc/stm32wlxx_ll_bus.h ****   *         AHB3ENR      AESEN         LL_AHB3_GRP1_IsEnabledClock\n
ARM GAS  /var/folders/9y/n02fl3g16gnf7ppy14xghdy80000gn/T//ccTkjYAj.s 			page 17


 648:Drivers/STM32WLxx_HAL_Driver/Inc/stm32wlxx_ll_bus.h ****   *         AHB3ENR      RNGEN         LL_AHB3_GRP1_IsEnabledClock\n
 649:Drivers/STM32WLxx_HAL_Driver/Inc/stm32wlxx_ll_bus.h ****   *         AHB3ENR      HSEMEN        LL_AHB3_GRP1_IsEnabledClock\n
 650:Drivers/STM32WLxx_HAL_Driver/Inc/stm32wlxx_ll_bus.h ****   *         AHB3ENR      IPCCEN        LL_AHB3_GRP1_IsEnabledClock\n
 651:Drivers/STM32WLxx_HAL_Driver/Inc/stm32wlxx_ll_bus.h ****   *         AHB3ENR      FLASHEN       LL_AHB3_GRP1_IsEnabledClock
 652:Drivers/STM32WLxx_HAL_Driver/Inc/stm32wlxx_ll_bus.h ****   * @param  Periphs This parameter can be a combination of the following values:
 653:Drivers/STM32WLxx_HAL_Driver/Inc/stm32wlxx_ll_bus.h ****   *         @arg @ref LL_AHB3_GRP1_PERIPH_PKA
 654:Drivers/STM32WLxx_HAL_Driver/Inc/stm32wlxx_ll_bus.h ****   *         @arg @ref LL_AHB3_GRP1_PERIPH_AES
 655:Drivers/STM32WLxx_HAL_Driver/Inc/stm32wlxx_ll_bus.h ****   *         @arg @ref LL_AHB3_GRP1_PERIPH_RNG
 656:Drivers/STM32WLxx_HAL_Driver/Inc/stm32wlxx_ll_bus.h ****   *         @arg @ref LL_AHB3_GRP1_PERIPH_HSEM
 657:Drivers/STM32WLxx_HAL_Driver/Inc/stm32wlxx_ll_bus.h ****   *         @arg @ref LL_AHB3_GRP1_PERIPH_IPCC
 658:Drivers/STM32WLxx_HAL_Driver/Inc/stm32wlxx_ll_bus.h ****   *         @arg @ref LL_AHB3_GRP1_PERIPH_FLASH
 659:Drivers/STM32WLxx_HAL_Driver/Inc/stm32wlxx_ll_bus.h ****   * @retval uint32_t
 660:Drivers/STM32WLxx_HAL_Driver/Inc/stm32wlxx_ll_bus.h ****   */
 661:Drivers/STM32WLxx_HAL_Driver/Inc/stm32wlxx_ll_bus.h **** #else
 662:Drivers/STM32WLxx_HAL_Driver/Inc/stm32wlxx_ll_bus.h **** /**
 663:Drivers/STM32WLxx_HAL_Driver/Inc/stm32wlxx_ll_bus.h ****   * @brief  Check if AHB3 peripheral clock is enabled or not
 664:Drivers/STM32WLxx_HAL_Driver/Inc/stm32wlxx_ll_bus.h ****   * @rmtoll AHB3ENR      PKAEN         LL_AHB3_GRP1_IsEnabledClock\n
 665:Drivers/STM32WLxx_HAL_Driver/Inc/stm32wlxx_ll_bus.h ****   *         AHB3ENR      AESEN         LL_AHB3_GRP1_IsEnabledClock\n
 666:Drivers/STM32WLxx_HAL_Driver/Inc/stm32wlxx_ll_bus.h ****   *         AHB3ENR      RNGEN         LL_AHB3_GRP1_IsEnabledClock\n
 667:Drivers/STM32WLxx_HAL_Driver/Inc/stm32wlxx_ll_bus.h ****   *         AHB3ENR      HSEMEN        LL_AHB3_GRP1_IsEnabledClock\n
 668:Drivers/STM32WLxx_HAL_Driver/Inc/stm32wlxx_ll_bus.h ****   *         AHB3ENR      FLASHEN       LL_AHB3_GRP1_IsEnabledClock
 669:Drivers/STM32WLxx_HAL_Driver/Inc/stm32wlxx_ll_bus.h ****   * @param  Periphs This parameter can be a combination of the following values:
 670:Drivers/STM32WLxx_HAL_Driver/Inc/stm32wlxx_ll_bus.h ****   *         @arg @ref LL_AHB3_GRP1_PERIPH_PKA
 671:Drivers/STM32WLxx_HAL_Driver/Inc/stm32wlxx_ll_bus.h ****   *         @arg @ref LL_AHB3_GRP1_PERIPH_AES
 672:Drivers/STM32WLxx_HAL_Driver/Inc/stm32wlxx_ll_bus.h ****   *         @arg @ref LL_AHB3_GRP1_PERIPH_RNG
 673:Drivers/STM32WLxx_HAL_Driver/Inc/stm32wlxx_ll_bus.h ****   *         @arg @ref LL_AHB3_GRP1_PERIPH_HSEM
 674:Drivers/STM32WLxx_HAL_Driver/Inc/stm32wlxx_ll_bus.h ****   *         @arg @ref LL_AHB3_GRP1_PERIPH_FLASH
 675:Drivers/STM32WLxx_HAL_Driver/Inc/stm32wlxx_ll_bus.h ****   * @retval uint32_t
 676:Drivers/STM32WLxx_HAL_Driver/Inc/stm32wlxx_ll_bus.h ****   */
 677:Drivers/STM32WLxx_HAL_Driver/Inc/stm32wlxx_ll_bus.h **** 
 678:Drivers/STM32WLxx_HAL_Driver/Inc/stm32wlxx_ll_bus.h **** #endif /* DUAL_CORE */
 679:Drivers/STM32WLxx_HAL_Driver/Inc/stm32wlxx_ll_bus.h **** __STATIC_INLINE uint32_t LL_AHB3_GRP1_IsEnabledClock(uint32_t Periphs)
 680:Drivers/STM32WLxx_HAL_Driver/Inc/stm32wlxx_ll_bus.h **** {
 681:Drivers/STM32WLxx_HAL_Driver/Inc/stm32wlxx_ll_bus.h ****   return ((READ_BIT(RCC->AHB3ENR, Periphs) == (Periphs)) ? 1UL : 0UL);
 682:Drivers/STM32WLxx_HAL_Driver/Inc/stm32wlxx_ll_bus.h **** }
 683:Drivers/STM32WLxx_HAL_Driver/Inc/stm32wlxx_ll_bus.h **** 
 684:Drivers/STM32WLxx_HAL_Driver/Inc/stm32wlxx_ll_bus.h **** #if defined(DUAL_CORE) /* Switch added for Documentation generation purpose to exclude IPCC in else
 685:Drivers/STM32WLxx_HAL_Driver/Inc/stm32wlxx_ll_bus.h **** /**
 686:Drivers/STM32WLxx_HAL_Driver/Inc/stm32wlxx_ll_bus.h ****   * @brief  Disable AHB3 peripherals clock.
 687:Drivers/STM32WLxx_HAL_Driver/Inc/stm32wlxx_ll_bus.h ****   * @rmtoll AHB3ENR      PKAEN         LL_AHB3_GRP1_DisableClock\n
 688:Drivers/STM32WLxx_HAL_Driver/Inc/stm32wlxx_ll_bus.h ****   *         AHB3ENR      AESEN         LL_AHB3_GRP1_DisableClock\n
 689:Drivers/STM32WLxx_HAL_Driver/Inc/stm32wlxx_ll_bus.h ****   *         AHB3ENR      RNGEN         LL_AHB3_GRP1_DisableClock\n
 690:Drivers/STM32WLxx_HAL_Driver/Inc/stm32wlxx_ll_bus.h ****   *         AHB3ENR      HSEMEN        LL_AHB3_GRP1_DisableClock\n
 691:Drivers/STM32WLxx_HAL_Driver/Inc/stm32wlxx_ll_bus.h ****   *         AHB3ENR      IPCCEN        LL_AHB3_GRP1_DisableClock\n
 692:Drivers/STM32WLxx_HAL_Driver/Inc/stm32wlxx_ll_bus.h ****   *         AHB3ENR      FLASHEN       LL_AHB3_GRP1_DisableClock
 693:Drivers/STM32WLxx_HAL_Driver/Inc/stm32wlxx_ll_bus.h ****   * @param  Periphs This parameter can be a combination of the following values:
 694:Drivers/STM32WLxx_HAL_Driver/Inc/stm32wlxx_ll_bus.h ****   *         @arg @ref LL_AHB3_GRP1_PERIPH_PKA
 695:Drivers/STM32WLxx_HAL_Driver/Inc/stm32wlxx_ll_bus.h ****   *         @arg @ref LL_AHB3_GRP1_PERIPH_AES
 696:Drivers/STM32WLxx_HAL_Driver/Inc/stm32wlxx_ll_bus.h ****   *         @arg @ref LL_AHB3_GRP1_PERIPH_RNG
 697:Drivers/STM32WLxx_HAL_Driver/Inc/stm32wlxx_ll_bus.h ****   *         @arg @ref LL_AHB3_GRP1_PERIPH_HSEM
 698:Drivers/STM32WLxx_HAL_Driver/Inc/stm32wlxx_ll_bus.h ****   *         @arg @ref LL_AHB3_GRP1_PERIPH_IPCC
 699:Drivers/STM32WLxx_HAL_Driver/Inc/stm32wlxx_ll_bus.h ****   *         @arg @ref LL_AHB3_GRP1_PERIPH_FLASH
 700:Drivers/STM32WLxx_HAL_Driver/Inc/stm32wlxx_ll_bus.h ****   * @retval None
 701:Drivers/STM32WLxx_HAL_Driver/Inc/stm32wlxx_ll_bus.h ****   */
 702:Drivers/STM32WLxx_HAL_Driver/Inc/stm32wlxx_ll_bus.h **** 
 703:Drivers/STM32WLxx_HAL_Driver/Inc/stm32wlxx_ll_bus.h **** #else
 704:Drivers/STM32WLxx_HAL_Driver/Inc/stm32wlxx_ll_bus.h **** /**
ARM GAS  /var/folders/9y/n02fl3g16gnf7ppy14xghdy80000gn/T//ccTkjYAj.s 			page 18


 705:Drivers/STM32WLxx_HAL_Driver/Inc/stm32wlxx_ll_bus.h ****   * @brief  Disable AHB3 peripherals clock.
 706:Drivers/STM32WLxx_HAL_Driver/Inc/stm32wlxx_ll_bus.h ****   * @rmtoll AHB3ENR      PKAEN         LL_AHB3_GRP1_DisableClock\n
 707:Drivers/STM32WLxx_HAL_Driver/Inc/stm32wlxx_ll_bus.h ****   *         AHB3ENR      AESEN         LL_AHB3_GRP1_DisableClock\n
 708:Drivers/STM32WLxx_HAL_Driver/Inc/stm32wlxx_ll_bus.h ****   *         AHB3ENR      RNGEN         LL_AHB3_GRP1_DisableClock\n
 709:Drivers/STM32WLxx_HAL_Driver/Inc/stm32wlxx_ll_bus.h ****   *         AHB3ENR      HSEMEN        LL_AHB3_GRP1_DisableClock\n
 710:Drivers/STM32WLxx_HAL_Driver/Inc/stm32wlxx_ll_bus.h ****   *         AHB3ENR      FLASHEN       LL_AHB3_GRP1_DisableClock
 711:Drivers/STM32WLxx_HAL_Driver/Inc/stm32wlxx_ll_bus.h ****   * @param  Periphs This parameter can be a combination of the following values:
 712:Drivers/STM32WLxx_HAL_Driver/Inc/stm32wlxx_ll_bus.h ****   *         @arg @ref LL_AHB3_GRP1_PERIPH_PKA
 713:Drivers/STM32WLxx_HAL_Driver/Inc/stm32wlxx_ll_bus.h ****   *         @arg @ref LL_AHB3_GRP1_PERIPH_AES
 714:Drivers/STM32WLxx_HAL_Driver/Inc/stm32wlxx_ll_bus.h ****   *         @arg @ref LL_AHB3_GRP1_PERIPH_RNG
 715:Drivers/STM32WLxx_HAL_Driver/Inc/stm32wlxx_ll_bus.h ****   *         @arg @ref LL_AHB3_GRP1_PERIPH_HSEM
 716:Drivers/STM32WLxx_HAL_Driver/Inc/stm32wlxx_ll_bus.h ****   *         @arg @ref LL_AHB3_GRP1_PERIPH_FLASH
 717:Drivers/STM32WLxx_HAL_Driver/Inc/stm32wlxx_ll_bus.h ****   * @retval None
 718:Drivers/STM32WLxx_HAL_Driver/Inc/stm32wlxx_ll_bus.h ****   */
 719:Drivers/STM32WLxx_HAL_Driver/Inc/stm32wlxx_ll_bus.h **** #endif /* DUAL_CORE */
 720:Drivers/STM32WLxx_HAL_Driver/Inc/stm32wlxx_ll_bus.h **** __STATIC_INLINE void LL_AHB3_GRP1_DisableClock(uint32_t Periphs)
 721:Drivers/STM32WLxx_HAL_Driver/Inc/stm32wlxx_ll_bus.h **** {
 722:Drivers/STM32WLxx_HAL_Driver/Inc/stm32wlxx_ll_bus.h ****   CLEAR_BIT(RCC->AHB3ENR, Periphs);
 723:Drivers/STM32WLxx_HAL_Driver/Inc/stm32wlxx_ll_bus.h **** }
 724:Drivers/STM32WLxx_HAL_Driver/Inc/stm32wlxx_ll_bus.h **** 
 725:Drivers/STM32WLxx_HAL_Driver/Inc/stm32wlxx_ll_bus.h **** #if defined(DUAL_CORE) /* Switch added for Documentation generation purpose to exclude IPCC in else
 726:Drivers/STM32WLxx_HAL_Driver/Inc/stm32wlxx_ll_bus.h **** /**
 727:Drivers/STM32WLxx_HAL_Driver/Inc/stm32wlxx_ll_bus.h ****   * @brief  Force AHB3 peripherals reset.
 728:Drivers/STM32WLxx_HAL_Driver/Inc/stm32wlxx_ll_bus.h ****   * @rmtoll AHB3RSTR     PKARST        LL_AHB3_GRP1_ForceReset\n
 729:Drivers/STM32WLxx_HAL_Driver/Inc/stm32wlxx_ll_bus.h ****   *         AHB3RSTR     AESRST        LL_AHB3_GRP1_ForceReset\n
 730:Drivers/STM32WLxx_HAL_Driver/Inc/stm32wlxx_ll_bus.h ****   *         AHB3RSTR     RNGRST        LL_AHB3_GRP1_ForceReset\n
 731:Drivers/STM32WLxx_HAL_Driver/Inc/stm32wlxx_ll_bus.h ****   *         AHB3RSTR     HSEMRST       LL_AHB3_GRP1_ForceReset\n
 732:Drivers/STM32WLxx_HAL_Driver/Inc/stm32wlxx_ll_bus.h ****   *         AHB3RSTR     IPCCRST       LL_AHB3_GRP1_ForceReset\n
 733:Drivers/STM32WLxx_HAL_Driver/Inc/stm32wlxx_ll_bus.h ****   *         AHB3RSTR     FLASHRST      LL_AHB3_GRP1_ForceReset
 734:Drivers/STM32WLxx_HAL_Driver/Inc/stm32wlxx_ll_bus.h ****   * @param  Periphs This parameter can be a combination of the following values:
 735:Drivers/STM32WLxx_HAL_Driver/Inc/stm32wlxx_ll_bus.h ****   *         @arg @ref LL_AHB3_GRP1_PERIPH_ALL
 736:Drivers/STM32WLxx_HAL_Driver/Inc/stm32wlxx_ll_bus.h ****   *         @arg @ref LL_AHB3_GRP1_PERIPH_AES
 737:Drivers/STM32WLxx_HAL_Driver/Inc/stm32wlxx_ll_bus.h ****   *         @arg @ref LL_AHB3_GRP1_PERIPH_PKA
 738:Drivers/STM32WLxx_HAL_Driver/Inc/stm32wlxx_ll_bus.h ****   *         @arg @ref LL_AHB3_GRP1_PERIPH_RNG
 739:Drivers/STM32WLxx_HAL_Driver/Inc/stm32wlxx_ll_bus.h ****   *         @arg @ref LL_AHB3_GRP1_PERIPH_HSEM
 740:Drivers/STM32WLxx_HAL_Driver/Inc/stm32wlxx_ll_bus.h ****   *         @arg @ref LL_AHB3_GRP1_PERIPH_IPCC
 741:Drivers/STM32WLxx_HAL_Driver/Inc/stm32wlxx_ll_bus.h ****   *         @arg @ref LL_AHB3_GRP1_PERIPH_FLASH
 742:Drivers/STM32WLxx_HAL_Driver/Inc/stm32wlxx_ll_bus.h ****   * @retval None
 743:Drivers/STM32WLxx_HAL_Driver/Inc/stm32wlxx_ll_bus.h ****   */
 744:Drivers/STM32WLxx_HAL_Driver/Inc/stm32wlxx_ll_bus.h **** #else
 745:Drivers/STM32WLxx_HAL_Driver/Inc/stm32wlxx_ll_bus.h **** /**
 746:Drivers/STM32WLxx_HAL_Driver/Inc/stm32wlxx_ll_bus.h ****   * @brief  Force AHB3 peripherals reset.
 747:Drivers/STM32WLxx_HAL_Driver/Inc/stm32wlxx_ll_bus.h ****   * @rmtoll AHB3RSTR     PKARST        LL_AHB3_GRP1_ForceReset\n
 748:Drivers/STM32WLxx_HAL_Driver/Inc/stm32wlxx_ll_bus.h ****   *         AHB3RSTR     AESRST        LL_AHB3_GRP1_ForceReset\n
 749:Drivers/STM32WLxx_HAL_Driver/Inc/stm32wlxx_ll_bus.h ****   *         AHB3RSTR     RNGRST        LL_AHB3_GRP1_ForceReset\n
 750:Drivers/STM32WLxx_HAL_Driver/Inc/stm32wlxx_ll_bus.h ****   *         AHB3RSTR     HSEMRST       LL_AHB3_GRP1_ForceReset\n
 751:Drivers/STM32WLxx_HAL_Driver/Inc/stm32wlxx_ll_bus.h ****   *         AHB3RSTR     FLASHRST      LL_AHB3_GRP1_ForceReset
 752:Drivers/STM32WLxx_HAL_Driver/Inc/stm32wlxx_ll_bus.h ****   * @param  Periphs This parameter can be a combination of the following values:
 753:Drivers/STM32WLxx_HAL_Driver/Inc/stm32wlxx_ll_bus.h ****   *         @arg @ref LL_AHB3_GRP1_PERIPH_ALL
 754:Drivers/STM32WLxx_HAL_Driver/Inc/stm32wlxx_ll_bus.h ****   *         @arg @ref LL_AHB3_GRP1_PERIPH_AES
 755:Drivers/STM32WLxx_HAL_Driver/Inc/stm32wlxx_ll_bus.h ****   *         @arg @ref LL_AHB3_GRP1_PERIPH_PKA
 756:Drivers/STM32WLxx_HAL_Driver/Inc/stm32wlxx_ll_bus.h ****   *         @arg @ref LL_AHB3_GRP1_PERIPH_RNG
 757:Drivers/STM32WLxx_HAL_Driver/Inc/stm32wlxx_ll_bus.h ****   *         @arg @ref LL_AHB3_GRP1_PERIPH_HSEM
 758:Drivers/STM32WLxx_HAL_Driver/Inc/stm32wlxx_ll_bus.h ****   *         @arg @ref LL_AHB3_GRP1_PERIPH_FLASH
 759:Drivers/STM32WLxx_HAL_Driver/Inc/stm32wlxx_ll_bus.h ****   * @retval None
 760:Drivers/STM32WLxx_HAL_Driver/Inc/stm32wlxx_ll_bus.h ****   */
 761:Drivers/STM32WLxx_HAL_Driver/Inc/stm32wlxx_ll_bus.h **** 
ARM GAS  /var/folders/9y/n02fl3g16gnf7ppy14xghdy80000gn/T//ccTkjYAj.s 			page 19


 762:Drivers/STM32WLxx_HAL_Driver/Inc/stm32wlxx_ll_bus.h **** #endif /* DUAL_CORE */
 763:Drivers/STM32WLxx_HAL_Driver/Inc/stm32wlxx_ll_bus.h **** __STATIC_INLINE void LL_AHB3_GRP1_ForceReset(uint32_t Periphs)
 764:Drivers/STM32WLxx_HAL_Driver/Inc/stm32wlxx_ll_bus.h **** {
 765:Drivers/STM32WLxx_HAL_Driver/Inc/stm32wlxx_ll_bus.h ****   SET_BIT(RCC->AHB3RSTR, Periphs);
 766:Drivers/STM32WLxx_HAL_Driver/Inc/stm32wlxx_ll_bus.h **** }
 767:Drivers/STM32WLxx_HAL_Driver/Inc/stm32wlxx_ll_bus.h **** 
 768:Drivers/STM32WLxx_HAL_Driver/Inc/stm32wlxx_ll_bus.h **** #if defined(DUAL_CORE) /* Switch added for Documentation generation purpose to exclude IPCC in else
 769:Drivers/STM32WLxx_HAL_Driver/Inc/stm32wlxx_ll_bus.h **** /**
 770:Drivers/STM32WLxx_HAL_Driver/Inc/stm32wlxx_ll_bus.h ****   * @brief  Release AHB3 peripherals reset.
 771:Drivers/STM32WLxx_HAL_Driver/Inc/stm32wlxx_ll_bus.h ****   * @rmtoll AHB3RSTR     PKARST        LL_AHB3_GRP1_ReleaseReset\n
 772:Drivers/STM32WLxx_HAL_Driver/Inc/stm32wlxx_ll_bus.h ****   *         AHB3RSTR     AESRST        LL_AHB3_GRP1_ReleaseReset\n
 773:Drivers/STM32WLxx_HAL_Driver/Inc/stm32wlxx_ll_bus.h ****   *         AHB3RSTR     RNGRST        LL_AHB3_GRP1_ReleaseReset\n
 774:Drivers/STM32WLxx_HAL_Driver/Inc/stm32wlxx_ll_bus.h ****   *         AHB3RSTR     HSEMRST       LL_AHB3_GRP1_ReleaseReset\n
 775:Drivers/STM32WLxx_HAL_Driver/Inc/stm32wlxx_ll_bus.h ****   *         AHB3RSTR     IPCCRST       LL_AHB3_GRP1_ReleaseReset\n
 776:Drivers/STM32WLxx_HAL_Driver/Inc/stm32wlxx_ll_bus.h ****   *         AHB3RSTR     FLASHRST      LL_AHB3_GRP1_ReleaseReset
 777:Drivers/STM32WLxx_HAL_Driver/Inc/stm32wlxx_ll_bus.h ****   * @param  Periphs This parameter can be a combination of the following values:
 778:Drivers/STM32WLxx_HAL_Driver/Inc/stm32wlxx_ll_bus.h ****   *         @arg @ref LL_AHB3_GRP1_PERIPH_ALL
 779:Drivers/STM32WLxx_HAL_Driver/Inc/stm32wlxx_ll_bus.h ****   *         @arg @ref LL_AHB3_GRP1_PERIPH_PKA
 780:Drivers/STM32WLxx_HAL_Driver/Inc/stm32wlxx_ll_bus.h ****   *         @arg @ref LL_AHB3_GRP1_PERIPH_AES
 781:Drivers/STM32WLxx_HAL_Driver/Inc/stm32wlxx_ll_bus.h ****   *         @arg @ref LL_AHB3_GRP1_PERIPH_RNG
 782:Drivers/STM32WLxx_HAL_Driver/Inc/stm32wlxx_ll_bus.h ****   *         @arg @ref LL_AHB3_GRP1_PERIPH_HSEM
 783:Drivers/STM32WLxx_HAL_Driver/Inc/stm32wlxx_ll_bus.h ****   *         @arg @ref LL_AHB3_GRP1_PERIPH_IPCC
 784:Drivers/STM32WLxx_HAL_Driver/Inc/stm32wlxx_ll_bus.h ****   *         @arg @ref LL_AHB3_GRP1_PERIPH_FLASH
 785:Drivers/STM32WLxx_HAL_Driver/Inc/stm32wlxx_ll_bus.h ****   * @retval None
 786:Drivers/STM32WLxx_HAL_Driver/Inc/stm32wlxx_ll_bus.h ****   */
 787:Drivers/STM32WLxx_HAL_Driver/Inc/stm32wlxx_ll_bus.h **** #else
 788:Drivers/STM32WLxx_HAL_Driver/Inc/stm32wlxx_ll_bus.h **** /**
 789:Drivers/STM32WLxx_HAL_Driver/Inc/stm32wlxx_ll_bus.h ****   * @brief  Release AHB3 peripherals reset.
 790:Drivers/STM32WLxx_HAL_Driver/Inc/stm32wlxx_ll_bus.h ****   * @rmtoll AHB3RSTR     PKARST        LL_AHB3_GRP1_ReleaseReset\n
 791:Drivers/STM32WLxx_HAL_Driver/Inc/stm32wlxx_ll_bus.h ****   *         AHB3RSTR     AESRST        LL_AHB3_GRP1_ReleaseReset\n
 792:Drivers/STM32WLxx_HAL_Driver/Inc/stm32wlxx_ll_bus.h ****   *         AHB3RSTR     RNGRST        LL_AHB3_GRP1_ReleaseReset\n
 793:Drivers/STM32WLxx_HAL_Driver/Inc/stm32wlxx_ll_bus.h ****   *         AHB3RSTR     HSEMRST       LL_AHB3_GRP1_ReleaseReset\n
 794:Drivers/STM32WLxx_HAL_Driver/Inc/stm32wlxx_ll_bus.h ****   *         AHB3RSTR     FLASHRST      LL_AHB3_GRP1_ReleaseReset
 795:Drivers/STM32WLxx_HAL_Driver/Inc/stm32wlxx_ll_bus.h ****   * @param  Periphs This parameter can be a combination of the following values:
 796:Drivers/STM32WLxx_HAL_Driver/Inc/stm32wlxx_ll_bus.h ****   *         @arg @ref LL_AHB3_GRP1_PERIPH_ALL
 797:Drivers/STM32WLxx_HAL_Driver/Inc/stm32wlxx_ll_bus.h ****   *         @arg @ref LL_AHB3_GRP1_PERIPH_PKA
 798:Drivers/STM32WLxx_HAL_Driver/Inc/stm32wlxx_ll_bus.h ****   *         @arg @ref LL_AHB3_GRP1_PERIPH_AES
 799:Drivers/STM32WLxx_HAL_Driver/Inc/stm32wlxx_ll_bus.h ****   *         @arg @ref LL_AHB3_GRP1_PERIPH_RNG
 800:Drivers/STM32WLxx_HAL_Driver/Inc/stm32wlxx_ll_bus.h ****   *         @arg @ref LL_AHB3_GRP1_PERIPH_HSEM
 801:Drivers/STM32WLxx_HAL_Driver/Inc/stm32wlxx_ll_bus.h ****   *         @arg @ref LL_AHB3_GRP1_PERIPH_FLASH
 802:Drivers/STM32WLxx_HAL_Driver/Inc/stm32wlxx_ll_bus.h ****   * @retval None
 803:Drivers/STM32WLxx_HAL_Driver/Inc/stm32wlxx_ll_bus.h ****   */
 804:Drivers/STM32WLxx_HAL_Driver/Inc/stm32wlxx_ll_bus.h **** 
 805:Drivers/STM32WLxx_HAL_Driver/Inc/stm32wlxx_ll_bus.h **** #endif /* DUAL_CORE */
 806:Drivers/STM32WLxx_HAL_Driver/Inc/stm32wlxx_ll_bus.h **** __STATIC_INLINE void LL_AHB3_GRP1_ReleaseReset(uint32_t Periphs)
 807:Drivers/STM32WLxx_HAL_Driver/Inc/stm32wlxx_ll_bus.h **** {
 808:Drivers/STM32WLxx_HAL_Driver/Inc/stm32wlxx_ll_bus.h ****   CLEAR_BIT(RCC->AHB3RSTR, Periphs);
 809:Drivers/STM32WLxx_HAL_Driver/Inc/stm32wlxx_ll_bus.h **** }
 810:Drivers/STM32WLxx_HAL_Driver/Inc/stm32wlxx_ll_bus.h **** 
 811:Drivers/STM32WLxx_HAL_Driver/Inc/stm32wlxx_ll_bus.h **** /**
 812:Drivers/STM32WLxx_HAL_Driver/Inc/stm32wlxx_ll_bus.h ****   * @brief  Enable AHB3 peripherals clock during Low Power (Sleep) mode.
 813:Drivers/STM32WLxx_HAL_Driver/Inc/stm32wlxx_ll_bus.h ****   * @rmtoll AHB3SMENR    PKASMEN       LL_AHB3_GRP1_EnableClockSleep\n
 814:Drivers/STM32WLxx_HAL_Driver/Inc/stm32wlxx_ll_bus.h ****   *         AHB3SMENR    AESSMEN       LL_AHB3_GRP1_EnableClockSleep\n
 815:Drivers/STM32WLxx_HAL_Driver/Inc/stm32wlxx_ll_bus.h ****   *         AHB3SMENR    RNGSMEN       LL_AHB3_GRP1_EnableClockSleep\n
 816:Drivers/STM32WLxx_HAL_Driver/Inc/stm32wlxx_ll_bus.h ****   *         AHB1SMENR    SRAM1SMEN     LL_AHB1_GRP1_EnableClockSleep\n
 817:Drivers/STM32WLxx_HAL_Driver/Inc/stm32wlxx_ll_bus.h ****   *         AHB3SMENR    SRAM2SMEN     LL_AHB3_GRP1_EnableClockSleep\n
 818:Drivers/STM32WLxx_HAL_Driver/Inc/stm32wlxx_ll_bus.h ****   *         AHB3SMENR    FLASHSMEN     LL_AHB3_GRP1_EnableClockSleep
ARM GAS  /var/folders/9y/n02fl3g16gnf7ppy14xghdy80000gn/T//ccTkjYAj.s 			page 20


 819:Drivers/STM32WLxx_HAL_Driver/Inc/stm32wlxx_ll_bus.h ****   * @param  Periphs This parameter can be a combination of the following values:
 820:Drivers/STM32WLxx_HAL_Driver/Inc/stm32wlxx_ll_bus.h ****   *         @arg @ref LL_AHB3_GRP1_PERIPH_PKA
 821:Drivers/STM32WLxx_HAL_Driver/Inc/stm32wlxx_ll_bus.h ****   *         @arg @ref LL_AHB3_GRP1_PERIPH_AES
 822:Drivers/STM32WLxx_HAL_Driver/Inc/stm32wlxx_ll_bus.h ****   *         @arg @ref LL_AHB3_GRP1_PERIPH_RNG
 823:Drivers/STM32WLxx_HAL_Driver/Inc/stm32wlxx_ll_bus.h ****   *         @arg @ref LL_AHB3_GRP1_PERIPH_SRAM1
 824:Drivers/STM32WLxx_HAL_Driver/Inc/stm32wlxx_ll_bus.h ****   *         @arg @ref LL_AHB3_GRP1_PERIPH_SRAM2
 825:Drivers/STM32WLxx_HAL_Driver/Inc/stm32wlxx_ll_bus.h ****   *         @arg @ref LL_AHB3_GRP1_PERIPH_FLASH
 826:Drivers/STM32WLxx_HAL_Driver/Inc/stm32wlxx_ll_bus.h ****   * @retval None
 827:Drivers/STM32WLxx_HAL_Driver/Inc/stm32wlxx_ll_bus.h ****   */
 828:Drivers/STM32WLxx_HAL_Driver/Inc/stm32wlxx_ll_bus.h **** __STATIC_INLINE void LL_AHB3_GRP1_EnableClockSleep(uint32_t Periphs)
 829:Drivers/STM32WLxx_HAL_Driver/Inc/stm32wlxx_ll_bus.h **** {
 830:Drivers/STM32WLxx_HAL_Driver/Inc/stm32wlxx_ll_bus.h ****   __IO uint32_t tmpreg;
 831:Drivers/STM32WLxx_HAL_Driver/Inc/stm32wlxx_ll_bus.h ****   SET_BIT(RCC->AHB3SMENR, Periphs);
 832:Drivers/STM32WLxx_HAL_Driver/Inc/stm32wlxx_ll_bus.h ****   /* Delay after an RCC peripheral clock enabling */
 833:Drivers/STM32WLxx_HAL_Driver/Inc/stm32wlxx_ll_bus.h ****   tmpreg = READ_BIT(RCC->AHB3SMENR, Periphs);
 834:Drivers/STM32WLxx_HAL_Driver/Inc/stm32wlxx_ll_bus.h ****   (void)tmpreg;
 835:Drivers/STM32WLxx_HAL_Driver/Inc/stm32wlxx_ll_bus.h **** }
 836:Drivers/STM32WLxx_HAL_Driver/Inc/stm32wlxx_ll_bus.h **** 
 837:Drivers/STM32WLxx_HAL_Driver/Inc/stm32wlxx_ll_bus.h **** /**
 838:Drivers/STM32WLxx_HAL_Driver/Inc/stm32wlxx_ll_bus.h ****   * @brief  Check if AHB3 peripheral clock is enabled by the clock gating during CPU1 CSleep mode
 839:Drivers/STM32WLxx_HAL_Driver/Inc/stm32wlxx_ll_bus.h ****   * @rmtoll AHB3SMENR    PKASMEN       LL_AHB3_GRP1_IsEnabledClockSleep\n
 840:Drivers/STM32WLxx_HAL_Driver/Inc/stm32wlxx_ll_bus.h ****   *         AHB3SMENR    AESSMEN       LL_AHB3_GRP1_IsEnabledClockSleep\n
 841:Drivers/STM32WLxx_HAL_Driver/Inc/stm32wlxx_ll_bus.h ****   *         AHB3SMENR    RNGSMEN       LL_AHB3_GRP1_IsEnabledClockSleep\n
 842:Drivers/STM32WLxx_HAL_Driver/Inc/stm32wlxx_ll_bus.h ****   *         AHB1SMENR    SRAM1SMEN     LL_AHB3_GRP1_IsEnabledClockSleep\n
 843:Drivers/STM32WLxx_HAL_Driver/Inc/stm32wlxx_ll_bus.h ****   *         AHB3SMENR    SRAM2SMEN     LL_AHB3_GRP1_IsEnabledClockSleep\n
 844:Drivers/STM32WLxx_HAL_Driver/Inc/stm32wlxx_ll_bus.h ****   *         AHB3SMENR    FLASHSMEN     LL_AHB3_GRP1_IsEnabledClockSleep
 845:Drivers/STM32WLxx_HAL_Driver/Inc/stm32wlxx_ll_bus.h ****   * @param  Periphs This parameter can be a combination of the following values:
 846:Drivers/STM32WLxx_HAL_Driver/Inc/stm32wlxx_ll_bus.h ****   *         @arg @ref LL_AHB3_GRP1_PERIPH_PKA
 847:Drivers/STM32WLxx_HAL_Driver/Inc/stm32wlxx_ll_bus.h ****   *         @arg @ref LL_AHB3_GRP1_PERIPH_AES
 848:Drivers/STM32WLxx_HAL_Driver/Inc/stm32wlxx_ll_bus.h ****   *         @arg @ref LL_AHB3_GRP1_PERIPH_RNG
 849:Drivers/STM32WLxx_HAL_Driver/Inc/stm32wlxx_ll_bus.h ****   *         @arg @ref LL_AHB3_GRP1_PERIPH_SRAM1
 850:Drivers/STM32WLxx_HAL_Driver/Inc/stm32wlxx_ll_bus.h ****   *         @arg @ref LL_AHB3_GRP1_PERIPH_SRAM2
 851:Drivers/STM32WLxx_HAL_Driver/Inc/stm32wlxx_ll_bus.h ****   *         @arg @ref LL_AHB3_GRP1_PERIPH_FLASH
 852:Drivers/STM32WLxx_HAL_Driver/Inc/stm32wlxx_ll_bus.h ****   * @retval None
 853:Drivers/STM32WLxx_HAL_Driver/Inc/stm32wlxx_ll_bus.h ****   */
 854:Drivers/STM32WLxx_HAL_Driver/Inc/stm32wlxx_ll_bus.h **** __STATIC_INLINE uint32_t LL_AHB3_GRP1_IsEnabledClockSleep(uint32_t Periphs)
 855:Drivers/STM32WLxx_HAL_Driver/Inc/stm32wlxx_ll_bus.h **** {
 856:Drivers/STM32WLxx_HAL_Driver/Inc/stm32wlxx_ll_bus.h ****   return ((READ_BIT(RCC->AHB3SMENR, Periphs) == (Periphs)) ? 1UL : 0UL);
 857:Drivers/STM32WLxx_HAL_Driver/Inc/stm32wlxx_ll_bus.h **** }
 858:Drivers/STM32WLxx_HAL_Driver/Inc/stm32wlxx_ll_bus.h **** 
 859:Drivers/STM32WLxx_HAL_Driver/Inc/stm32wlxx_ll_bus.h **** /**
 860:Drivers/STM32WLxx_HAL_Driver/Inc/stm32wlxx_ll_bus.h ****   * @brief  Disable AHB3 peripherals clock during Low Power (Sleep) mode.
 861:Drivers/STM32WLxx_HAL_Driver/Inc/stm32wlxx_ll_bus.h ****   * @rmtoll AHB3SMENR    PKASMEN       LL_AHB3_GRP1_DisableClockSleep\n
 862:Drivers/STM32WLxx_HAL_Driver/Inc/stm32wlxx_ll_bus.h ****   *         AHB3SMENR    AESSMEN       LL_AHB3_GRP1_DisableClockSleep\n
 863:Drivers/STM32WLxx_HAL_Driver/Inc/stm32wlxx_ll_bus.h ****   *         AHB3SMENR    RNGSMEN       LL_AHB3_GRP1_DisableClockSleep\n
 864:Drivers/STM32WLxx_HAL_Driver/Inc/stm32wlxx_ll_bus.h ****   *         AHB3SMENR    SRAM1SMEN     LL_AHB3_GRP1_DisableClockSleep\n
 865:Drivers/STM32WLxx_HAL_Driver/Inc/stm32wlxx_ll_bus.h ****   *         AHB3SMENR    SRAM2SMEN     LL_AHB3_GRP1_DisableClockSleep\n
 866:Drivers/STM32WLxx_HAL_Driver/Inc/stm32wlxx_ll_bus.h ****   *         AHB3SMENR    FLASHSMEN     LL_AHB3_GRP1_DisableClockSleep
 867:Drivers/STM32WLxx_HAL_Driver/Inc/stm32wlxx_ll_bus.h ****   * @param  Periphs This parameter can be a combination of the following values:
 868:Drivers/STM32WLxx_HAL_Driver/Inc/stm32wlxx_ll_bus.h ****   *         @arg @ref LL_AHB3_GRP1_PERIPH_PKA
 869:Drivers/STM32WLxx_HAL_Driver/Inc/stm32wlxx_ll_bus.h ****   *         @arg @ref LL_AHB3_GRP1_PERIPH_AES
 870:Drivers/STM32WLxx_HAL_Driver/Inc/stm32wlxx_ll_bus.h ****   *         @arg @ref LL_AHB3_GRP1_PERIPH_RNG
 871:Drivers/STM32WLxx_HAL_Driver/Inc/stm32wlxx_ll_bus.h ****   *         @arg @ref LL_AHB3_GRP1_PERIPH_SRAM1
 872:Drivers/STM32WLxx_HAL_Driver/Inc/stm32wlxx_ll_bus.h ****   *         @arg @ref LL_AHB3_GRP1_PERIPH_SRAM2
 873:Drivers/STM32WLxx_HAL_Driver/Inc/stm32wlxx_ll_bus.h ****   *         @arg @ref LL_AHB3_GRP1_PERIPH_FLASH
 874:Drivers/STM32WLxx_HAL_Driver/Inc/stm32wlxx_ll_bus.h ****   * @retval None
 875:Drivers/STM32WLxx_HAL_Driver/Inc/stm32wlxx_ll_bus.h ****   */
ARM GAS  /var/folders/9y/n02fl3g16gnf7ppy14xghdy80000gn/T//ccTkjYAj.s 			page 21


 876:Drivers/STM32WLxx_HAL_Driver/Inc/stm32wlxx_ll_bus.h **** __STATIC_INLINE void LL_AHB3_GRP1_DisableClockSleep(uint32_t Periphs)
 877:Drivers/STM32WLxx_HAL_Driver/Inc/stm32wlxx_ll_bus.h **** {
 878:Drivers/STM32WLxx_HAL_Driver/Inc/stm32wlxx_ll_bus.h ****   CLEAR_BIT(RCC->AHB3SMENR, Periphs);
 879:Drivers/STM32WLxx_HAL_Driver/Inc/stm32wlxx_ll_bus.h **** }
 880:Drivers/STM32WLxx_HAL_Driver/Inc/stm32wlxx_ll_bus.h **** 
 881:Drivers/STM32WLxx_HAL_Driver/Inc/stm32wlxx_ll_bus.h **** /**
 882:Drivers/STM32WLxx_HAL_Driver/Inc/stm32wlxx_ll_bus.h ****   * @}
 883:Drivers/STM32WLxx_HAL_Driver/Inc/stm32wlxx_ll_bus.h ****   */
 884:Drivers/STM32WLxx_HAL_Driver/Inc/stm32wlxx_ll_bus.h **** 
 885:Drivers/STM32WLxx_HAL_Driver/Inc/stm32wlxx_ll_bus.h **** /** @defgroup BUS_LL_EF_APB1 APB1
 886:Drivers/STM32WLxx_HAL_Driver/Inc/stm32wlxx_ll_bus.h ****   * @{
 887:Drivers/STM32WLxx_HAL_Driver/Inc/stm32wlxx_ll_bus.h ****   */
 888:Drivers/STM32WLxx_HAL_Driver/Inc/stm32wlxx_ll_bus.h **** 
 889:Drivers/STM32WLxx_HAL_Driver/Inc/stm32wlxx_ll_bus.h **** /**
 890:Drivers/STM32WLxx_HAL_Driver/Inc/stm32wlxx_ll_bus.h ****   * @brief  Enable APB1 peripherals clock.
 891:Drivers/STM32WLxx_HAL_Driver/Inc/stm32wlxx_ll_bus.h ****   * @rmtoll APB1ENR1     TIM2EN        LL_APB1_GRP1_EnableClock\n
 892:Drivers/STM32WLxx_HAL_Driver/Inc/stm32wlxx_ll_bus.h ****   *         APB1ENR1     RTCAPBEN      LL_APB1_GRP1_EnableClock\n
 893:Drivers/STM32WLxx_HAL_Driver/Inc/stm32wlxx_ll_bus.h ****   *         APB1ENR1     WWDGEN        LL_APB1_GRP1_EnableClock\n
 894:Drivers/STM32WLxx_HAL_Driver/Inc/stm32wlxx_ll_bus.h ****   *         APB1ENR1     SPI2EN        LL_APB1_GRP1_EnableClock\n
 895:Drivers/STM32WLxx_HAL_Driver/Inc/stm32wlxx_ll_bus.h ****   *         APB1ENR1     USART2EN      LL_APB1_GRP1_EnableClock\n
 896:Drivers/STM32WLxx_HAL_Driver/Inc/stm32wlxx_ll_bus.h ****   *         APB1ENR1     I2C1EN        LL_APB1_GRP1_EnableClock\n
 897:Drivers/STM32WLxx_HAL_Driver/Inc/stm32wlxx_ll_bus.h ****   *         APB1ENR1     I2C2EN        LL_APB1_GRP1_EnableClock\n
 898:Drivers/STM32WLxx_HAL_Driver/Inc/stm32wlxx_ll_bus.h ****   *         APB1ENR1     I2C3EN        LL_APB1_GRP1_EnableClock\n
 899:Drivers/STM32WLxx_HAL_Driver/Inc/stm32wlxx_ll_bus.h ****   *         APB1ENR1     DACEN         LL_APB1_GRP1_EnableClock\n
 900:Drivers/STM32WLxx_HAL_Driver/Inc/stm32wlxx_ll_bus.h ****   *         APB1ENR1     LPTIM1EN      LL_APB1_GRP1_EnableClock
 901:Drivers/STM32WLxx_HAL_Driver/Inc/stm32wlxx_ll_bus.h ****   * @param  Periphs This parameter can be a combination of the following values:
 902:Drivers/STM32WLxx_HAL_Driver/Inc/stm32wlxx_ll_bus.h ****   *         @arg @ref LL_APB1_GRP1_PERIPH_TIM2
 903:Drivers/STM32WLxx_HAL_Driver/Inc/stm32wlxx_ll_bus.h ****   *         @arg @ref LL_APB1_GRP1_PERIPH_RTCAPB
 904:Drivers/STM32WLxx_HAL_Driver/Inc/stm32wlxx_ll_bus.h ****   *         @arg @ref LL_APB1_GRP1_PERIPH_WWDG
 905:Drivers/STM32WLxx_HAL_Driver/Inc/stm32wlxx_ll_bus.h ****   *         @arg @ref LL_APB1_GRP1_PERIPH_SPI2
 906:Drivers/STM32WLxx_HAL_Driver/Inc/stm32wlxx_ll_bus.h ****   *         @arg @ref LL_APB1_GRP1_PERIPH_USART2
 907:Drivers/STM32WLxx_HAL_Driver/Inc/stm32wlxx_ll_bus.h ****   *         @arg @ref LL_APB1_GRP1_PERIPH_I2C1
 908:Drivers/STM32WLxx_HAL_Driver/Inc/stm32wlxx_ll_bus.h ****   *         @arg @ref LL_APB1_GRP1_PERIPH_I2C2
 909:Drivers/STM32WLxx_HAL_Driver/Inc/stm32wlxx_ll_bus.h ****   *         @arg @ref LL_APB1_GRP1_PERIPH_I2C3
 910:Drivers/STM32WLxx_HAL_Driver/Inc/stm32wlxx_ll_bus.h ****   *         @arg @ref LL_APB1_GRP1_PERIPH_DAC
 911:Drivers/STM32WLxx_HAL_Driver/Inc/stm32wlxx_ll_bus.h ****   *         @arg @ref LL_APB1_GRP1_PERIPH_LPTIM1
 912:Drivers/STM32WLxx_HAL_Driver/Inc/stm32wlxx_ll_bus.h ****   * @retval None
 913:Drivers/STM32WLxx_HAL_Driver/Inc/stm32wlxx_ll_bus.h ****   */
 914:Drivers/STM32WLxx_HAL_Driver/Inc/stm32wlxx_ll_bus.h **** __STATIC_INLINE void LL_APB1_GRP1_EnableClock(uint32_t Periphs)
 184              		.loc 2 914 22 view .LVU59
 185              	.LBB55:
 915:Drivers/STM32WLxx_HAL_Driver/Inc/stm32wlxx_ll_bus.h **** {
 916:Drivers/STM32WLxx_HAL_Driver/Inc/stm32wlxx_ll_bus.h ****   __IO uint32_t tmpreg;
 186              		.loc 2 916 3 view .LVU60
 917:Drivers/STM32WLxx_HAL_Driver/Inc/stm32wlxx_ll_bus.h ****   SET_BIT(RCC->APB1ENR1, Periphs);
 187              		.loc 2 917 3 view .LVU61
 188 00a8 A36D     		ldr	r3, [r4, #88]
 189 00aa 43F48003 		orr	r3, r3, #4194304
 190 00ae A365     		str	r3, [r4, #88]
 918:Drivers/STM32WLxx_HAL_Driver/Inc/stm32wlxx_ll_bus.h ****   /* Delay after an RCC peripheral clock enabling */
 919:Drivers/STM32WLxx_HAL_Driver/Inc/stm32wlxx_ll_bus.h ****   tmpreg = READ_BIT(RCC->APB1ENR1, Periphs);
 191              		.loc 2 919 3 view .LVU62
 192              		.loc 2 919 12 is_stmt 0 view .LVU63
 193 00b0 A36D     		ldr	r3, [r4, #88]
 194 00b2 03F48003 		and	r3, r3, #4194304
 195              		.loc 2 919 10 view .LVU64
 196 00b6 0093     		str	r3, [sp]
ARM GAS  /var/folders/9y/n02fl3g16gnf7ppy14xghdy80000gn/T//ccTkjYAj.s 			page 22


 920:Drivers/STM32WLxx_HAL_Driver/Inc/stm32wlxx_ll_bus.h ****   (void)tmpreg;
 197              		.loc 2 920 3 is_stmt 1 view .LVU65
 198 00b8 009B     		ldr	r3, [sp]
 199              	.LVL7:
 200              		.loc 2 920 3 is_stmt 0 view .LVU66
 201              	.LBE55:
 202              	.LBE54:
  78:Core/Src/i2c.c **** 
  79:Core/Src/i2c.c ****   /* I2C2 DMA Init */
  80:Core/Src/i2c.c **** 
  81:Core/Src/i2c.c ****   /* I2C2_TX Init */
  82:Core/Src/i2c.c ****   LL_DMA_SetPeriphRequest(DMA1, LL_DMA_CHANNEL_2, LL_DMAMUX_REQ_I2C2_TX);
 203              		.loc 1 82 3 is_stmt 1 view .LVU67
 204              	.LBB56:
 205              	.LBI56:
 206              		.file 3 "Drivers/STM32WLxx_HAL_Driver/Inc/stm32wlxx_ll_dma.h"
   1:Drivers/STM32WLxx_HAL_Driver/Inc/stm32wlxx_ll_dma.h **** /**
   2:Drivers/STM32WLxx_HAL_Driver/Inc/stm32wlxx_ll_dma.h ****   ******************************************************************************
   3:Drivers/STM32WLxx_HAL_Driver/Inc/stm32wlxx_ll_dma.h ****   * @file    stm32wlxx_ll_dma.h
   4:Drivers/STM32WLxx_HAL_Driver/Inc/stm32wlxx_ll_dma.h ****   * @author  MCD Application Team
   5:Drivers/STM32WLxx_HAL_Driver/Inc/stm32wlxx_ll_dma.h ****   * @brief   Header file of DMA LL module.
   6:Drivers/STM32WLxx_HAL_Driver/Inc/stm32wlxx_ll_dma.h ****   ******************************************************************************
   7:Drivers/STM32WLxx_HAL_Driver/Inc/stm32wlxx_ll_dma.h ****   * @attention
   8:Drivers/STM32WLxx_HAL_Driver/Inc/stm32wlxx_ll_dma.h ****   *
   9:Drivers/STM32WLxx_HAL_Driver/Inc/stm32wlxx_ll_dma.h ****   * Copyright (c) 2020 STMicroelectronics.
  10:Drivers/STM32WLxx_HAL_Driver/Inc/stm32wlxx_ll_dma.h ****   * All rights reserved.
  11:Drivers/STM32WLxx_HAL_Driver/Inc/stm32wlxx_ll_dma.h ****   *
  12:Drivers/STM32WLxx_HAL_Driver/Inc/stm32wlxx_ll_dma.h ****   * This software is licensed under terms that can be found in the LICENSE file
  13:Drivers/STM32WLxx_HAL_Driver/Inc/stm32wlxx_ll_dma.h ****   * in the root directory of this software component.
  14:Drivers/STM32WLxx_HAL_Driver/Inc/stm32wlxx_ll_dma.h ****   * If no LICENSE file comes with this software, it is provided AS-IS.
  15:Drivers/STM32WLxx_HAL_Driver/Inc/stm32wlxx_ll_dma.h ****   *
  16:Drivers/STM32WLxx_HAL_Driver/Inc/stm32wlxx_ll_dma.h ****   ******************************************************************************
  17:Drivers/STM32WLxx_HAL_Driver/Inc/stm32wlxx_ll_dma.h ****   */
  18:Drivers/STM32WLxx_HAL_Driver/Inc/stm32wlxx_ll_dma.h **** 
  19:Drivers/STM32WLxx_HAL_Driver/Inc/stm32wlxx_ll_dma.h **** /* Define to prevent recursive inclusion -------------------------------------*/
  20:Drivers/STM32WLxx_HAL_Driver/Inc/stm32wlxx_ll_dma.h **** #ifndef STM32WLxx_LL_DMA_H
  21:Drivers/STM32WLxx_HAL_Driver/Inc/stm32wlxx_ll_dma.h **** #define STM32WLxx_LL_DMA_H
  22:Drivers/STM32WLxx_HAL_Driver/Inc/stm32wlxx_ll_dma.h **** 
  23:Drivers/STM32WLxx_HAL_Driver/Inc/stm32wlxx_ll_dma.h **** #ifdef __cplusplus
  24:Drivers/STM32WLxx_HAL_Driver/Inc/stm32wlxx_ll_dma.h **** extern "C" {
  25:Drivers/STM32WLxx_HAL_Driver/Inc/stm32wlxx_ll_dma.h **** #endif
  26:Drivers/STM32WLxx_HAL_Driver/Inc/stm32wlxx_ll_dma.h **** 
  27:Drivers/STM32WLxx_HAL_Driver/Inc/stm32wlxx_ll_dma.h **** /* Includes ------------------------------------------------------------------*/
  28:Drivers/STM32WLxx_HAL_Driver/Inc/stm32wlxx_ll_dma.h **** #include "stm32wlxx.h"
  29:Drivers/STM32WLxx_HAL_Driver/Inc/stm32wlxx_ll_dma.h **** #include "stm32wlxx_ll_dmamux.h"
  30:Drivers/STM32WLxx_HAL_Driver/Inc/stm32wlxx_ll_dma.h **** 
  31:Drivers/STM32WLxx_HAL_Driver/Inc/stm32wlxx_ll_dma.h **** /** @addtogroup STM32WLxx_LL_Driver
  32:Drivers/STM32WLxx_HAL_Driver/Inc/stm32wlxx_ll_dma.h ****   * @{
  33:Drivers/STM32WLxx_HAL_Driver/Inc/stm32wlxx_ll_dma.h ****   */
  34:Drivers/STM32WLxx_HAL_Driver/Inc/stm32wlxx_ll_dma.h **** 
  35:Drivers/STM32WLxx_HAL_Driver/Inc/stm32wlxx_ll_dma.h **** #if defined (DMA1) || defined (DMA2)
  36:Drivers/STM32WLxx_HAL_Driver/Inc/stm32wlxx_ll_dma.h **** 
  37:Drivers/STM32WLxx_HAL_Driver/Inc/stm32wlxx_ll_dma.h **** /** @defgroup DMA_LL DMA
  38:Drivers/STM32WLxx_HAL_Driver/Inc/stm32wlxx_ll_dma.h ****   * @{
  39:Drivers/STM32WLxx_HAL_Driver/Inc/stm32wlxx_ll_dma.h ****   */
  40:Drivers/STM32WLxx_HAL_Driver/Inc/stm32wlxx_ll_dma.h **** 
  41:Drivers/STM32WLxx_HAL_Driver/Inc/stm32wlxx_ll_dma.h **** /* Private types -------------------------------------------------------------*/
ARM GAS  /var/folders/9y/n02fl3g16gnf7ppy14xghdy80000gn/T//ccTkjYAj.s 			page 23


  42:Drivers/STM32WLxx_HAL_Driver/Inc/stm32wlxx_ll_dma.h **** /* Private variables ---------------------------------------------------------*/
  43:Drivers/STM32WLxx_HAL_Driver/Inc/stm32wlxx_ll_dma.h **** /** @defgroup DMA_LL_Private_Variables DMA Private Variables
  44:Drivers/STM32WLxx_HAL_Driver/Inc/stm32wlxx_ll_dma.h ****   * @{
  45:Drivers/STM32WLxx_HAL_Driver/Inc/stm32wlxx_ll_dma.h ****   */
  46:Drivers/STM32WLxx_HAL_Driver/Inc/stm32wlxx_ll_dma.h **** /* Array used to get the DMA channel register offset versus channel index LL_DMA_CHANNEL_x */
  47:Drivers/STM32WLxx_HAL_Driver/Inc/stm32wlxx_ll_dma.h **** static const uint8_t CHANNEL_OFFSET_TAB[] =
  48:Drivers/STM32WLxx_HAL_Driver/Inc/stm32wlxx_ll_dma.h **** {
  49:Drivers/STM32WLxx_HAL_Driver/Inc/stm32wlxx_ll_dma.h ****   (uint8_t)(DMA1_Channel1_BASE - DMA1_BASE),
  50:Drivers/STM32WLxx_HAL_Driver/Inc/stm32wlxx_ll_dma.h ****   (uint8_t)(DMA1_Channel2_BASE - DMA1_BASE),
  51:Drivers/STM32WLxx_HAL_Driver/Inc/stm32wlxx_ll_dma.h ****   (uint8_t)(DMA1_Channel3_BASE - DMA1_BASE),
  52:Drivers/STM32WLxx_HAL_Driver/Inc/stm32wlxx_ll_dma.h ****   (uint8_t)(DMA1_Channel4_BASE - DMA1_BASE),
  53:Drivers/STM32WLxx_HAL_Driver/Inc/stm32wlxx_ll_dma.h ****   (uint8_t)(DMA1_Channel5_BASE - DMA1_BASE),
  54:Drivers/STM32WLxx_HAL_Driver/Inc/stm32wlxx_ll_dma.h ****   (uint8_t)(DMA1_Channel6_BASE - DMA1_BASE),
  55:Drivers/STM32WLxx_HAL_Driver/Inc/stm32wlxx_ll_dma.h ****   (uint8_t)(DMA1_Channel7_BASE - DMA1_BASE),
  56:Drivers/STM32WLxx_HAL_Driver/Inc/stm32wlxx_ll_dma.h **** };
  57:Drivers/STM32WLxx_HAL_Driver/Inc/stm32wlxx_ll_dma.h **** /**
  58:Drivers/STM32WLxx_HAL_Driver/Inc/stm32wlxx_ll_dma.h ****   * @}
  59:Drivers/STM32WLxx_HAL_Driver/Inc/stm32wlxx_ll_dma.h ****   */
  60:Drivers/STM32WLxx_HAL_Driver/Inc/stm32wlxx_ll_dma.h **** 
  61:Drivers/STM32WLxx_HAL_Driver/Inc/stm32wlxx_ll_dma.h **** /* Private constants ---------------------------------------------------------*/
  62:Drivers/STM32WLxx_HAL_Driver/Inc/stm32wlxx_ll_dma.h **** /* Private macros ------------------------------------------------------------*/
  63:Drivers/STM32WLxx_HAL_Driver/Inc/stm32wlxx_ll_dma.h **** 
  64:Drivers/STM32WLxx_HAL_Driver/Inc/stm32wlxx_ll_dma.h **** /** @defgroup DMA_LL_Private_Macros DMA Private Macros
  65:Drivers/STM32WLxx_HAL_Driver/Inc/stm32wlxx_ll_dma.h ****   * @{
  66:Drivers/STM32WLxx_HAL_Driver/Inc/stm32wlxx_ll_dma.h ****   */
  67:Drivers/STM32WLxx_HAL_Driver/Inc/stm32wlxx_ll_dma.h **** /**
  68:Drivers/STM32WLxx_HAL_Driver/Inc/stm32wlxx_ll_dma.h ****   * @brief  Helper macro to convert DMA Instance DMAx into DMAMUX channel
  69:Drivers/STM32WLxx_HAL_Driver/Inc/stm32wlxx_ll_dma.h ****   * @note   DMAMUX channel 0 to 6 are mapped to DMA1 channel 1 to 7.
  70:Drivers/STM32WLxx_HAL_Driver/Inc/stm32wlxx_ll_dma.h ****   *         DMAMUX channel 7 to 13 are mapped to DMA2 channel 1 to 7.
  71:Drivers/STM32WLxx_HAL_Driver/Inc/stm32wlxx_ll_dma.h ****   * @param  __DMA_INSTANCE__ DMAx
  72:Drivers/STM32WLxx_HAL_Driver/Inc/stm32wlxx_ll_dma.h ****   * @retval Channel_Offset (LL_DMA_CHANNEL_7 or 0).
  73:Drivers/STM32WLxx_HAL_Driver/Inc/stm32wlxx_ll_dma.h ****   */
  74:Drivers/STM32WLxx_HAL_Driver/Inc/stm32wlxx_ll_dma.h **** #define __LL_DMA_INSTANCE_TO_DMAMUX_CHANNEL(__DMA_INSTANCE__)   \
  75:Drivers/STM32WLxx_HAL_Driver/Inc/stm32wlxx_ll_dma.h **** (((uint32_t)(__DMA_INSTANCE__) == ((uint32_t)DMA1)) ? 0 : LL_DMA_CHANNEL_7)
  76:Drivers/STM32WLxx_HAL_Driver/Inc/stm32wlxx_ll_dma.h **** /**
  77:Drivers/STM32WLxx_HAL_Driver/Inc/stm32wlxx_ll_dma.h ****   * @}
  78:Drivers/STM32WLxx_HAL_Driver/Inc/stm32wlxx_ll_dma.h ****   */
  79:Drivers/STM32WLxx_HAL_Driver/Inc/stm32wlxx_ll_dma.h **** /* Exported types ------------------------------------------------------------*/
  80:Drivers/STM32WLxx_HAL_Driver/Inc/stm32wlxx_ll_dma.h **** #if defined(USE_FULL_LL_DRIVER)
  81:Drivers/STM32WLxx_HAL_Driver/Inc/stm32wlxx_ll_dma.h **** /** @defgroup DMA_LL_ES_INIT DMA Exported Init structure
  82:Drivers/STM32WLxx_HAL_Driver/Inc/stm32wlxx_ll_dma.h ****   * @{
  83:Drivers/STM32WLxx_HAL_Driver/Inc/stm32wlxx_ll_dma.h ****   */
  84:Drivers/STM32WLxx_HAL_Driver/Inc/stm32wlxx_ll_dma.h **** typedef struct
  85:Drivers/STM32WLxx_HAL_Driver/Inc/stm32wlxx_ll_dma.h **** {
  86:Drivers/STM32WLxx_HAL_Driver/Inc/stm32wlxx_ll_dma.h ****   uint32_t PeriphOrM2MSrcAddress;  /*!< Specifies the peripheral base address for DMA transfer
  87:Drivers/STM32WLxx_HAL_Driver/Inc/stm32wlxx_ll_dma.h ****                                         or as Source base address in case of memory to memory trans
  88:Drivers/STM32WLxx_HAL_Driver/Inc/stm32wlxx_ll_dma.h **** 
  89:Drivers/STM32WLxx_HAL_Driver/Inc/stm32wlxx_ll_dma.h ****                                         This parameter must be a value between Min_Data = 0 and Max
  90:Drivers/STM32WLxx_HAL_Driver/Inc/stm32wlxx_ll_dma.h **** 
  91:Drivers/STM32WLxx_HAL_Driver/Inc/stm32wlxx_ll_dma.h ****   uint32_t MemoryOrM2MDstAddress;  /*!< Specifies the memory base address for DMA transfer
  92:Drivers/STM32WLxx_HAL_Driver/Inc/stm32wlxx_ll_dma.h ****                                         or as Destination base address in case of memory to memory 
  93:Drivers/STM32WLxx_HAL_Driver/Inc/stm32wlxx_ll_dma.h **** 
  94:Drivers/STM32WLxx_HAL_Driver/Inc/stm32wlxx_ll_dma.h ****                                         This parameter must be a value between Min_Data = 0 and Max
  95:Drivers/STM32WLxx_HAL_Driver/Inc/stm32wlxx_ll_dma.h **** 
  96:Drivers/STM32WLxx_HAL_Driver/Inc/stm32wlxx_ll_dma.h ****   uint32_t Direction;              /*!< Specifies if the data will be transferred from memory to pe
  97:Drivers/STM32WLxx_HAL_Driver/Inc/stm32wlxx_ll_dma.h ****                                         from memory to memory or from peripheral to memory.
  98:Drivers/STM32WLxx_HAL_Driver/Inc/stm32wlxx_ll_dma.h ****                                         This parameter can be a value of @ref DMA_LL_EC_DIRECTION
ARM GAS  /var/folders/9y/n02fl3g16gnf7ppy14xghdy80000gn/T//ccTkjYAj.s 			page 24


  99:Drivers/STM32WLxx_HAL_Driver/Inc/stm32wlxx_ll_dma.h **** 
 100:Drivers/STM32WLxx_HAL_Driver/Inc/stm32wlxx_ll_dma.h ****                                         This feature can be modified afterwards using unitary funct
 101:Drivers/STM32WLxx_HAL_Driver/Inc/stm32wlxx_ll_dma.h **** 
 102:Drivers/STM32WLxx_HAL_Driver/Inc/stm32wlxx_ll_dma.h ****   uint32_t Mode;                   /*!< Specifies the normal or circular operation mode.
 103:Drivers/STM32WLxx_HAL_Driver/Inc/stm32wlxx_ll_dma.h ****                                         This parameter can be a value of @ref DMA_LL_EC_MODE
 104:Drivers/STM32WLxx_HAL_Driver/Inc/stm32wlxx_ll_dma.h ****                                         @note: The circular buffer mode cannot be used if the memor
 105:Drivers/STM32WLxx_HAL_Driver/Inc/stm32wlxx_ll_dma.h ****                                                data transfer direction is configured on the selecte
 106:Drivers/STM32WLxx_HAL_Driver/Inc/stm32wlxx_ll_dma.h **** 
 107:Drivers/STM32WLxx_HAL_Driver/Inc/stm32wlxx_ll_dma.h ****                                         This feature can be modified afterwards using unitary funct
 108:Drivers/STM32WLxx_HAL_Driver/Inc/stm32wlxx_ll_dma.h **** 
 109:Drivers/STM32WLxx_HAL_Driver/Inc/stm32wlxx_ll_dma.h ****   uint32_t PeriphOrM2MSrcIncMode;  /*!< Specifies whether the Peripheral address or Source address 
 110:Drivers/STM32WLxx_HAL_Driver/Inc/stm32wlxx_ll_dma.h ****                                         is incremented or not.
 111:Drivers/STM32WLxx_HAL_Driver/Inc/stm32wlxx_ll_dma.h ****                                         This parameter can be a value of @ref DMA_LL_EC_PERIPH
 112:Drivers/STM32WLxx_HAL_Driver/Inc/stm32wlxx_ll_dma.h **** 
 113:Drivers/STM32WLxx_HAL_Driver/Inc/stm32wlxx_ll_dma.h ****                                         This feature can be modified afterwards using unitary funct
 114:Drivers/STM32WLxx_HAL_Driver/Inc/stm32wlxx_ll_dma.h **** 
 115:Drivers/STM32WLxx_HAL_Driver/Inc/stm32wlxx_ll_dma.h ****   uint32_t MemoryOrM2MDstIncMode;  /*!< Specifies whether the Memory address or Destination address
 116:Drivers/STM32WLxx_HAL_Driver/Inc/stm32wlxx_ll_dma.h ****                                         is incremented or not.
 117:Drivers/STM32WLxx_HAL_Driver/Inc/stm32wlxx_ll_dma.h ****                                         This parameter can be a value of @ref DMA_LL_EC_MEMORY
 118:Drivers/STM32WLxx_HAL_Driver/Inc/stm32wlxx_ll_dma.h **** 
 119:Drivers/STM32WLxx_HAL_Driver/Inc/stm32wlxx_ll_dma.h ****                                         This feature can be modified afterwards using unitary funct
 120:Drivers/STM32WLxx_HAL_Driver/Inc/stm32wlxx_ll_dma.h **** 
 121:Drivers/STM32WLxx_HAL_Driver/Inc/stm32wlxx_ll_dma.h ****   uint32_t PeriphOrM2MSrcDataSize; /*!< Specifies the Peripheral data size alignment or Source data
 122:Drivers/STM32WLxx_HAL_Driver/Inc/stm32wlxx_ll_dma.h ****                                         in case of memory to memory transfer direction.
 123:Drivers/STM32WLxx_HAL_Driver/Inc/stm32wlxx_ll_dma.h ****                                         This parameter can be a value of @ref DMA_LL_EC_PDATAALIGN
 124:Drivers/STM32WLxx_HAL_Driver/Inc/stm32wlxx_ll_dma.h **** 
 125:Drivers/STM32WLxx_HAL_Driver/Inc/stm32wlxx_ll_dma.h ****                                         This feature can be modified afterwards using unitary funct
 126:Drivers/STM32WLxx_HAL_Driver/Inc/stm32wlxx_ll_dma.h **** 
 127:Drivers/STM32WLxx_HAL_Driver/Inc/stm32wlxx_ll_dma.h ****   uint32_t MemoryOrM2MDstDataSize; /*!< Specifies the Memory data size alignment or Destination dat
 128:Drivers/STM32WLxx_HAL_Driver/Inc/stm32wlxx_ll_dma.h ****                                         in case of memory to memory transfer direction.
 129:Drivers/STM32WLxx_HAL_Driver/Inc/stm32wlxx_ll_dma.h ****                                         This parameter can be a value of @ref DMA_LL_EC_MDATAALIGN
 130:Drivers/STM32WLxx_HAL_Driver/Inc/stm32wlxx_ll_dma.h **** 
 131:Drivers/STM32WLxx_HAL_Driver/Inc/stm32wlxx_ll_dma.h ****                                         This feature can be modified afterwards using unitary funct
 132:Drivers/STM32WLxx_HAL_Driver/Inc/stm32wlxx_ll_dma.h **** 
 133:Drivers/STM32WLxx_HAL_Driver/Inc/stm32wlxx_ll_dma.h ****   uint32_t NbData;                 /*!< Specifies the number of data to transfer, in data unit.
 134:Drivers/STM32WLxx_HAL_Driver/Inc/stm32wlxx_ll_dma.h ****                                         The data unit is equal to the source buffer configuration s
 135:Drivers/STM32WLxx_HAL_Driver/Inc/stm32wlxx_ll_dma.h ****                                         or MemorySize parameters depending in the transfer directio
 136:Drivers/STM32WLxx_HAL_Driver/Inc/stm32wlxx_ll_dma.h ****                                         This parameter must be a value between Min_Data = 0 and Max
 137:Drivers/STM32WLxx_HAL_Driver/Inc/stm32wlxx_ll_dma.h **** 
 138:Drivers/STM32WLxx_HAL_Driver/Inc/stm32wlxx_ll_dma.h ****                                         This feature can be modified afterwards using unitary funct
 139:Drivers/STM32WLxx_HAL_Driver/Inc/stm32wlxx_ll_dma.h **** 
 140:Drivers/STM32WLxx_HAL_Driver/Inc/stm32wlxx_ll_dma.h ****   uint32_t PeriphRequest;          /*!< Specifies the peripheral request.
 141:Drivers/STM32WLxx_HAL_Driver/Inc/stm32wlxx_ll_dma.h ****                                         This parameter can be a value of @ref DMAMUX_LL_EC_REQUEST
 142:Drivers/STM32WLxx_HAL_Driver/Inc/stm32wlxx_ll_dma.h **** 
 143:Drivers/STM32WLxx_HAL_Driver/Inc/stm32wlxx_ll_dma.h ****                                         This feature can be modified afterwards using unitary funct
 144:Drivers/STM32WLxx_HAL_Driver/Inc/stm32wlxx_ll_dma.h **** 
 145:Drivers/STM32WLxx_HAL_Driver/Inc/stm32wlxx_ll_dma.h ****   uint32_t Priority;               /*!< Specifies the channel priority level.
 146:Drivers/STM32WLxx_HAL_Driver/Inc/stm32wlxx_ll_dma.h ****                                         This parameter can be a value of @ref DMA_LL_EC_PRIORITY
 147:Drivers/STM32WLxx_HAL_Driver/Inc/stm32wlxx_ll_dma.h **** 
 148:Drivers/STM32WLxx_HAL_Driver/Inc/stm32wlxx_ll_dma.h ****                                         This feature can be modified afterwards using unitary funct
 149:Drivers/STM32WLxx_HAL_Driver/Inc/stm32wlxx_ll_dma.h **** 
 150:Drivers/STM32WLxx_HAL_Driver/Inc/stm32wlxx_ll_dma.h **** } LL_DMA_InitTypeDef;
 151:Drivers/STM32WLxx_HAL_Driver/Inc/stm32wlxx_ll_dma.h **** /**
 152:Drivers/STM32WLxx_HAL_Driver/Inc/stm32wlxx_ll_dma.h ****   * @}
 153:Drivers/STM32WLxx_HAL_Driver/Inc/stm32wlxx_ll_dma.h ****   */
 154:Drivers/STM32WLxx_HAL_Driver/Inc/stm32wlxx_ll_dma.h **** #endif /*USE_FULL_LL_DRIVER*/
 155:Drivers/STM32WLxx_HAL_Driver/Inc/stm32wlxx_ll_dma.h **** 
ARM GAS  /var/folders/9y/n02fl3g16gnf7ppy14xghdy80000gn/T//ccTkjYAj.s 			page 25


 156:Drivers/STM32WLxx_HAL_Driver/Inc/stm32wlxx_ll_dma.h **** /* Exported constants --------------------------------------------------------*/
 157:Drivers/STM32WLxx_HAL_Driver/Inc/stm32wlxx_ll_dma.h **** /** @defgroup DMA_LL_Exported_Constants DMA Exported Constants
 158:Drivers/STM32WLxx_HAL_Driver/Inc/stm32wlxx_ll_dma.h ****   * @{
 159:Drivers/STM32WLxx_HAL_Driver/Inc/stm32wlxx_ll_dma.h ****   */
 160:Drivers/STM32WLxx_HAL_Driver/Inc/stm32wlxx_ll_dma.h **** /** @defgroup DMA_LL_EC_CLEAR_FLAG Clear Flags Defines
 161:Drivers/STM32WLxx_HAL_Driver/Inc/stm32wlxx_ll_dma.h ****   * @brief    Flags defines which can be used with LL_DMA_WriteReg function
 162:Drivers/STM32WLxx_HAL_Driver/Inc/stm32wlxx_ll_dma.h ****   * @{
 163:Drivers/STM32WLxx_HAL_Driver/Inc/stm32wlxx_ll_dma.h ****   */
 164:Drivers/STM32WLxx_HAL_Driver/Inc/stm32wlxx_ll_dma.h **** #define LL_DMA_IFCR_CGIF1                 DMA_IFCR_CGIF1        /*!< Channel 1 global flag         
 165:Drivers/STM32WLxx_HAL_Driver/Inc/stm32wlxx_ll_dma.h **** #define LL_DMA_IFCR_CTCIF1                DMA_IFCR_CTCIF1       /*!< Channel 1 transfer complete fl
 166:Drivers/STM32WLxx_HAL_Driver/Inc/stm32wlxx_ll_dma.h **** #define LL_DMA_IFCR_CHTIF1                DMA_IFCR_CHTIF1       /*!< Channel 1 half transfer flag  
 167:Drivers/STM32WLxx_HAL_Driver/Inc/stm32wlxx_ll_dma.h **** #define LL_DMA_IFCR_CTEIF1                DMA_IFCR_CTEIF1       /*!< Channel 1 transfer error flag 
 168:Drivers/STM32WLxx_HAL_Driver/Inc/stm32wlxx_ll_dma.h **** #define LL_DMA_IFCR_CGIF2                 DMA_IFCR_CGIF2        /*!< Channel 2 global flag         
 169:Drivers/STM32WLxx_HAL_Driver/Inc/stm32wlxx_ll_dma.h **** #define LL_DMA_IFCR_CTCIF2                DMA_IFCR_CTCIF2       /*!< Channel 2 transfer complete fl
 170:Drivers/STM32WLxx_HAL_Driver/Inc/stm32wlxx_ll_dma.h **** #define LL_DMA_IFCR_CHTIF2                DMA_IFCR_CHTIF2       /*!< Channel 2 half transfer flag  
 171:Drivers/STM32WLxx_HAL_Driver/Inc/stm32wlxx_ll_dma.h **** #define LL_DMA_IFCR_CTEIF2                DMA_IFCR_CTEIF2       /*!< Channel 2 transfer error flag 
 172:Drivers/STM32WLxx_HAL_Driver/Inc/stm32wlxx_ll_dma.h **** #define LL_DMA_IFCR_CGIF3                 DMA_IFCR_CGIF3        /*!< Channel 3 global flag         
 173:Drivers/STM32WLxx_HAL_Driver/Inc/stm32wlxx_ll_dma.h **** #define LL_DMA_IFCR_CTCIF3                DMA_IFCR_CTCIF3       /*!< Channel 3 transfer complete fl
 174:Drivers/STM32WLxx_HAL_Driver/Inc/stm32wlxx_ll_dma.h **** #define LL_DMA_IFCR_CHTIF3                DMA_IFCR_CHTIF3       /*!< Channel 3 half transfer flag  
 175:Drivers/STM32WLxx_HAL_Driver/Inc/stm32wlxx_ll_dma.h **** #define LL_DMA_IFCR_CTEIF3                DMA_IFCR_CTEIF3       /*!< Channel 3 transfer error flag 
 176:Drivers/STM32WLxx_HAL_Driver/Inc/stm32wlxx_ll_dma.h **** #define LL_DMA_IFCR_CGIF4                 DMA_IFCR_CGIF4        /*!< Channel 4 global flag         
 177:Drivers/STM32WLxx_HAL_Driver/Inc/stm32wlxx_ll_dma.h **** #define LL_DMA_IFCR_CTCIF4                DMA_IFCR_CTCIF4       /*!< Channel 4 transfer complete fl
 178:Drivers/STM32WLxx_HAL_Driver/Inc/stm32wlxx_ll_dma.h **** #define LL_DMA_IFCR_CHTIF4                DMA_IFCR_CHTIF4       /*!< Channel 4 half transfer flag  
 179:Drivers/STM32WLxx_HAL_Driver/Inc/stm32wlxx_ll_dma.h **** #define LL_DMA_IFCR_CTEIF4                DMA_IFCR_CTEIF4       /*!< Channel 4 transfer error flag 
 180:Drivers/STM32WLxx_HAL_Driver/Inc/stm32wlxx_ll_dma.h **** #define LL_DMA_IFCR_CGIF5                 DMA_IFCR_CGIF5        /*!< Channel 5 global flag         
 181:Drivers/STM32WLxx_HAL_Driver/Inc/stm32wlxx_ll_dma.h **** #define LL_DMA_IFCR_CTCIF5                DMA_IFCR_CTCIF5       /*!< Channel 5 transfer complete fl
 182:Drivers/STM32WLxx_HAL_Driver/Inc/stm32wlxx_ll_dma.h **** #define LL_DMA_IFCR_CHTIF5                DMA_IFCR_CHTIF5       /*!< Channel 5 half transfer flag  
 183:Drivers/STM32WLxx_HAL_Driver/Inc/stm32wlxx_ll_dma.h **** #define LL_DMA_IFCR_CTEIF5                DMA_IFCR_CTEIF5       /*!< Channel 5 transfer error flag 
 184:Drivers/STM32WLxx_HAL_Driver/Inc/stm32wlxx_ll_dma.h **** #define LL_DMA_IFCR_CGIF6                 DMA_IFCR_CGIF6        /*!< Channel 6 global flag         
 185:Drivers/STM32WLxx_HAL_Driver/Inc/stm32wlxx_ll_dma.h **** #define LL_DMA_IFCR_CTCIF6                DMA_IFCR_CTCIF6       /*!< Channel 6 transfer complete fl
 186:Drivers/STM32WLxx_HAL_Driver/Inc/stm32wlxx_ll_dma.h **** #define LL_DMA_IFCR_CHTIF6                DMA_IFCR_CHTIF6       /*!< Channel 6 half transfer flag  
 187:Drivers/STM32WLxx_HAL_Driver/Inc/stm32wlxx_ll_dma.h **** #define LL_DMA_IFCR_CTEIF6                DMA_IFCR_CTEIF6       /*!< Channel 6 transfer error flag 
 188:Drivers/STM32WLxx_HAL_Driver/Inc/stm32wlxx_ll_dma.h **** #define LL_DMA_IFCR_CGIF7                 DMA_IFCR_CGIF7        /*!< Channel 7 global flag         
 189:Drivers/STM32WLxx_HAL_Driver/Inc/stm32wlxx_ll_dma.h **** #define LL_DMA_IFCR_CTCIF7                DMA_IFCR_CTCIF7       /*!< Channel 7 transfer complete fl
 190:Drivers/STM32WLxx_HAL_Driver/Inc/stm32wlxx_ll_dma.h **** #define LL_DMA_IFCR_CHTIF7                DMA_IFCR_CHTIF7       /*!< Channel 7 half transfer flag  
 191:Drivers/STM32WLxx_HAL_Driver/Inc/stm32wlxx_ll_dma.h **** #define LL_DMA_IFCR_CTEIF7                DMA_IFCR_CTEIF7       /*!< Channel 7 transfer error flag 
 192:Drivers/STM32WLxx_HAL_Driver/Inc/stm32wlxx_ll_dma.h **** /**
 193:Drivers/STM32WLxx_HAL_Driver/Inc/stm32wlxx_ll_dma.h ****   * @}
 194:Drivers/STM32WLxx_HAL_Driver/Inc/stm32wlxx_ll_dma.h ****   */
 195:Drivers/STM32WLxx_HAL_Driver/Inc/stm32wlxx_ll_dma.h **** 
 196:Drivers/STM32WLxx_HAL_Driver/Inc/stm32wlxx_ll_dma.h **** /** @defgroup DMA_LL_EC_GET_FLAG Get Flags Defines
 197:Drivers/STM32WLxx_HAL_Driver/Inc/stm32wlxx_ll_dma.h ****   * @brief    Flags defines which can be used with LL_DMA_ReadReg function
 198:Drivers/STM32WLxx_HAL_Driver/Inc/stm32wlxx_ll_dma.h ****   * @{
 199:Drivers/STM32WLxx_HAL_Driver/Inc/stm32wlxx_ll_dma.h ****   */
 200:Drivers/STM32WLxx_HAL_Driver/Inc/stm32wlxx_ll_dma.h **** #define LL_DMA_ISR_GIF1                   DMA_ISR_GIF1          /*!< Channel 1 global flag         
 201:Drivers/STM32WLxx_HAL_Driver/Inc/stm32wlxx_ll_dma.h **** #define LL_DMA_ISR_TCIF1                  DMA_ISR_TCIF1         /*!< Channel 1 transfer complete fl
 202:Drivers/STM32WLxx_HAL_Driver/Inc/stm32wlxx_ll_dma.h **** #define LL_DMA_ISR_HTIF1                  DMA_ISR_HTIF1         /*!< Channel 1 half transfer flag  
 203:Drivers/STM32WLxx_HAL_Driver/Inc/stm32wlxx_ll_dma.h **** #define LL_DMA_ISR_TEIF1                  DMA_ISR_TEIF1         /*!< Channel 1 transfer error flag 
 204:Drivers/STM32WLxx_HAL_Driver/Inc/stm32wlxx_ll_dma.h **** #define LL_DMA_ISR_GIF2                   DMA_ISR_GIF2          /*!< Channel 2 global flag         
 205:Drivers/STM32WLxx_HAL_Driver/Inc/stm32wlxx_ll_dma.h **** #define LL_DMA_ISR_TCIF2                  DMA_ISR_TCIF2         /*!< Channel 2 transfer complete fl
 206:Drivers/STM32WLxx_HAL_Driver/Inc/stm32wlxx_ll_dma.h **** #define LL_DMA_ISR_HTIF2                  DMA_ISR_HTIF2         /*!< Channel 2 half transfer flag  
 207:Drivers/STM32WLxx_HAL_Driver/Inc/stm32wlxx_ll_dma.h **** #define LL_DMA_ISR_TEIF2                  DMA_ISR_TEIF2         /*!< Channel 2 transfer error flag 
 208:Drivers/STM32WLxx_HAL_Driver/Inc/stm32wlxx_ll_dma.h **** #define LL_DMA_ISR_GIF3                   DMA_ISR_GIF3          /*!< Channel 3 global flag         
 209:Drivers/STM32WLxx_HAL_Driver/Inc/stm32wlxx_ll_dma.h **** #define LL_DMA_ISR_TCIF3                  DMA_ISR_TCIF3         /*!< Channel 3 transfer complete fl
 210:Drivers/STM32WLxx_HAL_Driver/Inc/stm32wlxx_ll_dma.h **** #define LL_DMA_ISR_HTIF3                  DMA_ISR_HTIF3         /*!< Channel 3 half transfer flag  
 211:Drivers/STM32WLxx_HAL_Driver/Inc/stm32wlxx_ll_dma.h **** #define LL_DMA_ISR_TEIF3                  DMA_ISR_TEIF3         /*!< Channel 3 transfer error flag 
 212:Drivers/STM32WLxx_HAL_Driver/Inc/stm32wlxx_ll_dma.h **** #define LL_DMA_ISR_GIF4                   DMA_ISR_GIF4          /*!< Channel 4 global flag         
ARM GAS  /var/folders/9y/n02fl3g16gnf7ppy14xghdy80000gn/T//ccTkjYAj.s 			page 26


 213:Drivers/STM32WLxx_HAL_Driver/Inc/stm32wlxx_ll_dma.h **** #define LL_DMA_ISR_TCIF4                  DMA_ISR_TCIF4         /*!< Channel 4 transfer complete fl
 214:Drivers/STM32WLxx_HAL_Driver/Inc/stm32wlxx_ll_dma.h **** #define LL_DMA_ISR_HTIF4                  DMA_ISR_HTIF4         /*!< Channel 4 half transfer flag  
 215:Drivers/STM32WLxx_HAL_Driver/Inc/stm32wlxx_ll_dma.h **** #define LL_DMA_ISR_TEIF4                  DMA_ISR_TEIF4         /*!< Channel 4 transfer error flag 
 216:Drivers/STM32WLxx_HAL_Driver/Inc/stm32wlxx_ll_dma.h **** #define LL_DMA_ISR_GIF5                   DMA_ISR_GIF5          /*!< Channel 5 global flag         
 217:Drivers/STM32WLxx_HAL_Driver/Inc/stm32wlxx_ll_dma.h **** #define LL_DMA_ISR_TCIF5                  DMA_ISR_TCIF5         /*!< Channel 5 transfer complete fl
 218:Drivers/STM32WLxx_HAL_Driver/Inc/stm32wlxx_ll_dma.h **** #define LL_DMA_ISR_HTIF5                  DMA_ISR_HTIF5         /*!< Channel 5 half transfer flag  
 219:Drivers/STM32WLxx_HAL_Driver/Inc/stm32wlxx_ll_dma.h **** #define LL_DMA_ISR_TEIF5                  DMA_ISR_TEIF5         /*!< Channel 5 transfer error flag 
 220:Drivers/STM32WLxx_HAL_Driver/Inc/stm32wlxx_ll_dma.h **** #define LL_DMA_ISR_GIF6                   DMA_ISR_GIF6          /*!< Channel 6 global flag         
 221:Drivers/STM32WLxx_HAL_Driver/Inc/stm32wlxx_ll_dma.h **** #define LL_DMA_ISR_TCIF6                  DMA_ISR_TCIF6         /*!< Channel 6 transfer complete fl
 222:Drivers/STM32WLxx_HAL_Driver/Inc/stm32wlxx_ll_dma.h **** #define LL_DMA_ISR_HTIF6                  DMA_ISR_HTIF6         /*!< Channel 6 half transfer flag  
 223:Drivers/STM32WLxx_HAL_Driver/Inc/stm32wlxx_ll_dma.h **** #define LL_DMA_ISR_TEIF6                  DMA_ISR_TEIF6         /*!< Channel 6 transfer error flag 
 224:Drivers/STM32WLxx_HAL_Driver/Inc/stm32wlxx_ll_dma.h **** #define LL_DMA_ISR_GIF7                   DMA_ISR_GIF7          /*!< Channel 7 global flag         
 225:Drivers/STM32WLxx_HAL_Driver/Inc/stm32wlxx_ll_dma.h **** #define LL_DMA_ISR_TCIF7                  DMA_ISR_TCIF7         /*!< Channel 7 transfer complete fl
 226:Drivers/STM32WLxx_HAL_Driver/Inc/stm32wlxx_ll_dma.h **** #define LL_DMA_ISR_HTIF7                  DMA_ISR_HTIF7         /*!< Channel 7 half transfer flag  
 227:Drivers/STM32WLxx_HAL_Driver/Inc/stm32wlxx_ll_dma.h **** #define LL_DMA_ISR_TEIF7                  DMA_ISR_TEIF7         /*!< Channel 7 transfer error flag 
 228:Drivers/STM32WLxx_HAL_Driver/Inc/stm32wlxx_ll_dma.h **** /**
 229:Drivers/STM32WLxx_HAL_Driver/Inc/stm32wlxx_ll_dma.h ****   * @}
 230:Drivers/STM32WLxx_HAL_Driver/Inc/stm32wlxx_ll_dma.h ****   */
 231:Drivers/STM32WLxx_HAL_Driver/Inc/stm32wlxx_ll_dma.h **** 
 232:Drivers/STM32WLxx_HAL_Driver/Inc/stm32wlxx_ll_dma.h **** /** @defgroup DMA_LL_EC_IT IT Defines
 233:Drivers/STM32WLxx_HAL_Driver/Inc/stm32wlxx_ll_dma.h ****   * @brief    IT defines which can be used with LL_DMA_ReadReg and  LL_DMA_WriteReg functions
 234:Drivers/STM32WLxx_HAL_Driver/Inc/stm32wlxx_ll_dma.h ****   * @{
 235:Drivers/STM32WLxx_HAL_Driver/Inc/stm32wlxx_ll_dma.h ****   */
 236:Drivers/STM32WLxx_HAL_Driver/Inc/stm32wlxx_ll_dma.h **** #define LL_DMA_CCR_TCIE                   DMA_CCR_TCIE          /*!< Transfer complete interrupt */
 237:Drivers/STM32WLxx_HAL_Driver/Inc/stm32wlxx_ll_dma.h **** #define LL_DMA_CCR_HTIE                   DMA_CCR_HTIE          /*!< Half Transfer interrupt     */
 238:Drivers/STM32WLxx_HAL_Driver/Inc/stm32wlxx_ll_dma.h **** #define LL_DMA_CCR_TEIE                   DMA_CCR_TEIE          /*!< Transfer error interrupt    */
 239:Drivers/STM32WLxx_HAL_Driver/Inc/stm32wlxx_ll_dma.h **** /**
 240:Drivers/STM32WLxx_HAL_Driver/Inc/stm32wlxx_ll_dma.h ****   * @}
 241:Drivers/STM32WLxx_HAL_Driver/Inc/stm32wlxx_ll_dma.h ****   */
 242:Drivers/STM32WLxx_HAL_Driver/Inc/stm32wlxx_ll_dma.h **** 
 243:Drivers/STM32WLxx_HAL_Driver/Inc/stm32wlxx_ll_dma.h **** /** @defgroup DMA_LL_EC_CHANNEL CHANNEL
 244:Drivers/STM32WLxx_HAL_Driver/Inc/stm32wlxx_ll_dma.h ****   * @{
 245:Drivers/STM32WLxx_HAL_Driver/Inc/stm32wlxx_ll_dma.h ****   */
 246:Drivers/STM32WLxx_HAL_Driver/Inc/stm32wlxx_ll_dma.h **** #define LL_DMA_CHANNEL_1                  0x00000000U /*!< DMA Channel 1 */
 247:Drivers/STM32WLxx_HAL_Driver/Inc/stm32wlxx_ll_dma.h **** #define LL_DMA_CHANNEL_2                  0x00000001U /*!< DMA Channel 2 */
 248:Drivers/STM32WLxx_HAL_Driver/Inc/stm32wlxx_ll_dma.h **** #define LL_DMA_CHANNEL_3                  0x00000002U /*!< DMA Channel 3 */
 249:Drivers/STM32WLxx_HAL_Driver/Inc/stm32wlxx_ll_dma.h **** #define LL_DMA_CHANNEL_4                  0x00000003U /*!< DMA Channel 4 */
 250:Drivers/STM32WLxx_HAL_Driver/Inc/stm32wlxx_ll_dma.h **** #define LL_DMA_CHANNEL_5                  0x00000004U /*!< DMA Channel 5 */
 251:Drivers/STM32WLxx_HAL_Driver/Inc/stm32wlxx_ll_dma.h **** #define LL_DMA_CHANNEL_6                  0x00000005U /*!< DMA Channel 6 */
 252:Drivers/STM32WLxx_HAL_Driver/Inc/stm32wlxx_ll_dma.h **** #define LL_DMA_CHANNEL_7                  0x00000006U /*!< DMA Channel 7 */
 253:Drivers/STM32WLxx_HAL_Driver/Inc/stm32wlxx_ll_dma.h **** #if defined(USE_FULL_LL_DRIVER)
 254:Drivers/STM32WLxx_HAL_Driver/Inc/stm32wlxx_ll_dma.h **** #define LL_DMA_CHANNEL_ALL                0xFFFF0000U /*!< DMA Channel all (used only for function 
 255:Drivers/STM32WLxx_HAL_Driver/Inc/stm32wlxx_ll_dma.h **** #endif /*USE_FULL_LL_DRIVER*/
 256:Drivers/STM32WLxx_HAL_Driver/Inc/stm32wlxx_ll_dma.h **** /**
 257:Drivers/STM32WLxx_HAL_Driver/Inc/stm32wlxx_ll_dma.h ****   * @}
 258:Drivers/STM32WLxx_HAL_Driver/Inc/stm32wlxx_ll_dma.h ****   */
 259:Drivers/STM32WLxx_HAL_Driver/Inc/stm32wlxx_ll_dma.h **** 
 260:Drivers/STM32WLxx_HAL_Driver/Inc/stm32wlxx_ll_dma.h **** /** @defgroup DMA_LL_EC_DIRECTION Transfer Direction
 261:Drivers/STM32WLxx_HAL_Driver/Inc/stm32wlxx_ll_dma.h ****   * @{
 262:Drivers/STM32WLxx_HAL_Driver/Inc/stm32wlxx_ll_dma.h ****   */
 263:Drivers/STM32WLxx_HAL_Driver/Inc/stm32wlxx_ll_dma.h **** #define LL_DMA_DIRECTION_PERIPH_TO_MEMORY 0x00000000U             /*!< Peripheral to memory directi
 264:Drivers/STM32WLxx_HAL_Driver/Inc/stm32wlxx_ll_dma.h **** #define LL_DMA_DIRECTION_MEMORY_TO_PERIPH DMA_CCR_DIR             /*!< Memory to peripheral directi
 265:Drivers/STM32WLxx_HAL_Driver/Inc/stm32wlxx_ll_dma.h **** #define LL_DMA_DIRECTION_MEMORY_TO_MEMORY DMA_CCR_MEM2MEM         /*!< Memory to memory direction  
 266:Drivers/STM32WLxx_HAL_Driver/Inc/stm32wlxx_ll_dma.h **** /**
 267:Drivers/STM32WLxx_HAL_Driver/Inc/stm32wlxx_ll_dma.h ****   * @}
 268:Drivers/STM32WLxx_HAL_Driver/Inc/stm32wlxx_ll_dma.h ****   */
 269:Drivers/STM32WLxx_HAL_Driver/Inc/stm32wlxx_ll_dma.h **** 
ARM GAS  /var/folders/9y/n02fl3g16gnf7ppy14xghdy80000gn/T//ccTkjYAj.s 			page 27


 270:Drivers/STM32WLxx_HAL_Driver/Inc/stm32wlxx_ll_dma.h **** /** @defgroup DMA_LL_EC_MODE Transfer mode
 271:Drivers/STM32WLxx_HAL_Driver/Inc/stm32wlxx_ll_dma.h ****   * @{
 272:Drivers/STM32WLxx_HAL_Driver/Inc/stm32wlxx_ll_dma.h ****   */
 273:Drivers/STM32WLxx_HAL_Driver/Inc/stm32wlxx_ll_dma.h **** #define LL_DMA_MODE_NORMAL                0x00000000U             /*!< Normal Mode                 
 274:Drivers/STM32WLxx_HAL_Driver/Inc/stm32wlxx_ll_dma.h **** #define LL_DMA_MODE_CIRCULAR              DMA_CCR_CIRC            /*!< Circular Mode               
 275:Drivers/STM32WLxx_HAL_Driver/Inc/stm32wlxx_ll_dma.h **** /**
 276:Drivers/STM32WLxx_HAL_Driver/Inc/stm32wlxx_ll_dma.h ****   * @}
 277:Drivers/STM32WLxx_HAL_Driver/Inc/stm32wlxx_ll_dma.h ****   */
 278:Drivers/STM32WLxx_HAL_Driver/Inc/stm32wlxx_ll_dma.h **** 
 279:Drivers/STM32WLxx_HAL_Driver/Inc/stm32wlxx_ll_dma.h **** /** @defgroup DMA_LL_EC_PERIPH Peripheral increment mode
 280:Drivers/STM32WLxx_HAL_Driver/Inc/stm32wlxx_ll_dma.h ****   * @{
 281:Drivers/STM32WLxx_HAL_Driver/Inc/stm32wlxx_ll_dma.h ****   */
 282:Drivers/STM32WLxx_HAL_Driver/Inc/stm32wlxx_ll_dma.h **** #define LL_DMA_PERIPH_INCREMENT           DMA_CCR_PINC            /*!< Peripheral increment mode En
 283:Drivers/STM32WLxx_HAL_Driver/Inc/stm32wlxx_ll_dma.h **** #define LL_DMA_PERIPH_NOINCREMENT         0x00000000U             /*!< Peripheral increment mode Di
 284:Drivers/STM32WLxx_HAL_Driver/Inc/stm32wlxx_ll_dma.h **** /**
 285:Drivers/STM32WLxx_HAL_Driver/Inc/stm32wlxx_ll_dma.h ****   * @}
 286:Drivers/STM32WLxx_HAL_Driver/Inc/stm32wlxx_ll_dma.h ****   */
 287:Drivers/STM32WLxx_HAL_Driver/Inc/stm32wlxx_ll_dma.h **** 
 288:Drivers/STM32WLxx_HAL_Driver/Inc/stm32wlxx_ll_dma.h **** /** @defgroup DMA_LL_EC_MEMORY Memory increment mode
 289:Drivers/STM32WLxx_HAL_Driver/Inc/stm32wlxx_ll_dma.h ****   * @{
 290:Drivers/STM32WLxx_HAL_Driver/Inc/stm32wlxx_ll_dma.h ****   */
 291:Drivers/STM32WLxx_HAL_Driver/Inc/stm32wlxx_ll_dma.h **** #define LL_DMA_MEMORY_INCREMENT           DMA_CCR_MINC            /*!< Memory increment mode Enable
 292:Drivers/STM32WLxx_HAL_Driver/Inc/stm32wlxx_ll_dma.h **** #define LL_DMA_MEMORY_NOINCREMENT         0x00000000U             /*!< Memory increment mode Disabl
 293:Drivers/STM32WLxx_HAL_Driver/Inc/stm32wlxx_ll_dma.h **** /**
 294:Drivers/STM32WLxx_HAL_Driver/Inc/stm32wlxx_ll_dma.h ****   * @}
 295:Drivers/STM32WLxx_HAL_Driver/Inc/stm32wlxx_ll_dma.h ****   */
 296:Drivers/STM32WLxx_HAL_Driver/Inc/stm32wlxx_ll_dma.h **** 
 297:Drivers/STM32WLxx_HAL_Driver/Inc/stm32wlxx_ll_dma.h **** /** @defgroup DMA_LL_EC_PDATAALIGN Peripheral data alignment
 298:Drivers/STM32WLxx_HAL_Driver/Inc/stm32wlxx_ll_dma.h ****   * @{
 299:Drivers/STM32WLxx_HAL_Driver/Inc/stm32wlxx_ll_dma.h ****   */
 300:Drivers/STM32WLxx_HAL_Driver/Inc/stm32wlxx_ll_dma.h **** #define LL_DMA_PDATAALIGN_BYTE            0x00000000U             /*!< Peripheral data alignment : 
 301:Drivers/STM32WLxx_HAL_Driver/Inc/stm32wlxx_ll_dma.h **** #define LL_DMA_PDATAALIGN_HALFWORD        DMA_CCR_PSIZE_0         /*!< Peripheral data alignment : 
 302:Drivers/STM32WLxx_HAL_Driver/Inc/stm32wlxx_ll_dma.h **** #define LL_DMA_PDATAALIGN_WORD            DMA_CCR_PSIZE_1         /*!< Peripheral data alignment : 
 303:Drivers/STM32WLxx_HAL_Driver/Inc/stm32wlxx_ll_dma.h **** /**
 304:Drivers/STM32WLxx_HAL_Driver/Inc/stm32wlxx_ll_dma.h ****   * @}
 305:Drivers/STM32WLxx_HAL_Driver/Inc/stm32wlxx_ll_dma.h ****   */
 306:Drivers/STM32WLxx_HAL_Driver/Inc/stm32wlxx_ll_dma.h **** 
 307:Drivers/STM32WLxx_HAL_Driver/Inc/stm32wlxx_ll_dma.h **** /** @defgroup DMA_LL_EC_MDATAALIGN Memory data alignment
 308:Drivers/STM32WLxx_HAL_Driver/Inc/stm32wlxx_ll_dma.h ****   * @{
 309:Drivers/STM32WLxx_HAL_Driver/Inc/stm32wlxx_ll_dma.h ****   */
 310:Drivers/STM32WLxx_HAL_Driver/Inc/stm32wlxx_ll_dma.h **** #define LL_DMA_MDATAALIGN_BYTE            0x00000000U             /*!< Memory data alignment : Byte
 311:Drivers/STM32WLxx_HAL_Driver/Inc/stm32wlxx_ll_dma.h **** #define LL_DMA_MDATAALIGN_HALFWORD        DMA_CCR_MSIZE_0         /*!< Memory data alignment : Half
 312:Drivers/STM32WLxx_HAL_Driver/Inc/stm32wlxx_ll_dma.h **** #define LL_DMA_MDATAALIGN_WORD            DMA_CCR_MSIZE_1         /*!< Memory data alignment : Word
 313:Drivers/STM32WLxx_HAL_Driver/Inc/stm32wlxx_ll_dma.h **** /**
 314:Drivers/STM32WLxx_HAL_Driver/Inc/stm32wlxx_ll_dma.h ****   * @}
 315:Drivers/STM32WLxx_HAL_Driver/Inc/stm32wlxx_ll_dma.h ****   */
 316:Drivers/STM32WLxx_HAL_Driver/Inc/stm32wlxx_ll_dma.h **** 
 317:Drivers/STM32WLxx_HAL_Driver/Inc/stm32wlxx_ll_dma.h **** /** @defgroup DMA_LL_EC_PRIORITY Transfer Priority level
 318:Drivers/STM32WLxx_HAL_Driver/Inc/stm32wlxx_ll_dma.h ****   * @{
 319:Drivers/STM32WLxx_HAL_Driver/Inc/stm32wlxx_ll_dma.h ****   */
 320:Drivers/STM32WLxx_HAL_Driver/Inc/stm32wlxx_ll_dma.h **** #define LL_DMA_PRIORITY_LOW               0x00000000U             /*!< Priority level : Low       *
 321:Drivers/STM32WLxx_HAL_Driver/Inc/stm32wlxx_ll_dma.h **** #define LL_DMA_PRIORITY_MEDIUM            DMA_CCR_PL_0            /*!< Priority level : Medium    *
 322:Drivers/STM32WLxx_HAL_Driver/Inc/stm32wlxx_ll_dma.h **** #define LL_DMA_PRIORITY_HIGH              DMA_CCR_PL_1            /*!< Priority level : High      *
 323:Drivers/STM32WLxx_HAL_Driver/Inc/stm32wlxx_ll_dma.h **** #define LL_DMA_PRIORITY_VERYHIGH          DMA_CCR_PL              /*!< Priority level : Very_High *
 324:Drivers/STM32WLxx_HAL_Driver/Inc/stm32wlxx_ll_dma.h **** /**
 325:Drivers/STM32WLxx_HAL_Driver/Inc/stm32wlxx_ll_dma.h ****   * @}
 326:Drivers/STM32WLxx_HAL_Driver/Inc/stm32wlxx_ll_dma.h ****   */
ARM GAS  /var/folders/9y/n02fl3g16gnf7ppy14xghdy80000gn/T//ccTkjYAj.s 			page 28


 327:Drivers/STM32WLxx_HAL_Driver/Inc/stm32wlxx_ll_dma.h **** 
 328:Drivers/STM32WLxx_HAL_Driver/Inc/stm32wlxx_ll_dma.h **** #if defined(DMA_CCR_SECM)
 329:Drivers/STM32WLxx_HAL_Driver/Inc/stm32wlxx_ll_dma.h **** /** @defgroup DMA_LL_CHANNEL_SEC_MODE CHANNEL SECURITY MODE
 330:Drivers/STM32WLxx_HAL_Driver/Inc/stm32wlxx_ll_dma.h ****   * @{
 331:Drivers/STM32WLxx_HAL_Driver/Inc/stm32wlxx_ll_dma.h ****   */
 332:Drivers/STM32WLxx_HAL_Driver/Inc/stm32wlxx_ll_dma.h **** #define LL_DMA_CHANNEL_NSEC               0x00000000U             /*!< Disable secure DMA channel *
 333:Drivers/STM32WLxx_HAL_Driver/Inc/stm32wlxx_ll_dma.h **** #define LL_DMA_CHANNEL_SEC                DMA_CCR_SECM            /*!< Enable  secure DMA channel *
 334:Drivers/STM32WLxx_HAL_Driver/Inc/stm32wlxx_ll_dma.h **** /**
 335:Drivers/STM32WLxx_HAL_Driver/Inc/stm32wlxx_ll_dma.h ****   * @}
 336:Drivers/STM32WLxx_HAL_Driver/Inc/stm32wlxx_ll_dma.h ****   */
 337:Drivers/STM32WLxx_HAL_Driver/Inc/stm32wlxx_ll_dma.h **** 
 338:Drivers/STM32WLxx_HAL_Driver/Inc/stm32wlxx_ll_dma.h **** #if defined (CORE_CM0PLUS)
 339:Drivers/STM32WLxx_HAL_Driver/Inc/stm32wlxx_ll_dma.h **** /** @defgroup DMA_LL_SOURCE_TRANSFER_SEC_MODE TRANSFER SECURITY SOURCE MODE
 340:Drivers/STM32WLxx_HAL_Driver/Inc/stm32wlxx_ll_dma.h ****   * @{
 341:Drivers/STM32WLxx_HAL_Driver/Inc/stm32wlxx_ll_dma.h ****   */
 342:Drivers/STM32WLxx_HAL_Driver/Inc/stm32wlxx_ll_dma.h **** #define LL_DMA_CHANNEL_SRC_NSEC           0x00000000U             /*!< Disable secure DMA transfer 
 343:Drivers/STM32WLxx_HAL_Driver/Inc/stm32wlxx_ll_dma.h **** #define LL_DMA_CHANNEL_SRC_SEC            DMA_CCR_SSEC            /*!< Enable  secure DMA transfer 
 344:Drivers/STM32WLxx_HAL_Driver/Inc/stm32wlxx_ll_dma.h **** /**
 345:Drivers/STM32WLxx_HAL_Driver/Inc/stm32wlxx_ll_dma.h ****   * @}
 346:Drivers/STM32WLxx_HAL_Driver/Inc/stm32wlxx_ll_dma.h ****   */
 347:Drivers/STM32WLxx_HAL_Driver/Inc/stm32wlxx_ll_dma.h **** 
 348:Drivers/STM32WLxx_HAL_Driver/Inc/stm32wlxx_ll_dma.h **** /** @defgroup DMA_LL_DEST_TRANSFER_SEC_MODE TRANSFER SECURITY DESTINATION MODE
 349:Drivers/STM32WLxx_HAL_Driver/Inc/stm32wlxx_ll_dma.h ****   * @{
 350:Drivers/STM32WLxx_HAL_Driver/Inc/stm32wlxx_ll_dma.h ****   */
 351:Drivers/STM32WLxx_HAL_Driver/Inc/stm32wlxx_ll_dma.h **** #define LL_DMA_CHANNEL_DEST_NSEC          0x00000000U             /*!< Disable secure DMA transfer 
 352:Drivers/STM32WLxx_HAL_Driver/Inc/stm32wlxx_ll_dma.h **** #define LL_DMA_CHANNEL_DEST_SEC           DMA_CCR_DSEC            /*!< Enable  secure DMA transfer 
 353:Drivers/STM32WLxx_HAL_Driver/Inc/stm32wlxx_ll_dma.h **** /**
 354:Drivers/STM32WLxx_HAL_Driver/Inc/stm32wlxx_ll_dma.h ****   * @}
 355:Drivers/STM32WLxx_HAL_Driver/Inc/stm32wlxx_ll_dma.h ****   */
 356:Drivers/STM32WLxx_HAL_Driver/Inc/stm32wlxx_ll_dma.h **** #endif /* CORE_CM0PLUS */
 357:Drivers/STM32WLxx_HAL_Driver/Inc/stm32wlxx_ll_dma.h **** 
 358:Drivers/STM32WLxx_HAL_Driver/Inc/stm32wlxx_ll_dma.h **** #endif /* DMA_CCR_SECM */
 359:Drivers/STM32WLxx_HAL_Driver/Inc/stm32wlxx_ll_dma.h **** #if defined(DMA_CCR_PRIV)
 360:Drivers/STM32WLxx_HAL_Driver/Inc/stm32wlxx_ll_dma.h **** /** @defgroup DMA_LL_SEC_PRIVILEGE_MODE PRIVILEGE MODE
 361:Drivers/STM32WLxx_HAL_Driver/Inc/stm32wlxx_ll_dma.h ****   * @{
 362:Drivers/STM32WLxx_HAL_Driver/Inc/stm32wlxx_ll_dma.h ****   */
 363:Drivers/STM32WLxx_HAL_Driver/Inc/stm32wlxx_ll_dma.h **** #define LL_DMA_CHANNEL_NPRIV              0x00000000U             /*!< Disable privilege */
 364:Drivers/STM32WLxx_HAL_Driver/Inc/stm32wlxx_ll_dma.h **** #define LL_DMA_CHANNEL_PRIV               DMA_CCR_PRIV            /*!< Enable  privilege */
 365:Drivers/STM32WLxx_HAL_Driver/Inc/stm32wlxx_ll_dma.h **** /**
 366:Drivers/STM32WLxx_HAL_Driver/Inc/stm32wlxx_ll_dma.h ****   * @}
 367:Drivers/STM32WLxx_HAL_Driver/Inc/stm32wlxx_ll_dma.h ****   */
 368:Drivers/STM32WLxx_HAL_Driver/Inc/stm32wlxx_ll_dma.h **** 
 369:Drivers/STM32WLxx_HAL_Driver/Inc/stm32wlxx_ll_dma.h **** #endif /* DMA_CCR_PRIV */
 370:Drivers/STM32WLxx_HAL_Driver/Inc/stm32wlxx_ll_dma.h **** /**
 371:Drivers/STM32WLxx_HAL_Driver/Inc/stm32wlxx_ll_dma.h ****   * @}
 372:Drivers/STM32WLxx_HAL_Driver/Inc/stm32wlxx_ll_dma.h ****   */
 373:Drivers/STM32WLxx_HAL_Driver/Inc/stm32wlxx_ll_dma.h **** 
 374:Drivers/STM32WLxx_HAL_Driver/Inc/stm32wlxx_ll_dma.h **** /* Exported macro ------------------------------------------------------------*/
 375:Drivers/STM32WLxx_HAL_Driver/Inc/stm32wlxx_ll_dma.h **** /** @defgroup DMA_LL_Exported_Macros DMA Exported Macros
 376:Drivers/STM32WLxx_HAL_Driver/Inc/stm32wlxx_ll_dma.h ****   * @{
 377:Drivers/STM32WLxx_HAL_Driver/Inc/stm32wlxx_ll_dma.h ****   */
 378:Drivers/STM32WLxx_HAL_Driver/Inc/stm32wlxx_ll_dma.h **** 
 379:Drivers/STM32WLxx_HAL_Driver/Inc/stm32wlxx_ll_dma.h **** /** @defgroup DMA_LL_EM_WRITE_READ Common Write and read registers macros
 380:Drivers/STM32WLxx_HAL_Driver/Inc/stm32wlxx_ll_dma.h ****   * @{
 381:Drivers/STM32WLxx_HAL_Driver/Inc/stm32wlxx_ll_dma.h ****   */
 382:Drivers/STM32WLxx_HAL_Driver/Inc/stm32wlxx_ll_dma.h **** /**
 383:Drivers/STM32WLxx_HAL_Driver/Inc/stm32wlxx_ll_dma.h ****   * @brief  Write a value in DMA register
ARM GAS  /var/folders/9y/n02fl3g16gnf7ppy14xghdy80000gn/T//ccTkjYAj.s 			page 29


 384:Drivers/STM32WLxx_HAL_Driver/Inc/stm32wlxx_ll_dma.h ****   * @param  __INSTANCE__ DMA Instance
 385:Drivers/STM32WLxx_HAL_Driver/Inc/stm32wlxx_ll_dma.h ****   * @param  __REG__ Register to be written
 386:Drivers/STM32WLxx_HAL_Driver/Inc/stm32wlxx_ll_dma.h ****   * @param  __VALUE__ Value to be written in the register
 387:Drivers/STM32WLxx_HAL_Driver/Inc/stm32wlxx_ll_dma.h ****   * @retval None
 388:Drivers/STM32WLxx_HAL_Driver/Inc/stm32wlxx_ll_dma.h ****   */
 389:Drivers/STM32WLxx_HAL_Driver/Inc/stm32wlxx_ll_dma.h **** #define LL_DMA_WriteReg(__INSTANCE__, __REG__, __VALUE__) WRITE_REG(__INSTANCE__->__REG__, (__VALUE
 390:Drivers/STM32WLxx_HAL_Driver/Inc/stm32wlxx_ll_dma.h **** 
 391:Drivers/STM32WLxx_HAL_Driver/Inc/stm32wlxx_ll_dma.h **** /**
 392:Drivers/STM32WLxx_HAL_Driver/Inc/stm32wlxx_ll_dma.h ****   * @brief  Read a value in DMA register
 393:Drivers/STM32WLxx_HAL_Driver/Inc/stm32wlxx_ll_dma.h ****   * @param  __INSTANCE__ DMA Instance
 394:Drivers/STM32WLxx_HAL_Driver/Inc/stm32wlxx_ll_dma.h ****   * @param  __REG__ Register to be read
 395:Drivers/STM32WLxx_HAL_Driver/Inc/stm32wlxx_ll_dma.h ****   * @retval Register value
 396:Drivers/STM32WLxx_HAL_Driver/Inc/stm32wlxx_ll_dma.h ****   */
 397:Drivers/STM32WLxx_HAL_Driver/Inc/stm32wlxx_ll_dma.h **** #define LL_DMA_ReadReg(__INSTANCE__, __REG__) READ_REG(__INSTANCE__->__REG__)
 398:Drivers/STM32WLxx_HAL_Driver/Inc/stm32wlxx_ll_dma.h **** /**
 399:Drivers/STM32WLxx_HAL_Driver/Inc/stm32wlxx_ll_dma.h ****   * @}
 400:Drivers/STM32WLxx_HAL_Driver/Inc/stm32wlxx_ll_dma.h ****   */
 401:Drivers/STM32WLxx_HAL_Driver/Inc/stm32wlxx_ll_dma.h **** 
 402:Drivers/STM32WLxx_HAL_Driver/Inc/stm32wlxx_ll_dma.h **** /** @defgroup DMA_LL_EM_CONVERT_DMAxCHANNELy Convert DMAxChannely
 403:Drivers/STM32WLxx_HAL_Driver/Inc/stm32wlxx_ll_dma.h ****   * @{
 404:Drivers/STM32WLxx_HAL_Driver/Inc/stm32wlxx_ll_dma.h ****   */
 405:Drivers/STM32WLxx_HAL_Driver/Inc/stm32wlxx_ll_dma.h **** /**
 406:Drivers/STM32WLxx_HAL_Driver/Inc/stm32wlxx_ll_dma.h ****   * @brief  Convert DMAx_Channely into DMAx
 407:Drivers/STM32WLxx_HAL_Driver/Inc/stm32wlxx_ll_dma.h ****   * @param  __CHANNEL_INSTANCE__ DMAx_Channely
 408:Drivers/STM32WLxx_HAL_Driver/Inc/stm32wlxx_ll_dma.h ****   * @retval DMAx
 409:Drivers/STM32WLxx_HAL_Driver/Inc/stm32wlxx_ll_dma.h ****   */
 410:Drivers/STM32WLxx_HAL_Driver/Inc/stm32wlxx_ll_dma.h **** #define __LL_DMA_GET_INSTANCE(__CHANNEL_INSTANCE__)   \
 411:Drivers/STM32WLxx_HAL_Driver/Inc/stm32wlxx_ll_dma.h **** (((uint32_t)(__CHANNEL_INSTANCE__) > ((uint32_t)DMA1_Channel7)) ?  DMA2 : DMA1)
 412:Drivers/STM32WLxx_HAL_Driver/Inc/stm32wlxx_ll_dma.h **** 
 413:Drivers/STM32WLxx_HAL_Driver/Inc/stm32wlxx_ll_dma.h **** /**
 414:Drivers/STM32WLxx_HAL_Driver/Inc/stm32wlxx_ll_dma.h ****   * @brief  Convert DMAx_Channely into LL_DMA_CHANNEL_y
 415:Drivers/STM32WLxx_HAL_Driver/Inc/stm32wlxx_ll_dma.h ****   * @param  __CHANNEL_INSTANCE__ DMAx_Channely
 416:Drivers/STM32WLxx_HAL_Driver/Inc/stm32wlxx_ll_dma.h ****   * @retval LL_DMA_CHANNEL_y
 417:Drivers/STM32WLxx_HAL_Driver/Inc/stm32wlxx_ll_dma.h ****   */
 418:Drivers/STM32WLxx_HAL_Driver/Inc/stm32wlxx_ll_dma.h **** #define __LL_DMA_GET_CHANNEL(__CHANNEL_INSTANCE__)   \
 419:Drivers/STM32WLxx_HAL_Driver/Inc/stm32wlxx_ll_dma.h **** (((uint32_t)(__CHANNEL_INSTANCE__) == ((uint32_t)DMA1_Channel1)) ? LL_DMA_CHANNEL_1 : \
 420:Drivers/STM32WLxx_HAL_Driver/Inc/stm32wlxx_ll_dma.h ****  ((uint32_t)(__CHANNEL_INSTANCE__) == ((uint32_t)DMA2_Channel1)) ? LL_DMA_CHANNEL_1 : \
 421:Drivers/STM32WLxx_HAL_Driver/Inc/stm32wlxx_ll_dma.h ****  ((uint32_t)(__CHANNEL_INSTANCE__) == ((uint32_t)DMA1_Channel2)) ? LL_DMA_CHANNEL_2 : \
 422:Drivers/STM32WLxx_HAL_Driver/Inc/stm32wlxx_ll_dma.h ****  ((uint32_t)(__CHANNEL_INSTANCE__) == ((uint32_t)DMA2_Channel2)) ? LL_DMA_CHANNEL_2 : \
 423:Drivers/STM32WLxx_HAL_Driver/Inc/stm32wlxx_ll_dma.h ****  ((uint32_t)(__CHANNEL_INSTANCE__) == ((uint32_t)DMA1_Channel3)) ? LL_DMA_CHANNEL_3 : \
 424:Drivers/STM32WLxx_HAL_Driver/Inc/stm32wlxx_ll_dma.h ****  ((uint32_t)(__CHANNEL_INSTANCE__) == ((uint32_t)DMA2_Channel3)) ? LL_DMA_CHANNEL_3 : \
 425:Drivers/STM32WLxx_HAL_Driver/Inc/stm32wlxx_ll_dma.h ****  ((uint32_t)(__CHANNEL_INSTANCE__) == ((uint32_t)DMA1_Channel4)) ? LL_DMA_CHANNEL_4 : \
 426:Drivers/STM32WLxx_HAL_Driver/Inc/stm32wlxx_ll_dma.h ****  ((uint32_t)(__CHANNEL_INSTANCE__) == ((uint32_t)DMA2_Channel4)) ? LL_DMA_CHANNEL_4 : \
 427:Drivers/STM32WLxx_HAL_Driver/Inc/stm32wlxx_ll_dma.h ****  ((uint32_t)(__CHANNEL_INSTANCE__) == ((uint32_t)DMA1_Channel5)) ? LL_DMA_CHANNEL_5 : \
 428:Drivers/STM32WLxx_HAL_Driver/Inc/stm32wlxx_ll_dma.h ****  ((uint32_t)(__CHANNEL_INSTANCE__) == ((uint32_t)DMA2_Channel5)) ? LL_DMA_CHANNEL_5 : \
 429:Drivers/STM32WLxx_HAL_Driver/Inc/stm32wlxx_ll_dma.h ****  ((uint32_t)(__CHANNEL_INSTANCE__) == ((uint32_t)DMA1_Channel6)) ? LL_DMA_CHANNEL_6 : \
 430:Drivers/STM32WLxx_HAL_Driver/Inc/stm32wlxx_ll_dma.h ****  ((uint32_t)(__CHANNEL_INSTANCE__) == ((uint32_t)DMA2_Channel6)) ? LL_DMA_CHANNEL_6 : \
 431:Drivers/STM32WLxx_HAL_Driver/Inc/stm32wlxx_ll_dma.h ****  LL_DMA_CHANNEL_7)
 432:Drivers/STM32WLxx_HAL_Driver/Inc/stm32wlxx_ll_dma.h **** 
 433:Drivers/STM32WLxx_HAL_Driver/Inc/stm32wlxx_ll_dma.h **** /**
 434:Drivers/STM32WLxx_HAL_Driver/Inc/stm32wlxx_ll_dma.h ****   * @brief  Convert DMA Instance DMAx and LL_DMA_CHANNEL_y into DMAx_Channely
 435:Drivers/STM32WLxx_HAL_Driver/Inc/stm32wlxx_ll_dma.h ****   * @param  __DMA_INSTANCE__ DMAx
 436:Drivers/STM32WLxx_HAL_Driver/Inc/stm32wlxx_ll_dma.h ****   * @param  __CHANNEL__ LL_DMA_CHANNEL_y
 437:Drivers/STM32WLxx_HAL_Driver/Inc/stm32wlxx_ll_dma.h ****   * @retval DMAx_Channely
 438:Drivers/STM32WLxx_HAL_Driver/Inc/stm32wlxx_ll_dma.h ****   */
 439:Drivers/STM32WLxx_HAL_Driver/Inc/stm32wlxx_ll_dma.h **** #define __LL_DMA_GET_CHANNEL_INSTANCE(__DMA_INSTANCE__, __CHANNEL__)   \
 440:Drivers/STM32WLxx_HAL_Driver/Inc/stm32wlxx_ll_dma.h **** ((((uint32_t)(__DMA_INSTANCE__) == ((uint32_t)DMA1)) && ((uint32_t)(__CHANNEL__) == ((uint32_t)LL_D
ARM GAS  /var/folders/9y/n02fl3g16gnf7ppy14xghdy80000gn/T//ccTkjYAj.s 			page 30


 441:Drivers/STM32WLxx_HAL_Driver/Inc/stm32wlxx_ll_dma.h ****  (((uint32_t)(__DMA_INSTANCE__) == ((uint32_t)DMA2)) && ((uint32_t)(__CHANNEL__) == ((uint32_t)LL_D
 442:Drivers/STM32WLxx_HAL_Driver/Inc/stm32wlxx_ll_dma.h ****  (((uint32_t)(__DMA_INSTANCE__) == ((uint32_t)DMA1)) && ((uint32_t)(__CHANNEL__) == ((uint32_t)LL_D
 443:Drivers/STM32WLxx_HAL_Driver/Inc/stm32wlxx_ll_dma.h ****  (((uint32_t)(__DMA_INSTANCE__) == ((uint32_t)DMA2)) && ((uint32_t)(__CHANNEL__) == ((uint32_t)LL_D
 444:Drivers/STM32WLxx_HAL_Driver/Inc/stm32wlxx_ll_dma.h ****  (((uint32_t)(__DMA_INSTANCE__) == ((uint32_t)DMA1)) && ((uint32_t)(__CHANNEL__) == ((uint32_t)LL_D
 445:Drivers/STM32WLxx_HAL_Driver/Inc/stm32wlxx_ll_dma.h ****  (((uint32_t)(__DMA_INSTANCE__) == ((uint32_t)DMA2)) && ((uint32_t)(__CHANNEL__) == ((uint32_t)LL_D
 446:Drivers/STM32WLxx_HAL_Driver/Inc/stm32wlxx_ll_dma.h ****  (((uint32_t)(__DMA_INSTANCE__) == ((uint32_t)DMA1)) && ((uint32_t)(__CHANNEL__) == ((uint32_t)LL_D
 447:Drivers/STM32WLxx_HAL_Driver/Inc/stm32wlxx_ll_dma.h ****  (((uint32_t)(__DMA_INSTANCE__) == ((uint32_t)DMA2)) && ((uint32_t)(__CHANNEL__) == ((uint32_t)LL_D
 448:Drivers/STM32WLxx_HAL_Driver/Inc/stm32wlxx_ll_dma.h ****  (((uint32_t)(__DMA_INSTANCE__) == ((uint32_t)DMA1)) && ((uint32_t)(__CHANNEL__) == ((uint32_t)LL_D
 449:Drivers/STM32WLxx_HAL_Driver/Inc/stm32wlxx_ll_dma.h ****  (((uint32_t)(__DMA_INSTANCE__) == ((uint32_t)DMA2)) && ((uint32_t)(__CHANNEL__) == ((uint32_t)LL_D
 450:Drivers/STM32WLxx_HAL_Driver/Inc/stm32wlxx_ll_dma.h ****  (((uint32_t)(__DMA_INSTANCE__) == ((uint32_t)DMA1)) && ((uint32_t)(__CHANNEL__) == ((uint32_t)LL_D
 451:Drivers/STM32WLxx_HAL_Driver/Inc/stm32wlxx_ll_dma.h ****  (((uint32_t)(__DMA_INSTANCE__) == ((uint32_t)DMA2)) && ((uint32_t)(__CHANNEL__) == ((uint32_t)LL_D
 452:Drivers/STM32WLxx_HAL_Driver/Inc/stm32wlxx_ll_dma.h ****  (((uint32_t)(__DMA_INSTANCE__) == ((uint32_t)DMA1)) && ((uint32_t)(__CHANNEL__) == ((uint32_t)LL_D
 453:Drivers/STM32WLxx_HAL_Driver/Inc/stm32wlxx_ll_dma.h ****  DMA2_Channel7)
 454:Drivers/STM32WLxx_HAL_Driver/Inc/stm32wlxx_ll_dma.h **** 
 455:Drivers/STM32WLxx_HAL_Driver/Inc/stm32wlxx_ll_dma.h **** /**
 456:Drivers/STM32WLxx_HAL_Driver/Inc/stm32wlxx_ll_dma.h ****   * @}
 457:Drivers/STM32WLxx_HAL_Driver/Inc/stm32wlxx_ll_dma.h ****   */
 458:Drivers/STM32WLxx_HAL_Driver/Inc/stm32wlxx_ll_dma.h **** 
 459:Drivers/STM32WLxx_HAL_Driver/Inc/stm32wlxx_ll_dma.h **** /**
 460:Drivers/STM32WLxx_HAL_Driver/Inc/stm32wlxx_ll_dma.h ****   * @}
 461:Drivers/STM32WLxx_HAL_Driver/Inc/stm32wlxx_ll_dma.h ****   */
 462:Drivers/STM32WLxx_HAL_Driver/Inc/stm32wlxx_ll_dma.h **** 
 463:Drivers/STM32WLxx_HAL_Driver/Inc/stm32wlxx_ll_dma.h **** /* Exported functions --------------------------------------------------------*/
 464:Drivers/STM32WLxx_HAL_Driver/Inc/stm32wlxx_ll_dma.h **** /** @defgroup DMA_LL_Exported_Functions DMA Exported Functions
 465:Drivers/STM32WLxx_HAL_Driver/Inc/stm32wlxx_ll_dma.h ****  * @{
 466:Drivers/STM32WLxx_HAL_Driver/Inc/stm32wlxx_ll_dma.h ****  */
 467:Drivers/STM32WLxx_HAL_Driver/Inc/stm32wlxx_ll_dma.h **** 
 468:Drivers/STM32WLxx_HAL_Driver/Inc/stm32wlxx_ll_dma.h **** /** @defgroup DMA_LL_EF_Configuration Configuration
 469:Drivers/STM32WLxx_HAL_Driver/Inc/stm32wlxx_ll_dma.h ****   * @{
 470:Drivers/STM32WLxx_HAL_Driver/Inc/stm32wlxx_ll_dma.h ****   */
 471:Drivers/STM32WLxx_HAL_Driver/Inc/stm32wlxx_ll_dma.h **** /**
 472:Drivers/STM32WLxx_HAL_Driver/Inc/stm32wlxx_ll_dma.h ****   * @brief  Enable DMA channel.
 473:Drivers/STM32WLxx_HAL_Driver/Inc/stm32wlxx_ll_dma.h ****   * @rmtoll CCR          EN            LL_DMA_EnableChannel
 474:Drivers/STM32WLxx_HAL_Driver/Inc/stm32wlxx_ll_dma.h ****   * @param  DMAx DMAx Instance
 475:Drivers/STM32WLxx_HAL_Driver/Inc/stm32wlxx_ll_dma.h ****   * @param  Channel This parameter can be one of the following values:
 476:Drivers/STM32WLxx_HAL_Driver/Inc/stm32wlxx_ll_dma.h ****   *         @arg @ref LL_DMA_CHANNEL_1
 477:Drivers/STM32WLxx_HAL_Driver/Inc/stm32wlxx_ll_dma.h ****   *         @arg @ref LL_DMA_CHANNEL_2
 478:Drivers/STM32WLxx_HAL_Driver/Inc/stm32wlxx_ll_dma.h ****   *         @arg @ref LL_DMA_CHANNEL_3
 479:Drivers/STM32WLxx_HAL_Driver/Inc/stm32wlxx_ll_dma.h ****   *         @arg @ref LL_DMA_CHANNEL_4
 480:Drivers/STM32WLxx_HAL_Driver/Inc/stm32wlxx_ll_dma.h ****   *         @arg @ref LL_DMA_CHANNEL_5
 481:Drivers/STM32WLxx_HAL_Driver/Inc/stm32wlxx_ll_dma.h ****   *         @arg @ref LL_DMA_CHANNEL_6
 482:Drivers/STM32WLxx_HAL_Driver/Inc/stm32wlxx_ll_dma.h ****   *         @arg @ref LL_DMA_CHANNEL_7
 483:Drivers/STM32WLxx_HAL_Driver/Inc/stm32wlxx_ll_dma.h ****   * @retval None
 484:Drivers/STM32WLxx_HAL_Driver/Inc/stm32wlxx_ll_dma.h ****   */
 485:Drivers/STM32WLxx_HAL_Driver/Inc/stm32wlxx_ll_dma.h **** __STATIC_INLINE void LL_DMA_EnableChannel(DMA_TypeDef *DMAx, uint32_t Channel)
 486:Drivers/STM32WLxx_HAL_Driver/Inc/stm32wlxx_ll_dma.h **** {
 487:Drivers/STM32WLxx_HAL_Driver/Inc/stm32wlxx_ll_dma.h ****   uint32_t dma_base_addr = (uint32_t)DMAx;
 488:Drivers/STM32WLxx_HAL_Driver/Inc/stm32wlxx_ll_dma.h ****   SET_BIT(((DMA_Channel_TypeDef *)(dma_base_addr + CHANNEL_OFFSET_TAB[Channel]))->CCR, DMA_CCR_EN);
 489:Drivers/STM32WLxx_HAL_Driver/Inc/stm32wlxx_ll_dma.h **** }
 490:Drivers/STM32WLxx_HAL_Driver/Inc/stm32wlxx_ll_dma.h **** 
 491:Drivers/STM32WLxx_HAL_Driver/Inc/stm32wlxx_ll_dma.h **** /**
 492:Drivers/STM32WLxx_HAL_Driver/Inc/stm32wlxx_ll_dma.h ****   * @brief  Disable DMA channel.
 493:Drivers/STM32WLxx_HAL_Driver/Inc/stm32wlxx_ll_dma.h ****   * @rmtoll CCR          EN            LL_DMA_DisableChannel
 494:Drivers/STM32WLxx_HAL_Driver/Inc/stm32wlxx_ll_dma.h ****   * @param  DMAx DMAx Instance
 495:Drivers/STM32WLxx_HAL_Driver/Inc/stm32wlxx_ll_dma.h ****   * @param  Channel This parameter can be one of the following values:
 496:Drivers/STM32WLxx_HAL_Driver/Inc/stm32wlxx_ll_dma.h ****   *         @arg @ref LL_DMA_CHANNEL_1
 497:Drivers/STM32WLxx_HAL_Driver/Inc/stm32wlxx_ll_dma.h ****   *         @arg @ref LL_DMA_CHANNEL_2
ARM GAS  /var/folders/9y/n02fl3g16gnf7ppy14xghdy80000gn/T//ccTkjYAj.s 			page 31


 498:Drivers/STM32WLxx_HAL_Driver/Inc/stm32wlxx_ll_dma.h ****   *         @arg @ref LL_DMA_CHANNEL_3
 499:Drivers/STM32WLxx_HAL_Driver/Inc/stm32wlxx_ll_dma.h ****   *         @arg @ref LL_DMA_CHANNEL_4
 500:Drivers/STM32WLxx_HAL_Driver/Inc/stm32wlxx_ll_dma.h ****   *         @arg @ref LL_DMA_CHANNEL_5
 501:Drivers/STM32WLxx_HAL_Driver/Inc/stm32wlxx_ll_dma.h ****   *         @arg @ref LL_DMA_CHANNEL_6
 502:Drivers/STM32WLxx_HAL_Driver/Inc/stm32wlxx_ll_dma.h ****   *         @arg @ref LL_DMA_CHANNEL_7
 503:Drivers/STM32WLxx_HAL_Driver/Inc/stm32wlxx_ll_dma.h ****   * @retval None
 504:Drivers/STM32WLxx_HAL_Driver/Inc/stm32wlxx_ll_dma.h ****   */
 505:Drivers/STM32WLxx_HAL_Driver/Inc/stm32wlxx_ll_dma.h **** __STATIC_INLINE void LL_DMA_DisableChannel(DMA_TypeDef *DMAx, uint32_t Channel)
 506:Drivers/STM32WLxx_HAL_Driver/Inc/stm32wlxx_ll_dma.h **** {
 507:Drivers/STM32WLxx_HAL_Driver/Inc/stm32wlxx_ll_dma.h ****   uint32_t dma_base_addr = (uint32_t)DMAx;
 508:Drivers/STM32WLxx_HAL_Driver/Inc/stm32wlxx_ll_dma.h ****   CLEAR_BIT(((DMA_Channel_TypeDef *)(dma_base_addr + CHANNEL_OFFSET_TAB[Channel]))->CCR, DMA_CCR_EN
 509:Drivers/STM32WLxx_HAL_Driver/Inc/stm32wlxx_ll_dma.h **** }
 510:Drivers/STM32WLxx_HAL_Driver/Inc/stm32wlxx_ll_dma.h **** 
 511:Drivers/STM32WLxx_HAL_Driver/Inc/stm32wlxx_ll_dma.h **** /**
 512:Drivers/STM32WLxx_HAL_Driver/Inc/stm32wlxx_ll_dma.h ****   * @brief  Check if DMA channel is enabled or disabled.
 513:Drivers/STM32WLxx_HAL_Driver/Inc/stm32wlxx_ll_dma.h ****   * @rmtoll CCR          EN            LL_DMA_IsEnabledChannel
 514:Drivers/STM32WLxx_HAL_Driver/Inc/stm32wlxx_ll_dma.h ****   * @param  DMAx DMAx Instance
 515:Drivers/STM32WLxx_HAL_Driver/Inc/stm32wlxx_ll_dma.h ****   * @param  Channel This parameter can be one of the following values:
 516:Drivers/STM32WLxx_HAL_Driver/Inc/stm32wlxx_ll_dma.h ****   *         @arg @ref LL_DMA_CHANNEL_1
 517:Drivers/STM32WLxx_HAL_Driver/Inc/stm32wlxx_ll_dma.h ****   *         @arg @ref LL_DMA_CHANNEL_2
 518:Drivers/STM32WLxx_HAL_Driver/Inc/stm32wlxx_ll_dma.h ****   *         @arg @ref LL_DMA_CHANNEL_3
 519:Drivers/STM32WLxx_HAL_Driver/Inc/stm32wlxx_ll_dma.h ****   *         @arg @ref LL_DMA_CHANNEL_4
 520:Drivers/STM32WLxx_HAL_Driver/Inc/stm32wlxx_ll_dma.h ****   *         @arg @ref LL_DMA_CHANNEL_5
 521:Drivers/STM32WLxx_HAL_Driver/Inc/stm32wlxx_ll_dma.h ****   *         @arg @ref LL_DMA_CHANNEL_6
 522:Drivers/STM32WLxx_HAL_Driver/Inc/stm32wlxx_ll_dma.h ****   *         @arg @ref LL_DMA_CHANNEL_7
 523:Drivers/STM32WLxx_HAL_Driver/Inc/stm32wlxx_ll_dma.h ****   * @retval State of bit (1 or 0).
 524:Drivers/STM32WLxx_HAL_Driver/Inc/stm32wlxx_ll_dma.h ****   */
 525:Drivers/STM32WLxx_HAL_Driver/Inc/stm32wlxx_ll_dma.h **** __STATIC_INLINE uint32_t LL_DMA_IsEnabledChannel(DMA_TypeDef *DMAx, uint32_t Channel)
 526:Drivers/STM32WLxx_HAL_Driver/Inc/stm32wlxx_ll_dma.h **** {
 527:Drivers/STM32WLxx_HAL_Driver/Inc/stm32wlxx_ll_dma.h ****   uint32_t dma_base_addr = (uint32_t)DMAx;
 528:Drivers/STM32WLxx_HAL_Driver/Inc/stm32wlxx_ll_dma.h ****   return ((READ_BIT(((DMA_Channel_TypeDef *)(dma_base_addr + CHANNEL_OFFSET_TAB[Channel]))->CCR,
 529:Drivers/STM32WLxx_HAL_Driver/Inc/stm32wlxx_ll_dma.h ****                     DMA_CCR_EN) == (DMA_CCR_EN)) ? 1UL : 0UL);
 530:Drivers/STM32WLxx_HAL_Driver/Inc/stm32wlxx_ll_dma.h **** }
 531:Drivers/STM32WLxx_HAL_Driver/Inc/stm32wlxx_ll_dma.h **** 
 532:Drivers/STM32WLxx_HAL_Driver/Inc/stm32wlxx_ll_dma.h **** #if defined(DMA_CCR_SECM)
 533:Drivers/STM32WLxx_HAL_Driver/Inc/stm32wlxx_ll_dma.h **** #if defined (CORE_CM0PLUS)
 534:Drivers/STM32WLxx_HAL_Driver/Inc/stm32wlxx_ll_dma.h **** /**
 535:Drivers/STM32WLxx_HAL_Driver/Inc/stm32wlxx_ll_dma.h ****   * @brief  Configure all secure parameters link to DMA transfer.
 536:Drivers/STM32WLxx_HAL_Driver/Inc/stm32wlxx_ll_dma.h ****   * @rmtoll CCR          SECM          LL_DMA_ConfigChannelSecure\n
 537:Drivers/STM32WLxx_HAL_Driver/Inc/stm32wlxx_ll_dma.h ****   *         CCR          SSEC          LL_DMA_ConfigChannelSecure\n
 538:Drivers/STM32WLxx_HAL_Driver/Inc/stm32wlxx_ll_dma.h ****   *         CCR          DSEC          LL_DMA_ConfigChannelSecure\n
 539:Drivers/STM32WLxx_HAL_Driver/Inc/stm32wlxx_ll_dma.h ****   * @param  DMAx DMAx Instance
 540:Drivers/STM32WLxx_HAL_Driver/Inc/stm32wlxx_ll_dma.h ****   * @param  Channel This parameter can be one of the following values:
 541:Drivers/STM32WLxx_HAL_Driver/Inc/stm32wlxx_ll_dma.h ****   *         @arg @ref LL_DMA_CHANNEL_1
 542:Drivers/STM32WLxx_HAL_Driver/Inc/stm32wlxx_ll_dma.h ****   *         @arg @ref LL_DMA_CHANNEL_2
 543:Drivers/STM32WLxx_HAL_Driver/Inc/stm32wlxx_ll_dma.h ****   *         @arg @ref LL_DMA_CHANNEL_3
 544:Drivers/STM32WLxx_HAL_Driver/Inc/stm32wlxx_ll_dma.h ****   *         @arg @ref LL_DMA_CHANNEL_4
 545:Drivers/STM32WLxx_HAL_Driver/Inc/stm32wlxx_ll_dma.h ****   *         @arg @ref LL_DMA_CHANNEL_5
 546:Drivers/STM32WLxx_HAL_Driver/Inc/stm32wlxx_ll_dma.h ****   *         @arg @ref LL_DMA_CHANNEL_6
 547:Drivers/STM32WLxx_HAL_Driver/Inc/stm32wlxx_ll_dma.h ****   *         @arg @ref LL_DMA_CHANNEL_7
 548:Drivers/STM32WLxx_HAL_Driver/Inc/stm32wlxx_ll_dma.h ****   * @param  Configuration This parameter must be a combination of all the following values:
 549:Drivers/STM32WLxx_HAL_Driver/Inc/stm32wlxx_ll_dma.h ****   *         @arg @ref LL_DMA_CHANNEL_SEC or @ref LL_DMA_CHANNEL_NSEC
 550:Drivers/STM32WLxx_HAL_Driver/Inc/stm32wlxx_ll_dma.h ****   *         @arg @ref LL_DMA_CHANNEL_SRC_SEC or @ref LL_DMA_CHANNEL_SRC_NSEC
 551:Drivers/STM32WLxx_HAL_Driver/Inc/stm32wlxx_ll_dma.h ****   *         @arg @ref LL_DMA_CHANNEL_DEST_SEC or LL_DMA_CHANNEL_DEST_NSEC
 552:Drivers/STM32WLxx_HAL_Driver/Inc/stm32wlxx_ll_dma.h ****   * @retval None
 553:Drivers/STM32WLxx_HAL_Driver/Inc/stm32wlxx_ll_dma.h ****   */
 554:Drivers/STM32WLxx_HAL_Driver/Inc/stm32wlxx_ll_dma.h **** __STATIC_INLINE void LL_DMA_ConfigChannelSecure(DMA_TypeDef *DMAx, uint32_t Channel, uint32_t Confi
ARM GAS  /var/folders/9y/n02fl3g16gnf7ppy14xghdy80000gn/T//ccTkjYAj.s 			page 32


 555:Drivers/STM32WLxx_HAL_Driver/Inc/stm32wlxx_ll_dma.h **** {
 556:Drivers/STM32WLxx_HAL_Driver/Inc/stm32wlxx_ll_dma.h ****   uint32_t dma_base_addr = (uint32_t)DMAx;
 557:Drivers/STM32WLxx_HAL_Driver/Inc/stm32wlxx_ll_dma.h ****   MODIFY_REG(((DMA_Channel_TypeDef *)(dma_base_addr + (uint32_t)(CHANNEL_OFFSET_TAB[Channel])))->CC
 558:Drivers/STM32WLxx_HAL_Driver/Inc/stm32wlxx_ll_dma.h ****              DMA_CCR_SECM | DMA_CCR_SSEC | DMA_CCR_DSEC,
 559:Drivers/STM32WLxx_HAL_Driver/Inc/stm32wlxx_ll_dma.h ****              Configuration);
 560:Drivers/STM32WLxx_HAL_Driver/Inc/stm32wlxx_ll_dma.h **** }
 561:Drivers/STM32WLxx_HAL_Driver/Inc/stm32wlxx_ll_dma.h **** 
 562:Drivers/STM32WLxx_HAL_Driver/Inc/stm32wlxx_ll_dma.h **** /**
 563:Drivers/STM32WLxx_HAL_Driver/Inc/stm32wlxx_ll_dma.h ****   * @brief  Get the configuration of a secure channel.
 564:Drivers/STM32WLxx_HAL_Driver/Inc/stm32wlxx_ll_dma.h ****   * @rmtoll CCR          SECM          LL_DMA_GetConfigChannelSecure\n
 565:Drivers/STM32WLxx_HAL_Driver/Inc/stm32wlxx_ll_dma.h ****   *         CCR          SSEC          LL_DMA_GetConfigChannelSecure\n
 566:Drivers/STM32WLxx_HAL_Driver/Inc/stm32wlxx_ll_dma.h ****   *         CCR          DSEC          LL_DMA_GetConfigChannelSecure\n
 567:Drivers/STM32WLxx_HAL_Driver/Inc/stm32wlxx_ll_dma.h ****   * @param  DMAx DMAx Instance
 568:Drivers/STM32WLxx_HAL_Driver/Inc/stm32wlxx_ll_dma.h ****   * @param  Channel This parameter can be one of the following values:
 569:Drivers/STM32WLxx_HAL_Driver/Inc/stm32wlxx_ll_dma.h ****   *         @arg @ref LL_DMA_CHANNEL_1
 570:Drivers/STM32WLxx_HAL_Driver/Inc/stm32wlxx_ll_dma.h ****   *         @arg @ref LL_DMA_CHANNEL_2
 571:Drivers/STM32WLxx_HAL_Driver/Inc/stm32wlxx_ll_dma.h ****   *         @arg @ref LL_DMA_CHANNEL_3
 572:Drivers/STM32WLxx_HAL_Driver/Inc/stm32wlxx_ll_dma.h ****   *         @arg @ref LL_DMA_CHANNEL_4
 573:Drivers/STM32WLxx_HAL_Driver/Inc/stm32wlxx_ll_dma.h ****   *         @arg @ref LL_DMA_CHANNEL_5
 574:Drivers/STM32WLxx_HAL_Driver/Inc/stm32wlxx_ll_dma.h ****   *         @arg @ref LL_DMA_CHANNEL_6
 575:Drivers/STM32WLxx_HAL_Driver/Inc/stm32wlxx_ll_dma.h ****   *         @arg @ref LL_DMA_CHANNEL_7
 576:Drivers/STM32WLxx_HAL_Driver/Inc/stm32wlxx_ll_dma.h ****   * @retval Configuration This parameter must be a combination of all the following values:
 577:Drivers/STM32WLxx_HAL_Driver/Inc/stm32wlxx_ll_dma.h ****   *         @arg @ref LL_DMA_CHANNEL_SEC or @ref LL_DMA_CHANNEL_NSEC
 578:Drivers/STM32WLxx_HAL_Driver/Inc/stm32wlxx_ll_dma.h ****   *         @arg @ref LL_DMA_CHANNEL_SRC_SEC or @ref LL_DMA_CHANNEL_SRC_NSEC
 579:Drivers/STM32WLxx_HAL_Driver/Inc/stm32wlxx_ll_dma.h ****   *         @arg @ref LL_DMA_CHANNEL_DEST_SEC or LL_DMA_CHANNEL_DEST_NSEC
 580:Drivers/STM32WLxx_HAL_Driver/Inc/stm32wlxx_ll_dma.h ****   */
 581:Drivers/STM32WLxx_HAL_Driver/Inc/stm32wlxx_ll_dma.h **** __STATIC_INLINE uint32_t LL_DMA_GetConfigChannelSecure(DMA_TypeDef *DMAx, uint32_t Channel)
 582:Drivers/STM32WLxx_HAL_Driver/Inc/stm32wlxx_ll_dma.h **** {
 583:Drivers/STM32WLxx_HAL_Driver/Inc/stm32wlxx_ll_dma.h ****   uint32_t dma_base_addr = (uint32_t)DMAx;
 584:Drivers/STM32WLxx_HAL_Driver/Inc/stm32wlxx_ll_dma.h ****   return (READ_BIT(((DMA_Channel_TypeDef *)(dma_base_addr + CHANNEL_OFFSET_TAB[Channel]))->CCR,
 585:Drivers/STM32WLxx_HAL_Driver/Inc/stm32wlxx_ll_dma.h ****                    DMA_CCR_SECM | DMA_CCR_SSEC | DMA_CCR_DSEC));
 586:Drivers/STM32WLxx_HAL_Driver/Inc/stm32wlxx_ll_dma.h **** }
 587:Drivers/STM32WLxx_HAL_Driver/Inc/stm32wlxx_ll_dma.h **** #else
 588:Drivers/STM32WLxx_HAL_Driver/Inc/stm32wlxx_ll_dma.h **** /**
 589:Drivers/STM32WLxx_HAL_Driver/Inc/stm32wlxx_ll_dma.h ****   * @brief  Get the configuration of a secure channel.
 590:Drivers/STM32WLxx_HAL_Driver/Inc/stm32wlxx_ll_dma.h ****   * @rmtoll CCR          SECM          LL_DMA_GetConfigChannelSecure\n
 591:Drivers/STM32WLxx_HAL_Driver/Inc/stm32wlxx_ll_dma.h ****   * @param  DMAx DMAx Instance
 592:Drivers/STM32WLxx_HAL_Driver/Inc/stm32wlxx_ll_dma.h ****   * @param  Channel This parameter can be one of the following values:
 593:Drivers/STM32WLxx_HAL_Driver/Inc/stm32wlxx_ll_dma.h ****   *         @arg @ref LL_DMA_CHANNEL_1
 594:Drivers/STM32WLxx_HAL_Driver/Inc/stm32wlxx_ll_dma.h ****   *         @arg @ref LL_DMA_CHANNEL_2
 595:Drivers/STM32WLxx_HAL_Driver/Inc/stm32wlxx_ll_dma.h ****   *         @arg @ref LL_DMA_CHANNEL_3
 596:Drivers/STM32WLxx_HAL_Driver/Inc/stm32wlxx_ll_dma.h ****   *         @arg @ref LL_DMA_CHANNEL_4
 597:Drivers/STM32WLxx_HAL_Driver/Inc/stm32wlxx_ll_dma.h ****   *         @arg @ref LL_DMA_CHANNEL_5
 598:Drivers/STM32WLxx_HAL_Driver/Inc/stm32wlxx_ll_dma.h ****   *         @arg @ref LL_DMA_CHANNEL_6
 599:Drivers/STM32WLxx_HAL_Driver/Inc/stm32wlxx_ll_dma.h ****   *         @arg @ref LL_DMA_CHANNEL_7
 600:Drivers/STM32WLxx_HAL_Driver/Inc/stm32wlxx_ll_dma.h ****   * @retval Configuration This parameter must be a combination of all the following values:
 601:Drivers/STM32WLxx_HAL_Driver/Inc/stm32wlxx_ll_dma.h ****   *         @arg @ref LL_DMA_CHANNEL_SEC or @ref LL_DMA_CHANNEL_NSEC
 602:Drivers/STM32WLxx_HAL_Driver/Inc/stm32wlxx_ll_dma.h ****   */
 603:Drivers/STM32WLxx_HAL_Driver/Inc/stm32wlxx_ll_dma.h **** __STATIC_INLINE uint32_t LL_DMA_GetConfigChannelSecure(DMA_TypeDef *DMAx, uint32_t Channel)
 604:Drivers/STM32WLxx_HAL_Driver/Inc/stm32wlxx_ll_dma.h **** {
 605:Drivers/STM32WLxx_HAL_Driver/Inc/stm32wlxx_ll_dma.h ****   uint32_t dma_base_addr = (uint32_t)DMAx;
 606:Drivers/STM32WLxx_HAL_Driver/Inc/stm32wlxx_ll_dma.h ****   return (READ_BIT(((DMA_Channel_TypeDef *)(dma_base_addr + CHANNEL_OFFSET_TAB[Channel]))->CCR,
 607:Drivers/STM32WLxx_HAL_Driver/Inc/stm32wlxx_ll_dma.h ****                    DMA_CCR_SECM));
 608:Drivers/STM32WLxx_HAL_Driver/Inc/stm32wlxx_ll_dma.h **** }
 609:Drivers/STM32WLxx_HAL_Driver/Inc/stm32wlxx_ll_dma.h **** #endif /* CORE_CM0PLUS */
 610:Drivers/STM32WLxx_HAL_Driver/Inc/stm32wlxx_ll_dma.h **** 
 611:Drivers/STM32WLxx_HAL_Driver/Inc/stm32wlxx_ll_dma.h **** #endif /* DMA_CCR_SECM */
ARM GAS  /var/folders/9y/n02fl3g16gnf7ppy14xghdy80000gn/T//ccTkjYAj.s 			page 33


 612:Drivers/STM32WLxx_HAL_Driver/Inc/stm32wlxx_ll_dma.h **** /**
 613:Drivers/STM32WLxx_HAL_Driver/Inc/stm32wlxx_ll_dma.h ****   * @brief  Configure all parameters link to DMA transfer.
 614:Drivers/STM32WLxx_HAL_Driver/Inc/stm32wlxx_ll_dma.h ****   * @rmtoll CCR          DIR           LL_DMA_ConfigTransfer\n
 615:Drivers/STM32WLxx_HAL_Driver/Inc/stm32wlxx_ll_dma.h ****   *         CCR          MEM2MEM       LL_DMA_ConfigTransfer\n
 616:Drivers/STM32WLxx_HAL_Driver/Inc/stm32wlxx_ll_dma.h ****   *         CCR          CIRC          LL_DMA_ConfigTransfer\n
 617:Drivers/STM32WLxx_HAL_Driver/Inc/stm32wlxx_ll_dma.h ****   *         CCR          PINC          LL_DMA_ConfigTransfer\n
 618:Drivers/STM32WLxx_HAL_Driver/Inc/stm32wlxx_ll_dma.h ****   *         CCR          MINC          LL_DMA_ConfigTransfer\n
 619:Drivers/STM32WLxx_HAL_Driver/Inc/stm32wlxx_ll_dma.h ****   *         CCR          PSIZE         LL_DMA_ConfigTransfer\n
 620:Drivers/STM32WLxx_HAL_Driver/Inc/stm32wlxx_ll_dma.h ****   *         CCR          MSIZE         LL_DMA_ConfigTransfer\n
 621:Drivers/STM32WLxx_HAL_Driver/Inc/stm32wlxx_ll_dma.h ****   *         CCR          PL            LL_DMA_ConfigTransfer
 622:Drivers/STM32WLxx_HAL_Driver/Inc/stm32wlxx_ll_dma.h ****   * @param  DMAx DMAx Instance
 623:Drivers/STM32WLxx_HAL_Driver/Inc/stm32wlxx_ll_dma.h ****   * @param  Channel This parameter can be one of the following values:
 624:Drivers/STM32WLxx_HAL_Driver/Inc/stm32wlxx_ll_dma.h ****   *         @arg @ref LL_DMA_CHANNEL_1
 625:Drivers/STM32WLxx_HAL_Driver/Inc/stm32wlxx_ll_dma.h ****   *         @arg @ref LL_DMA_CHANNEL_2
 626:Drivers/STM32WLxx_HAL_Driver/Inc/stm32wlxx_ll_dma.h ****   *         @arg @ref LL_DMA_CHANNEL_3
 627:Drivers/STM32WLxx_HAL_Driver/Inc/stm32wlxx_ll_dma.h ****   *         @arg @ref LL_DMA_CHANNEL_4
 628:Drivers/STM32WLxx_HAL_Driver/Inc/stm32wlxx_ll_dma.h ****   *         @arg @ref LL_DMA_CHANNEL_5
 629:Drivers/STM32WLxx_HAL_Driver/Inc/stm32wlxx_ll_dma.h ****   *         @arg @ref LL_DMA_CHANNEL_6
 630:Drivers/STM32WLxx_HAL_Driver/Inc/stm32wlxx_ll_dma.h ****   *         @arg @ref LL_DMA_CHANNEL_7
 631:Drivers/STM32WLxx_HAL_Driver/Inc/stm32wlxx_ll_dma.h ****   * @param  Configuration This parameter must be a combination of all the following values:
 632:Drivers/STM32WLxx_HAL_Driver/Inc/stm32wlxx_ll_dma.h ****   *         @arg @ref LL_DMA_DIRECTION_PERIPH_TO_MEMORY or @ref LL_DMA_DIRECTION_MEMORY_TO_PERIPH o
 633:Drivers/STM32WLxx_HAL_Driver/Inc/stm32wlxx_ll_dma.h ****   *         @arg @ref LL_DMA_MODE_NORMAL or @ref LL_DMA_MODE_CIRCULAR
 634:Drivers/STM32WLxx_HAL_Driver/Inc/stm32wlxx_ll_dma.h ****   *         @arg @ref LL_DMA_PERIPH_INCREMENT or @ref LL_DMA_PERIPH_NOINCREMENT
 635:Drivers/STM32WLxx_HAL_Driver/Inc/stm32wlxx_ll_dma.h ****   *         @arg @ref LL_DMA_MEMORY_INCREMENT or @ref LL_DMA_MEMORY_NOINCREMENT
 636:Drivers/STM32WLxx_HAL_Driver/Inc/stm32wlxx_ll_dma.h ****   *         @arg @ref LL_DMA_PDATAALIGN_BYTE or @ref LL_DMA_PDATAALIGN_HALFWORD or @ref LL_DMA_PDAT
 637:Drivers/STM32WLxx_HAL_Driver/Inc/stm32wlxx_ll_dma.h ****   *         @arg @ref LL_DMA_MDATAALIGN_BYTE or @ref LL_DMA_MDATAALIGN_HALFWORD or @ref LL_DMA_MDAT
 638:Drivers/STM32WLxx_HAL_Driver/Inc/stm32wlxx_ll_dma.h ****   *         @arg @ref LL_DMA_PRIORITY_LOW or @ref LL_DMA_PRIORITY_MEDIUM or @ref LL_DMA_PRIORITY_HI
 639:Drivers/STM32WLxx_HAL_Driver/Inc/stm32wlxx_ll_dma.h ****   * @retval None
 640:Drivers/STM32WLxx_HAL_Driver/Inc/stm32wlxx_ll_dma.h ****   */
 641:Drivers/STM32WLxx_HAL_Driver/Inc/stm32wlxx_ll_dma.h **** __STATIC_INLINE void LL_DMA_ConfigTransfer(DMA_TypeDef *DMAx, uint32_t Channel, uint32_t Configurat
 642:Drivers/STM32WLxx_HAL_Driver/Inc/stm32wlxx_ll_dma.h **** {
 643:Drivers/STM32WLxx_HAL_Driver/Inc/stm32wlxx_ll_dma.h ****   uint32_t dma_base_addr = (uint32_t)DMAx;
 644:Drivers/STM32WLxx_HAL_Driver/Inc/stm32wlxx_ll_dma.h ****   MODIFY_REG(((DMA_Channel_TypeDef *)(dma_base_addr + CHANNEL_OFFSET_TAB[Channel]))->CCR,
 645:Drivers/STM32WLxx_HAL_Driver/Inc/stm32wlxx_ll_dma.h ****              DMA_CCR_DIR | DMA_CCR_MEM2MEM | DMA_CCR_CIRC | DMA_CCR_PINC | DMA_CCR_MINC | DMA_CCR_P
 646:Drivers/STM32WLxx_HAL_Driver/Inc/stm32wlxx_ll_dma.h ****              Configuration);
 647:Drivers/STM32WLxx_HAL_Driver/Inc/stm32wlxx_ll_dma.h **** }
 648:Drivers/STM32WLxx_HAL_Driver/Inc/stm32wlxx_ll_dma.h **** 
 649:Drivers/STM32WLxx_HAL_Driver/Inc/stm32wlxx_ll_dma.h **** /**
 650:Drivers/STM32WLxx_HAL_Driver/Inc/stm32wlxx_ll_dma.h ****   * @brief  Set Data transfer direction (read from peripheral or from memory).
 651:Drivers/STM32WLxx_HAL_Driver/Inc/stm32wlxx_ll_dma.h ****   * @rmtoll CCR          DIR           LL_DMA_SetDataTransferDirection\n
 652:Drivers/STM32WLxx_HAL_Driver/Inc/stm32wlxx_ll_dma.h ****   *         CCR          MEM2MEM       LL_DMA_SetDataTransferDirection
 653:Drivers/STM32WLxx_HAL_Driver/Inc/stm32wlxx_ll_dma.h ****   * @param  DMAx DMAx Instance
 654:Drivers/STM32WLxx_HAL_Driver/Inc/stm32wlxx_ll_dma.h ****   * @param  Channel This parameter can be one of the following values:
 655:Drivers/STM32WLxx_HAL_Driver/Inc/stm32wlxx_ll_dma.h ****   *         @arg @ref LL_DMA_CHANNEL_1
 656:Drivers/STM32WLxx_HAL_Driver/Inc/stm32wlxx_ll_dma.h ****   *         @arg @ref LL_DMA_CHANNEL_2
 657:Drivers/STM32WLxx_HAL_Driver/Inc/stm32wlxx_ll_dma.h ****   *         @arg @ref LL_DMA_CHANNEL_3
 658:Drivers/STM32WLxx_HAL_Driver/Inc/stm32wlxx_ll_dma.h ****   *         @arg @ref LL_DMA_CHANNEL_4
 659:Drivers/STM32WLxx_HAL_Driver/Inc/stm32wlxx_ll_dma.h ****   *         @arg @ref LL_DMA_CHANNEL_5
 660:Drivers/STM32WLxx_HAL_Driver/Inc/stm32wlxx_ll_dma.h ****   *         @arg @ref LL_DMA_CHANNEL_6
 661:Drivers/STM32WLxx_HAL_Driver/Inc/stm32wlxx_ll_dma.h ****   *         @arg @ref LL_DMA_CHANNEL_7
 662:Drivers/STM32WLxx_HAL_Driver/Inc/stm32wlxx_ll_dma.h ****   * @param  Direction This parameter can be one of the following values:
 663:Drivers/STM32WLxx_HAL_Driver/Inc/stm32wlxx_ll_dma.h ****   *         @arg @ref LL_DMA_DIRECTION_PERIPH_TO_MEMORY
 664:Drivers/STM32WLxx_HAL_Driver/Inc/stm32wlxx_ll_dma.h ****   *         @arg @ref LL_DMA_DIRECTION_MEMORY_TO_PERIPH
 665:Drivers/STM32WLxx_HAL_Driver/Inc/stm32wlxx_ll_dma.h ****   *         @arg @ref LL_DMA_DIRECTION_MEMORY_TO_MEMORY
 666:Drivers/STM32WLxx_HAL_Driver/Inc/stm32wlxx_ll_dma.h ****   * @retval None
 667:Drivers/STM32WLxx_HAL_Driver/Inc/stm32wlxx_ll_dma.h ****   */
 668:Drivers/STM32WLxx_HAL_Driver/Inc/stm32wlxx_ll_dma.h **** __STATIC_INLINE void LL_DMA_SetDataTransferDirection(DMA_TypeDef *DMAx, uint32_t Channel, uint32_t 
ARM GAS  /var/folders/9y/n02fl3g16gnf7ppy14xghdy80000gn/T//ccTkjYAj.s 			page 34


 669:Drivers/STM32WLxx_HAL_Driver/Inc/stm32wlxx_ll_dma.h **** {
 670:Drivers/STM32WLxx_HAL_Driver/Inc/stm32wlxx_ll_dma.h ****   uint32_t dma_base_addr = (uint32_t)DMAx;
 671:Drivers/STM32WLxx_HAL_Driver/Inc/stm32wlxx_ll_dma.h ****   MODIFY_REG(((DMA_Channel_TypeDef *)(dma_base_addr + CHANNEL_OFFSET_TAB[Channel]))->CCR,
 672:Drivers/STM32WLxx_HAL_Driver/Inc/stm32wlxx_ll_dma.h ****              DMA_CCR_DIR | DMA_CCR_MEM2MEM, Direction);
 673:Drivers/STM32WLxx_HAL_Driver/Inc/stm32wlxx_ll_dma.h **** }
 674:Drivers/STM32WLxx_HAL_Driver/Inc/stm32wlxx_ll_dma.h **** 
 675:Drivers/STM32WLxx_HAL_Driver/Inc/stm32wlxx_ll_dma.h **** /**
 676:Drivers/STM32WLxx_HAL_Driver/Inc/stm32wlxx_ll_dma.h ****   * @brief  Get Data transfer direction (read from peripheral or from memory).
 677:Drivers/STM32WLxx_HAL_Driver/Inc/stm32wlxx_ll_dma.h ****   * @rmtoll CCR          DIR           LL_DMA_GetDataTransferDirection\n
 678:Drivers/STM32WLxx_HAL_Driver/Inc/stm32wlxx_ll_dma.h ****   *         CCR          MEM2MEM       LL_DMA_GetDataTransferDirection
 679:Drivers/STM32WLxx_HAL_Driver/Inc/stm32wlxx_ll_dma.h ****   * @param  DMAx DMAx Instance
 680:Drivers/STM32WLxx_HAL_Driver/Inc/stm32wlxx_ll_dma.h ****   * @param  Channel This parameter can be one of the following values:
 681:Drivers/STM32WLxx_HAL_Driver/Inc/stm32wlxx_ll_dma.h ****   *         @arg @ref LL_DMA_CHANNEL_1
 682:Drivers/STM32WLxx_HAL_Driver/Inc/stm32wlxx_ll_dma.h ****   *         @arg @ref LL_DMA_CHANNEL_2
 683:Drivers/STM32WLxx_HAL_Driver/Inc/stm32wlxx_ll_dma.h ****   *         @arg @ref LL_DMA_CHANNEL_3
 684:Drivers/STM32WLxx_HAL_Driver/Inc/stm32wlxx_ll_dma.h ****   *         @arg @ref LL_DMA_CHANNEL_4
 685:Drivers/STM32WLxx_HAL_Driver/Inc/stm32wlxx_ll_dma.h ****   *         @arg @ref LL_DMA_CHANNEL_5
 686:Drivers/STM32WLxx_HAL_Driver/Inc/stm32wlxx_ll_dma.h ****   *         @arg @ref LL_DMA_CHANNEL_6
 687:Drivers/STM32WLxx_HAL_Driver/Inc/stm32wlxx_ll_dma.h ****   *         @arg @ref LL_DMA_CHANNEL_7
 688:Drivers/STM32WLxx_HAL_Driver/Inc/stm32wlxx_ll_dma.h ****   * @retval Returned value can be one of the following values:
 689:Drivers/STM32WLxx_HAL_Driver/Inc/stm32wlxx_ll_dma.h ****   *         @arg @ref LL_DMA_DIRECTION_PERIPH_TO_MEMORY
 690:Drivers/STM32WLxx_HAL_Driver/Inc/stm32wlxx_ll_dma.h ****   *         @arg @ref LL_DMA_DIRECTION_MEMORY_TO_PERIPH
 691:Drivers/STM32WLxx_HAL_Driver/Inc/stm32wlxx_ll_dma.h ****   *         @arg @ref LL_DMA_DIRECTION_MEMORY_TO_MEMORY
 692:Drivers/STM32WLxx_HAL_Driver/Inc/stm32wlxx_ll_dma.h ****   */
 693:Drivers/STM32WLxx_HAL_Driver/Inc/stm32wlxx_ll_dma.h **** __STATIC_INLINE uint32_t LL_DMA_GetDataTransferDirection(DMA_TypeDef *DMAx, uint32_t Channel)
 694:Drivers/STM32WLxx_HAL_Driver/Inc/stm32wlxx_ll_dma.h **** {
 695:Drivers/STM32WLxx_HAL_Driver/Inc/stm32wlxx_ll_dma.h ****   uint32_t dma_base_addr = (uint32_t)DMAx;
 696:Drivers/STM32WLxx_HAL_Driver/Inc/stm32wlxx_ll_dma.h ****   return (READ_BIT(((DMA_Channel_TypeDef *)(dma_base_addr + CHANNEL_OFFSET_TAB[Channel]))->CCR,
 697:Drivers/STM32WLxx_HAL_Driver/Inc/stm32wlxx_ll_dma.h ****                    DMA_CCR_DIR | DMA_CCR_MEM2MEM));
 698:Drivers/STM32WLxx_HAL_Driver/Inc/stm32wlxx_ll_dma.h **** }
 699:Drivers/STM32WLxx_HAL_Driver/Inc/stm32wlxx_ll_dma.h **** 
 700:Drivers/STM32WLxx_HAL_Driver/Inc/stm32wlxx_ll_dma.h **** /**
 701:Drivers/STM32WLxx_HAL_Driver/Inc/stm32wlxx_ll_dma.h ****   * @brief  Set DMA mode circular or normal.
 702:Drivers/STM32WLxx_HAL_Driver/Inc/stm32wlxx_ll_dma.h ****   * @note The circular buffer mode cannot be used if the memory-to-memory
 703:Drivers/STM32WLxx_HAL_Driver/Inc/stm32wlxx_ll_dma.h ****   * data transfer is configured on the selected Channel.
 704:Drivers/STM32WLxx_HAL_Driver/Inc/stm32wlxx_ll_dma.h ****   * @rmtoll CCR          CIRC          LL_DMA_SetMode
 705:Drivers/STM32WLxx_HAL_Driver/Inc/stm32wlxx_ll_dma.h ****   * @param  DMAx DMAx Instance
 706:Drivers/STM32WLxx_HAL_Driver/Inc/stm32wlxx_ll_dma.h ****   * @param  Channel This parameter can be one of the following values:
 707:Drivers/STM32WLxx_HAL_Driver/Inc/stm32wlxx_ll_dma.h ****   *         @arg @ref LL_DMA_CHANNEL_1
 708:Drivers/STM32WLxx_HAL_Driver/Inc/stm32wlxx_ll_dma.h ****   *         @arg @ref LL_DMA_CHANNEL_2
 709:Drivers/STM32WLxx_HAL_Driver/Inc/stm32wlxx_ll_dma.h ****   *         @arg @ref LL_DMA_CHANNEL_3
 710:Drivers/STM32WLxx_HAL_Driver/Inc/stm32wlxx_ll_dma.h ****   *         @arg @ref LL_DMA_CHANNEL_4
 711:Drivers/STM32WLxx_HAL_Driver/Inc/stm32wlxx_ll_dma.h ****   *         @arg @ref LL_DMA_CHANNEL_5
 712:Drivers/STM32WLxx_HAL_Driver/Inc/stm32wlxx_ll_dma.h ****   *         @arg @ref LL_DMA_CHANNEL_6
 713:Drivers/STM32WLxx_HAL_Driver/Inc/stm32wlxx_ll_dma.h ****   *         @arg @ref LL_DMA_CHANNEL_7
 714:Drivers/STM32WLxx_HAL_Driver/Inc/stm32wlxx_ll_dma.h ****   * @param  Mode This parameter can be one of the following values:
 715:Drivers/STM32WLxx_HAL_Driver/Inc/stm32wlxx_ll_dma.h ****   *         @arg @ref LL_DMA_MODE_NORMAL
 716:Drivers/STM32WLxx_HAL_Driver/Inc/stm32wlxx_ll_dma.h ****   *         @arg @ref LL_DMA_MODE_CIRCULAR
 717:Drivers/STM32WLxx_HAL_Driver/Inc/stm32wlxx_ll_dma.h ****   * @retval None
 718:Drivers/STM32WLxx_HAL_Driver/Inc/stm32wlxx_ll_dma.h ****   */
 719:Drivers/STM32WLxx_HAL_Driver/Inc/stm32wlxx_ll_dma.h **** __STATIC_INLINE void LL_DMA_SetMode(DMA_TypeDef *DMAx, uint32_t Channel, uint32_t Mode)
 720:Drivers/STM32WLxx_HAL_Driver/Inc/stm32wlxx_ll_dma.h **** {
 721:Drivers/STM32WLxx_HAL_Driver/Inc/stm32wlxx_ll_dma.h ****   uint32_t dma_base_addr = (uint32_t)DMAx;
 722:Drivers/STM32WLxx_HAL_Driver/Inc/stm32wlxx_ll_dma.h ****   MODIFY_REG(((DMA_Channel_TypeDef *)(dma_base_addr + CHANNEL_OFFSET_TAB[Channel]))->CCR, DMA_CCR_C
 723:Drivers/STM32WLxx_HAL_Driver/Inc/stm32wlxx_ll_dma.h ****              Mode);
 724:Drivers/STM32WLxx_HAL_Driver/Inc/stm32wlxx_ll_dma.h **** }
 725:Drivers/STM32WLxx_HAL_Driver/Inc/stm32wlxx_ll_dma.h **** 
ARM GAS  /var/folders/9y/n02fl3g16gnf7ppy14xghdy80000gn/T//ccTkjYAj.s 			page 35


 726:Drivers/STM32WLxx_HAL_Driver/Inc/stm32wlxx_ll_dma.h **** /**
 727:Drivers/STM32WLxx_HAL_Driver/Inc/stm32wlxx_ll_dma.h ****   * @brief  Get DMA mode circular or normal.
 728:Drivers/STM32WLxx_HAL_Driver/Inc/stm32wlxx_ll_dma.h ****   * @rmtoll CCR          CIRC          LL_DMA_GetMode
 729:Drivers/STM32WLxx_HAL_Driver/Inc/stm32wlxx_ll_dma.h ****   * @param  DMAx DMAx Instance
 730:Drivers/STM32WLxx_HAL_Driver/Inc/stm32wlxx_ll_dma.h ****   * @param  Channel This parameter can be one of the following values:
 731:Drivers/STM32WLxx_HAL_Driver/Inc/stm32wlxx_ll_dma.h ****   *         @arg @ref LL_DMA_CHANNEL_1
 732:Drivers/STM32WLxx_HAL_Driver/Inc/stm32wlxx_ll_dma.h ****   *         @arg @ref LL_DMA_CHANNEL_2
 733:Drivers/STM32WLxx_HAL_Driver/Inc/stm32wlxx_ll_dma.h ****   *         @arg @ref LL_DMA_CHANNEL_3
 734:Drivers/STM32WLxx_HAL_Driver/Inc/stm32wlxx_ll_dma.h ****   *         @arg @ref LL_DMA_CHANNEL_4
 735:Drivers/STM32WLxx_HAL_Driver/Inc/stm32wlxx_ll_dma.h ****   *         @arg @ref LL_DMA_CHANNEL_5
 736:Drivers/STM32WLxx_HAL_Driver/Inc/stm32wlxx_ll_dma.h ****   *         @arg @ref LL_DMA_CHANNEL_6
 737:Drivers/STM32WLxx_HAL_Driver/Inc/stm32wlxx_ll_dma.h ****   *         @arg @ref LL_DMA_CHANNEL_7
 738:Drivers/STM32WLxx_HAL_Driver/Inc/stm32wlxx_ll_dma.h ****   * @retval Returned value can be one of the following values:
 739:Drivers/STM32WLxx_HAL_Driver/Inc/stm32wlxx_ll_dma.h ****   *         @arg @ref LL_DMA_MODE_NORMAL
 740:Drivers/STM32WLxx_HAL_Driver/Inc/stm32wlxx_ll_dma.h ****   *         @arg @ref LL_DMA_MODE_CIRCULAR
 741:Drivers/STM32WLxx_HAL_Driver/Inc/stm32wlxx_ll_dma.h ****   */
 742:Drivers/STM32WLxx_HAL_Driver/Inc/stm32wlxx_ll_dma.h **** __STATIC_INLINE uint32_t LL_DMA_GetMode(DMA_TypeDef *DMAx, uint32_t Channel)
 743:Drivers/STM32WLxx_HAL_Driver/Inc/stm32wlxx_ll_dma.h **** {
 744:Drivers/STM32WLxx_HAL_Driver/Inc/stm32wlxx_ll_dma.h ****   uint32_t dma_base_addr = (uint32_t)DMAx;
 745:Drivers/STM32WLxx_HAL_Driver/Inc/stm32wlxx_ll_dma.h ****   return (READ_BIT(((DMA_Channel_TypeDef *)(dma_base_addr + CHANNEL_OFFSET_TAB[Channel]))->CCR,
 746:Drivers/STM32WLxx_HAL_Driver/Inc/stm32wlxx_ll_dma.h ****                    DMA_CCR_CIRC));
 747:Drivers/STM32WLxx_HAL_Driver/Inc/stm32wlxx_ll_dma.h **** }
 748:Drivers/STM32WLxx_HAL_Driver/Inc/stm32wlxx_ll_dma.h **** 
 749:Drivers/STM32WLxx_HAL_Driver/Inc/stm32wlxx_ll_dma.h **** /**
 750:Drivers/STM32WLxx_HAL_Driver/Inc/stm32wlxx_ll_dma.h ****   * @brief  Set Peripheral increment mode.
 751:Drivers/STM32WLxx_HAL_Driver/Inc/stm32wlxx_ll_dma.h ****   * @rmtoll CCR          PINC          LL_DMA_SetPeriphIncMode
 752:Drivers/STM32WLxx_HAL_Driver/Inc/stm32wlxx_ll_dma.h ****   * @param  DMAx DMAx Instance
 753:Drivers/STM32WLxx_HAL_Driver/Inc/stm32wlxx_ll_dma.h ****   * @param  Channel This parameter can be one of the following values:
 754:Drivers/STM32WLxx_HAL_Driver/Inc/stm32wlxx_ll_dma.h ****   *         @arg @ref LL_DMA_CHANNEL_1
 755:Drivers/STM32WLxx_HAL_Driver/Inc/stm32wlxx_ll_dma.h ****   *         @arg @ref LL_DMA_CHANNEL_2
 756:Drivers/STM32WLxx_HAL_Driver/Inc/stm32wlxx_ll_dma.h ****   *         @arg @ref LL_DMA_CHANNEL_3
 757:Drivers/STM32WLxx_HAL_Driver/Inc/stm32wlxx_ll_dma.h ****   *         @arg @ref LL_DMA_CHANNEL_4
 758:Drivers/STM32WLxx_HAL_Driver/Inc/stm32wlxx_ll_dma.h ****   *         @arg @ref LL_DMA_CHANNEL_5
 759:Drivers/STM32WLxx_HAL_Driver/Inc/stm32wlxx_ll_dma.h ****   *         @arg @ref LL_DMA_CHANNEL_6
 760:Drivers/STM32WLxx_HAL_Driver/Inc/stm32wlxx_ll_dma.h ****   *         @arg @ref LL_DMA_CHANNEL_7
 761:Drivers/STM32WLxx_HAL_Driver/Inc/stm32wlxx_ll_dma.h ****   * @param  PeriphOrM2MSrcIncMode This parameter can be one of the following values:
 762:Drivers/STM32WLxx_HAL_Driver/Inc/stm32wlxx_ll_dma.h ****   *         @arg @ref LL_DMA_PERIPH_INCREMENT
 763:Drivers/STM32WLxx_HAL_Driver/Inc/stm32wlxx_ll_dma.h ****   *         @arg @ref LL_DMA_PERIPH_NOINCREMENT
 764:Drivers/STM32WLxx_HAL_Driver/Inc/stm32wlxx_ll_dma.h ****   * @retval None
 765:Drivers/STM32WLxx_HAL_Driver/Inc/stm32wlxx_ll_dma.h ****   */
 766:Drivers/STM32WLxx_HAL_Driver/Inc/stm32wlxx_ll_dma.h **** __STATIC_INLINE void LL_DMA_SetPeriphIncMode(DMA_TypeDef *DMAx, uint32_t Channel, uint32_t PeriphOr
 767:Drivers/STM32WLxx_HAL_Driver/Inc/stm32wlxx_ll_dma.h **** {
 768:Drivers/STM32WLxx_HAL_Driver/Inc/stm32wlxx_ll_dma.h ****   uint32_t dma_base_addr = (uint32_t)DMAx;
 769:Drivers/STM32WLxx_HAL_Driver/Inc/stm32wlxx_ll_dma.h ****   MODIFY_REG(((DMA_Channel_TypeDef *)(dma_base_addr + CHANNEL_OFFSET_TAB[Channel]))->CCR, DMA_CCR_P
 770:Drivers/STM32WLxx_HAL_Driver/Inc/stm32wlxx_ll_dma.h ****              PeriphOrM2MSrcIncMode);
 771:Drivers/STM32WLxx_HAL_Driver/Inc/stm32wlxx_ll_dma.h **** }
 772:Drivers/STM32WLxx_HAL_Driver/Inc/stm32wlxx_ll_dma.h **** 
 773:Drivers/STM32WLxx_HAL_Driver/Inc/stm32wlxx_ll_dma.h **** /**
 774:Drivers/STM32WLxx_HAL_Driver/Inc/stm32wlxx_ll_dma.h ****   * @brief  Get Peripheral increment mode.
 775:Drivers/STM32WLxx_HAL_Driver/Inc/stm32wlxx_ll_dma.h ****   * @rmtoll CCR          PINC          LL_DMA_GetPeriphIncMode
 776:Drivers/STM32WLxx_HAL_Driver/Inc/stm32wlxx_ll_dma.h ****   * @param  DMAx DMAx Instance
 777:Drivers/STM32WLxx_HAL_Driver/Inc/stm32wlxx_ll_dma.h ****   * @param  Channel This parameter can be one of the following values:
 778:Drivers/STM32WLxx_HAL_Driver/Inc/stm32wlxx_ll_dma.h ****   *         @arg @ref LL_DMA_CHANNEL_1
 779:Drivers/STM32WLxx_HAL_Driver/Inc/stm32wlxx_ll_dma.h ****   *         @arg @ref LL_DMA_CHANNEL_2
 780:Drivers/STM32WLxx_HAL_Driver/Inc/stm32wlxx_ll_dma.h ****   *         @arg @ref LL_DMA_CHANNEL_3
 781:Drivers/STM32WLxx_HAL_Driver/Inc/stm32wlxx_ll_dma.h ****   *         @arg @ref LL_DMA_CHANNEL_4
 782:Drivers/STM32WLxx_HAL_Driver/Inc/stm32wlxx_ll_dma.h ****   *         @arg @ref LL_DMA_CHANNEL_5
ARM GAS  /var/folders/9y/n02fl3g16gnf7ppy14xghdy80000gn/T//ccTkjYAj.s 			page 36


 783:Drivers/STM32WLxx_HAL_Driver/Inc/stm32wlxx_ll_dma.h ****   *         @arg @ref LL_DMA_CHANNEL_6
 784:Drivers/STM32WLxx_HAL_Driver/Inc/stm32wlxx_ll_dma.h ****   *         @arg @ref LL_DMA_CHANNEL_7
 785:Drivers/STM32WLxx_HAL_Driver/Inc/stm32wlxx_ll_dma.h ****   * @retval Returned value can be one of the following values:
 786:Drivers/STM32WLxx_HAL_Driver/Inc/stm32wlxx_ll_dma.h ****   *         @arg @ref LL_DMA_PERIPH_INCREMENT
 787:Drivers/STM32WLxx_HAL_Driver/Inc/stm32wlxx_ll_dma.h ****   *         @arg @ref LL_DMA_PERIPH_NOINCREMENT
 788:Drivers/STM32WLxx_HAL_Driver/Inc/stm32wlxx_ll_dma.h ****   */
 789:Drivers/STM32WLxx_HAL_Driver/Inc/stm32wlxx_ll_dma.h **** __STATIC_INLINE uint32_t LL_DMA_GetPeriphIncMode(DMA_TypeDef *DMAx, uint32_t Channel)
 790:Drivers/STM32WLxx_HAL_Driver/Inc/stm32wlxx_ll_dma.h **** {
 791:Drivers/STM32WLxx_HAL_Driver/Inc/stm32wlxx_ll_dma.h ****   uint32_t dma_base_addr = (uint32_t)DMAx;
 792:Drivers/STM32WLxx_HAL_Driver/Inc/stm32wlxx_ll_dma.h ****   return (READ_BIT(((DMA_Channel_TypeDef *)(dma_base_addr + CHANNEL_OFFSET_TAB[Channel]))->CCR,
 793:Drivers/STM32WLxx_HAL_Driver/Inc/stm32wlxx_ll_dma.h ****                    DMA_CCR_PINC));
 794:Drivers/STM32WLxx_HAL_Driver/Inc/stm32wlxx_ll_dma.h **** }
 795:Drivers/STM32WLxx_HAL_Driver/Inc/stm32wlxx_ll_dma.h **** 
 796:Drivers/STM32WLxx_HAL_Driver/Inc/stm32wlxx_ll_dma.h **** /**
 797:Drivers/STM32WLxx_HAL_Driver/Inc/stm32wlxx_ll_dma.h ****   * @brief  Set Memory increment mode.
 798:Drivers/STM32WLxx_HAL_Driver/Inc/stm32wlxx_ll_dma.h ****   * @rmtoll CCR          MINC          LL_DMA_SetMemoryIncMode
 799:Drivers/STM32WLxx_HAL_Driver/Inc/stm32wlxx_ll_dma.h ****   * @param  DMAx DMAx Instance
 800:Drivers/STM32WLxx_HAL_Driver/Inc/stm32wlxx_ll_dma.h ****   * @param  Channel This parameter can be one of the following values:
 801:Drivers/STM32WLxx_HAL_Driver/Inc/stm32wlxx_ll_dma.h ****   *         @arg @ref LL_DMA_CHANNEL_1
 802:Drivers/STM32WLxx_HAL_Driver/Inc/stm32wlxx_ll_dma.h ****   *         @arg @ref LL_DMA_CHANNEL_2
 803:Drivers/STM32WLxx_HAL_Driver/Inc/stm32wlxx_ll_dma.h ****   *         @arg @ref LL_DMA_CHANNEL_3
 804:Drivers/STM32WLxx_HAL_Driver/Inc/stm32wlxx_ll_dma.h ****   *         @arg @ref LL_DMA_CHANNEL_4
 805:Drivers/STM32WLxx_HAL_Driver/Inc/stm32wlxx_ll_dma.h ****   *         @arg @ref LL_DMA_CHANNEL_5
 806:Drivers/STM32WLxx_HAL_Driver/Inc/stm32wlxx_ll_dma.h ****   *         @arg @ref LL_DMA_CHANNEL_6
 807:Drivers/STM32WLxx_HAL_Driver/Inc/stm32wlxx_ll_dma.h ****   *         @arg @ref LL_DMA_CHANNEL_7
 808:Drivers/STM32WLxx_HAL_Driver/Inc/stm32wlxx_ll_dma.h ****   * @param  MemoryOrM2MDstIncMode This parameter can be one of the following values:
 809:Drivers/STM32WLxx_HAL_Driver/Inc/stm32wlxx_ll_dma.h ****   *         @arg @ref LL_DMA_MEMORY_INCREMENT
 810:Drivers/STM32WLxx_HAL_Driver/Inc/stm32wlxx_ll_dma.h ****   *         @arg @ref LL_DMA_MEMORY_NOINCREMENT
 811:Drivers/STM32WLxx_HAL_Driver/Inc/stm32wlxx_ll_dma.h ****   * @retval None
 812:Drivers/STM32WLxx_HAL_Driver/Inc/stm32wlxx_ll_dma.h ****   */
 813:Drivers/STM32WLxx_HAL_Driver/Inc/stm32wlxx_ll_dma.h **** __STATIC_INLINE void LL_DMA_SetMemoryIncMode(DMA_TypeDef *DMAx, uint32_t Channel, uint32_t MemoryOr
 814:Drivers/STM32WLxx_HAL_Driver/Inc/stm32wlxx_ll_dma.h **** {
 815:Drivers/STM32WLxx_HAL_Driver/Inc/stm32wlxx_ll_dma.h ****   uint32_t dma_base_addr = (uint32_t)DMAx;
 816:Drivers/STM32WLxx_HAL_Driver/Inc/stm32wlxx_ll_dma.h ****   MODIFY_REG(((DMA_Channel_TypeDef *)(dma_base_addr + CHANNEL_OFFSET_TAB[Channel]))->CCR, DMA_CCR_M
 817:Drivers/STM32WLxx_HAL_Driver/Inc/stm32wlxx_ll_dma.h ****              MemoryOrM2MDstIncMode);
 818:Drivers/STM32WLxx_HAL_Driver/Inc/stm32wlxx_ll_dma.h **** }
 819:Drivers/STM32WLxx_HAL_Driver/Inc/stm32wlxx_ll_dma.h **** 
 820:Drivers/STM32WLxx_HAL_Driver/Inc/stm32wlxx_ll_dma.h **** /**
 821:Drivers/STM32WLxx_HAL_Driver/Inc/stm32wlxx_ll_dma.h ****   * @brief  Get Memory increment mode.
 822:Drivers/STM32WLxx_HAL_Driver/Inc/stm32wlxx_ll_dma.h ****   * @rmtoll CCR          MINC          LL_DMA_GetMemoryIncMode
 823:Drivers/STM32WLxx_HAL_Driver/Inc/stm32wlxx_ll_dma.h ****   * @param  DMAx DMAx Instance
 824:Drivers/STM32WLxx_HAL_Driver/Inc/stm32wlxx_ll_dma.h ****   * @param  Channel This parameter can be one of the following values:
 825:Drivers/STM32WLxx_HAL_Driver/Inc/stm32wlxx_ll_dma.h ****   *         @arg @ref LL_DMA_CHANNEL_1
 826:Drivers/STM32WLxx_HAL_Driver/Inc/stm32wlxx_ll_dma.h ****   *         @arg @ref LL_DMA_CHANNEL_2
 827:Drivers/STM32WLxx_HAL_Driver/Inc/stm32wlxx_ll_dma.h ****   *         @arg @ref LL_DMA_CHANNEL_3
 828:Drivers/STM32WLxx_HAL_Driver/Inc/stm32wlxx_ll_dma.h ****   *         @arg @ref LL_DMA_CHANNEL_4
 829:Drivers/STM32WLxx_HAL_Driver/Inc/stm32wlxx_ll_dma.h ****   *         @arg @ref LL_DMA_CHANNEL_5
 830:Drivers/STM32WLxx_HAL_Driver/Inc/stm32wlxx_ll_dma.h ****   *         @arg @ref LL_DMA_CHANNEL_6
 831:Drivers/STM32WLxx_HAL_Driver/Inc/stm32wlxx_ll_dma.h ****   *         @arg @ref LL_DMA_CHANNEL_7
 832:Drivers/STM32WLxx_HAL_Driver/Inc/stm32wlxx_ll_dma.h ****   * @retval Returned value can be one of the following values:
 833:Drivers/STM32WLxx_HAL_Driver/Inc/stm32wlxx_ll_dma.h ****   *         @arg @ref LL_DMA_MEMORY_INCREMENT
 834:Drivers/STM32WLxx_HAL_Driver/Inc/stm32wlxx_ll_dma.h ****   *         @arg @ref LL_DMA_MEMORY_NOINCREMENT
 835:Drivers/STM32WLxx_HAL_Driver/Inc/stm32wlxx_ll_dma.h ****   */
 836:Drivers/STM32WLxx_HAL_Driver/Inc/stm32wlxx_ll_dma.h **** __STATIC_INLINE uint32_t LL_DMA_GetMemoryIncMode(DMA_TypeDef *DMAx, uint32_t Channel)
 837:Drivers/STM32WLxx_HAL_Driver/Inc/stm32wlxx_ll_dma.h **** {
 838:Drivers/STM32WLxx_HAL_Driver/Inc/stm32wlxx_ll_dma.h ****   uint32_t dma_base_addr = (uint32_t)DMAx;
 839:Drivers/STM32WLxx_HAL_Driver/Inc/stm32wlxx_ll_dma.h ****   return (READ_BIT(((DMA_Channel_TypeDef *)(dma_base_addr + CHANNEL_OFFSET_TAB[Channel]))->CCR,
ARM GAS  /var/folders/9y/n02fl3g16gnf7ppy14xghdy80000gn/T//ccTkjYAj.s 			page 37


 840:Drivers/STM32WLxx_HAL_Driver/Inc/stm32wlxx_ll_dma.h ****                    DMA_CCR_MINC));
 841:Drivers/STM32WLxx_HAL_Driver/Inc/stm32wlxx_ll_dma.h **** }
 842:Drivers/STM32WLxx_HAL_Driver/Inc/stm32wlxx_ll_dma.h **** 
 843:Drivers/STM32WLxx_HAL_Driver/Inc/stm32wlxx_ll_dma.h **** /**
 844:Drivers/STM32WLxx_HAL_Driver/Inc/stm32wlxx_ll_dma.h ****   * @brief  Set Peripheral size.
 845:Drivers/STM32WLxx_HAL_Driver/Inc/stm32wlxx_ll_dma.h ****   * @rmtoll CCR          PSIZE         LL_DMA_SetPeriphSize
 846:Drivers/STM32WLxx_HAL_Driver/Inc/stm32wlxx_ll_dma.h ****   * @param  DMAx DMAx Instance
 847:Drivers/STM32WLxx_HAL_Driver/Inc/stm32wlxx_ll_dma.h ****   * @param  Channel This parameter can be one of the following values:
 848:Drivers/STM32WLxx_HAL_Driver/Inc/stm32wlxx_ll_dma.h ****   *         @arg @ref LL_DMA_CHANNEL_1
 849:Drivers/STM32WLxx_HAL_Driver/Inc/stm32wlxx_ll_dma.h ****   *         @arg @ref LL_DMA_CHANNEL_2
 850:Drivers/STM32WLxx_HAL_Driver/Inc/stm32wlxx_ll_dma.h ****   *         @arg @ref LL_DMA_CHANNEL_3
 851:Drivers/STM32WLxx_HAL_Driver/Inc/stm32wlxx_ll_dma.h ****   *         @arg @ref LL_DMA_CHANNEL_4
 852:Drivers/STM32WLxx_HAL_Driver/Inc/stm32wlxx_ll_dma.h ****   *         @arg @ref LL_DMA_CHANNEL_5
 853:Drivers/STM32WLxx_HAL_Driver/Inc/stm32wlxx_ll_dma.h ****   *         @arg @ref LL_DMA_CHANNEL_6
 854:Drivers/STM32WLxx_HAL_Driver/Inc/stm32wlxx_ll_dma.h ****   *         @arg @ref LL_DMA_CHANNEL_7
 855:Drivers/STM32WLxx_HAL_Driver/Inc/stm32wlxx_ll_dma.h ****   * @param  PeriphOrM2MSrcDataSize This parameter can be one of the following values:
 856:Drivers/STM32WLxx_HAL_Driver/Inc/stm32wlxx_ll_dma.h ****   *         @arg @ref LL_DMA_PDATAALIGN_BYTE
 857:Drivers/STM32WLxx_HAL_Driver/Inc/stm32wlxx_ll_dma.h ****   *         @arg @ref LL_DMA_PDATAALIGN_HALFWORD
 858:Drivers/STM32WLxx_HAL_Driver/Inc/stm32wlxx_ll_dma.h ****   *         @arg @ref LL_DMA_PDATAALIGN_WORD
 859:Drivers/STM32WLxx_HAL_Driver/Inc/stm32wlxx_ll_dma.h ****   * @retval None
 860:Drivers/STM32WLxx_HAL_Driver/Inc/stm32wlxx_ll_dma.h ****   */
 861:Drivers/STM32WLxx_HAL_Driver/Inc/stm32wlxx_ll_dma.h **** __STATIC_INLINE void LL_DMA_SetPeriphSize(DMA_TypeDef *DMAx, uint32_t Channel, uint32_t PeriphOrM2M
 862:Drivers/STM32WLxx_HAL_Driver/Inc/stm32wlxx_ll_dma.h **** {
 863:Drivers/STM32WLxx_HAL_Driver/Inc/stm32wlxx_ll_dma.h ****   uint32_t dma_base_addr = (uint32_t)DMAx;
 864:Drivers/STM32WLxx_HAL_Driver/Inc/stm32wlxx_ll_dma.h ****   MODIFY_REG(((DMA_Channel_TypeDef *)(dma_base_addr + CHANNEL_OFFSET_TAB[Channel]))->CCR, DMA_CCR_P
 865:Drivers/STM32WLxx_HAL_Driver/Inc/stm32wlxx_ll_dma.h ****              PeriphOrM2MSrcDataSize);
 866:Drivers/STM32WLxx_HAL_Driver/Inc/stm32wlxx_ll_dma.h **** }
 867:Drivers/STM32WLxx_HAL_Driver/Inc/stm32wlxx_ll_dma.h **** 
 868:Drivers/STM32WLxx_HAL_Driver/Inc/stm32wlxx_ll_dma.h **** /**
 869:Drivers/STM32WLxx_HAL_Driver/Inc/stm32wlxx_ll_dma.h ****   * @brief  Get Peripheral size.
 870:Drivers/STM32WLxx_HAL_Driver/Inc/stm32wlxx_ll_dma.h ****   * @rmtoll CCR          PSIZE         LL_DMA_GetPeriphSize
 871:Drivers/STM32WLxx_HAL_Driver/Inc/stm32wlxx_ll_dma.h ****   * @param  DMAx DMAx Instance
 872:Drivers/STM32WLxx_HAL_Driver/Inc/stm32wlxx_ll_dma.h ****   * @param  Channel This parameter can be one of the following values:
 873:Drivers/STM32WLxx_HAL_Driver/Inc/stm32wlxx_ll_dma.h ****   *         @arg @ref LL_DMA_CHANNEL_1
 874:Drivers/STM32WLxx_HAL_Driver/Inc/stm32wlxx_ll_dma.h ****   *         @arg @ref LL_DMA_CHANNEL_2
 875:Drivers/STM32WLxx_HAL_Driver/Inc/stm32wlxx_ll_dma.h ****   *         @arg @ref LL_DMA_CHANNEL_3
 876:Drivers/STM32WLxx_HAL_Driver/Inc/stm32wlxx_ll_dma.h ****   *         @arg @ref LL_DMA_CHANNEL_4
 877:Drivers/STM32WLxx_HAL_Driver/Inc/stm32wlxx_ll_dma.h ****   *         @arg @ref LL_DMA_CHANNEL_5
 878:Drivers/STM32WLxx_HAL_Driver/Inc/stm32wlxx_ll_dma.h ****   *         @arg @ref LL_DMA_CHANNEL_6
 879:Drivers/STM32WLxx_HAL_Driver/Inc/stm32wlxx_ll_dma.h ****   *         @arg @ref LL_DMA_CHANNEL_7
 880:Drivers/STM32WLxx_HAL_Driver/Inc/stm32wlxx_ll_dma.h ****   * @retval Returned value can be one of the following values:
 881:Drivers/STM32WLxx_HAL_Driver/Inc/stm32wlxx_ll_dma.h ****   *         @arg @ref LL_DMA_PDATAALIGN_BYTE
 882:Drivers/STM32WLxx_HAL_Driver/Inc/stm32wlxx_ll_dma.h ****   *         @arg @ref LL_DMA_PDATAALIGN_HALFWORD
 883:Drivers/STM32WLxx_HAL_Driver/Inc/stm32wlxx_ll_dma.h ****   *         @arg @ref LL_DMA_PDATAALIGN_WORD
 884:Drivers/STM32WLxx_HAL_Driver/Inc/stm32wlxx_ll_dma.h ****   */
 885:Drivers/STM32WLxx_HAL_Driver/Inc/stm32wlxx_ll_dma.h **** __STATIC_INLINE uint32_t LL_DMA_GetPeriphSize(DMA_TypeDef *DMAx, uint32_t Channel)
 886:Drivers/STM32WLxx_HAL_Driver/Inc/stm32wlxx_ll_dma.h **** {
 887:Drivers/STM32WLxx_HAL_Driver/Inc/stm32wlxx_ll_dma.h ****   uint32_t dma_base_addr = (uint32_t)DMAx;
 888:Drivers/STM32WLxx_HAL_Driver/Inc/stm32wlxx_ll_dma.h ****   return (READ_BIT(((DMA_Channel_TypeDef *)(dma_base_addr + CHANNEL_OFFSET_TAB[Channel]))->CCR,
 889:Drivers/STM32WLxx_HAL_Driver/Inc/stm32wlxx_ll_dma.h ****                    DMA_CCR_PSIZE));
 890:Drivers/STM32WLxx_HAL_Driver/Inc/stm32wlxx_ll_dma.h **** }
 891:Drivers/STM32WLxx_HAL_Driver/Inc/stm32wlxx_ll_dma.h **** 
 892:Drivers/STM32WLxx_HAL_Driver/Inc/stm32wlxx_ll_dma.h **** /**
 893:Drivers/STM32WLxx_HAL_Driver/Inc/stm32wlxx_ll_dma.h ****   * @brief  Set Memory size.
 894:Drivers/STM32WLxx_HAL_Driver/Inc/stm32wlxx_ll_dma.h ****   * @rmtoll CCR          MSIZE         LL_DMA_SetMemorySize
 895:Drivers/STM32WLxx_HAL_Driver/Inc/stm32wlxx_ll_dma.h ****   * @param  DMAx DMAx Instance
 896:Drivers/STM32WLxx_HAL_Driver/Inc/stm32wlxx_ll_dma.h ****   * @param  Channel This parameter can be one of the following values:
ARM GAS  /var/folders/9y/n02fl3g16gnf7ppy14xghdy80000gn/T//ccTkjYAj.s 			page 38


 897:Drivers/STM32WLxx_HAL_Driver/Inc/stm32wlxx_ll_dma.h ****   *         @arg @ref LL_DMA_CHANNEL_1
 898:Drivers/STM32WLxx_HAL_Driver/Inc/stm32wlxx_ll_dma.h ****   *         @arg @ref LL_DMA_CHANNEL_2
 899:Drivers/STM32WLxx_HAL_Driver/Inc/stm32wlxx_ll_dma.h ****   *         @arg @ref LL_DMA_CHANNEL_3
 900:Drivers/STM32WLxx_HAL_Driver/Inc/stm32wlxx_ll_dma.h ****   *         @arg @ref LL_DMA_CHANNEL_4
 901:Drivers/STM32WLxx_HAL_Driver/Inc/stm32wlxx_ll_dma.h ****   *         @arg @ref LL_DMA_CHANNEL_5
 902:Drivers/STM32WLxx_HAL_Driver/Inc/stm32wlxx_ll_dma.h ****   *         @arg @ref LL_DMA_CHANNEL_6
 903:Drivers/STM32WLxx_HAL_Driver/Inc/stm32wlxx_ll_dma.h ****   *         @arg @ref LL_DMA_CHANNEL_7
 904:Drivers/STM32WLxx_HAL_Driver/Inc/stm32wlxx_ll_dma.h ****   * @param  MemoryOrM2MDstDataSize This parameter can be one of the following values:
 905:Drivers/STM32WLxx_HAL_Driver/Inc/stm32wlxx_ll_dma.h ****   *         @arg @ref LL_DMA_MDATAALIGN_BYTE
 906:Drivers/STM32WLxx_HAL_Driver/Inc/stm32wlxx_ll_dma.h ****   *         @arg @ref LL_DMA_MDATAALIGN_HALFWORD
 907:Drivers/STM32WLxx_HAL_Driver/Inc/stm32wlxx_ll_dma.h ****   *         @arg @ref LL_DMA_MDATAALIGN_WORD
 908:Drivers/STM32WLxx_HAL_Driver/Inc/stm32wlxx_ll_dma.h ****   * @retval None
 909:Drivers/STM32WLxx_HAL_Driver/Inc/stm32wlxx_ll_dma.h ****   */
 910:Drivers/STM32WLxx_HAL_Driver/Inc/stm32wlxx_ll_dma.h **** __STATIC_INLINE void LL_DMA_SetMemorySize(DMA_TypeDef *DMAx, uint32_t Channel, uint32_t MemoryOrM2M
 911:Drivers/STM32WLxx_HAL_Driver/Inc/stm32wlxx_ll_dma.h **** {
 912:Drivers/STM32WLxx_HAL_Driver/Inc/stm32wlxx_ll_dma.h ****   uint32_t dma_base_addr = (uint32_t)DMAx;
 913:Drivers/STM32WLxx_HAL_Driver/Inc/stm32wlxx_ll_dma.h ****   MODIFY_REG(((DMA_Channel_TypeDef *)(dma_base_addr + CHANNEL_OFFSET_TAB[Channel]))->CCR, DMA_CCR_M
 914:Drivers/STM32WLxx_HAL_Driver/Inc/stm32wlxx_ll_dma.h ****              MemoryOrM2MDstDataSize);
 915:Drivers/STM32WLxx_HAL_Driver/Inc/stm32wlxx_ll_dma.h **** }
 916:Drivers/STM32WLxx_HAL_Driver/Inc/stm32wlxx_ll_dma.h **** 
 917:Drivers/STM32WLxx_HAL_Driver/Inc/stm32wlxx_ll_dma.h **** /**
 918:Drivers/STM32WLxx_HAL_Driver/Inc/stm32wlxx_ll_dma.h ****   * @brief  Get Memory size.
 919:Drivers/STM32WLxx_HAL_Driver/Inc/stm32wlxx_ll_dma.h ****   * @rmtoll CCR          MSIZE         LL_DMA_GetMemorySize
 920:Drivers/STM32WLxx_HAL_Driver/Inc/stm32wlxx_ll_dma.h ****   * @param  DMAx DMAx Instance
 921:Drivers/STM32WLxx_HAL_Driver/Inc/stm32wlxx_ll_dma.h ****   * @param  Channel This parameter can be one of the following values:
 922:Drivers/STM32WLxx_HAL_Driver/Inc/stm32wlxx_ll_dma.h ****   *         @arg @ref LL_DMA_CHANNEL_1
 923:Drivers/STM32WLxx_HAL_Driver/Inc/stm32wlxx_ll_dma.h ****   *         @arg @ref LL_DMA_CHANNEL_2
 924:Drivers/STM32WLxx_HAL_Driver/Inc/stm32wlxx_ll_dma.h ****   *         @arg @ref LL_DMA_CHANNEL_3
 925:Drivers/STM32WLxx_HAL_Driver/Inc/stm32wlxx_ll_dma.h ****   *         @arg @ref LL_DMA_CHANNEL_4
 926:Drivers/STM32WLxx_HAL_Driver/Inc/stm32wlxx_ll_dma.h ****   *         @arg @ref LL_DMA_CHANNEL_5
 927:Drivers/STM32WLxx_HAL_Driver/Inc/stm32wlxx_ll_dma.h ****   *         @arg @ref LL_DMA_CHANNEL_6
 928:Drivers/STM32WLxx_HAL_Driver/Inc/stm32wlxx_ll_dma.h ****   *         @arg @ref LL_DMA_CHANNEL_7
 929:Drivers/STM32WLxx_HAL_Driver/Inc/stm32wlxx_ll_dma.h ****   * @retval Returned value can be one of the following values:
 930:Drivers/STM32WLxx_HAL_Driver/Inc/stm32wlxx_ll_dma.h ****   *         @arg @ref LL_DMA_MDATAALIGN_BYTE
 931:Drivers/STM32WLxx_HAL_Driver/Inc/stm32wlxx_ll_dma.h ****   *         @arg @ref LL_DMA_MDATAALIGN_HALFWORD
 932:Drivers/STM32WLxx_HAL_Driver/Inc/stm32wlxx_ll_dma.h ****   *         @arg @ref LL_DMA_MDATAALIGN_WORD
 933:Drivers/STM32WLxx_HAL_Driver/Inc/stm32wlxx_ll_dma.h ****   */
 934:Drivers/STM32WLxx_HAL_Driver/Inc/stm32wlxx_ll_dma.h **** __STATIC_INLINE uint32_t LL_DMA_GetMemorySize(DMA_TypeDef *DMAx, uint32_t Channel)
 935:Drivers/STM32WLxx_HAL_Driver/Inc/stm32wlxx_ll_dma.h **** {
 936:Drivers/STM32WLxx_HAL_Driver/Inc/stm32wlxx_ll_dma.h ****   uint32_t dma_base_addr = (uint32_t)DMAx;
 937:Drivers/STM32WLxx_HAL_Driver/Inc/stm32wlxx_ll_dma.h ****   return (READ_BIT(((DMA_Channel_TypeDef *)(dma_base_addr + CHANNEL_OFFSET_TAB[Channel]))->CCR,
 938:Drivers/STM32WLxx_HAL_Driver/Inc/stm32wlxx_ll_dma.h ****                    DMA_CCR_MSIZE));
 939:Drivers/STM32WLxx_HAL_Driver/Inc/stm32wlxx_ll_dma.h **** }
 940:Drivers/STM32WLxx_HAL_Driver/Inc/stm32wlxx_ll_dma.h **** 
 941:Drivers/STM32WLxx_HAL_Driver/Inc/stm32wlxx_ll_dma.h **** /**
 942:Drivers/STM32WLxx_HAL_Driver/Inc/stm32wlxx_ll_dma.h ****   * @brief  Set Channel priority level.
 943:Drivers/STM32WLxx_HAL_Driver/Inc/stm32wlxx_ll_dma.h ****   * @rmtoll CCR          PL            LL_DMA_SetChannelPriorityLevel
 944:Drivers/STM32WLxx_HAL_Driver/Inc/stm32wlxx_ll_dma.h ****   * @param  DMAx DMAx Instance
 945:Drivers/STM32WLxx_HAL_Driver/Inc/stm32wlxx_ll_dma.h ****   * @param  Channel This parameter can be one of the following values:
 946:Drivers/STM32WLxx_HAL_Driver/Inc/stm32wlxx_ll_dma.h ****   *         @arg @ref LL_DMA_CHANNEL_1
 947:Drivers/STM32WLxx_HAL_Driver/Inc/stm32wlxx_ll_dma.h ****   *         @arg @ref LL_DMA_CHANNEL_2
 948:Drivers/STM32WLxx_HAL_Driver/Inc/stm32wlxx_ll_dma.h ****   *         @arg @ref LL_DMA_CHANNEL_3
 949:Drivers/STM32WLxx_HAL_Driver/Inc/stm32wlxx_ll_dma.h ****   *         @arg @ref LL_DMA_CHANNEL_4
 950:Drivers/STM32WLxx_HAL_Driver/Inc/stm32wlxx_ll_dma.h ****   *         @arg @ref LL_DMA_CHANNEL_5
 951:Drivers/STM32WLxx_HAL_Driver/Inc/stm32wlxx_ll_dma.h ****   *         @arg @ref LL_DMA_CHANNEL_6
 952:Drivers/STM32WLxx_HAL_Driver/Inc/stm32wlxx_ll_dma.h ****   *         @arg @ref LL_DMA_CHANNEL_7
 953:Drivers/STM32WLxx_HAL_Driver/Inc/stm32wlxx_ll_dma.h ****   * @param  Priority This parameter can be one of the following values:
ARM GAS  /var/folders/9y/n02fl3g16gnf7ppy14xghdy80000gn/T//ccTkjYAj.s 			page 39


 954:Drivers/STM32WLxx_HAL_Driver/Inc/stm32wlxx_ll_dma.h ****   *         @arg @ref LL_DMA_PRIORITY_LOW
 955:Drivers/STM32WLxx_HAL_Driver/Inc/stm32wlxx_ll_dma.h ****   *         @arg @ref LL_DMA_PRIORITY_MEDIUM
 956:Drivers/STM32WLxx_HAL_Driver/Inc/stm32wlxx_ll_dma.h ****   *         @arg @ref LL_DMA_PRIORITY_HIGH
 957:Drivers/STM32WLxx_HAL_Driver/Inc/stm32wlxx_ll_dma.h ****   *         @arg @ref LL_DMA_PRIORITY_VERYHIGH
 958:Drivers/STM32WLxx_HAL_Driver/Inc/stm32wlxx_ll_dma.h ****   * @retval None
 959:Drivers/STM32WLxx_HAL_Driver/Inc/stm32wlxx_ll_dma.h ****   */
 960:Drivers/STM32WLxx_HAL_Driver/Inc/stm32wlxx_ll_dma.h **** __STATIC_INLINE void LL_DMA_SetChannelPriorityLevel(DMA_TypeDef *DMAx, uint32_t Channel, uint32_t P
 961:Drivers/STM32WLxx_HAL_Driver/Inc/stm32wlxx_ll_dma.h **** {
 962:Drivers/STM32WLxx_HAL_Driver/Inc/stm32wlxx_ll_dma.h ****   uint32_t dma_base_addr = (uint32_t)DMAx;
 963:Drivers/STM32WLxx_HAL_Driver/Inc/stm32wlxx_ll_dma.h ****   MODIFY_REG(((DMA_Channel_TypeDef *)(dma_base_addr + CHANNEL_OFFSET_TAB[Channel]))->CCR, DMA_CCR_P
 964:Drivers/STM32WLxx_HAL_Driver/Inc/stm32wlxx_ll_dma.h ****              Priority);
 965:Drivers/STM32WLxx_HAL_Driver/Inc/stm32wlxx_ll_dma.h **** }
 966:Drivers/STM32WLxx_HAL_Driver/Inc/stm32wlxx_ll_dma.h **** 
 967:Drivers/STM32WLxx_HAL_Driver/Inc/stm32wlxx_ll_dma.h **** /**
 968:Drivers/STM32WLxx_HAL_Driver/Inc/stm32wlxx_ll_dma.h ****   * @brief  Get Channel priority level.
 969:Drivers/STM32WLxx_HAL_Driver/Inc/stm32wlxx_ll_dma.h ****   * @rmtoll CCR          PL            LL_DMA_GetChannelPriorityLevel
 970:Drivers/STM32WLxx_HAL_Driver/Inc/stm32wlxx_ll_dma.h ****   * @param  DMAx DMAx Instance
 971:Drivers/STM32WLxx_HAL_Driver/Inc/stm32wlxx_ll_dma.h ****   * @param  Channel This parameter can be one of the following values:
 972:Drivers/STM32WLxx_HAL_Driver/Inc/stm32wlxx_ll_dma.h ****   *         @arg @ref LL_DMA_CHANNEL_1
 973:Drivers/STM32WLxx_HAL_Driver/Inc/stm32wlxx_ll_dma.h ****   *         @arg @ref LL_DMA_CHANNEL_2
 974:Drivers/STM32WLxx_HAL_Driver/Inc/stm32wlxx_ll_dma.h ****   *         @arg @ref LL_DMA_CHANNEL_3
 975:Drivers/STM32WLxx_HAL_Driver/Inc/stm32wlxx_ll_dma.h ****   *         @arg @ref LL_DMA_CHANNEL_4
 976:Drivers/STM32WLxx_HAL_Driver/Inc/stm32wlxx_ll_dma.h ****   *         @arg @ref LL_DMA_CHANNEL_5
 977:Drivers/STM32WLxx_HAL_Driver/Inc/stm32wlxx_ll_dma.h ****   *         @arg @ref LL_DMA_CHANNEL_6
 978:Drivers/STM32WLxx_HAL_Driver/Inc/stm32wlxx_ll_dma.h ****   *         @arg @ref LL_DMA_CHANNEL_7
 979:Drivers/STM32WLxx_HAL_Driver/Inc/stm32wlxx_ll_dma.h ****   * @retval Returned value can be one of the following values:
 980:Drivers/STM32WLxx_HAL_Driver/Inc/stm32wlxx_ll_dma.h ****   *         @arg @ref LL_DMA_PRIORITY_LOW
 981:Drivers/STM32WLxx_HAL_Driver/Inc/stm32wlxx_ll_dma.h ****   *         @arg @ref LL_DMA_PRIORITY_MEDIUM
 982:Drivers/STM32WLxx_HAL_Driver/Inc/stm32wlxx_ll_dma.h ****   *         @arg @ref LL_DMA_PRIORITY_HIGH
 983:Drivers/STM32WLxx_HAL_Driver/Inc/stm32wlxx_ll_dma.h ****   *         @arg @ref LL_DMA_PRIORITY_VERYHIGH
 984:Drivers/STM32WLxx_HAL_Driver/Inc/stm32wlxx_ll_dma.h ****   */
 985:Drivers/STM32WLxx_HAL_Driver/Inc/stm32wlxx_ll_dma.h **** __STATIC_INLINE uint32_t LL_DMA_GetChannelPriorityLevel(DMA_TypeDef *DMAx, uint32_t Channel)
 986:Drivers/STM32WLxx_HAL_Driver/Inc/stm32wlxx_ll_dma.h **** {
 987:Drivers/STM32WLxx_HAL_Driver/Inc/stm32wlxx_ll_dma.h ****   uint32_t dma_base_addr = (uint32_t)DMAx;
 988:Drivers/STM32WLxx_HAL_Driver/Inc/stm32wlxx_ll_dma.h ****   return (READ_BIT(((DMA_Channel_TypeDef *)(dma_base_addr + CHANNEL_OFFSET_TAB[Channel]))->CCR,
 989:Drivers/STM32WLxx_HAL_Driver/Inc/stm32wlxx_ll_dma.h ****                    DMA_CCR_PL));
 990:Drivers/STM32WLxx_HAL_Driver/Inc/stm32wlxx_ll_dma.h **** }
 991:Drivers/STM32WLxx_HAL_Driver/Inc/stm32wlxx_ll_dma.h **** 
 992:Drivers/STM32WLxx_HAL_Driver/Inc/stm32wlxx_ll_dma.h **** #if defined(DMA_CCR_SECM)
 993:Drivers/STM32WLxx_HAL_Driver/Inc/stm32wlxx_ll_dma.h **** #if defined (CORE_CM0PLUS)
 994:Drivers/STM32WLxx_HAL_Driver/Inc/stm32wlxx_ll_dma.h **** /**
 995:Drivers/STM32WLxx_HAL_Driver/Inc/stm32wlxx_ll_dma.h ****   * @brief  Enable the DMA Channel secure attribute.
 996:Drivers/STM32WLxx_HAL_Driver/Inc/stm32wlxx_ll_dma.h ****   * @rmtoll CCR          SECM          LL_DMA_EnableChannelSecure\n
 997:Drivers/STM32WLxx_HAL_Driver/Inc/stm32wlxx_ll_dma.h ****   * @param  DMAx DMAx Instance
 998:Drivers/STM32WLxx_HAL_Driver/Inc/stm32wlxx_ll_dma.h ****   * @param  Channel This parameter can be one of the following values:
 999:Drivers/STM32WLxx_HAL_Driver/Inc/stm32wlxx_ll_dma.h ****   *         @arg @ref LL_DMA_CHANNEL_1
1000:Drivers/STM32WLxx_HAL_Driver/Inc/stm32wlxx_ll_dma.h ****   *         @arg @ref LL_DMA_CHANNEL_2
1001:Drivers/STM32WLxx_HAL_Driver/Inc/stm32wlxx_ll_dma.h ****   *         @arg @ref LL_DMA_CHANNEL_3
1002:Drivers/STM32WLxx_HAL_Driver/Inc/stm32wlxx_ll_dma.h ****   *         @arg @ref LL_DMA_CHANNEL_4
1003:Drivers/STM32WLxx_HAL_Driver/Inc/stm32wlxx_ll_dma.h ****   *         @arg @ref LL_DMA_CHANNEL_5
1004:Drivers/STM32WLxx_HAL_Driver/Inc/stm32wlxx_ll_dma.h ****   *         @arg @ref LL_DMA_CHANNEL_6
1005:Drivers/STM32WLxx_HAL_Driver/Inc/stm32wlxx_ll_dma.h ****   *         @arg @ref LL_DMA_CHANNEL_7
1006:Drivers/STM32WLxx_HAL_Driver/Inc/stm32wlxx_ll_dma.h ****   * @retval None
1007:Drivers/STM32WLxx_HAL_Driver/Inc/stm32wlxx_ll_dma.h ****   */
1008:Drivers/STM32WLxx_HAL_Driver/Inc/stm32wlxx_ll_dma.h **** __STATIC_INLINE void LL_DMA_EnableChannelSecure(DMA_TypeDef *DMAx, uint32_t Channel)
1009:Drivers/STM32WLxx_HAL_Driver/Inc/stm32wlxx_ll_dma.h **** {
1010:Drivers/STM32WLxx_HAL_Driver/Inc/stm32wlxx_ll_dma.h ****   uint32_t dma_base_addr = (uint32_t)DMAx;
ARM GAS  /var/folders/9y/n02fl3g16gnf7ppy14xghdy80000gn/T//ccTkjYAj.s 			page 40


1011:Drivers/STM32WLxx_HAL_Driver/Inc/stm32wlxx_ll_dma.h ****   SET_BIT(((DMA_Channel_TypeDef *)(dma_base_addr + CHANNEL_OFFSET_TAB[Channel]))->CCR,  DMA_CCR_SEC
1012:Drivers/STM32WLxx_HAL_Driver/Inc/stm32wlxx_ll_dma.h **** }
1013:Drivers/STM32WLxx_HAL_Driver/Inc/stm32wlxx_ll_dma.h **** 
1014:Drivers/STM32WLxx_HAL_Driver/Inc/stm32wlxx_ll_dma.h **** /**
1015:Drivers/STM32WLxx_HAL_Driver/Inc/stm32wlxx_ll_dma.h ****   * @brief  Disable the DMA channel secure attribute.
1016:Drivers/STM32WLxx_HAL_Driver/Inc/stm32wlxx_ll_dma.h ****   * @rmtoll CCR          SECM          LL_DMA_DisableChannelSecure\n
1017:Drivers/STM32WLxx_HAL_Driver/Inc/stm32wlxx_ll_dma.h ****   * @param  DMAx DMAx Instance
1018:Drivers/STM32WLxx_HAL_Driver/Inc/stm32wlxx_ll_dma.h ****   * @param  Channel This parameter can be one of the following values:
1019:Drivers/STM32WLxx_HAL_Driver/Inc/stm32wlxx_ll_dma.h ****   *         @arg @ref LL_DMA_CHANNEL_1
1020:Drivers/STM32WLxx_HAL_Driver/Inc/stm32wlxx_ll_dma.h ****   *         @arg @ref LL_DMA_CHANNEL_2
1021:Drivers/STM32WLxx_HAL_Driver/Inc/stm32wlxx_ll_dma.h ****   *         @arg @ref LL_DMA_CHANNEL_3
1022:Drivers/STM32WLxx_HAL_Driver/Inc/stm32wlxx_ll_dma.h ****   *         @arg @ref LL_DMA_CHANNEL_4
1023:Drivers/STM32WLxx_HAL_Driver/Inc/stm32wlxx_ll_dma.h ****   *         @arg @ref LL_DMA_CHANNEL_5
1024:Drivers/STM32WLxx_HAL_Driver/Inc/stm32wlxx_ll_dma.h ****   *         @arg @ref LL_DMA_CHANNEL_6
1025:Drivers/STM32WLxx_HAL_Driver/Inc/stm32wlxx_ll_dma.h ****   *         @arg @ref LL_DMA_CHANNEL_7
1026:Drivers/STM32WLxx_HAL_Driver/Inc/stm32wlxx_ll_dma.h ****   * @retval None
1027:Drivers/STM32WLxx_HAL_Driver/Inc/stm32wlxx_ll_dma.h ****   */
1028:Drivers/STM32WLxx_HAL_Driver/Inc/stm32wlxx_ll_dma.h **** __STATIC_INLINE void LL_DMA_DisableChannelSecure(DMA_TypeDef *DMAx, uint32_t Channel)
1029:Drivers/STM32WLxx_HAL_Driver/Inc/stm32wlxx_ll_dma.h **** {
1030:Drivers/STM32WLxx_HAL_Driver/Inc/stm32wlxx_ll_dma.h ****   uint32_t dma_base_addr = (uint32_t)DMAx;
1031:Drivers/STM32WLxx_HAL_Driver/Inc/stm32wlxx_ll_dma.h ****   CLEAR_BIT(((DMA_Channel_TypeDef *)(dma_base_addr + CHANNEL_OFFSET_TAB[Channel]))->CCR, DMA_CCR_SE
1032:Drivers/STM32WLxx_HAL_Driver/Inc/stm32wlxx_ll_dma.h **** }
1033:Drivers/STM32WLxx_HAL_Driver/Inc/stm32wlxx_ll_dma.h **** #endif /* CORE_CM0PLUS */
1034:Drivers/STM32WLxx_HAL_Driver/Inc/stm32wlxx_ll_dma.h **** 
1035:Drivers/STM32WLxx_HAL_Driver/Inc/stm32wlxx_ll_dma.h **** /**
1036:Drivers/STM32WLxx_HAL_Driver/Inc/stm32wlxx_ll_dma.h ****   * @brief  Check if DMA channel is secure or not.
1037:Drivers/STM32WLxx_HAL_Driver/Inc/stm32wlxx_ll_dma.h ****   * @rmtoll CCR          SECM          LL_DMA_IsEnabledChannelSecure\n
1038:Drivers/STM32WLxx_HAL_Driver/Inc/stm32wlxx_ll_dma.h ****   * @param  DMAx DMAx Instance
1039:Drivers/STM32WLxx_HAL_Driver/Inc/stm32wlxx_ll_dma.h ****   * @param  Channel This parameter can be one of the following values:
1040:Drivers/STM32WLxx_HAL_Driver/Inc/stm32wlxx_ll_dma.h ****   *         @arg @ref LL_DMA_CHANNEL_1
1041:Drivers/STM32WLxx_HAL_Driver/Inc/stm32wlxx_ll_dma.h ****   *         @arg @ref LL_DMA_CHANNEL_2
1042:Drivers/STM32WLxx_HAL_Driver/Inc/stm32wlxx_ll_dma.h ****   *         @arg @ref LL_DMA_CHANNEL_3
1043:Drivers/STM32WLxx_HAL_Driver/Inc/stm32wlxx_ll_dma.h ****   *         @arg @ref LL_DMA_CHANNEL_4
1044:Drivers/STM32WLxx_HAL_Driver/Inc/stm32wlxx_ll_dma.h ****   *         @arg @ref LL_DMA_CHANNEL_5
1045:Drivers/STM32WLxx_HAL_Driver/Inc/stm32wlxx_ll_dma.h ****   *         @arg @ref LL_DMA_CHANNEL_6
1046:Drivers/STM32WLxx_HAL_Driver/Inc/stm32wlxx_ll_dma.h ****   *         @arg @ref LL_DMA_CHANNEL_7
1047:Drivers/STM32WLxx_HAL_Driver/Inc/stm32wlxx_ll_dma.h ****   * @retval State of bit (1 or 0).
1048:Drivers/STM32WLxx_HAL_Driver/Inc/stm32wlxx_ll_dma.h ****   */
1049:Drivers/STM32WLxx_HAL_Driver/Inc/stm32wlxx_ll_dma.h **** __STATIC_INLINE uint32_t LL_DMA_IsEnabledChannelSecure(DMA_TypeDef *DMAx, uint32_t Channel)
1050:Drivers/STM32WLxx_HAL_Driver/Inc/stm32wlxx_ll_dma.h **** {
1051:Drivers/STM32WLxx_HAL_Driver/Inc/stm32wlxx_ll_dma.h ****   uint32_t dma_base_addr = (uint32_t)DMAx;
1052:Drivers/STM32WLxx_HAL_Driver/Inc/stm32wlxx_ll_dma.h ****   return ((READ_BIT(((DMA_Channel_TypeDef *)(dma_base_addr + CHANNEL_OFFSET_TAB[Channel]))->CCR,
1053:Drivers/STM32WLxx_HAL_Driver/Inc/stm32wlxx_ll_dma.h ****                     DMA_CCR_SECM) == (DMA_CCR_SECM)) ? 1UL : 0UL);
1054:Drivers/STM32WLxx_HAL_Driver/Inc/stm32wlxx_ll_dma.h **** }
1055:Drivers/STM32WLxx_HAL_Driver/Inc/stm32wlxx_ll_dma.h **** 
1056:Drivers/STM32WLxx_HAL_Driver/Inc/stm32wlxx_ll_dma.h **** #if defined (CORE_CM0PLUS)
1057:Drivers/STM32WLxx_HAL_Driver/Inc/stm32wlxx_ll_dma.h **** /**
1058:Drivers/STM32WLxx_HAL_Driver/Inc/stm32wlxx_ll_dma.h ****   * @brief  Enable the secure attribute on DMA channel source.
1059:Drivers/STM32WLxx_HAL_Driver/Inc/stm32wlxx_ll_dma.h ****   * @rmtoll CCR          SSEC          LL_DMA_EnableChannelSrcSecure\n
1060:Drivers/STM32WLxx_HAL_Driver/Inc/stm32wlxx_ll_dma.h ****   * @param  DMAx DMAx Instance
1061:Drivers/STM32WLxx_HAL_Driver/Inc/stm32wlxx_ll_dma.h ****   * @param  Channel This parameter can be one of the following values:
1062:Drivers/STM32WLxx_HAL_Driver/Inc/stm32wlxx_ll_dma.h ****   *         @arg @ref LL_DMA_CHANNEL_1
1063:Drivers/STM32WLxx_HAL_Driver/Inc/stm32wlxx_ll_dma.h ****   *         @arg @ref LL_DMA_CHANNEL_2
1064:Drivers/STM32WLxx_HAL_Driver/Inc/stm32wlxx_ll_dma.h ****   *         @arg @ref LL_DMA_CHANNEL_3
1065:Drivers/STM32WLxx_HAL_Driver/Inc/stm32wlxx_ll_dma.h ****   *         @arg @ref LL_DMA_CHANNEL_4
1066:Drivers/STM32WLxx_HAL_Driver/Inc/stm32wlxx_ll_dma.h ****   *         @arg @ref LL_DMA_CHANNEL_5
1067:Drivers/STM32WLxx_HAL_Driver/Inc/stm32wlxx_ll_dma.h ****   *         @arg @ref LL_DMA_CHANNEL_6
ARM GAS  /var/folders/9y/n02fl3g16gnf7ppy14xghdy80000gn/T//ccTkjYAj.s 			page 41


1068:Drivers/STM32WLxx_HAL_Driver/Inc/stm32wlxx_ll_dma.h ****   *         @arg @ref LL_DMA_CHANNEL_7
1069:Drivers/STM32WLxx_HAL_Driver/Inc/stm32wlxx_ll_dma.h ****   * @retval None
1070:Drivers/STM32WLxx_HAL_Driver/Inc/stm32wlxx_ll_dma.h ****   */
1071:Drivers/STM32WLxx_HAL_Driver/Inc/stm32wlxx_ll_dma.h **** __STATIC_INLINE void LL_DMA_EnableChannelSrcSecure(DMA_TypeDef *DMAx, uint32_t Channel)
1072:Drivers/STM32WLxx_HAL_Driver/Inc/stm32wlxx_ll_dma.h **** {
1073:Drivers/STM32WLxx_HAL_Driver/Inc/stm32wlxx_ll_dma.h ****   uint32_t dma_base_addr = (uint32_t)DMAx;
1074:Drivers/STM32WLxx_HAL_Driver/Inc/stm32wlxx_ll_dma.h ****   SET_BIT(((DMA_Channel_TypeDef *)(dma_base_addr + CHANNEL_OFFSET_TAB[Channel]))->CCR, DMA_CCR_SSEC
1075:Drivers/STM32WLxx_HAL_Driver/Inc/stm32wlxx_ll_dma.h **** }
1076:Drivers/STM32WLxx_HAL_Driver/Inc/stm32wlxx_ll_dma.h **** 
1077:Drivers/STM32WLxx_HAL_Driver/Inc/stm32wlxx_ll_dma.h **** /**
1078:Drivers/STM32WLxx_HAL_Driver/Inc/stm32wlxx_ll_dma.h ****   * @brief  Disable the secure attribute on DMA channel source.
1079:Drivers/STM32WLxx_HAL_Driver/Inc/stm32wlxx_ll_dma.h ****   * @rmtoll CCR          SSEC          LL_DMA_DisableChannelSrcSecure\n
1080:Drivers/STM32WLxx_HAL_Driver/Inc/stm32wlxx_ll_dma.h ****   * @param  DMAx DMAx Instance
1081:Drivers/STM32WLxx_HAL_Driver/Inc/stm32wlxx_ll_dma.h ****   * @param  Channel This parameter can be one of the following values:
1082:Drivers/STM32WLxx_HAL_Driver/Inc/stm32wlxx_ll_dma.h ****   *         @arg @ref LL_DMA_CHANNEL_1
1083:Drivers/STM32WLxx_HAL_Driver/Inc/stm32wlxx_ll_dma.h ****   *         @arg @ref LL_DMA_CHANNEL_2
1084:Drivers/STM32WLxx_HAL_Driver/Inc/stm32wlxx_ll_dma.h ****   *         @arg @ref LL_DMA_CHANNEL_3
1085:Drivers/STM32WLxx_HAL_Driver/Inc/stm32wlxx_ll_dma.h ****   *         @arg @ref LL_DMA_CHANNEL_4
1086:Drivers/STM32WLxx_HAL_Driver/Inc/stm32wlxx_ll_dma.h ****   *         @arg @ref LL_DMA_CHANNEL_5
1087:Drivers/STM32WLxx_HAL_Driver/Inc/stm32wlxx_ll_dma.h ****   *         @arg @ref LL_DMA_CHANNEL_6
1088:Drivers/STM32WLxx_HAL_Driver/Inc/stm32wlxx_ll_dma.h ****   *         @arg @ref LL_DMA_CHANNEL_7
1089:Drivers/STM32WLxx_HAL_Driver/Inc/stm32wlxx_ll_dma.h ****   * @retval None
1090:Drivers/STM32WLxx_HAL_Driver/Inc/stm32wlxx_ll_dma.h ****   */
1091:Drivers/STM32WLxx_HAL_Driver/Inc/stm32wlxx_ll_dma.h **** __STATIC_INLINE void LL_DMA_DisableChannelSrcSecure(DMA_TypeDef *DMAx, uint32_t Channel)
1092:Drivers/STM32WLxx_HAL_Driver/Inc/stm32wlxx_ll_dma.h **** {
1093:Drivers/STM32WLxx_HAL_Driver/Inc/stm32wlxx_ll_dma.h ****   uint32_t dma_base_addr = (uint32_t)DMAx;
1094:Drivers/STM32WLxx_HAL_Driver/Inc/stm32wlxx_ll_dma.h ****   CLEAR_BIT(((DMA_Channel_TypeDef *)(dma_base_addr + CHANNEL_OFFSET_TAB[Channel]))->CCR, DMA_CCR_SS
1095:Drivers/STM32WLxx_HAL_Driver/Inc/stm32wlxx_ll_dma.h **** }
1096:Drivers/STM32WLxx_HAL_Driver/Inc/stm32wlxx_ll_dma.h **** 
1097:Drivers/STM32WLxx_HAL_Driver/Inc/stm32wlxx_ll_dma.h **** /**
1098:Drivers/STM32WLxx_HAL_Driver/Inc/stm32wlxx_ll_dma.h ****   * @brief  Check if DMA channel source attribute is secure or not.
1099:Drivers/STM32WLxx_HAL_Driver/Inc/stm32wlxx_ll_dma.h ****   * @rmtoll CCR          SSEC          LL_DMA_IsEnabledChannelSrcSecure\n
1100:Drivers/STM32WLxx_HAL_Driver/Inc/stm32wlxx_ll_dma.h ****   * @param  DMAx DMAx Instance
1101:Drivers/STM32WLxx_HAL_Driver/Inc/stm32wlxx_ll_dma.h ****   * @param  Channel This parameter can be one of the following values:
1102:Drivers/STM32WLxx_HAL_Driver/Inc/stm32wlxx_ll_dma.h ****   *         @arg @ref LL_DMA_CHANNEL_1
1103:Drivers/STM32WLxx_HAL_Driver/Inc/stm32wlxx_ll_dma.h ****   *         @arg @ref LL_DMA_CHANNEL_2
1104:Drivers/STM32WLxx_HAL_Driver/Inc/stm32wlxx_ll_dma.h ****   *         @arg @ref LL_DMA_CHANNEL_3
1105:Drivers/STM32WLxx_HAL_Driver/Inc/stm32wlxx_ll_dma.h ****   *         @arg @ref LL_DMA_CHANNEL_4
1106:Drivers/STM32WLxx_HAL_Driver/Inc/stm32wlxx_ll_dma.h ****   *         @arg @ref LL_DMA_CHANNEL_5
1107:Drivers/STM32WLxx_HAL_Driver/Inc/stm32wlxx_ll_dma.h ****   *         @arg @ref LL_DMA_CHANNEL_6
1108:Drivers/STM32WLxx_HAL_Driver/Inc/stm32wlxx_ll_dma.h ****   *         @arg @ref LL_DMA_CHANNEL_7
1109:Drivers/STM32WLxx_HAL_Driver/Inc/stm32wlxx_ll_dma.h ****   * @retval State of bit (1 or 0).
1110:Drivers/STM32WLxx_HAL_Driver/Inc/stm32wlxx_ll_dma.h ****   */
1111:Drivers/STM32WLxx_HAL_Driver/Inc/stm32wlxx_ll_dma.h **** __STATIC_INLINE uint32_t LL_DMA_IsEnabledChannelSrcSecure(DMA_TypeDef *DMAx, uint32_t Channel)
1112:Drivers/STM32WLxx_HAL_Driver/Inc/stm32wlxx_ll_dma.h **** {
1113:Drivers/STM32WLxx_HAL_Driver/Inc/stm32wlxx_ll_dma.h ****   uint32_t dma_base_addr = (uint32_t)DMAx;
1114:Drivers/STM32WLxx_HAL_Driver/Inc/stm32wlxx_ll_dma.h ****   return ((READ_BIT(((DMA_Channel_TypeDef *)(dma_base_addr + CHANNEL_OFFSET_TAB[Channel]))->CCR,
1115:Drivers/STM32WLxx_HAL_Driver/Inc/stm32wlxx_ll_dma.h ****                     DMA_CCR_SSEC) == (DMA_CCR_SSEC)) ? 1UL : 0UL);
1116:Drivers/STM32WLxx_HAL_Driver/Inc/stm32wlxx_ll_dma.h **** }
1117:Drivers/STM32WLxx_HAL_Driver/Inc/stm32wlxx_ll_dma.h **** 
1118:Drivers/STM32WLxx_HAL_Driver/Inc/stm32wlxx_ll_dma.h **** /**
1119:Drivers/STM32WLxx_HAL_Driver/Inc/stm32wlxx_ll_dma.h ****   * @brief  Enable the secure attribute on DMA channel destination
1120:Drivers/STM32WLxx_HAL_Driver/Inc/stm32wlxx_ll_dma.h ****   * @rmtoll CCR          DSEC          LL_DMA_EnableChannelDestSecure\n
1121:Drivers/STM32WLxx_HAL_Driver/Inc/stm32wlxx_ll_dma.h ****   * @param  DMAx DMAx Instance
1122:Drivers/STM32WLxx_HAL_Driver/Inc/stm32wlxx_ll_dma.h ****   * @param  Channel This parameter can be one of the following values:
1123:Drivers/STM32WLxx_HAL_Driver/Inc/stm32wlxx_ll_dma.h ****   *         @arg @ref LL_DMA_CHANNEL_1
1124:Drivers/STM32WLxx_HAL_Driver/Inc/stm32wlxx_ll_dma.h ****   *         @arg @ref LL_DMA_CHANNEL_2
ARM GAS  /var/folders/9y/n02fl3g16gnf7ppy14xghdy80000gn/T//ccTkjYAj.s 			page 42


1125:Drivers/STM32WLxx_HAL_Driver/Inc/stm32wlxx_ll_dma.h ****   *         @arg @ref LL_DMA_CHANNEL_3
1126:Drivers/STM32WLxx_HAL_Driver/Inc/stm32wlxx_ll_dma.h ****   *         @arg @ref LL_DMA_CHANNEL_4
1127:Drivers/STM32WLxx_HAL_Driver/Inc/stm32wlxx_ll_dma.h ****   *         @arg @ref LL_DMA_CHANNEL_5
1128:Drivers/STM32WLxx_HAL_Driver/Inc/stm32wlxx_ll_dma.h ****   *         @arg @ref LL_DMA_CHANNEL_6
1129:Drivers/STM32WLxx_HAL_Driver/Inc/stm32wlxx_ll_dma.h ****   *         @arg @ref LL_DMA_CHANNEL_7
1130:Drivers/STM32WLxx_HAL_Driver/Inc/stm32wlxx_ll_dma.h ****   * @retval None
1131:Drivers/STM32WLxx_HAL_Driver/Inc/stm32wlxx_ll_dma.h ****   */
1132:Drivers/STM32WLxx_HAL_Driver/Inc/stm32wlxx_ll_dma.h **** __STATIC_INLINE void LL_DMA_EnableChannelDestSecure(DMA_TypeDef *DMAx, uint32_t Channel)
1133:Drivers/STM32WLxx_HAL_Driver/Inc/stm32wlxx_ll_dma.h **** {
1134:Drivers/STM32WLxx_HAL_Driver/Inc/stm32wlxx_ll_dma.h ****   uint32_t dma_base_addr = (uint32_t)DMAx;
1135:Drivers/STM32WLxx_HAL_Driver/Inc/stm32wlxx_ll_dma.h ****   SET_BIT(((DMA_Channel_TypeDef *)(dma_base_addr + CHANNEL_OFFSET_TAB[Channel]))->CCR, DMA_CCR_DSEC
1136:Drivers/STM32WLxx_HAL_Driver/Inc/stm32wlxx_ll_dma.h **** }
1137:Drivers/STM32WLxx_HAL_Driver/Inc/stm32wlxx_ll_dma.h **** 
1138:Drivers/STM32WLxx_HAL_Driver/Inc/stm32wlxx_ll_dma.h **** /**
1139:Drivers/STM32WLxx_HAL_Driver/Inc/stm32wlxx_ll_dma.h ****   * @brief  Disable the secure attribute on DMA channel destination.
1140:Drivers/STM32WLxx_HAL_Driver/Inc/stm32wlxx_ll_dma.h ****   * @rmtoll CCR          DSEC          LL_DMA_DisableChannelDestSecure\n
1141:Drivers/STM32WLxx_HAL_Driver/Inc/stm32wlxx_ll_dma.h ****   * @param  DMAx DMAx Instance
1142:Drivers/STM32WLxx_HAL_Driver/Inc/stm32wlxx_ll_dma.h ****   * @param  Channel This parameter can be one of the following values:
1143:Drivers/STM32WLxx_HAL_Driver/Inc/stm32wlxx_ll_dma.h ****   *         @arg @ref LL_DMA_CHANNEL_1
1144:Drivers/STM32WLxx_HAL_Driver/Inc/stm32wlxx_ll_dma.h ****   *         @arg @ref LL_DMA_CHANNEL_2
1145:Drivers/STM32WLxx_HAL_Driver/Inc/stm32wlxx_ll_dma.h ****   *         @arg @ref LL_DMA_CHANNEL_3
1146:Drivers/STM32WLxx_HAL_Driver/Inc/stm32wlxx_ll_dma.h ****   *         @arg @ref LL_DMA_CHANNEL_4
1147:Drivers/STM32WLxx_HAL_Driver/Inc/stm32wlxx_ll_dma.h ****   *         @arg @ref LL_DMA_CHANNEL_5
1148:Drivers/STM32WLxx_HAL_Driver/Inc/stm32wlxx_ll_dma.h ****   *         @arg @ref LL_DMA_CHANNEL_6
1149:Drivers/STM32WLxx_HAL_Driver/Inc/stm32wlxx_ll_dma.h ****   *         @arg @ref LL_DMA_CHANNEL_7
1150:Drivers/STM32WLxx_HAL_Driver/Inc/stm32wlxx_ll_dma.h ****   * @retval None
1151:Drivers/STM32WLxx_HAL_Driver/Inc/stm32wlxx_ll_dma.h ****   */
1152:Drivers/STM32WLxx_HAL_Driver/Inc/stm32wlxx_ll_dma.h **** __STATIC_INLINE void LL_DMA_DisableChannelDestSecure(DMA_TypeDef *DMAx, uint32_t Channel)
1153:Drivers/STM32WLxx_HAL_Driver/Inc/stm32wlxx_ll_dma.h **** {
1154:Drivers/STM32WLxx_HAL_Driver/Inc/stm32wlxx_ll_dma.h ****   uint32_t dma_base_addr = (uint32_t)DMAx;
1155:Drivers/STM32WLxx_HAL_Driver/Inc/stm32wlxx_ll_dma.h ****   CLEAR_BIT(((DMA_Channel_TypeDef *)(dma_base_addr + CHANNEL_OFFSET_TAB[Channel]))->CCR, DMA_CCR_DS
1156:Drivers/STM32WLxx_HAL_Driver/Inc/stm32wlxx_ll_dma.h **** }
1157:Drivers/STM32WLxx_HAL_Driver/Inc/stm32wlxx_ll_dma.h **** 
1158:Drivers/STM32WLxx_HAL_Driver/Inc/stm32wlxx_ll_dma.h **** /**
1159:Drivers/STM32WLxx_HAL_Driver/Inc/stm32wlxx_ll_dma.h ****   * @brief  Check if DMA channel destination attribute is secure or not.
1160:Drivers/STM32WLxx_HAL_Driver/Inc/stm32wlxx_ll_dma.h ****   * @rmtoll CCR          DSEC          LL_DMA_IsEnabledChannelDestSecure\n
1161:Drivers/STM32WLxx_HAL_Driver/Inc/stm32wlxx_ll_dma.h ****   * @param  DMAx DMAx Instance
1162:Drivers/STM32WLxx_HAL_Driver/Inc/stm32wlxx_ll_dma.h ****   * @param  Channel This parameter can be one of the following values:
1163:Drivers/STM32WLxx_HAL_Driver/Inc/stm32wlxx_ll_dma.h ****   *         @arg @ref LL_DMA_CHANNEL_1
1164:Drivers/STM32WLxx_HAL_Driver/Inc/stm32wlxx_ll_dma.h ****   *         @arg @ref LL_DMA_CHANNEL_2
1165:Drivers/STM32WLxx_HAL_Driver/Inc/stm32wlxx_ll_dma.h ****   *         @arg @ref LL_DMA_CHANNEL_3
1166:Drivers/STM32WLxx_HAL_Driver/Inc/stm32wlxx_ll_dma.h ****   *         @arg @ref LL_DMA_CHANNEL_4
1167:Drivers/STM32WLxx_HAL_Driver/Inc/stm32wlxx_ll_dma.h ****   *         @arg @ref LL_DMA_CHANNEL_5
1168:Drivers/STM32WLxx_HAL_Driver/Inc/stm32wlxx_ll_dma.h ****   *         @arg @ref LL_DMA_CHANNEL_6
1169:Drivers/STM32WLxx_HAL_Driver/Inc/stm32wlxx_ll_dma.h ****   *         @arg @ref LL_DMA_CHANNEL_7
1170:Drivers/STM32WLxx_HAL_Driver/Inc/stm32wlxx_ll_dma.h ****   * @retval State of bit (1 or 0).
1171:Drivers/STM32WLxx_HAL_Driver/Inc/stm32wlxx_ll_dma.h ****   */
1172:Drivers/STM32WLxx_HAL_Driver/Inc/stm32wlxx_ll_dma.h **** __STATIC_INLINE uint32_t LL_DMA_IsEnabledChannelDestSecure(DMA_TypeDef *DMAx, uint32_t Channel)
1173:Drivers/STM32WLxx_HAL_Driver/Inc/stm32wlxx_ll_dma.h **** {
1174:Drivers/STM32WLxx_HAL_Driver/Inc/stm32wlxx_ll_dma.h ****   uint32_t dma_base_addr = (uint32_t)DMAx;
1175:Drivers/STM32WLxx_HAL_Driver/Inc/stm32wlxx_ll_dma.h ****   return ((READ_BIT(((DMA_Channel_TypeDef *)(dma_base_addr + CHANNEL_OFFSET_TAB[Channel]))->CCR,
1176:Drivers/STM32WLxx_HAL_Driver/Inc/stm32wlxx_ll_dma.h ****                     DMA_CCR_DSEC) == (DMA_CCR_DSEC)) ? 1UL : 0UL);
1177:Drivers/STM32WLxx_HAL_Driver/Inc/stm32wlxx_ll_dma.h **** }
1178:Drivers/STM32WLxx_HAL_Driver/Inc/stm32wlxx_ll_dma.h **** #endif /* CORE_CM0PLUS */
1179:Drivers/STM32WLxx_HAL_Driver/Inc/stm32wlxx_ll_dma.h **** #endif /* DMA_CCR_SECM */
1180:Drivers/STM32WLxx_HAL_Driver/Inc/stm32wlxx_ll_dma.h **** #if defined(DMA_CCR_PRIV)
1181:Drivers/STM32WLxx_HAL_Driver/Inc/stm32wlxx_ll_dma.h **** 
ARM GAS  /var/folders/9y/n02fl3g16gnf7ppy14xghdy80000gn/T//ccTkjYAj.s 			page 43


1182:Drivers/STM32WLxx_HAL_Driver/Inc/stm32wlxx_ll_dma.h **** /**
1183:Drivers/STM32WLxx_HAL_Driver/Inc/stm32wlxx_ll_dma.h ****   * @brief  Enable the privilege attribute on DMA channel.
1184:Drivers/STM32WLxx_HAL_Driver/Inc/stm32wlxx_ll_dma.h ****   * @rmtoll CCR          PRIV          LL_DMA_EnableChannelPrivilege\n
1185:Drivers/STM32WLxx_HAL_Driver/Inc/stm32wlxx_ll_dma.h ****   * @param  DMAx DMAx Instance
1186:Drivers/STM32WLxx_HAL_Driver/Inc/stm32wlxx_ll_dma.h ****   * @param  Channel This parameter can be one of the following values:
1187:Drivers/STM32WLxx_HAL_Driver/Inc/stm32wlxx_ll_dma.h ****   *         @arg @ref LL_DMA_CHANNEL_1
1188:Drivers/STM32WLxx_HAL_Driver/Inc/stm32wlxx_ll_dma.h ****   *         @arg @ref LL_DMA_CHANNEL_2
1189:Drivers/STM32WLxx_HAL_Driver/Inc/stm32wlxx_ll_dma.h ****   *         @arg @ref LL_DMA_CHANNEL_3
1190:Drivers/STM32WLxx_HAL_Driver/Inc/stm32wlxx_ll_dma.h ****   *         @arg @ref LL_DMA_CHANNEL_4
1191:Drivers/STM32WLxx_HAL_Driver/Inc/stm32wlxx_ll_dma.h ****   *         @arg @ref LL_DMA_CHANNEL_5
1192:Drivers/STM32WLxx_HAL_Driver/Inc/stm32wlxx_ll_dma.h ****   *         @arg @ref LL_DMA_CHANNEL_6
1193:Drivers/STM32WLxx_HAL_Driver/Inc/stm32wlxx_ll_dma.h ****   *         @arg @ref LL_DMA_CHANNEL_7
1194:Drivers/STM32WLxx_HAL_Driver/Inc/stm32wlxx_ll_dma.h ****   * @retval None
1195:Drivers/STM32WLxx_HAL_Driver/Inc/stm32wlxx_ll_dma.h ****   */
1196:Drivers/STM32WLxx_HAL_Driver/Inc/stm32wlxx_ll_dma.h **** __STATIC_INLINE void LL_DMA_EnableChannelPrivilege(DMA_TypeDef *DMAx, uint32_t Channel)
1197:Drivers/STM32WLxx_HAL_Driver/Inc/stm32wlxx_ll_dma.h **** {
1198:Drivers/STM32WLxx_HAL_Driver/Inc/stm32wlxx_ll_dma.h ****   uint32_t dma_base_addr = (uint32_t)DMAx;
1199:Drivers/STM32WLxx_HAL_Driver/Inc/stm32wlxx_ll_dma.h ****   SET_BIT(((DMA_Channel_TypeDef *)(dma_base_addr + CHANNEL_OFFSET_TAB[Channel]))->CCR,  DMA_CCR_PRI
1200:Drivers/STM32WLxx_HAL_Driver/Inc/stm32wlxx_ll_dma.h **** }
1201:Drivers/STM32WLxx_HAL_Driver/Inc/stm32wlxx_ll_dma.h **** 
1202:Drivers/STM32WLxx_HAL_Driver/Inc/stm32wlxx_ll_dma.h **** /**
1203:Drivers/STM32WLxx_HAL_Driver/Inc/stm32wlxx_ll_dma.h ****   * @brief  Disable the privilege attribute on DMA channel.
1204:Drivers/STM32WLxx_HAL_Driver/Inc/stm32wlxx_ll_dma.h ****   * @rmtoll CCR          PRIV          LL_DMA_DisableChannelPrivilege\n
1205:Drivers/STM32WLxx_HAL_Driver/Inc/stm32wlxx_ll_dma.h ****   * @param  DMAx DMAx Instance
1206:Drivers/STM32WLxx_HAL_Driver/Inc/stm32wlxx_ll_dma.h ****   * @param  Channel This parameter can be one of the following values:
1207:Drivers/STM32WLxx_HAL_Driver/Inc/stm32wlxx_ll_dma.h ****   *         @arg @ref LL_DMA_CHANNEL_1
1208:Drivers/STM32WLxx_HAL_Driver/Inc/stm32wlxx_ll_dma.h ****   *         @arg @ref LL_DMA_CHANNEL_2
1209:Drivers/STM32WLxx_HAL_Driver/Inc/stm32wlxx_ll_dma.h ****   *         @arg @ref LL_DMA_CHANNEL_3
1210:Drivers/STM32WLxx_HAL_Driver/Inc/stm32wlxx_ll_dma.h ****   *         @arg @ref LL_DMA_CHANNEL_4
1211:Drivers/STM32WLxx_HAL_Driver/Inc/stm32wlxx_ll_dma.h ****   *         @arg @ref LL_DMA_CHANNEL_5
1212:Drivers/STM32WLxx_HAL_Driver/Inc/stm32wlxx_ll_dma.h ****   *         @arg @ref LL_DMA_CHANNEL_6
1213:Drivers/STM32WLxx_HAL_Driver/Inc/stm32wlxx_ll_dma.h ****   *         @arg @ref LL_DMA_CHANNEL_7
1214:Drivers/STM32WLxx_HAL_Driver/Inc/stm32wlxx_ll_dma.h ****   * @retval None
1215:Drivers/STM32WLxx_HAL_Driver/Inc/stm32wlxx_ll_dma.h ****   */
1216:Drivers/STM32WLxx_HAL_Driver/Inc/stm32wlxx_ll_dma.h **** __STATIC_INLINE void LL_DMA_DisableChannelPrivilege(DMA_TypeDef *DMAx, uint32_t Channel)
1217:Drivers/STM32WLxx_HAL_Driver/Inc/stm32wlxx_ll_dma.h **** {
1218:Drivers/STM32WLxx_HAL_Driver/Inc/stm32wlxx_ll_dma.h ****   uint32_t dma_base_addr = (uint32_t)DMAx;
1219:Drivers/STM32WLxx_HAL_Driver/Inc/stm32wlxx_ll_dma.h ****   CLEAR_BIT(((DMA_Channel_TypeDef *)(dma_base_addr + CHANNEL_OFFSET_TAB[Channel]))->CCR,  DMA_CCR_P
1220:Drivers/STM32WLxx_HAL_Driver/Inc/stm32wlxx_ll_dma.h **** }
1221:Drivers/STM32WLxx_HAL_Driver/Inc/stm32wlxx_ll_dma.h **** 
1222:Drivers/STM32WLxx_HAL_Driver/Inc/stm32wlxx_ll_dma.h **** /**
1223:Drivers/STM32WLxx_HAL_Driver/Inc/stm32wlxx_ll_dma.h ****   * @brief  Check if DMA channel attribute is privilege or not.
1224:Drivers/STM32WLxx_HAL_Driver/Inc/stm32wlxx_ll_dma.h ****   * @rmtoll CCR          PRIV          LL_DMA_IsEnabledChannelPrivilege\n
1225:Drivers/STM32WLxx_HAL_Driver/Inc/stm32wlxx_ll_dma.h ****   * @param  DMAx DMAx Instance
1226:Drivers/STM32WLxx_HAL_Driver/Inc/stm32wlxx_ll_dma.h ****   * @param  Channel This parameter can be one of the following values:
1227:Drivers/STM32WLxx_HAL_Driver/Inc/stm32wlxx_ll_dma.h ****   *         @arg @ref LL_DMA_CHANNEL_1
1228:Drivers/STM32WLxx_HAL_Driver/Inc/stm32wlxx_ll_dma.h ****   *         @arg @ref LL_DMA_CHANNEL_2
1229:Drivers/STM32WLxx_HAL_Driver/Inc/stm32wlxx_ll_dma.h ****   *         @arg @ref LL_DMA_CHANNEL_3
1230:Drivers/STM32WLxx_HAL_Driver/Inc/stm32wlxx_ll_dma.h ****   *         @arg @ref LL_DMA_CHANNEL_4
1231:Drivers/STM32WLxx_HAL_Driver/Inc/stm32wlxx_ll_dma.h ****   *         @arg @ref LL_DMA_CHANNEL_5
1232:Drivers/STM32WLxx_HAL_Driver/Inc/stm32wlxx_ll_dma.h ****   *         @arg @ref LL_DMA_CHANNEL_6
1233:Drivers/STM32WLxx_HAL_Driver/Inc/stm32wlxx_ll_dma.h ****   *         @arg @ref LL_DMA_CHANNEL_7
1234:Drivers/STM32WLxx_HAL_Driver/Inc/stm32wlxx_ll_dma.h ****   * @retval State of bit (1 or 0).
1235:Drivers/STM32WLxx_HAL_Driver/Inc/stm32wlxx_ll_dma.h ****   */
1236:Drivers/STM32WLxx_HAL_Driver/Inc/stm32wlxx_ll_dma.h **** __STATIC_INLINE uint32_t LL_DMA_IsEnabledChannelPrivilege(DMA_TypeDef *DMAx, uint32_t Channel)
1237:Drivers/STM32WLxx_HAL_Driver/Inc/stm32wlxx_ll_dma.h **** {
1238:Drivers/STM32WLxx_HAL_Driver/Inc/stm32wlxx_ll_dma.h ****   uint32_t dma_base_addr = (uint32_t)DMAx;
ARM GAS  /var/folders/9y/n02fl3g16gnf7ppy14xghdy80000gn/T//ccTkjYAj.s 			page 44


1239:Drivers/STM32WLxx_HAL_Driver/Inc/stm32wlxx_ll_dma.h ****   return ((READ_BIT(((DMA_Channel_TypeDef *)(dma_base_addr + CHANNEL_OFFSET_TAB[Channel]))->CCR,
1240:Drivers/STM32WLxx_HAL_Driver/Inc/stm32wlxx_ll_dma.h ****                     DMA_CCR_PRIV) == (DMA_CCR_PRIV)) ? 1UL : 0UL);
1241:Drivers/STM32WLxx_HAL_Driver/Inc/stm32wlxx_ll_dma.h **** }
1242:Drivers/STM32WLxx_HAL_Driver/Inc/stm32wlxx_ll_dma.h **** 
1243:Drivers/STM32WLxx_HAL_Driver/Inc/stm32wlxx_ll_dma.h **** #endif /* DMA_CCR_PRIV */
1244:Drivers/STM32WLxx_HAL_Driver/Inc/stm32wlxx_ll_dma.h **** /**
1245:Drivers/STM32WLxx_HAL_Driver/Inc/stm32wlxx_ll_dma.h ****   * @brief  Set Number of data to transfer.
1246:Drivers/STM32WLxx_HAL_Driver/Inc/stm32wlxx_ll_dma.h ****   * @note   This action has no effect if
1247:Drivers/STM32WLxx_HAL_Driver/Inc/stm32wlxx_ll_dma.h ****   *         channel is enabled.
1248:Drivers/STM32WLxx_HAL_Driver/Inc/stm32wlxx_ll_dma.h ****   * @rmtoll CNDTR        NDT           LL_DMA_SetDataLength
1249:Drivers/STM32WLxx_HAL_Driver/Inc/stm32wlxx_ll_dma.h ****   * @param  DMAx DMAx Instance
1250:Drivers/STM32WLxx_HAL_Driver/Inc/stm32wlxx_ll_dma.h ****   * @param  Channel This parameter can be one of the following values:
1251:Drivers/STM32WLxx_HAL_Driver/Inc/stm32wlxx_ll_dma.h ****   *         @arg @ref LL_DMA_CHANNEL_1
1252:Drivers/STM32WLxx_HAL_Driver/Inc/stm32wlxx_ll_dma.h ****   *         @arg @ref LL_DMA_CHANNEL_2
1253:Drivers/STM32WLxx_HAL_Driver/Inc/stm32wlxx_ll_dma.h ****   *         @arg @ref LL_DMA_CHANNEL_3
1254:Drivers/STM32WLxx_HAL_Driver/Inc/stm32wlxx_ll_dma.h ****   *         @arg @ref LL_DMA_CHANNEL_4
1255:Drivers/STM32WLxx_HAL_Driver/Inc/stm32wlxx_ll_dma.h ****   *         @arg @ref LL_DMA_CHANNEL_5
1256:Drivers/STM32WLxx_HAL_Driver/Inc/stm32wlxx_ll_dma.h ****   *         @arg @ref LL_DMA_CHANNEL_6
1257:Drivers/STM32WLxx_HAL_Driver/Inc/stm32wlxx_ll_dma.h ****   *         @arg @ref LL_DMA_CHANNEL_7
1258:Drivers/STM32WLxx_HAL_Driver/Inc/stm32wlxx_ll_dma.h ****   * @param  NbData Between Min_Data = 0 and Max_Data = 0x0000FFFF
1259:Drivers/STM32WLxx_HAL_Driver/Inc/stm32wlxx_ll_dma.h ****   * @retval None
1260:Drivers/STM32WLxx_HAL_Driver/Inc/stm32wlxx_ll_dma.h ****   */
1261:Drivers/STM32WLxx_HAL_Driver/Inc/stm32wlxx_ll_dma.h **** __STATIC_INLINE void LL_DMA_SetDataLength(DMA_TypeDef *DMAx, uint32_t Channel, uint32_t NbData)
1262:Drivers/STM32WLxx_HAL_Driver/Inc/stm32wlxx_ll_dma.h **** {
1263:Drivers/STM32WLxx_HAL_Driver/Inc/stm32wlxx_ll_dma.h ****   uint32_t dma_base_addr = (uint32_t)DMAx;
1264:Drivers/STM32WLxx_HAL_Driver/Inc/stm32wlxx_ll_dma.h ****   MODIFY_REG(((DMA_Channel_TypeDef *)(dma_base_addr + CHANNEL_OFFSET_TAB[Channel]))->CNDTR,
1265:Drivers/STM32WLxx_HAL_Driver/Inc/stm32wlxx_ll_dma.h ****              DMA_CNDTR_NDT, NbData);
1266:Drivers/STM32WLxx_HAL_Driver/Inc/stm32wlxx_ll_dma.h **** }
1267:Drivers/STM32WLxx_HAL_Driver/Inc/stm32wlxx_ll_dma.h **** 
1268:Drivers/STM32WLxx_HAL_Driver/Inc/stm32wlxx_ll_dma.h **** /**
1269:Drivers/STM32WLxx_HAL_Driver/Inc/stm32wlxx_ll_dma.h ****   * @brief  Get Number of data to transfer.
1270:Drivers/STM32WLxx_HAL_Driver/Inc/stm32wlxx_ll_dma.h ****   * @note   Once the channel is enabled, the return value indicate the
1271:Drivers/STM32WLxx_HAL_Driver/Inc/stm32wlxx_ll_dma.h ****   *         remaining bytes to be transmitted.
1272:Drivers/STM32WLxx_HAL_Driver/Inc/stm32wlxx_ll_dma.h ****   * @rmtoll CNDTR        NDT           LL_DMA_GetDataLength
1273:Drivers/STM32WLxx_HAL_Driver/Inc/stm32wlxx_ll_dma.h ****   * @param  DMAx DMAx Instance
1274:Drivers/STM32WLxx_HAL_Driver/Inc/stm32wlxx_ll_dma.h ****   * @param  Channel This parameter can be one of the following values:
1275:Drivers/STM32WLxx_HAL_Driver/Inc/stm32wlxx_ll_dma.h ****   *         @arg @ref LL_DMA_CHANNEL_1
1276:Drivers/STM32WLxx_HAL_Driver/Inc/stm32wlxx_ll_dma.h ****   *         @arg @ref LL_DMA_CHANNEL_2
1277:Drivers/STM32WLxx_HAL_Driver/Inc/stm32wlxx_ll_dma.h ****   *         @arg @ref LL_DMA_CHANNEL_3
1278:Drivers/STM32WLxx_HAL_Driver/Inc/stm32wlxx_ll_dma.h ****   *         @arg @ref LL_DMA_CHANNEL_4
1279:Drivers/STM32WLxx_HAL_Driver/Inc/stm32wlxx_ll_dma.h ****   *         @arg @ref LL_DMA_CHANNEL_5
1280:Drivers/STM32WLxx_HAL_Driver/Inc/stm32wlxx_ll_dma.h ****   *         @arg @ref LL_DMA_CHANNEL_6
1281:Drivers/STM32WLxx_HAL_Driver/Inc/stm32wlxx_ll_dma.h ****   *         @arg @ref LL_DMA_CHANNEL_7
1282:Drivers/STM32WLxx_HAL_Driver/Inc/stm32wlxx_ll_dma.h ****   * @retval Between Min_Data = 0 and Max_Data = 0xFFFFFFFF
1283:Drivers/STM32WLxx_HAL_Driver/Inc/stm32wlxx_ll_dma.h ****   */
1284:Drivers/STM32WLxx_HAL_Driver/Inc/stm32wlxx_ll_dma.h **** __STATIC_INLINE uint32_t LL_DMA_GetDataLength(DMA_TypeDef *DMAx, uint32_t Channel)
1285:Drivers/STM32WLxx_HAL_Driver/Inc/stm32wlxx_ll_dma.h **** {
1286:Drivers/STM32WLxx_HAL_Driver/Inc/stm32wlxx_ll_dma.h ****   uint32_t dma_base_addr = (uint32_t)DMAx;
1287:Drivers/STM32WLxx_HAL_Driver/Inc/stm32wlxx_ll_dma.h ****   return (READ_BIT(((DMA_Channel_TypeDef *)(dma_base_addr + CHANNEL_OFFSET_TAB[Channel]))->CNDTR,
1288:Drivers/STM32WLxx_HAL_Driver/Inc/stm32wlxx_ll_dma.h ****                    DMA_CNDTR_NDT));
1289:Drivers/STM32WLxx_HAL_Driver/Inc/stm32wlxx_ll_dma.h **** }
1290:Drivers/STM32WLxx_HAL_Driver/Inc/stm32wlxx_ll_dma.h **** 
1291:Drivers/STM32WLxx_HAL_Driver/Inc/stm32wlxx_ll_dma.h **** /**
1292:Drivers/STM32WLxx_HAL_Driver/Inc/stm32wlxx_ll_dma.h ****   * @brief  Configure the Source and Destination addresses.
1293:Drivers/STM32WLxx_HAL_Driver/Inc/stm32wlxx_ll_dma.h ****   * @note   This API must not be called when the DMA channel is enabled.
1294:Drivers/STM32WLxx_HAL_Driver/Inc/stm32wlxx_ll_dma.h ****   * @note   Each peripheral using DMA provides an API to get directly the register address (LL_PPP_
1295:Drivers/STM32WLxx_HAL_Driver/Inc/stm32wlxx_ll_dma.h ****   * @rmtoll CPAR         PA            LL_DMA_ConfigAddresses\n
ARM GAS  /var/folders/9y/n02fl3g16gnf7ppy14xghdy80000gn/T//ccTkjYAj.s 			page 45


1296:Drivers/STM32WLxx_HAL_Driver/Inc/stm32wlxx_ll_dma.h ****   *         CMAR         MA            LL_DMA_ConfigAddresses
1297:Drivers/STM32WLxx_HAL_Driver/Inc/stm32wlxx_ll_dma.h ****   * @param  DMAx DMAx Instance
1298:Drivers/STM32WLxx_HAL_Driver/Inc/stm32wlxx_ll_dma.h ****   * @param  Channel This parameter can be one of the following values:
1299:Drivers/STM32WLxx_HAL_Driver/Inc/stm32wlxx_ll_dma.h ****   *         @arg @ref LL_DMA_CHANNEL_1
1300:Drivers/STM32WLxx_HAL_Driver/Inc/stm32wlxx_ll_dma.h ****   *         @arg @ref LL_DMA_CHANNEL_2
1301:Drivers/STM32WLxx_HAL_Driver/Inc/stm32wlxx_ll_dma.h ****   *         @arg @ref LL_DMA_CHANNEL_3
1302:Drivers/STM32WLxx_HAL_Driver/Inc/stm32wlxx_ll_dma.h ****   *         @arg @ref LL_DMA_CHANNEL_4
1303:Drivers/STM32WLxx_HAL_Driver/Inc/stm32wlxx_ll_dma.h ****   *         @arg @ref LL_DMA_CHANNEL_5
1304:Drivers/STM32WLxx_HAL_Driver/Inc/stm32wlxx_ll_dma.h ****   *         @arg @ref LL_DMA_CHANNEL_6
1305:Drivers/STM32WLxx_HAL_Driver/Inc/stm32wlxx_ll_dma.h ****   *         @arg @ref LL_DMA_CHANNEL_7
1306:Drivers/STM32WLxx_HAL_Driver/Inc/stm32wlxx_ll_dma.h ****   * @param  SrcAddress Between Min_Data = 0 and Max_Data = 0xFFFFFFFF
1307:Drivers/STM32WLxx_HAL_Driver/Inc/stm32wlxx_ll_dma.h ****   * @param  DstAddress Between Min_Data = 0 and Max_Data = 0xFFFFFFFF
1308:Drivers/STM32WLxx_HAL_Driver/Inc/stm32wlxx_ll_dma.h ****   * @param  Direction This parameter can be one of the following values:
1309:Drivers/STM32WLxx_HAL_Driver/Inc/stm32wlxx_ll_dma.h ****   *         @arg @ref LL_DMA_DIRECTION_PERIPH_TO_MEMORY
1310:Drivers/STM32WLxx_HAL_Driver/Inc/stm32wlxx_ll_dma.h ****   *         @arg @ref LL_DMA_DIRECTION_MEMORY_TO_PERIPH
1311:Drivers/STM32WLxx_HAL_Driver/Inc/stm32wlxx_ll_dma.h ****   *         @arg @ref LL_DMA_DIRECTION_MEMORY_TO_MEMORY
1312:Drivers/STM32WLxx_HAL_Driver/Inc/stm32wlxx_ll_dma.h ****   * @retval None
1313:Drivers/STM32WLxx_HAL_Driver/Inc/stm32wlxx_ll_dma.h ****   */
1314:Drivers/STM32WLxx_HAL_Driver/Inc/stm32wlxx_ll_dma.h **** __STATIC_INLINE void LL_DMA_ConfigAddresses(DMA_TypeDef *DMAx, uint32_t Channel, uint32_t SrcAddres
1315:Drivers/STM32WLxx_HAL_Driver/Inc/stm32wlxx_ll_dma.h ****                                             uint32_t DstAddress, uint32_t Direction)
1316:Drivers/STM32WLxx_HAL_Driver/Inc/stm32wlxx_ll_dma.h **** {
1317:Drivers/STM32WLxx_HAL_Driver/Inc/stm32wlxx_ll_dma.h ****   uint32_t dma_base_addr = (uint32_t)DMAx;
1318:Drivers/STM32WLxx_HAL_Driver/Inc/stm32wlxx_ll_dma.h ****   /* Direction Memory to Periph */
1319:Drivers/STM32WLxx_HAL_Driver/Inc/stm32wlxx_ll_dma.h ****   if (Direction == LL_DMA_DIRECTION_MEMORY_TO_PERIPH)
1320:Drivers/STM32WLxx_HAL_Driver/Inc/stm32wlxx_ll_dma.h ****   {
1321:Drivers/STM32WLxx_HAL_Driver/Inc/stm32wlxx_ll_dma.h ****     WRITE_REG(((DMA_Channel_TypeDef *)(dma_base_addr + CHANNEL_OFFSET_TAB[Channel]))->CMAR, SrcAddr
1322:Drivers/STM32WLxx_HAL_Driver/Inc/stm32wlxx_ll_dma.h ****     WRITE_REG(((DMA_Channel_TypeDef *)(dma_base_addr + CHANNEL_OFFSET_TAB[Channel]))->CPAR, DstAddr
1323:Drivers/STM32WLxx_HAL_Driver/Inc/stm32wlxx_ll_dma.h ****   }
