ARM GAS  /var/folders/9y/n02fl3g16gnf7ppy14xghdy80000gn/T//cc8eCeeT.s 			page 1


   1              		.cpu cortex-m4
   2              		.eabi_attribute 20, 1
   3              		.eabi_attribute 21, 1
   4              		.eabi_attribute 23, 3
   5              		.eabi_attribute 24, 1
   6              		.eabi_attribute 25, 1
   7              		.eabi_attribute 26, 1
   8              		.eabi_attribute 30, 1
   9              		.eabi_attribute 34, 1
  10              		.eabi_attribute 18, 4
  11              		.file	"radio.c"
  12              		.text
  13              	.Ltext0:
  14              		.cfi_sections	.debug_frame
  15              		.section	.text.RadioCheckRfFrequency,"ax",%progbits
  16              		.align	1
  17              		.arch armv7e-m
  18              		.syntax unified
  19              		.thumb
  20              		.thumb_func
  21              		.fpu softvfp
  23              	RadioCheckRfFrequency:
  24              	.LVL0:
  25              	.LFB1171:
  26              		.file 1 "Middlewares/Third_Party/SubGHz_Phy/stm32_radio_driver/radio.c"
   1:Middlewares/Third_Party/SubGHz_Phy/stm32_radio_driver/radio.c **** /*!
   2:Middlewares/Third_Party/SubGHz_Phy/stm32_radio_driver/radio.c ****  * \file      radio.c
   3:Middlewares/Third_Party/SubGHz_Phy/stm32_radio_driver/radio.c ****  *
   4:Middlewares/Third_Party/SubGHz_Phy/stm32_radio_driver/radio.c ****  * \brief     Radio driver API definition
   5:Middlewares/Third_Party/SubGHz_Phy/stm32_radio_driver/radio.c ****  *
   6:Middlewares/Third_Party/SubGHz_Phy/stm32_radio_driver/radio.c ****  * \copyright Revised BSD License, see section \ref LICENSE.
   7:Middlewares/Third_Party/SubGHz_Phy/stm32_radio_driver/radio.c ****  *
   8:Middlewares/Third_Party/SubGHz_Phy/stm32_radio_driver/radio.c ****  * \code
   9:Middlewares/Third_Party/SubGHz_Phy/stm32_radio_driver/radio.c ****  *                ______                              _
  10:Middlewares/Third_Party/SubGHz_Phy/stm32_radio_driver/radio.c ****  *               / _____)             _              | |
  11:Middlewares/Third_Party/SubGHz_Phy/stm32_radio_driver/radio.c ****  *              ( (____  _____ ____ _| |_ _____  ____| |__
  12:Middlewares/Third_Party/SubGHz_Phy/stm32_radio_driver/radio.c ****  *               \____ \| ___ |    (_   _) ___ |/ ___)  _ \
  13:Middlewares/Third_Party/SubGHz_Phy/stm32_radio_driver/radio.c ****  *               _____) ) ____| | | || |_| ____( (___| | | |
  14:Middlewares/Third_Party/SubGHz_Phy/stm32_radio_driver/radio.c ****  *              (______/|_____)_|_|_| \__)_____)\____)_| |_|
  15:Middlewares/Third_Party/SubGHz_Phy/stm32_radio_driver/radio.c ****  *              (C)2013-2017 Semtech
  16:Middlewares/Third_Party/SubGHz_Phy/stm32_radio_driver/radio.c ****  *
  17:Middlewares/Third_Party/SubGHz_Phy/stm32_radio_driver/radio.c ****  * \endcode
  18:Middlewares/Third_Party/SubGHz_Phy/stm32_radio_driver/radio.c ****  *
  19:Middlewares/Third_Party/SubGHz_Phy/stm32_radio_driver/radio.c ****  * \author    Miguel Luis ( Semtech )
  20:Middlewares/Third_Party/SubGHz_Phy/stm32_radio_driver/radio.c ****  *
  21:Middlewares/Third_Party/SubGHz_Phy/stm32_radio_driver/radio.c ****  * \author    Gregory Cristian ( Semtech )
  22:Middlewares/Third_Party/SubGHz_Phy/stm32_radio_driver/radio.c ****  */
  23:Middlewares/Third_Party/SubGHz_Phy/stm32_radio_driver/radio.c **** /**
  24:Middlewares/Third_Party/SubGHz_Phy/stm32_radio_driver/radio.c ****   ******************************************************************************
  25:Middlewares/Third_Party/SubGHz_Phy/stm32_radio_driver/radio.c ****   *
  26:Middlewares/Third_Party/SubGHz_Phy/stm32_radio_driver/radio.c ****   *          Portions COPYRIGHT 2020 STMicroelectronics
  27:Middlewares/Third_Party/SubGHz_Phy/stm32_radio_driver/radio.c ****   *
  28:Middlewares/Third_Party/SubGHz_Phy/stm32_radio_driver/radio.c ****   * @file    radio.c
  29:Middlewares/Third_Party/SubGHz_Phy/stm32_radio_driver/radio.c ****   * @author  MCD Application Team
  30:Middlewares/Third_Party/SubGHz_Phy/stm32_radio_driver/radio.c ****   * @brief   Radio driver API definition
  31:Middlewares/Third_Party/SubGHz_Phy/stm32_radio_driver/radio.c ****   ******************************************************************************
  32:Middlewares/Third_Party/SubGHz_Phy/stm32_radio_driver/radio.c ****   */
ARM GAS  /var/folders/9y/n02fl3g16gnf7ppy14xghdy80000gn/T//cc8eCeeT.s 			page 2


  33:Middlewares/Third_Party/SubGHz_Phy/stm32_radio_driver/radio.c **** /* Includes ------------------------------------------------------------------*/
  34:Middlewares/Third_Party/SubGHz_Phy/stm32_radio_driver/radio.c **** #include <math.h>
  35:Middlewares/Third_Party/SubGHz_Phy/stm32_radio_driver/radio.c **** #include "timer.h"
  36:Middlewares/Third_Party/SubGHz_Phy/stm32_radio_driver/radio.c **** #include "radio.h"
  37:Middlewares/Third_Party/SubGHz_Phy/stm32_radio_driver/radio.c **** #include "radio_fw.h"
  38:Middlewares/Third_Party/SubGHz_Phy/stm32_radio_driver/radio.c **** #include "radio_driver.h"
  39:Middlewares/Third_Party/SubGHz_Phy/stm32_radio_driver/radio.c **** #include "radio_conf.h"
  40:Middlewares/Third_Party/SubGHz_Phy/stm32_radio_driver/radio.c **** #include "mw_log_conf.h"
  41:Middlewares/Third_Party/SubGHz_Phy/stm32_radio_driver/radio.c **** 
  42:Middlewares/Third_Party/SubGHz_Phy/stm32_radio_driver/radio.c **** /* Private typedef -----------------------------------------------------------*/
  43:Middlewares/Third_Party/SubGHz_Phy/stm32_radio_driver/radio.c **** /* ST_WORKAROUND_BEGIN: Replace global variables by typedef struct */
  44:Middlewares/Third_Party/SubGHz_Phy/stm32_radio_driver/radio.c **** /*!
  45:Middlewares/Third_Party/SubGHz_Phy/stm32_radio_driver/radio.c ****  * Radio hardware and global parameters
  46:Middlewares/Third_Party/SubGHz_Phy/stm32_radio_driver/radio.c ****  */
  47:Middlewares/Third_Party/SubGHz_Phy/stm32_radio_driver/radio.c **** typedef struct SubgRf_s
  48:Middlewares/Third_Party/SubGHz_Phy/stm32_radio_driver/radio.c **** {
  49:Middlewares/Third_Party/SubGHz_Phy/stm32_radio_driver/radio.c ****     RadioModems_t Modem;
  50:Middlewares/Third_Party/SubGHz_Phy/stm32_radio_driver/radio.c ****     bool RxContinuous;
  51:Middlewares/Third_Party/SubGHz_Phy/stm32_radio_driver/radio.c ****     uint32_t TxTimeout;
  52:Middlewares/Third_Party/SubGHz_Phy/stm32_radio_driver/radio.c ****     uint32_t RxTimeout;
  53:Middlewares/Third_Party/SubGHz_Phy/stm32_radio_driver/radio.c ****     struct
  54:Middlewares/Third_Party/SubGHz_Phy/stm32_radio_driver/radio.c ****     {
  55:Middlewares/Third_Party/SubGHz_Phy/stm32_radio_driver/radio.c ****         bool Previous;
  56:Middlewares/Third_Party/SubGHz_Phy/stm32_radio_driver/radio.c ****         bool Current;
  57:Middlewares/Third_Party/SubGHz_Phy/stm32_radio_driver/radio.c ****     } PublicNetwork;
  58:Middlewares/Third_Party/SubGHz_Phy/stm32_radio_driver/radio.c ****     PacketParams_t PacketParams;
  59:Middlewares/Third_Party/SubGHz_Phy/stm32_radio_driver/radio.c ****     PacketStatus_t PacketStatus;
  60:Middlewares/Third_Party/SubGHz_Phy/stm32_radio_driver/radio.c ****     ModulationParams_t ModulationParams;
  61:Middlewares/Third_Party/SubGHz_Phy/stm32_radio_driver/radio.c ****     RadioIrqMasks_t RadioIrq;
  62:Middlewares/Third_Party/SubGHz_Phy/stm32_radio_driver/radio.c ****     uint8_t AntSwitchPaSelect;
  63:Middlewares/Third_Party/SubGHz_Phy/stm32_radio_driver/radio.c ****     uint32_t RxDcPreambleDetectTimeout; /* 0:RxDutyCycle is off, otherwise on with  2*rxTime + slee
  64:Middlewares/Third_Party/SubGHz_Phy/stm32_radio_driver/radio.c **** } SubgRf_t;
  65:Middlewares/Third_Party/SubGHz_Phy/stm32_radio_driver/radio.c **** /* ST_WORKAROUND_END */
  66:Middlewares/Third_Party/SubGHz_Phy/stm32_radio_driver/radio.c **** 
  67:Middlewares/Third_Party/SubGHz_Phy/stm32_radio_driver/radio.c **** /* Private macro -------------------------------------------------------------*/
  68:Middlewares/Third_Party/SubGHz_Phy/stm32_radio_driver/radio.c **** /* ST_WORKAROUND_BEGIN: Add utilities macro to prevent missing header file */
  69:Middlewares/Third_Party/SubGHz_Phy/stm32_radio_driver/radio.c **** #define RADIO_BIT_MASK(__n)  (~(1<<__n))
  70:Middlewares/Third_Party/SubGHz_Phy/stm32_radio_driver/radio.c **** 
  71:Middlewares/Third_Party/SubGHz_Phy/stm32_radio_driver/radio.c **** /**
  72:Middlewares/Third_Party/SubGHz_Phy/stm32_radio_driver/radio.c ****   * \brief Calculates ceiling division of ( X / N )
  73:Middlewares/Third_Party/SubGHz_Phy/stm32_radio_driver/radio.c ****   *
  74:Middlewares/Third_Party/SubGHz_Phy/stm32_radio_driver/radio.c ****   * \param [in] X numerator
  75:Middlewares/Third_Party/SubGHz_Phy/stm32_radio_driver/radio.c ****   * \param [in] N denominator
  76:Middlewares/Third_Party/SubGHz_Phy/stm32_radio_driver/radio.c ****   *
  77:Middlewares/Third_Party/SubGHz_Phy/stm32_radio_driver/radio.c ****   */
  78:Middlewares/Third_Party/SubGHz_Phy/stm32_radio_driver/radio.c **** #ifndef DIVC
  79:Middlewares/Third_Party/SubGHz_Phy/stm32_radio_driver/radio.c **** #define DIVC( X, N )                ( ( ( X ) + ( N ) - 1 ) / ( N ) )
  80:Middlewares/Third_Party/SubGHz_Phy/stm32_radio_driver/radio.c **** #endif
  81:Middlewares/Third_Party/SubGHz_Phy/stm32_radio_driver/radio.c **** 
  82:Middlewares/Third_Party/SubGHz_Phy/stm32_radio_driver/radio.c **** /**
  83:Middlewares/Third_Party/SubGHz_Phy/stm32_radio_driver/radio.c ****   * \brief Calculates rounding division of ( X / N )
  84:Middlewares/Third_Party/SubGHz_Phy/stm32_radio_driver/radio.c ****   *
  85:Middlewares/Third_Party/SubGHz_Phy/stm32_radio_driver/radio.c ****   * \param [in] X numerator
  86:Middlewares/Third_Party/SubGHz_Phy/stm32_radio_driver/radio.c ****   * \param [in] N denominator
  87:Middlewares/Third_Party/SubGHz_Phy/stm32_radio_driver/radio.c ****   *
  88:Middlewares/Third_Party/SubGHz_Phy/stm32_radio_driver/radio.c ****   */
  89:Middlewares/Third_Party/SubGHz_Phy/stm32_radio_driver/radio.c **** #ifndef DIVR
ARM GAS  /var/folders/9y/n02fl3g16gnf7ppy14xghdy80000gn/T//cc8eCeeT.s 			page 3


  90:Middlewares/Third_Party/SubGHz_Phy/stm32_radio_driver/radio.c **** #define DIVR( X, N )                ( ( ( X ) + ( ((X)>0?(N):(N))>>1 ) ) / ( N ) )
  91:Middlewares/Third_Party/SubGHz_Phy/stm32_radio_driver/radio.c **** #endif
  92:Middlewares/Third_Party/SubGHz_Phy/stm32_radio_driver/radio.c **** /* ST_WORKAROUND_END */
  93:Middlewares/Third_Party/SubGHz_Phy/stm32_radio_driver/radio.c **** 
  94:Middlewares/Third_Party/SubGHz_Phy/stm32_radio_driver/radio.c **** /* Private define ------------------------------------------------------------*/
  95:Middlewares/Third_Party/SubGHz_Phy/stm32_radio_driver/radio.c **** /* ST_WORKAROUND_BEGIN: Add radio defines to prevent missing header file */
  96:Middlewares/Third_Party/SubGHz_Phy/stm32_radio_driver/radio.c **** /*can be overridden in radio_conf.h*/
  97:Middlewares/Third_Party/SubGHz_Phy/stm32_radio_driver/radio.c **** #ifndef XTAL_FREQ
  98:Middlewares/Third_Party/SubGHz_Phy/stm32_radio_driver/radio.c **** #define XTAL_FREQ                                   32000000UL
  99:Middlewares/Third_Party/SubGHz_Phy/stm32_radio_driver/radio.c **** #endif
 100:Middlewares/Third_Party/SubGHz_Phy/stm32_radio_driver/radio.c **** /*can be overridden in radio_conf.h*/
 101:Middlewares/Third_Party/SubGHz_Phy/stm32_radio_driver/radio.c **** #ifndef RADIO_IRQ_PROCESS_INIT
 102:Middlewares/Third_Party/SubGHz_Phy/stm32_radio_driver/radio.c **** #define RADIO_IRQ_PROCESS_INIT()
 103:Middlewares/Third_Party/SubGHz_Phy/stm32_radio_driver/radio.c **** #endif
 104:Middlewares/Third_Party/SubGHz_Phy/stm32_radio_driver/radio.c **** /*can be overridden in radio_conf.h*/
 105:Middlewares/Third_Party/SubGHz_Phy/stm32_radio_driver/radio.c **** #ifndef RADIO_IRQ_PROCESS
 106:Middlewares/Third_Party/SubGHz_Phy/stm32_radio_driver/radio.c **** #define RADIO_IRQ_PROCESS()        RadioIrqProcess()
 107:Middlewares/Third_Party/SubGHz_Phy/stm32_radio_driver/radio.c **** #endif
 108:Middlewares/Third_Party/SubGHz_Phy/stm32_radio_driver/radio.c **** /*can be overridden in radio_conf.h*/
 109:Middlewares/Third_Party/SubGHz_Phy/stm32_radio_driver/radio.c **** #ifndef RADIO_RX_TIMEOUT_PROCESS
 110:Middlewares/Third_Party/SubGHz_Phy/stm32_radio_driver/radio.c **** #define RADIO_RX_TIMEOUT_PROCESS() RadioOnRxTimeoutProcess()
 111:Middlewares/Third_Party/SubGHz_Phy/stm32_radio_driver/radio.c **** #endif
 112:Middlewares/Third_Party/SubGHz_Phy/stm32_radio_driver/radio.c **** /*can be overridden in radio_conf.h*/
 113:Middlewares/Third_Party/SubGHz_Phy/stm32_radio_driver/radio.c **** #ifndef RADIO_TX_TIMEOUT_PROCESS
 114:Middlewares/Third_Party/SubGHz_Phy/stm32_radio_driver/radio.c **** #define RADIO_TX_TIMEOUT_PROCESS() RadioOnTxTimeoutProcess()
 115:Middlewares/Third_Party/SubGHz_Phy/stm32_radio_driver/radio.c **** #endif
 116:Middlewares/Third_Party/SubGHz_Phy/stm32_radio_driver/radio.c **** /*can be overridden in radio_conf.h*/
 117:Middlewares/Third_Party/SubGHz_Phy/stm32_radio_driver/radio.c **** #ifndef IRQ_TX_DBG
 118:Middlewares/Third_Party/SubGHz_Phy/stm32_radio_driver/radio.c **** #define IRQ_TX_DBG ((uint16_t) 0)
 119:Middlewares/Third_Party/SubGHz_Phy/stm32_radio_driver/radio.c **** #endif
 120:Middlewares/Third_Party/SubGHz_Phy/stm32_radio_driver/radio.c **** /*can be overridden in radio_conf.h*/
 121:Middlewares/Third_Party/SubGHz_Phy/stm32_radio_driver/radio.c **** #ifndef IRQ_RX_DBG
 122:Middlewares/Third_Party/SubGHz_Phy/stm32_radio_driver/radio.c **** #define IRQ_RX_DBG ((uint16_t) 0)
 123:Middlewares/Third_Party/SubGHz_Phy/stm32_radio_driver/radio.c **** #endif
 124:Middlewares/Third_Party/SubGHz_Phy/stm32_radio_driver/radio.c **** /*can be overridden in radio_conf.h*/
 125:Middlewares/Third_Party/SubGHz_Phy/stm32_radio_driver/radio.c **** #ifndef RADIO_SIGFOX_ENABLE
 126:Middlewares/Third_Party/SubGHz_Phy/stm32_radio_driver/radio.c **** #define RADIO_SIGFOX_ENABLE 1
 127:Middlewares/Third_Party/SubGHz_Phy/stm32_radio_driver/radio.c **** #endif
 128:Middlewares/Third_Party/SubGHz_Phy/stm32_radio_driver/radio.c **** /*can be overridden in radio_conf.h*/
 129:Middlewares/Third_Party/SubGHz_Phy/stm32_radio_driver/radio.c **** #ifndef RADIO_GENERIC_CONFIG_ENABLE
 130:Middlewares/Third_Party/SubGHz_Phy/stm32_radio_driver/radio.c **** #define RADIO_GENERIC_CONFIG_ENABLE 1
 131:Middlewares/Third_Party/SubGHz_Phy/stm32_radio_driver/radio.c **** #endif
 132:Middlewares/Third_Party/SubGHz_Phy/stm32_radio_driver/radio.c **** 
 133:Middlewares/Third_Party/SubGHz_Phy/stm32_radio_driver/radio.c **** /*can be overridden in radio_conf.h*/
 134:Middlewares/Third_Party/SubGHz_Phy/stm32_radio_driver/radio.c **** #ifndef DBG_GPIO_RADIO_RX
 135:Middlewares/Third_Party/SubGHz_Phy/stm32_radio_driver/radio.c **** #define DBG_GPIO_RADIO_RX(set_rst)
 136:Middlewares/Third_Party/SubGHz_Phy/stm32_radio_driver/radio.c **** #endif
 137:Middlewares/Third_Party/SubGHz_Phy/stm32_radio_driver/radio.c **** 
 138:Middlewares/Third_Party/SubGHz_Phy/stm32_radio_driver/radio.c **** /*can be overridden in radio_conf.h*/
 139:Middlewares/Third_Party/SubGHz_Phy/stm32_radio_driver/radio.c **** #ifndef DBG_GPIO_RADIO_TX
 140:Middlewares/Third_Party/SubGHz_Phy/stm32_radio_driver/radio.c **** #define DBG_GPIO_RADIO_TX(set_rst)
 141:Middlewares/Third_Party/SubGHz_Phy/stm32_radio_driver/radio.c **** #endif
 142:Middlewares/Third_Party/SubGHz_Phy/stm32_radio_driver/radio.c **** 
 143:Middlewares/Third_Party/SubGHz_Phy/stm32_radio_driver/radio.c **** #define RADIO_BUF_SIZE 255
 144:Middlewares/Third_Party/SubGHz_Phy/stm32_radio_driver/radio.c **** /* ST_WORKAROUND_END */
 145:Middlewares/Third_Party/SubGHz_Phy/stm32_radio_driver/radio.c **** 
 146:Middlewares/Third_Party/SubGHz_Phy/stm32_radio_driver/radio.c **** /* Private function prototypes -----------------------------------------------*/
ARM GAS  /var/folders/9y/n02fl3g16gnf7ppy14xghdy80000gn/T//cc8eCeeT.s 			page 4


 147:Middlewares/Third_Party/SubGHz_Phy/stm32_radio_driver/radio.c **** /*!
 148:Middlewares/Third_Party/SubGHz_Phy/stm32_radio_driver/radio.c ****  * \brief Initializes the radio
 149:Middlewares/Third_Party/SubGHz_Phy/stm32_radio_driver/radio.c ****  *
 150:Middlewares/Third_Party/SubGHz_Phy/stm32_radio_driver/radio.c ****  * \param [in] events Structure containing the driver callback functions
 151:Middlewares/Third_Party/SubGHz_Phy/stm32_radio_driver/radio.c ****  */
 152:Middlewares/Third_Party/SubGHz_Phy/stm32_radio_driver/radio.c **** static void RadioInit( RadioEvents_t *events );
 153:Middlewares/Third_Party/SubGHz_Phy/stm32_radio_driver/radio.c **** 
 154:Middlewares/Third_Party/SubGHz_Phy/stm32_radio_driver/radio.c **** /*!
 155:Middlewares/Third_Party/SubGHz_Phy/stm32_radio_driver/radio.c ****  * Return current radio status
 156:Middlewares/Third_Party/SubGHz_Phy/stm32_radio_driver/radio.c ****  *
 157:Middlewares/Third_Party/SubGHz_Phy/stm32_radio_driver/radio.c ****  * \return status Radio status.[RF_IDLE, RF_RX_RUNNING, RF_TX_RUNNING]
 158:Middlewares/Third_Party/SubGHz_Phy/stm32_radio_driver/radio.c ****  */
 159:Middlewares/Third_Party/SubGHz_Phy/stm32_radio_driver/radio.c **** static RadioState_t RadioGetStatus( void );
 160:Middlewares/Third_Party/SubGHz_Phy/stm32_radio_driver/radio.c **** 
 161:Middlewares/Third_Party/SubGHz_Phy/stm32_radio_driver/radio.c **** /*!
 162:Middlewares/Third_Party/SubGHz_Phy/stm32_radio_driver/radio.c ****  * \brief Configures the radio with the given modem
 163:Middlewares/Third_Party/SubGHz_Phy/stm32_radio_driver/radio.c ****  *
 164:Middlewares/Third_Party/SubGHz_Phy/stm32_radio_driver/radio.c ****  * \param [in] modem Modem to be used [0: FSK, 1: LoRa]
 165:Middlewares/Third_Party/SubGHz_Phy/stm32_radio_driver/radio.c ****  */
 166:Middlewares/Third_Party/SubGHz_Phy/stm32_radio_driver/radio.c **** static void RadioSetModem( RadioModems_t modem );
 167:Middlewares/Third_Party/SubGHz_Phy/stm32_radio_driver/radio.c **** 
 168:Middlewares/Third_Party/SubGHz_Phy/stm32_radio_driver/radio.c **** /*!
 169:Middlewares/Third_Party/SubGHz_Phy/stm32_radio_driver/radio.c ****  * \brief Sets the channel frequency
 170:Middlewares/Third_Party/SubGHz_Phy/stm32_radio_driver/radio.c ****  *
 171:Middlewares/Third_Party/SubGHz_Phy/stm32_radio_driver/radio.c ****  * \param [in] freq         Channel RF frequency
 172:Middlewares/Third_Party/SubGHz_Phy/stm32_radio_driver/radio.c ****  */
 173:Middlewares/Third_Party/SubGHz_Phy/stm32_radio_driver/radio.c **** static void RadioSetChannel( uint32_t freq );
 174:Middlewares/Third_Party/SubGHz_Phy/stm32_radio_driver/radio.c **** 
 175:Middlewares/Third_Party/SubGHz_Phy/stm32_radio_driver/radio.c **** /*!
 176:Middlewares/Third_Party/SubGHz_Phy/stm32_radio_driver/radio.c ****  * \brief Checks if the channel is free for the given time
 177:Middlewares/Third_Party/SubGHz_Phy/stm32_radio_driver/radio.c ****  *
 178:Middlewares/Third_Party/SubGHz_Phy/stm32_radio_driver/radio.c ****  * \remark The FSK modem is always used for this task as we can select the Rx bandwidth at will.
 179:Middlewares/Third_Party/SubGHz_Phy/stm32_radio_driver/radio.c ****  *
 180:Middlewares/Third_Party/SubGHz_Phy/stm32_radio_driver/radio.c ****  * \param [in] freq                Channel RF frequency in Hertz
 181:Middlewares/Third_Party/SubGHz_Phy/stm32_radio_driver/radio.c ****  * \param [in] rxBandwidth         Rx bandwidth in Hertz
 182:Middlewares/Third_Party/SubGHz_Phy/stm32_radio_driver/radio.c ****  * \param [in] rssiThresh          RSSI threshold in dBm
 183:Middlewares/Third_Party/SubGHz_Phy/stm32_radio_driver/radio.c ****  * \param [in] maxCarrierSenseTime Max time in milliseconds while the RSSI is measured
 184:Middlewares/Third_Party/SubGHz_Phy/stm32_radio_driver/radio.c ****  *
 185:Middlewares/Third_Party/SubGHz_Phy/stm32_radio_driver/radio.c ****  * \retval isFree         [true: Channel is free, false: Channel is not free]
 186:Middlewares/Third_Party/SubGHz_Phy/stm32_radio_driver/radio.c ****  */
 187:Middlewares/Third_Party/SubGHz_Phy/stm32_radio_driver/radio.c **** static bool RadioIsChannelFree( uint32_t freq, uint32_t rxBandwidth, int16_t rssiThresh, uint32_t m
 188:Middlewares/Third_Party/SubGHz_Phy/stm32_radio_driver/radio.c **** 
 189:Middlewares/Third_Party/SubGHz_Phy/stm32_radio_driver/radio.c **** /*!
 190:Middlewares/Third_Party/SubGHz_Phy/stm32_radio_driver/radio.c ****  * \brief Generates a 32 bits random value based on the RSSI readings
 191:Middlewares/Third_Party/SubGHz_Phy/stm32_radio_driver/radio.c ****  *
 192:Middlewares/Third_Party/SubGHz_Phy/stm32_radio_driver/radio.c ****  * \remark This function sets the radio in LoRa modem mode and disables
 193:Middlewares/Third_Party/SubGHz_Phy/stm32_radio_driver/radio.c ****  *         all interrupts.
 194:Middlewares/Third_Party/SubGHz_Phy/stm32_radio_driver/radio.c ****  *         After calling this function either Radio.SetRxConfig or
 195:Middlewares/Third_Party/SubGHz_Phy/stm32_radio_driver/radio.c ****  *         Radio.SetTxConfig functions must be called.
 196:Middlewares/Third_Party/SubGHz_Phy/stm32_radio_driver/radio.c ****  *
 197:Middlewares/Third_Party/SubGHz_Phy/stm32_radio_driver/radio.c ****  * \retval randomValue    32 bits random value
 198:Middlewares/Third_Party/SubGHz_Phy/stm32_radio_driver/radio.c ****  */
 199:Middlewares/Third_Party/SubGHz_Phy/stm32_radio_driver/radio.c **** static uint32_t RadioRandom( void );
 200:Middlewares/Third_Party/SubGHz_Phy/stm32_radio_driver/radio.c **** 
 201:Middlewares/Third_Party/SubGHz_Phy/stm32_radio_driver/radio.c **** /*!
 202:Middlewares/Third_Party/SubGHz_Phy/stm32_radio_driver/radio.c ****  * \brief Sets the reception parameters
 203:Middlewares/Third_Party/SubGHz_Phy/stm32_radio_driver/radio.c ****  *
ARM GAS  /var/folders/9y/n02fl3g16gnf7ppy14xghdy80000gn/T//cc8eCeeT.s 			page 5


 204:Middlewares/Third_Party/SubGHz_Phy/stm32_radio_driver/radio.c ****  * \param [in] modem        Radio modem to be used [0: FSK, 1: LoRa]
 205:Middlewares/Third_Party/SubGHz_Phy/stm32_radio_driver/radio.c ****  * \param [in] bandwidth    Sets the bandwidth
 206:Middlewares/Third_Party/SubGHz_Phy/stm32_radio_driver/radio.c ****  *                          FSK : >= 2600 and <= 250000 Hz
 207:Middlewares/Third_Party/SubGHz_Phy/stm32_radio_driver/radio.c ****  *                          LoRa: [0: 125 kHz, 1: 250 kHz,
 208:Middlewares/Third_Party/SubGHz_Phy/stm32_radio_driver/radio.c ****  *                                 2: 500 kHz, 3: Reserved]
 209:Middlewares/Third_Party/SubGHz_Phy/stm32_radio_driver/radio.c ****  * \param [in] datarate     Sets the Datarate
 210:Middlewares/Third_Party/SubGHz_Phy/stm32_radio_driver/radio.c ****  *                          FSK : 600..300000 bits/s
 211:Middlewares/Third_Party/SubGHz_Phy/stm32_radio_driver/radio.c ****  *                          LoRa: [6: 64, 7: 128, 8: 256, 9: 512,
 212:Middlewares/Third_Party/SubGHz_Phy/stm32_radio_driver/radio.c ****  *                                10: 1024, 11: 2048, 12: 4096  chips]
 213:Middlewares/Third_Party/SubGHz_Phy/stm32_radio_driver/radio.c ****  * \param [in] coderate     Sets the coding rate (LoRa only)
 214:Middlewares/Third_Party/SubGHz_Phy/stm32_radio_driver/radio.c ****  *                          FSK : N/A ( set to 0 )
 215:Middlewares/Third_Party/SubGHz_Phy/stm32_radio_driver/radio.c ****  *                          LoRa: [1: 4/5, 2: 4/6, 3: 4/7, 4: 4/8]
 216:Middlewares/Third_Party/SubGHz_Phy/stm32_radio_driver/radio.c ****  * \param [in] bandwidthAfc Sets the AFC Bandwidth (FSK only)
 217:Middlewares/Third_Party/SubGHz_Phy/stm32_radio_driver/radio.c ****  *                          FSK : >= 2600 and <= 250000 Hz
 218:Middlewares/Third_Party/SubGHz_Phy/stm32_radio_driver/radio.c ****  *                          LoRa: N/A ( set to 0 )
 219:Middlewares/Third_Party/SubGHz_Phy/stm32_radio_driver/radio.c ****  * \param [in] preambleLen  Sets the Preamble length
 220:Middlewares/Third_Party/SubGHz_Phy/stm32_radio_driver/radio.c ****  *                          FSK : Number of bytes
 221:Middlewares/Third_Party/SubGHz_Phy/stm32_radio_driver/radio.c ****  *                          LoRa: Length in symbols (the hardware adds 4 more symbols)
 222:Middlewares/Third_Party/SubGHz_Phy/stm32_radio_driver/radio.c ****  * \param [in] symbTimeout  Sets the RxSingle timeout value
 223:Middlewares/Third_Party/SubGHz_Phy/stm32_radio_driver/radio.c ****  *                          FSK : timeout in number of bytes
 224:Middlewares/Third_Party/SubGHz_Phy/stm32_radio_driver/radio.c ****  *                          LoRa: timeout in symbols
 225:Middlewares/Third_Party/SubGHz_Phy/stm32_radio_driver/radio.c ****  * \param [in] fixLen       Fixed length packets [0: variable, 1: fixed]
 226:Middlewares/Third_Party/SubGHz_Phy/stm32_radio_driver/radio.c ****  * \param [in] payloadLen   Sets payload length when fixed length is used
 227:Middlewares/Third_Party/SubGHz_Phy/stm32_radio_driver/radio.c ****  * \param [in] crcOn        Enables/Disables the CRC [0: OFF, 1: ON]
 228:Middlewares/Third_Party/SubGHz_Phy/stm32_radio_driver/radio.c ****  * \param [in] FreqHopOn    Enables disables the intra-packet frequency hopping
 229:Middlewares/Third_Party/SubGHz_Phy/stm32_radio_driver/radio.c ****  *                          FSK : N/A ( set to 0 )
 230:Middlewares/Third_Party/SubGHz_Phy/stm32_radio_driver/radio.c ****  *                          LoRa: [0: OFF, 1: ON]
 231:Middlewares/Third_Party/SubGHz_Phy/stm32_radio_driver/radio.c ****  * \param [in] HopPeriod    Number of symbols between each hop
 232:Middlewares/Third_Party/SubGHz_Phy/stm32_radio_driver/radio.c ****  *                          FSK : N/A ( set to 0 )
 233:Middlewares/Third_Party/SubGHz_Phy/stm32_radio_driver/radio.c ****  *                          LoRa: Number of symbols
 234:Middlewares/Third_Party/SubGHz_Phy/stm32_radio_driver/radio.c ****  * \param [in] iqInverted   Inverts IQ signals (LoRa only)
 235:Middlewares/Third_Party/SubGHz_Phy/stm32_radio_driver/radio.c ****  *                          FSK : N/A ( set to 0 )
 236:Middlewares/Third_Party/SubGHz_Phy/stm32_radio_driver/radio.c ****  *                          LoRa: [0: not inverted, 1: inverted]
 237:Middlewares/Third_Party/SubGHz_Phy/stm32_radio_driver/radio.c ****  * \param [in] rxContinuous Sets the reception in continuous mode
 238:Middlewares/Third_Party/SubGHz_Phy/stm32_radio_driver/radio.c ****  *                          [false: single mode, true: continuous mode]
 239:Middlewares/Third_Party/SubGHz_Phy/stm32_radio_driver/radio.c ****  */
 240:Middlewares/Third_Party/SubGHz_Phy/stm32_radio_driver/radio.c **** static void RadioSetRxConfig( RadioModems_t modem, uint32_t bandwidth,
 241:Middlewares/Third_Party/SubGHz_Phy/stm32_radio_driver/radio.c ****                               uint32_t datarate, uint8_t coderate,
 242:Middlewares/Third_Party/SubGHz_Phy/stm32_radio_driver/radio.c ****                               uint32_t bandwidthAfc, uint16_t preambleLen,
 243:Middlewares/Third_Party/SubGHz_Phy/stm32_radio_driver/radio.c ****                               uint16_t symbTimeout, bool fixLen,
 244:Middlewares/Third_Party/SubGHz_Phy/stm32_radio_driver/radio.c ****                               uint8_t payloadLen,
 245:Middlewares/Third_Party/SubGHz_Phy/stm32_radio_driver/radio.c ****                               bool crcOn, bool FreqHopOn, uint8_t HopPeriod,
 246:Middlewares/Third_Party/SubGHz_Phy/stm32_radio_driver/radio.c ****                               bool iqInverted, bool rxContinuous );
 247:Middlewares/Third_Party/SubGHz_Phy/stm32_radio_driver/radio.c **** 
 248:Middlewares/Third_Party/SubGHz_Phy/stm32_radio_driver/radio.c **** /*!
 249:Middlewares/Third_Party/SubGHz_Phy/stm32_radio_driver/radio.c ****  * \brief Sets the transmission parameters
 250:Middlewares/Third_Party/SubGHz_Phy/stm32_radio_driver/radio.c ****  *
 251:Middlewares/Third_Party/SubGHz_Phy/stm32_radio_driver/radio.c ****  * \param [in] modem        Radio modem to be used [0: FSK, 1: LoRa]
 252:Middlewares/Third_Party/SubGHz_Phy/stm32_radio_driver/radio.c ****  * \param [in] power        Sets the output power [dBm]
 253:Middlewares/Third_Party/SubGHz_Phy/stm32_radio_driver/radio.c ****  * \param [in] fdev         Sets the frequency deviation (FSK only)
 254:Middlewares/Third_Party/SubGHz_Phy/stm32_radio_driver/radio.c ****  *                          FSK : [Hz]
 255:Middlewares/Third_Party/SubGHz_Phy/stm32_radio_driver/radio.c ****  *                          LoRa: 0
 256:Middlewares/Third_Party/SubGHz_Phy/stm32_radio_driver/radio.c ****  * \param [in] bandwidth    Sets the bandwidth (LoRa only)
 257:Middlewares/Third_Party/SubGHz_Phy/stm32_radio_driver/radio.c ****  *                          FSK : 0
 258:Middlewares/Third_Party/SubGHz_Phy/stm32_radio_driver/radio.c ****  *                          LoRa: [0: 125 kHz, 1: 250 kHz,
 259:Middlewares/Third_Party/SubGHz_Phy/stm32_radio_driver/radio.c ****  *                                 2: 500 kHz, 3: Reserved]
 260:Middlewares/Third_Party/SubGHz_Phy/stm32_radio_driver/radio.c ****  * \param [in] datarate     Sets the Datarate
ARM GAS  /var/folders/9y/n02fl3g16gnf7ppy14xghdy80000gn/T//cc8eCeeT.s 			page 6


 261:Middlewares/Third_Party/SubGHz_Phy/stm32_radio_driver/radio.c ****  *                          FSK : 600..300000 bits/s
 262:Middlewares/Third_Party/SubGHz_Phy/stm32_radio_driver/radio.c ****  *                          LoRa: [6: 64, 7: 128, 8: 256, 9: 512,
 263:Middlewares/Third_Party/SubGHz_Phy/stm32_radio_driver/radio.c ****  *                                10: 1024, 11: 2048, 12: 4096  chips]
 264:Middlewares/Third_Party/SubGHz_Phy/stm32_radio_driver/radio.c ****  * \param [in] coderate     Sets the coding rate (LoRa only)
 265:Middlewares/Third_Party/SubGHz_Phy/stm32_radio_driver/radio.c ****  *                          FSK : N/A ( set to 0 )
 266:Middlewares/Third_Party/SubGHz_Phy/stm32_radio_driver/radio.c ****  *                          LoRa: [1: 4/5, 2: 4/6, 3: 4/7, 4: 4/8]
 267:Middlewares/Third_Party/SubGHz_Phy/stm32_radio_driver/radio.c ****  * \param [in] preambleLen  Sets the preamble length
 268:Middlewares/Third_Party/SubGHz_Phy/stm32_radio_driver/radio.c ****  *                          FSK : Number of bytes
 269:Middlewares/Third_Party/SubGHz_Phy/stm32_radio_driver/radio.c ****  *                          LoRa: Length in symbols (the hardware adds 4 more symbols)
 270:Middlewares/Third_Party/SubGHz_Phy/stm32_radio_driver/radio.c ****  * \param [in] fixLen       Fixed length packets [0: variable, 1: fixed]
 271:Middlewares/Third_Party/SubGHz_Phy/stm32_radio_driver/radio.c ****  * \param [in] crcOn        Enables disables the CRC [0: OFF, 1: ON]
 272:Middlewares/Third_Party/SubGHz_Phy/stm32_radio_driver/radio.c ****  * \param [in] FreqHopOn    Enables disables the intra-packet frequency hopping
 273:Middlewares/Third_Party/SubGHz_Phy/stm32_radio_driver/radio.c ****  *                          FSK : N/A ( set to 0 )
 274:Middlewares/Third_Party/SubGHz_Phy/stm32_radio_driver/radio.c ****  *                          LoRa: [0: OFF, 1: ON]
 275:Middlewares/Third_Party/SubGHz_Phy/stm32_radio_driver/radio.c ****  * \param [in] HopPeriod    Number of symbols between each hop
 276:Middlewares/Third_Party/SubGHz_Phy/stm32_radio_driver/radio.c ****  *                          FSK : N/A ( set to 0 )
 277:Middlewares/Third_Party/SubGHz_Phy/stm32_radio_driver/radio.c ****  *                          LoRa: Number of symbols
 278:Middlewares/Third_Party/SubGHz_Phy/stm32_radio_driver/radio.c ****  * \param [in] iqInverted   Inverts IQ signals (LoRa only)
 279:Middlewares/Third_Party/SubGHz_Phy/stm32_radio_driver/radio.c ****  *                          FSK : N/A ( set to 0 )
 280:Middlewares/Third_Party/SubGHz_Phy/stm32_radio_driver/radio.c ****  *                          LoRa: [0: not inverted, 1: inverted]
 281:Middlewares/Third_Party/SubGHz_Phy/stm32_radio_driver/radio.c ****  * \param [in] timeout      Transmission timeout [ms]
 282:Middlewares/Third_Party/SubGHz_Phy/stm32_radio_driver/radio.c ****  */
 283:Middlewares/Third_Party/SubGHz_Phy/stm32_radio_driver/radio.c **** static void RadioSetTxConfig( RadioModems_t modem, int8_t power, uint32_t fdev,
 284:Middlewares/Third_Party/SubGHz_Phy/stm32_radio_driver/radio.c ****                               uint32_t bandwidth, uint32_t datarate,
 285:Middlewares/Third_Party/SubGHz_Phy/stm32_radio_driver/radio.c ****                               uint8_t coderate, uint16_t preambleLen,
 286:Middlewares/Third_Party/SubGHz_Phy/stm32_radio_driver/radio.c ****                               bool fixLen, bool crcOn, bool FreqHopOn,
 287:Middlewares/Third_Party/SubGHz_Phy/stm32_radio_driver/radio.c ****                               uint8_t HopPeriod, bool iqInverted, uint32_t timeout );
 288:Middlewares/Third_Party/SubGHz_Phy/stm32_radio_driver/radio.c **** 
 289:Middlewares/Third_Party/SubGHz_Phy/stm32_radio_driver/radio.c **** /*!
 290:Middlewares/Third_Party/SubGHz_Phy/stm32_radio_driver/radio.c ****  * \brief Checks if the given RF frequency is supported by the hardware
 291:Middlewares/Third_Party/SubGHz_Phy/stm32_radio_driver/radio.c ****  *
 292:Middlewares/Third_Party/SubGHz_Phy/stm32_radio_driver/radio.c ****  * \param [in] frequency RF frequency to be checked
 293:Middlewares/Third_Party/SubGHz_Phy/stm32_radio_driver/radio.c ****  * \retval isSupported [true: supported, false: unsupported]
 294:Middlewares/Third_Party/SubGHz_Phy/stm32_radio_driver/radio.c ****  */
 295:Middlewares/Third_Party/SubGHz_Phy/stm32_radio_driver/radio.c **** static bool RadioCheckRfFrequency( uint32_t frequency );
 296:Middlewares/Third_Party/SubGHz_Phy/stm32_radio_driver/radio.c **** 
 297:Middlewares/Third_Party/SubGHz_Phy/stm32_radio_driver/radio.c **** /*!
 298:Middlewares/Third_Party/SubGHz_Phy/stm32_radio_driver/radio.c ****  * \brief Computes the packet time on air in ms for the given payload
 299:Middlewares/Third_Party/SubGHz_Phy/stm32_radio_driver/radio.c ****  *
 300:Middlewares/Third_Party/SubGHz_Phy/stm32_radio_driver/radio.c ****  * \remark Can only be called once SetRxConfig or SetTxConfig have been called
 301:Middlewares/Third_Party/SubGHz_Phy/stm32_radio_driver/radio.c ****  *
 302:Middlewares/Third_Party/SubGHz_Phy/stm32_radio_driver/radio.c ****  * \param [in] modem      Radio modem to be used [0: FSK, 1: LoRa]
 303:Middlewares/Third_Party/SubGHz_Phy/stm32_radio_driver/radio.c ****  * \param [in] bandwidth    Sets the bandwidth
 304:Middlewares/Third_Party/SubGHz_Phy/stm32_radio_driver/radio.c ****  *                          FSK : >= 2600 and <= 250000 Hz
 305:Middlewares/Third_Party/SubGHz_Phy/stm32_radio_driver/radio.c ****  *                          LoRa: [0: 125 kHz, 1: 250 kHz,
 306:Middlewares/Third_Party/SubGHz_Phy/stm32_radio_driver/radio.c ****  *                                 2: 500 kHz, 3: Reserved]
 307:Middlewares/Third_Party/SubGHz_Phy/stm32_radio_driver/radio.c ****  * \param [in] datarate     Sets the Datarate
 308:Middlewares/Third_Party/SubGHz_Phy/stm32_radio_driver/radio.c ****  *                          FSK : 600..300000 bits/s
 309:Middlewares/Third_Party/SubGHz_Phy/stm32_radio_driver/radio.c ****  *                          LoRa: [6: 64, 7: 128, 8: 256, 9: 512,
 310:Middlewares/Third_Party/SubGHz_Phy/stm32_radio_driver/radio.c ****  *                                10: 1024, 11: 2048, 12: 4096  chips]
 311:Middlewares/Third_Party/SubGHz_Phy/stm32_radio_driver/radio.c ****  * \param [in] coderate     Sets the coding rate (LoRa only)
 312:Middlewares/Third_Party/SubGHz_Phy/stm32_radio_driver/radio.c ****  *                          FSK : N/A ( set to 0 )
 313:Middlewares/Third_Party/SubGHz_Phy/stm32_radio_driver/radio.c ****  *                          LoRa: [1: 4/5, 2: 4/6, 3: 4/7, 4: 4/8]
 314:Middlewares/Third_Party/SubGHz_Phy/stm32_radio_driver/radio.c ****  * \param [in] preambleLen  Sets the Preamble length
 315:Middlewares/Third_Party/SubGHz_Phy/stm32_radio_driver/radio.c ****  *                          FSK : Number of bytes
 316:Middlewares/Third_Party/SubGHz_Phy/stm32_radio_driver/radio.c ****  *                          LoRa: Length in symbols (the hardware adds 4 more symbols)
 317:Middlewares/Third_Party/SubGHz_Phy/stm32_radio_driver/radio.c ****  * \param [in] fixLen       Fixed length packets [0: variable, 1: fixed]
ARM GAS  /var/folders/9y/n02fl3g16gnf7ppy14xghdy80000gn/T//cc8eCeeT.s 			page 7


 318:Middlewares/Third_Party/SubGHz_Phy/stm32_radio_driver/radio.c ****  * \param [in] payloadLen   Sets payload length when fixed length is used
 319:Middlewares/Third_Party/SubGHz_Phy/stm32_radio_driver/radio.c ****  * \param [in] crcOn        Enables/Disables the CRC [0: OFF, 1: ON]
 320:Middlewares/Third_Party/SubGHz_Phy/stm32_radio_driver/radio.c ****  *
 321:Middlewares/Third_Party/SubGHz_Phy/stm32_radio_driver/radio.c ****  * \retval airTime        Computed airTime (ms) for the given packet payload length
 322:Middlewares/Third_Party/SubGHz_Phy/stm32_radio_driver/radio.c ****  */
 323:Middlewares/Third_Party/SubGHz_Phy/stm32_radio_driver/radio.c **** static uint32_t RadioTimeOnAir( RadioModems_t modem, uint32_t bandwidth,
 324:Middlewares/Third_Party/SubGHz_Phy/stm32_radio_driver/radio.c ****                                 uint32_t datarate, uint8_t coderate,
 325:Middlewares/Third_Party/SubGHz_Phy/stm32_radio_driver/radio.c ****                                 uint16_t preambleLen, bool fixLen, uint8_t payloadLen,
 326:Middlewares/Third_Party/SubGHz_Phy/stm32_radio_driver/radio.c ****                                 bool crcOn );
 327:Middlewares/Third_Party/SubGHz_Phy/stm32_radio_driver/radio.c **** 
 328:Middlewares/Third_Party/SubGHz_Phy/stm32_radio_driver/radio.c **** /*!
 329:Middlewares/Third_Party/SubGHz_Phy/stm32_radio_driver/radio.c ****  * \brief Sends the buffer of size. Prepares the packet to be sent and sets
 330:Middlewares/Third_Party/SubGHz_Phy/stm32_radio_driver/radio.c ****  *        the radio in transmission
 331:Middlewares/Third_Party/SubGHz_Phy/stm32_radio_driver/radio.c ****  *
 332:Middlewares/Third_Party/SubGHz_Phy/stm32_radio_driver/radio.c ****  * \param [in] buffer     Buffer pointer
 333:Middlewares/Third_Party/SubGHz_Phy/stm32_radio_driver/radio.c ****  * \param [in] size       Buffer size
 334:Middlewares/Third_Party/SubGHz_Phy/stm32_radio_driver/radio.c ****  */
 335:Middlewares/Third_Party/SubGHz_Phy/stm32_radio_driver/radio.c **** static void RadioSend( uint8_t *buffer, uint8_t size );
 336:Middlewares/Third_Party/SubGHz_Phy/stm32_radio_driver/radio.c **** 
 337:Middlewares/Third_Party/SubGHz_Phy/stm32_radio_driver/radio.c **** /*!
 338:Middlewares/Third_Party/SubGHz_Phy/stm32_radio_driver/radio.c ****  * \brief Sets the radio in sleep mode
 339:Middlewares/Third_Party/SubGHz_Phy/stm32_radio_driver/radio.c ****  */
 340:Middlewares/Third_Party/SubGHz_Phy/stm32_radio_driver/radio.c **** static void RadioSleep( void );
 341:Middlewares/Third_Party/SubGHz_Phy/stm32_radio_driver/radio.c **** 
 342:Middlewares/Third_Party/SubGHz_Phy/stm32_radio_driver/radio.c **** /*!
 343:Middlewares/Third_Party/SubGHz_Phy/stm32_radio_driver/radio.c ****  * \brief Sets the radio in standby mode
 344:Middlewares/Third_Party/SubGHz_Phy/stm32_radio_driver/radio.c ****  */
 345:Middlewares/Third_Party/SubGHz_Phy/stm32_radio_driver/radio.c **** static void RadioStandby( void );
 346:Middlewares/Third_Party/SubGHz_Phy/stm32_radio_driver/radio.c **** 
 347:Middlewares/Third_Party/SubGHz_Phy/stm32_radio_driver/radio.c **** /*!
 348:Middlewares/Third_Party/SubGHz_Phy/stm32_radio_driver/radio.c ****  * \brief Sets the radio in reception mode for the given time
 349:Middlewares/Third_Party/SubGHz_Phy/stm32_radio_driver/radio.c ****  * \param [in] timeout Reception timeout [ms]
 350:Middlewares/Third_Party/SubGHz_Phy/stm32_radio_driver/radio.c ****  *                     [0: continuous, others timeout]
 351:Middlewares/Third_Party/SubGHz_Phy/stm32_radio_driver/radio.c ****  */
 352:Middlewares/Third_Party/SubGHz_Phy/stm32_radio_driver/radio.c **** static void RadioRx( uint32_t timeout );
 353:Middlewares/Third_Party/SubGHz_Phy/stm32_radio_driver/radio.c **** 
 354:Middlewares/Third_Party/SubGHz_Phy/stm32_radio_driver/radio.c **** /*!
 355:Middlewares/Third_Party/SubGHz_Phy/stm32_radio_driver/radio.c ****  * \brief Start a Channel Activity Detection
 356:Middlewares/Third_Party/SubGHz_Phy/stm32_radio_driver/radio.c ****  */
 357:Middlewares/Third_Party/SubGHz_Phy/stm32_radio_driver/radio.c **** static void RadioStartCad( void );
 358:Middlewares/Third_Party/SubGHz_Phy/stm32_radio_driver/radio.c **** 
 359:Middlewares/Third_Party/SubGHz_Phy/stm32_radio_driver/radio.c **** /*!
 360:Middlewares/Third_Party/SubGHz_Phy/stm32_radio_driver/radio.c ****  * \brief Sets the radio in continuous wave transmission mode
 361:Middlewares/Third_Party/SubGHz_Phy/stm32_radio_driver/radio.c ****  *
 362:Middlewares/Third_Party/SubGHz_Phy/stm32_radio_driver/radio.c ****  * \param [in] freq       Channel RF frequency
 363:Middlewares/Third_Party/SubGHz_Phy/stm32_radio_driver/radio.c ****  * \param [in] power      Sets the output power [dBm]
 364:Middlewares/Third_Party/SubGHz_Phy/stm32_radio_driver/radio.c ****  * \param [in] time       Transmission mode timeout [s]
 365:Middlewares/Third_Party/SubGHz_Phy/stm32_radio_driver/radio.c ****  */
 366:Middlewares/Third_Party/SubGHz_Phy/stm32_radio_driver/radio.c **** static void RadioSetTxContinuousWave( uint32_t freq, int8_t power, uint16_t time );
 367:Middlewares/Third_Party/SubGHz_Phy/stm32_radio_driver/radio.c **** 
 368:Middlewares/Third_Party/SubGHz_Phy/stm32_radio_driver/radio.c **** /*!
 369:Middlewares/Third_Party/SubGHz_Phy/stm32_radio_driver/radio.c ****  * \brief Reads the current RSSI value
 370:Middlewares/Third_Party/SubGHz_Phy/stm32_radio_driver/radio.c ****  *
 371:Middlewares/Third_Party/SubGHz_Phy/stm32_radio_driver/radio.c ****  * \retval rssiValue Current RSSI value in [dBm]
 372:Middlewares/Third_Party/SubGHz_Phy/stm32_radio_driver/radio.c ****  */
 373:Middlewares/Third_Party/SubGHz_Phy/stm32_radio_driver/radio.c **** static int16_t RadioRssi( RadioModems_t modem );
 374:Middlewares/Third_Party/SubGHz_Phy/stm32_radio_driver/radio.c **** 
ARM GAS  /var/folders/9y/n02fl3g16gnf7ppy14xghdy80000gn/T//cc8eCeeT.s 			page 8


 375:Middlewares/Third_Party/SubGHz_Phy/stm32_radio_driver/radio.c **** /* ST_WORKAROUND_BEGIN: Force register addr to uint16_t */
 376:Middlewares/Third_Party/SubGHz_Phy/stm32_radio_driver/radio.c **** /*!
 377:Middlewares/Third_Party/SubGHz_Phy/stm32_radio_driver/radio.c ****  * \brief Writes the radio register at the specified address
 378:Middlewares/Third_Party/SubGHz_Phy/stm32_radio_driver/radio.c ****  *
 379:Middlewares/Third_Party/SubGHz_Phy/stm32_radio_driver/radio.c ****  * \param [in] addr Register address
 380:Middlewares/Third_Party/SubGHz_Phy/stm32_radio_driver/radio.c ****  * \param [in] data New register value
 381:Middlewares/Third_Party/SubGHz_Phy/stm32_radio_driver/radio.c ****  */
 382:Middlewares/Third_Party/SubGHz_Phy/stm32_radio_driver/radio.c **** static void RadioWrite( uint16_t addr, uint8_t data );
 383:Middlewares/Third_Party/SubGHz_Phy/stm32_radio_driver/radio.c **** 
 384:Middlewares/Third_Party/SubGHz_Phy/stm32_radio_driver/radio.c **** /*!
 385:Middlewares/Third_Party/SubGHz_Phy/stm32_radio_driver/radio.c ****  * \brief Reads the radio register at the specified address
 386:Middlewares/Third_Party/SubGHz_Phy/stm32_radio_driver/radio.c ****  *
 387:Middlewares/Third_Party/SubGHz_Phy/stm32_radio_driver/radio.c ****  * \param [in] addr Register address
 388:Middlewares/Third_Party/SubGHz_Phy/stm32_radio_driver/radio.c ****  * \retval data Register value
 389:Middlewares/Third_Party/SubGHz_Phy/stm32_radio_driver/radio.c ****  */
 390:Middlewares/Third_Party/SubGHz_Phy/stm32_radio_driver/radio.c **** static uint8_t RadioRead( uint16_t addr );
 391:Middlewares/Third_Party/SubGHz_Phy/stm32_radio_driver/radio.c **** 
 392:Middlewares/Third_Party/SubGHz_Phy/stm32_radio_driver/radio.c **** /*!
 393:Middlewares/Third_Party/SubGHz_Phy/stm32_radio_driver/radio.c ****  * \brief Writes multiple radio registers starting at address
 394:Middlewares/Third_Party/SubGHz_Phy/stm32_radio_driver/radio.c ****  *
 395:Middlewares/Third_Party/SubGHz_Phy/stm32_radio_driver/radio.c ****  * \param [in] addr   First Radio register address
 396:Middlewares/Third_Party/SubGHz_Phy/stm32_radio_driver/radio.c ****  * \param [in] buffer Buffer containing the new register's values
 397:Middlewares/Third_Party/SubGHz_Phy/stm32_radio_driver/radio.c ****  * \param [in] size   Number of registers to be written
 398:Middlewares/Third_Party/SubGHz_Phy/stm32_radio_driver/radio.c ****  */
 399:Middlewares/Third_Party/SubGHz_Phy/stm32_radio_driver/radio.c **** static void RadioWriteRegisters( uint16_t addr, uint8_t *buffer, uint8_t size );
 400:Middlewares/Third_Party/SubGHz_Phy/stm32_radio_driver/radio.c **** 
 401:Middlewares/Third_Party/SubGHz_Phy/stm32_radio_driver/radio.c **** /*!
 402:Middlewares/Third_Party/SubGHz_Phy/stm32_radio_driver/radio.c ****  * \brief Reads multiple radio registers starting at address
 403:Middlewares/Third_Party/SubGHz_Phy/stm32_radio_driver/radio.c ****  *
 404:Middlewares/Third_Party/SubGHz_Phy/stm32_radio_driver/radio.c ****  * \param [in] addr First Radio register address
 405:Middlewares/Third_Party/SubGHz_Phy/stm32_radio_driver/radio.c ****  * \param [out] buffer Buffer where to copy the registers data
 406:Middlewares/Third_Party/SubGHz_Phy/stm32_radio_driver/radio.c ****  * \param [in] size Number of registers to be read
 407:Middlewares/Third_Party/SubGHz_Phy/stm32_radio_driver/radio.c ****  */
 408:Middlewares/Third_Party/SubGHz_Phy/stm32_radio_driver/radio.c **** static void RadioReadRegisters( uint16_t addr, uint8_t *buffer, uint8_t size );
 409:Middlewares/Third_Party/SubGHz_Phy/stm32_radio_driver/radio.c **** /* ST_WORKAROUND_END */
 410:Middlewares/Third_Party/SubGHz_Phy/stm32_radio_driver/radio.c **** 
 411:Middlewares/Third_Party/SubGHz_Phy/stm32_radio_driver/radio.c **** /*!
 412:Middlewares/Third_Party/SubGHz_Phy/stm32_radio_driver/radio.c ****  * \brief Sets the maximum payload length.
 413:Middlewares/Third_Party/SubGHz_Phy/stm32_radio_driver/radio.c ****  *
 414:Middlewares/Third_Party/SubGHz_Phy/stm32_radio_driver/radio.c ****  * \param [in] modem      Radio modem to be used [0: FSK, 1: LoRa]
 415:Middlewares/Third_Party/SubGHz_Phy/stm32_radio_driver/radio.c ****  * \param [in] max        Maximum payload length in bytes
 416:Middlewares/Third_Party/SubGHz_Phy/stm32_radio_driver/radio.c ****  */
 417:Middlewares/Third_Party/SubGHz_Phy/stm32_radio_driver/radio.c **** static void RadioSetMaxPayloadLength( RadioModems_t modem, uint8_t max );
 418:Middlewares/Third_Party/SubGHz_Phy/stm32_radio_driver/radio.c **** 
 419:Middlewares/Third_Party/SubGHz_Phy/stm32_radio_driver/radio.c **** /*!
 420:Middlewares/Third_Party/SubGHz_Phy/stm32_radio_driver/radio.c ****  * \brief Sets the network to public or private. Updates the sync byte.
 421:Middlewares/Third_Party/SubGHz_Phy/stm32_radio_driver/radio.c ****  *
 422:Middlewares/Third_Party/SubGHz_Phy/stm32_radio_driver/radio.c ****  * \remark Applies to LoRa modem only
 423:Middlewares/Third_Party/SubGHz_Phy/stm32_radio_driver/radio.c ****  *
 424:Middlewares/Third_Party/SubGHz_Phy/stm32_radio_driver/radio.c ****  * \param [in] enable if true, it enables a public network
 425:Middlewares/Third_Party/SubGHz_Phy/stm32_radio_driver/radio.c ****  */
 426:Middlewares/Third_Party/SubGHz_Phy/stm32_radio_driver/radio.c **** static void RadioSetPublicNetwork( bool enable );
 427:Middlewares/Third_Party/SubGHz_Phy/stm32_radio_driver/radio.c **** 
 428:Middlewares/Third_Party/SubGHz_Phy/stm32_radio_driver/radio.c **** /*!
 429:Middlewares/Third_Party/SubGHz_Phy/stm32_radio_driver/radio.c ****  * \brief Gets the time required for the board plus radio to get out of sleep.[ms]
 430:Middlewares/Third_Party/SubGHz_Phy/stm32_radio_driver/radio.c ****  *
 431:Middlewares/Third_Party/SubGHz_Phy/stm32_radio_driver/radio.c ****  * \retval time Radio plus board wakeup time in ms.
ARM GAS  /var/folders/9y/n02fl3g16gnf7ppy14xghdy80000gn/T//cc8eCeeT.s 			page 9


 432:Middlewares/Third_Party/SubGHz_Phy/stm32_radio_driver/radio.c ****  */
 433:Middlewares/Third_Party/SubGHz_Phy/stm32_radio_driver/radio.c **** static uint32_t RadioGetWakeupTime( void );
 434:Middlewares/Third_Party/SubGHz_Phy/stm32_radio_driver/radio.c **** 
 435:Middlewares/Third_Party/SubGHz_Phy/stm32_radio_driver/radio.c **** /*!
 436:Middlewares/Third_Party/SubGHz_Phy/stm32_radio_driver/radio.c ****  * \brief Process radio irq
 437:Middlewares/Third_Party/SubGHz_Phy/stm32_radio_driver/radio.c ****  */
 438:Middlewares/Third_Party/SubGHz_Phy/stm32_radio_driver/radio.c **** static void RadioIrqProcess( void );
 439:Middlewares/Third_Party/SubGHz_Phy/stm32_radio_driver/radio.c **** 
 440:Middlewares/Third_Party/SubGHz_Phy/stm32_radio_driver/radio.c **** /*!
 441:Middlewares/Third_Party/SubGHz_Phy/stm32_radio_driver/radio.c ****  * \brief Sets the radio in reception mode with Max LNA gain for the given time
 442:Middlewares/Third_Party/SubGHz_Phy/stm32_radio_driver/radio.c ****  * \param [in] timeout Reception timeout [ms]
 443:Middlewares/Third_Party/SubGHz_Phy/stm32_radio_driver/radio.c ****  *                     [0: continuous, others timeout]
 444:Middlewares/Third_Party/SubGHz_Phy/stm32_radio_driver/radio.c ****  */
 445:Middlewares/Third_Party/SubGHz_Phy/stm32_radio_driver/radio.c **** static void RadioRxBoosted( uint32_t timeout );
 446:Middlewares/Third_Party/SubGHz_Phy/stm32_radio_driver/radio.c **** 
 447:Middlewares/Third_Party/SubGHz_Phy/stm32_radio_driver/radio.c **** /*!
 448:Middlewares/Third_Party/SubGHz_Phy/stm32_radio_driver/radio.c ****  * \brief Sets the Rx duty cycle management parameters
 449:Middlewares/Third_Party/SubGHz_Phy/stm32_radio_driver/radio.c ****  *
 450:Middlewares/Third_Party/SubGHz_Phy/stm32_radio_driver/radio.c ****  * \param [in]  rxTime        Structure describing reception timeout value
 451:Middlewares/Third_Party/SubGHz_Phy/stm32_radio_driver/radio.c ****  * \param [in]  sleepTime     Structure describing sleep timeout value
 452:Middlewares/Third_Party/SubGHz_Phy/stm32_radio_driver/radio.c ****  */
 453:Middlewares/Third_Party/SubGHz_Phy/stm32_radio_driver/radio.c **** static void RadioSetRxDutyCycle( uint32_t rxTime, uint32_t sleepTime );
 454:Middlewares/Third_Party/SubGHz_Phy/stm32_radio_driver/radio.c **** 
 455:Middlewares/Third_Party/SubGHz_Phy/stm32_radio_driver/radio.c **** /*!
 456:Middlewares/Third_Party/SubGHz_Phy/stm32_radio_driver/radio.c ****  * \brief radio IRQ callback
 457:Middlewares/Third_Party/SubGHz_Phy/stm32_radio_driver/radio.c ****  *
 458:Middlewares/Third_Party/SubGHz_Phy/stm32_radio_driver/radio.c ****  * \param [in] radioIrq       mask of radio irq
 459:Middlewares/Third_Party/SubGHz_Phy/stm32_radio_driver/radio.c ****  */
 460:Middlewares/Third_Party/SubGHz_Phy/stm32_radio_driver/radio.c **** static void RadioOnDioIrq( RadioIrqMasks_t radioIrq );
 461:Middlewares/Third_Party/SubGHz_Phy/stm32_radio_driver/radio.c **** 
 462:Middlewares/Third_Party/SubGHz_Phy/stm32_radio_driver/radio.c **** /*!
 463:Middlewares/Third_Party/SubGHz_Phy/stm32_radio_driver/radio.c ****  * \brief Tx timeout timer callback
 464:Middlewares/Third_Party/SubGHz_Phy/stm32_radio_driver/radio.c ****  *
 465:Middlewares/Third_Party/SubGHz_Phy/stm32_radio_driver/radio.c ****  * \param [in] context        context of the interrupt
 466:Middlewares/Third_Party/SubGHz_Phy/stm32_radio_driver/radio.c ****  */
 467:Middlewares/Third_Party/SubGHz_Phy/stm32_radio_driver/radio.c **** static void RadioOnTxTimeoutIrq( void *context );
 468:Middlewares/Third_Party/SubGHz_Phy/stm32_radio_driver/radio.c **** 
 469:Middlewares/Third_Party/SubGHz_Phy/stm32_radio_driver/radio.c **** /*!
 470:Middlewares/Third_Party/SubGHz_Phy/stm32_radio_driver/radio.c ****  * \brief Rx timeout timer callback
 471:Middlewares/Third_Party/SubGHz_Phy/stm32_radio_driver/radio.c ****  *
 472:Middlewares/Third_Party/SubGHz_Phy/stm32_radio_driver/radio.c ****  * \param [in] context        context of the interrupt
 473:Middlewares/Third_Party/SubGHz_Phy/stm32_radio_driver/radio.c ****  */
 474:Middlewares/Third_Party/SubGHz_Phy/stm32_radio_driver/radio.c **** static void RadioOnRxTimeoutIrq( void *context );
 475:Middlewares/Third_Party/SubGHz_Phy/stm32_radio_driver/radio.c **** 
 476:Middlewares/Third_Party/SubGHz_Phy/stm32_radio_driver/radio.c **** /*!
 477:Middlewares/Third_Party/SubGHz_Phy/stm32_radio_driver/radio.c ****  * \brief Rx timeout timer process
 478:Middlewares/Third_Party/SubGHz_Phy/stm32_radio_driver/radio.c ****  */
 479:Middlewares/Third_Party/SubGHz_Phy/stm32_radio_driver/radio.c **** static void RadioOnRxTimeoutProcess( void );
 480:Middlewares/Third_Party/SubGHz_Phy/stm32_radio_driver/radio.c **** 
 481:Middlewares/Third_Party/SubGHz_Phy/stm32_radio_driver/radio.c **** /*!
 482:Middlewares/Third_Party/SubGHz_Phy/stm32_radio_driver/radio.c ****  * \brief Tx timeout timer process
 483:Middlewares/Third_Party/SubGHz_Phy/stm32_radio_driver/radio.c ****  */
 484:Middlewares/Third_Party/SubGHz_Phy/stm32_radio_driver/radio.c **** static void RadioOnTxTimeoutProcess( void );
 485:Middlewares/Third_Party/SubGHz_Phy/stm32_radio_driver/radio.c **** 
 486:Middlewares/Third_Party/SubGHz_Phy/stm32_radio_driver/radio.c **** #if (RADIO_SIGFOX_ENABLE == 1)
 487:Middlewares/Third_Party/SubGHz_Phy/stm32_radio_driver/radio.c **** /* ST_WORKAROUND_BEGIN: extended radio functions */
 488:Middlewares/Third_Party/SubGHz_Phy/stm32_radio_driver/radio.c **** /*!
ARM GAS  /var/folders/9y/n02fl3g16gnf7ppy14xghdy80000gn/T//cc8eCeeT.s 			page 10


 489:Middlewares/Third_Party/SubGHz_Phy/stm32_radio_driver/radio.c ****  * @brief D-BPSK to BPSK
 490:Middlewares/Third_Party/SubGHz_Phy/stm32_radio_driver/radio.c ****  *
 491:Middlewares/Third_Party/SubGHz_Phy/stm32_radio_driver/radio.c ****  * @param [out] outBuffer     buffer with frame encoded
 492:Middlewares/Third_Party/SubGHz_Phy/stm32_radio_driver/radio.c ****  * @param [in]  inBuffer      buffer with frame to encode
 493:Middlewares/Third_Party/SubGHz_Phy/stm32_radio_driver/radio.c ****  * @param [in]  size          size of the payload to encode
 494:Middlewares/Third_Party/SubGHz_Phy/stm32_radio_driver/radio.c ****  */
 495:Middlewares/Third_Party/SubGHz_Phy/stm32_radio_driver/radio.c **** static void payload_integration( uint8_t *outBuffer, uint8_t *inBuffer, uint8_t size );
 496:Middlewares/Third_Party/SubGHz_Phy/stm32_radio_driver/radio.c **** #endif /*RADIO_SIGFOX_ENABLE == 1*/
 497:Middlewares/Third_Party/SubGHz_Phy/stm32_radio_driver/radio.c **** /*!
 498:Middlewares/Third_Party/SubGHz_Phy/stm32_radio_driver/radio.c ****  * \brief Sets the Transmitter in continuous PRBS mode
 499:Middlewares/Third_Party/SubGHz_Phy/stm32_radio_driver/radio.c ****  */
 500:Middlewares/Third_Party/SubGHz_Phy/stm32_radio_driver/radio.c **** static void RadioTxPrbs( void );
 501:Middlewares/Third_Party/SubGHz_Phy/stm32_radio_driver/radio.c **** 
 502:Middlewares/Third_Party/SubGHz_Phy/stm32_radio_driver/radio.c **** /*!
 503:Middlewares/Third_Party/SubGHz_Phy/stm32_radio_driver/radio.c ****  * \brief Sets the Transmitter in continuous un-modulated Carrier mode at power dBm
 504:Middlewares/Third_Party/SubGHz_Phy/stm32_radio_driver/radio.c ****  *
 505:Middlewares/Third_Party/SubGHz_Phy/stm32_radio_driver/radio.c ****  * \param [in] power Tx power in dBm
 506:Middlewares/Third_Party/SubGHz_Phy/stm32_radio_driver/radio.c ****  */
 507:Middlewares/Third_Party/SubGHz_Phy/stm32_radio_driver/radio.c **** static void RadioTxCw( int8_t power );
 508:Middlewares/Third_Party/SubGHz_Phy/stm32_radio_driver/radio.c **** 
 509:Middlewares/Third_Party/SubGHz_Phy/stm32_radio_driver/radio.c **** /*!
 510:Middlewares/Third_Party/SubGHz_Phy/stm32_radio_driver/radio.c ****  * \brief Sets the reception parameters
 511:Middlewares/Third_Party/SubGHz_Phy/stm32_radio_driver/radio.c ****  *
 512:Middlewares/Third_Party/SubGHz_Phy/stm32_radio_driver/radio.c ****  * \param [in] modem        Radio modem to be used [GENERIC_FSK or GENERIC_FSK]
 513:Middlewares/Third_Party/SubGHz_Phy/stm32_radio_driver/radio.c ****  * \param [in] config       configuration of receiver
 514:Middlewares/Third_Party/SubGHz_Phy/stm32_radio_driver/radio.c ****  *                          fsk field to be used if modem =GENERIC_FSK
 515:Middlewares/Third_Party/SubGHz_Phy/stm32_radio_driver/radio.c **** *                           lora field to be used if modem =GENERIC_LORA
 516:Middlewares/Third_Party/SubGHz_Phy/stm32_radio_driver/radio.c ****  * \param [in] rxContinuous Sets the reception in continuous mode
 517:Middlewares/Third_Party/SubGHz_Phy/stm32_radio_driver/radio.c ****  *                          [0: single mode, otherwise continuous mode]
 518:Middlewares/Third_Party/SubGHz_Phy/stm32_radio_driver/radio.c ****  * \param [in] symbTimeout  Sets the RxSingle timeout value
 519:Middlewares/Third_Party/SubGHz_Phy/stm32_radio_driver/radio.c ****  *                          FSK : timeout in number of bytes
 520:Middlewares/Third_Party/SubGHz_Phy/stm32_radio_driver/radio.c ****  *                          LoRa: timeout in symbols
 521:Middlewares/Third_Party/SubGHz_Phy/stm32_radio_driver/radio.c ****  * \return 0 when no parameters error, -1 otherwise
 522:Middlewares/Third_Party/SubGHz_Phy/stm32_radio_driver/radio.c ****  */
 523:Middlewares/Third_Party/SubGHz_Phy/stm32_radio_driver/radio.c **** static int32_t RadioSetRxGenericConfig( GenericModems_t modem, RxConfigGeneric_t *config,
 524:Middlewares/Third_Party/SubGHz_Phy/stm32_radio_driver/radio.c ****                                         uint32_t rxContinuous, uint32_t symbTimeout );
 525:Middlewares/Third_Party/SubGHz_Phy/stm32_radio_driver/radio.c **** 
 526:Middlewares/Third_Party/SubGHz_Phy/stm32_radio_driver/radio.c **** /*!
 527:Middlewares/Third_Party/SubGHz_Phy/stm32_radio_driver/radio.c ****  * \brief Sets the transmission parameters
 528:Middlewares/Third_Party/SubGHz_Phy/stm32_radio_driver/radio.c ****  *
 529:Middlewares/Third_Party/SubGHz_Phy/stm32_radio_driver/radio.c ****  * \param [in] modem        Radio modem to be used [GENERIC_FSK or GENERIC_FSK or GENERIC_BPSK]
 530:Middlewares/Third_Party/SubGHz_Phy/stm32_radio_driver/radio.c ****  * \param [in] config       configuration of receiver
 531:Middlewares/Third_Party/SubGHz_Phy/stm32_radio_driver/radio.c ****  *                          fsk field to be used if modem =GENERIC_FSK
 532:Middlewares/Third_Party/SubGHz_Phy/stm32_radio_driver/radio.c **** *                           lora field to be used if modem =GENERIC_LORA
 533:Middlewares/Third_Party/SubGHz_Phy/stm32_radio_driver/radio.c ****                             bpsk field to be used if modem =GENERIC_BPSK
 534:Middlewares/Third_Party/SubGHz_Phy/stm32_radio_driver/radio.c ****  * \param [in] power        Sets the output power [dBm]
 535:Middlewares/Third_Party/SubGHz_Phy/stm32_radio_driver/radio.c ****  * \param [in] timeout      Transmission timeout [ms]
 536:Middlewares/Third_Party/SubGHz_Phy/stm32_radio_driver/radio.c ****  * \return 0 when no parameters error, -1 otherwise
 537:Middlewares/Third_Party/SubGHz_Phy/stm32_radio_driver/radio.c ****  */
 538:Middlewares/Third_Party/SubGHz_Phy/stm32_radio_driver/radio.c **** static int32_t RadioSetTxGenericConfig( GenericModems_t modem, TxConfigGeneric_t *config,
 539:Middlewares/Third_Party/SubGHz_Phy/stm32_radio_driver/radio.c ****                                         int8_t power, uint32_t timeout );
 540:Middlewares/Third_Party/SubGHz_Phy/stm32_radio_driver/radio.c **** 
 541:Middlewares/Third_Party/SubGHz_Phy/stm32_radio_driver/radio.c **** /*!
 542:Middlewares/Third_Party/SubGHz_Phy/stm32_radio_driver/radio.c ****  * \brief Convert the bandwidth enum to Hz value
 543:Middlewares/Third_Party/SubGHz_Phy/stm32_radio_driver/radio.c ****  *
 544:Middlewares/Third_Party/SubGHz_Phy/stm32_radio_driver/radio.c ****  * \param [in] bw RF frequency to be checked
 545:Middlewares/Third_Party/SubGHz_Phy/stm32_radio_driver/radio.c ****  * \retval bandwidthInHz bandwidth value in Hertz
ARM GAS  /var/folders/9y/n02fl3g16gnf7ppy14xghdy80000gn/T//cc8eCeeT.s 			page 11


 546:Middlewares/Third_Party/SubGHz_Phy/stm32_radio_driver/radio.c ****  */
 547:Middlewares/Third_Party/SubGHz_Phy/stm32_radio_driver/radio.c **** static uint32_t RadioGetLoRaBandwidthInHz( RadioLoRaBandwidths_t bw );
 548:Middlewares/Third_Party/SubGHz_Phy/stm32_radio_driver/radio.c **** 
 549:Middlewares/Third_Party/SubGHz_Phy/stm32_radio_driver/radio.c **** /*!
 550:Middlewares/Third_Party/SubGHz_Phy/stm32_radio_driver/radio.c ****  * \brief Computes the time on air GFSK numerator
 551:Middlewares/Third_Party/SubGHz_Phy/stm32_radio_driver/radio.c ****  *
 552:Middlewares/Third_Party/SubGHz_Phy/stm32_radio_driver/radio.c ****  * \param [in] datarate     Sets the Datarate
 553:Middlewares/Third_Party/SubGHz_Phy/stm32_radio_driver/radio.c ****  *                          FSK : 600..300000 bits/s
 554:Middlewares/Third_Party/SubGHz_Phy/stm32_radio_driver/radio.c ****  *                          LoRa: [6: 64, 7: 128, 8: 256, 9: 512,
 555:Middlewares/Third_Party/SubGHz_Phy/stm32_radio_driver/radio.c ****  *                                10: 1024, 11: 2048, 12: 4096  chips]
 556:Middlewares/Third_Party/SubGHz_Phy/stm32_radio_driver/radio.c ****  * \param [in] coderate     Sets the coding rate (LoRa only)
 557:Middlewares/Third_Party/SubGHz_Phy/stm32_radio_driver/radio.c ****  *                          FSK : N/A ( set to 0 )
 558:Middlewares/Third_Party/SubGHz_Phy/stm32_radio_driver/radio.c ****  *                          LoRa: [1: 4/5, 2: 4/6, 3: 4/7, 4: 4/8]
 559:Middlewares/Third_Party/SubGHz_Phy/stm32_radio_driver/radio.c ****  * \param [in] preambleLen  Sets the Preamble length
 560:Middlewares/Third_Party/SubGHz_Phy/stm32_radio_driver/radio.c ****  *                          FSK : Number of bytes
 561:Middlewares/Third_Party/SubGHz_Phy/stm32_radio_driver/radio.c ****  *                          LoRa: Length in symbols (the hardware adds 4 more symbols)
 562:Middlewares/Third_Party/SubGHz_Phy/stm32_radio_driver/radio.c ****  * \param [in] fixLen       Fixed length packets [0: variable, 1: fixed]
 563:Middlewares/Third_Party/SubGHz_Phy/stm32_radio_driver/radio.c ****  * \param [in] payloadLen   Sets payload length when fixed length is used
 564:Middlewares/Third_Party/SubGHz_Phy/stm32_radio_driver/radio.c ****  * \param [in] crcOn        Enables/Disables the CRC [0: OFF, 1: ON]
 565:Middlewares/Third_Party/SubGHz_Phy/stm32_radio_driver/radio.c ****  * \retval numerator        time on air GFSK numerator
 566:Middlewares/Third_Party/SubGHz_Phy/stm32_radio_driver/radio.c ****  */
 567:Middlewares/Third_Party/SubGHz_Phy/stm32_radio_driver/radio.c **** static uint32_t RadioGetGfskTimeOnAirNumerator( uint32_t datarate, uint8_t coderate,
 568:Middlewares/Third_Party/SubGHz_Phy/stm32_radio_driver/radio.c ****                                                 uint16_t preambleLen, bool fixLen, uint8_t payloadL
 569:Middlewares/Third_Party/SubGHz_Phy/stm32_radio_driver/radio.c ****                                                 bool crcOn );
 570:Middlewares/Third_Party/SubGHz_Phy/stm32_radio_driver/radio.c **** 
 571:Middlewares/Third_Party/SubGHz_Phy/stm32_radio_driver/radio.c **** /*!
 572:Middlewares/Third_Party/SubGHz_Phy/stm32_radio_driver/radio.c ****  * \brief Computes the time on air LoRa numerator
 573:Middlewares/Third_Party/SubGHz_Phy/stm32_radio_driver/radio.c ****  *
 574:Middlewares/Third_Party/SubGHz_Phy/stm32_radio_driver/radio.c ****  * \param [in] bandwidth    Sets the bandwidth
 575:Middlewares/Third_Party/SubGHz_Phy/stm32_radio_driver/radio.c ****  *                          FSK : >= 2600 and <= 250000 Hz
 576:Middlewares/Third_Party/SubGHz_Phy/stm32_radio_driver/radio.c ****  *                          LoRa: [0: 125 kHz, 1: 250 kHz,
 577:Middlewares/Third_Party/SubGHz_Phy/stm32_radio_driver/radio.c ****  *                                 2: 500 kHz, 3: Reserved]
 578:Middlewares/Third_Party/SubGHz_Phy/stm32_radio_driver/radio.c ****  * \param [in] datarate     Sets the Datarate
 579:Middlewares/Third_Party/SubGHz_Phy/stm32_radio_driver/radio.c ****  *                          FSK : 600..300000 bits/s
 580:Middlewares/Third_Party/SubGHz_Phy/stm32_radio_driver/radio.c ****  *                          LoRa: [6: 64, 7: 128, 8: 256, 9: 512,
 581:Middlewares/Third_Party/SubGHz_Phy/stm32_radio_driver/radio.c ****  *                                10: 1024, 11: 2048, 12: 4096  chips]
 582:Middlewares/Third_Party/SubGHz_Phy/stm32_radio_driver/radio.c ****  * \param [in] coderate     Sets the coding rate (LoRa only)
 583:Middlewares/Third_Party/SubGHz_Phy/stm32_radio_driver/radio.c ****  *                          FSK : N/A ( set to 0 )
 584:Middlewares/Third_Party/SubGHz_Phy/stm32_radio_driver/radio.c ****  *                          LoRa: [1: 4/5, 2: 4/6, 3: 4/7, 4: 4/8]
 585:Middlewares/Third_Party/SubGHz_Phy/stm32_radio_driver/radio.c ****  * \param [in] preambleLen  Sets the Preamble length
 586:Middlewares/Third_Party/SubGHz_Phy/stm32_radio_driver/radio.c ****  *                          FSK : Number of bytes
 587:Middlewares/Third_Party/SubGHz_Phy/stm32_radio_driver/radio.c ****  *                          LoRa: Length in symbols (the hardware adds 4 more symbols)
 588:Middlewares/Third_Party/SubGHz_Phy/stm32_radio_driver/radio.c ****  * \param [in] fixLen       Fixed length packets [0: variable, 1: fixed]
 589:Middlewares/Third_Party/SubGHz_Phy/stm32_radio_driver/radio.c ****  * \param [in] payloadLen   Sets payload length when fixed length is used
 590:Middlewares/Third_Party/SubGHz_Phy/stm32_radio_driver/radio.c ****  * \param [in] crcOn        Enables/Disables the CRC [0: OFF, 1: ON]
 591:Middlewares/Third_Party/SubGHz_Phy/stm32_radio_driver/radio.c ****  * \retval numerator        time on air LoRa numerator
 592:Middlewares/Third_Party/SubGHz_Phy/stm32_radio_driver/radio.c ****  */
 593:Middlewares/Third_Party/SubGHz_Phy/stm32_radio_driver/radio.c **** static uint32_t RadioGetLoRaTimeOnAirNumerator( uint32_t bandwidth,
 594:Middlewares/Third_Party/SubGHz_Phy/stm32_radio_driver/radio.c ****                                                 uint32_t datarate, uint8_t coderate,
 595:Middlewares/Third_Party/SubGHz_Phy/stm32_radio_driver/radio.c ****                                                 uint16_t preambleLen, bool fixLen, uint8_t payloadL
 596:Middlewares/Third_Party/SubGHz_Phy/stm32_radio_driver/radio.c ****                                                 bool crcOn );
 597:Middlewares/Third_Party/SubGHz_Phy/stm32_radio_driver/radio.c **** /* ST_WORKAROUND_END */
 598:Middlewares/Third_Party/SubGHz_Phy/stm32_radio_driver/radio.c **** 
 599:Middlewares/Third_Party/SubGHz_Phy/stm32_radio_driver/radio.c **** /* Private variables ---------------------------------------------------------*/
 600:Middlewares/Third_Party/SubGHz_Phy/stm32_radio_driver/radio.c **** /*!
 601:Middlewares/Third_Party/SubGHz_Phy/stm32_radio_driver/radio.c ****  * Radio driver structure initialization
 602:Middlewares/Third_Party/SubGHz_Phy/stm32_radio_driver/radio.c ****  */
ARM GAS  /var/folders/9y/n02fl3g16gnf7ppy14xghdy80000gn/T//cc8eCeeT.s 			page 12


 603:Middlewares/Third_Party/SubGHz_Phy/stm32_radio_driver/radio.c **** const struct Radio_s Radio =
 604:Middlewares/Third_Party/SubGHz_Phy/stm32_radio_driver/radio.c **** {
 605:Middlewares/Third_Party/SubGHz_Phy/stm32_radio_driver/radio.c ****     RadioInit,
 606:Middlewares/Third_Party/SubGHz_Phy/stm32_radio_driver/radio.c ****     RadioGetStatus,
 607:Middlewares/Third_Party/SubGHz_Phy/stm32_radio_driver/radio.c ****     RadioSetModem,
 608:Middlewares/Third_Party/SubGHz_Phy/stm32_radio_driver/radio.c ****     RadioSetChannel,
 609:Middlewares/Third_Party/SubGHz_Phy/stm32_radio_driver/radio.c ****     RadioIsChannelFree,
 610:Middlewares/Third_Party/SubGHz_Phy/stm32_radio_driver/radio.c ****     RadioRandom,
 611:Middlewares/Third_Party/SubGHz_Phy/stm32_radio_driver/radio.c ****     RadioSetRxConfig,
 612:Middlewares/Third_Party/SubGHz_Phy/stm32_radio_driver/radio.c ****     RadioSetTxConfig,
 613:Middlewares/Third_Party/SubGHz_Phy/stm32_radio_driver/radio.c ****     RadioCheckRfFrequency,
 614:Middlewares/Third_Party/SubGHz_Phy/stm32_radio_driver/radio.c ****     RadioTimeOnAir,
 615:Middlewares/Third_Party/SubGHz_Phy/stm32_radio_driver/radio.c ****     RadioSend,
 616:Middlewares/Third_Party/SubGHz_Phy/stm32_radio_driver/radio.c ****     RadioSleep,
 617:Middlewares/Third_Party/SubGHz_Phy/stm32_radio_driver/radio.c ****     RadioStandby,
 618:Middlewares/Third_Party/SubGHz_Phy/stm32_radio_driver/radio.c ****     RadioRx,
 619:Middlewares/Third_Party/SubGHz_Phy/stm32_radio_driver/radio.c ****     RadioStartCad,
 620:Middlewares/Third_Party/SubGHz_Phy/stm32_radio_driver/radio.c ****     RadioSetTxContinuousWave,
 621:Middlewares/Third_Party/SubGHz_Phy/stm32_radio_driver/radio.c ****     RadioRssi,
 622:Middlewares/Third_Party/SubGHz_Phy/stm32_radio_driver/radio.c ****     RadioWrite,
 623:Middlewares/Third_Party/SubGHz_Phy/stm32_radio_driver/radio.c ****     RadioRead,
 624:Middlewares/Third_Party/SubGHz_Phy/stm32_radio_driver/radio.c ****     RadioWriteRegisters,
 625:Middlewares/Third_Party/SubGHz_Phy/stm32_radio_driver/radio.c ****     RadioReadRegisters,
 626:Middlewares/Third_Party/SubGHz_Phy/stm32_radio_driver/radio.c ****     RadioSetMaxPayloadLength,
 627:Middlewares/Third_Party/SubGHz_Phy/stm32_radio_driver/radio.c ****     RadioSetPublicNetwork,
 628:Middlewares/Third_Party/SubGHz_Phy/stm32_radio_driver/radio.c ****     RadioGetWakeupTime,
 629:Middlewares/Third_Party/SubGHz_Phy/stm32_radio_driver/radio.c ****     RadioIrqProcess,
 630:Middlewares/Third_Party/SubGHz_Phy/stm32_radio_driver/radio.c ****     RadioRxBoosted,
 631:Middlewares/Third_Party/SubGHz_Phy/stm32_radio_driver/radio.c ****     RadioSetRxDutyCycle,
 632:Middlewares/Third_Party/SubGHz_Phy/stm32_radio_driver/radio.c ****     /* ST_WORKAROUND_BEGIN: extended radio functions */
 633:Middlewares/Third_Party/SubGHz_Phy/stm32_radio_driver/radio.c ****     RadioTxPrbs,
 634:Middlewares/Third_Party/SubGHz_Phy/stm32_radio_driver/radio.c ****     RadioTxCw,
 635:Middlewares/Third_Party/SubGHz_Phy/stm32_radio_driver/radio.c ****     RadioSetRxGenericConfig,
 636:Middlewares/Third_Party/SubGHz_Phy/stm32_radio_driver/radio.c ****     RadioSetTxGenericConfig,
 637:Middlewares/Third_Party/SubGHz_Phy/stm32_radio_driver/radio.c ****     RFW_TransmitLongPacket,
 638:Middlewares/Third_Party/SubGHz_Phy/stm32_radio_driver/radio.c ****     RFW_ReceiveLongPacket
 639:Middlewares/Third_Party/SubGHz_Phy/stm32_radio_driver/radio.c ****     /* ST_WORKAROUND_END */
 640:Middlewares/Third_Party/SubGHz_Phy/stm32_radio_driver/radio.c **** };
 641:Middlewares/Third_Party/SubGHz_Phy/stm32_radio_driver/radio.c **** 
 642:Middlewares/Third_Party/SubGHz_Phy/stm32_radio_driver/radio.c **** const RadioLoRaBandwidths_t Bandwidths[] = { LORA_BW_125, LORA_BW_250, LORA_BW_500 };
 643:Middlewares/Third_Party/SubGHz_Phy/stm32_radio_driver/radio.c **** 
 644:Middlewares/Third_Party/SubGHz_Phy/stm32_radio_driver/radio.c **** static uint8_t MaxPayloadLength = RADIO_BUF_SIZE;
 645:Middlewares/Third_Party/SubGHz_Phy/stm32_radio_driver/radio.c **** 
 646:Middlewares/Third_Party/SubGHz_Phy/stm32_radio_driver/radio.c **** static uint8_t RadioBuffer[RADIO_BUF_SIZE];
 647:Middlewares/Third_Party/SubGHz_Phy/stm32_radio_driver/radio.c **** 
 648:Middlewares/Third_Party/SubGHz_Phy/stm32_radio_driver/radio.c **** /*
 649:Middlewares/Third_Party/SubGHz_Phy/stm32_radio_driver/radio.c ****  * Radio callbacks variable
 650:Middlewares/Third_Party/SubGHz_Phy/stm32_radio_driver/radio.c ****  */
 651:Middlewares/Third_Party/SubGHz_Phy/stm32_radio_driver/radio.c **** static RadioEvents_t *RadioEvents;
 652:Middlewares/Third_Party/SubGHz_Phy/stm32_radio_driver/radio.c **** 
 653:Middlewares/Third_Party/SubGHz_Phy/stm32_radio_driver/radio.c **** /*!
 654:Middlewares/Third_Party/SubGHz_Phy/stm32_radio_driver/radio.c ****  * Radio hardware and global parameters
 655:Middlewares/Third_Party/SubGHz_Phy/stm32_radio_driver/radio.c ****  */
 656:Middlewares/Third_Party/SubGHz_Phy/stm32_radio_driver/radio.c **** SubgRf_t SubgRf;
 657:Middlewares/Third_Party/SubGHz_Phy/stm32_radio_driver/radio.c **** 
 658:Middlewares/Third_Party/SubGHz_Phy/stm32_radio_driver/radio.c **** /*!
 659:Middlewares/Third_Party/SubGHz_Phy/stm32_radio_driver/radio.c ****  * Tx and Rx timers
ARM GAS  /var/folders/9y/n02fl3g16gnf7ppy14xghdy80000gn/T//cc8eCeeT.s 			page 13


 660:Middlewares/Third_Party/SubGHz_Phy/stm32_radio_driver/radio.c ****  */
 661:Middlewares/Third_Party/SubGHz_Phy/stm32_radio_driver/radio.c **** TimerEvent_t TxTimeoutTimer;
 662:Middlewares/Third_Party/SubGHz_Phy/stm32_radio_driver/radio.c **** TimerEvent_t RxTimeoutTimer;
 663:Middlewares/Third_Party/SubGHz_Phy/stm32_radio_driver/radio.c **** 
 664:Middlewares/Third_Party/SubGHz_Phy/stm32_radio_driver/radio.c **** /* Private  functions ---------------------------------------------------------*/
 665:Middlewares/Third_Party/SubGHz_Phy/stm32_radio_driver/radio.c **** 
 666:Middlewares/Third_Party/SubGHz_Phy/stm32_radio_driver/radio.c **** static void RadioInit( RadioEvents_t *events )
 667:Middlewares/Third_Party/SubGHz_Phy/stm32_radio_driver/radio.c **** {
 668:Middlewares/Third_Party/SubGHz_Phy/stm32_radio_driver/radio.c ****     RadioEvents = events;
 669:Middlewares/Third_Party/SubGHz_Phy/stm32_radio_driver/radio.c **** 
 670:Middlewares/Third_Party/SubGHz_Phy/stm32_radio_driver/radio.c ****     SubgRf.RxContinuous = false;
 671:Middlewares/Third_Party/SubGHz_Phy/stm32_radio_driver/radio.c ****     SubgRf.TxTimeout = 0;
 672:Middlewares/Third_Party/SubGHz_Phy/stm32_radio_driver/radio.c ****     SubgRf.RxTimeout = 0;
 673:Middlewares/Third_Party/SubGHz_Phy/stm32_radio_driver/radio.c ****     /*See STM32WL Errata: RadioSetRxDutyCycle*/
 674:Middlewares/Third_Party/SubGHz_Phy/stm32_radio_driver/radio.c ****     SubgRf.RxDcPreambleDetectTimeout = 0;
 675:Middlewares/Third_Party/SubGHz_Phy/stm32_radio_driver/radio.c **** 
 676:Middlewares/Third_Party/SubGHz_Phy/stm32_radio_driver/radio.c ****     SUBGRF_Init( RadioOnDioIrq );
 677:Middlewares/Third_Party/SubGHz_Phy/stm32_radio_driver/radio.c ****     /*SubgRf.publicNetwork set to false*/
 678:Middlewares/Third_Party/SubGHz_Phy/stm32_radio_driver/radio.c ****     SubgRf.PublicNetwork.Current = false;
 679:Middlewares/Third_Party/SubGHz_Phy/stm32_radio_driver/radio.c ****     SubgRf.PublicNetwork.Previous = false;
 680:Middlewares/Third_Party/SubGHz_Phy/stm32_radio_driver/radio.c **** 
 681:Middlewares/Third_Party/SubGHz_Phy/stm32_radio_driver/radio.c ****     RADIO_IRQ_PROCESS_INIT();
 682:Middlewares/Third_Party/SubGHz_Phy/stm32_radio_driver/radio.c **** 
 683:Middlewares/Third_Party/SubGHz_Phy/stm32_radio_driver/radio.c ****     SUBGRF_SetRegulatorMode( );
 684:Middlewares/Third_Party/SubGHz_Phy/stm32_radio_driver/radio.c **** 
 685:Middlewares/Third_Party/SubGHz_Phy/stm32_radio_driver/radio.c ****     SUBGRF_SetBufferBaseAddress( 0x00, 0x00 );
 686:Middlewares/Third_Party/SubGHz_Phy/stm32_radio_driver/radio.c ****     SUBGRF_SetTxParams( RFO_LP, 0, RADIO_RAMP_200_US );
 687:Middlewares/Third_Party/SubGHz_Phy/stm32_radio_driver/radio.c ****     SUBGRF_SetDioIrqParams( IRQ_RADIO_ALL, IRQ_RADIO_ALL, IRQ_RADIO_NONE, IRQ_RADIO_NONE );
 688:Middlewares/Third_Party/SubGHz_Phy/stm32_radio_driver/radio.c **** 
 689:Middlewares/Third_Party/SubGHz_Phy/stm32_radio_driver/radio.c ****     /* ST_WORKAROUND_BEGIN: Sleep radio */
 690:Middlewares/Third_Party/SubGHz_Phy/stm32_radio_driver/radio.c ****     RadioSleep();
 691:Middlewares/Third_Party/SubGHz_Phy/stm32_radio_driver/radio.c ****     /* ST_WORKAROUND_END */
 692:Middlewares/Third_Party/SubGHz_Phy/stm32_radio_driver/radio.c ****     // Initialize driver timeout timers
 693:Middlewares/Third_Party/SubGHz_Phy/stm32_radio_driver/radio.c ****     TimerInit( &TxTimeoutTimer, RadioOnTxTimeoutIrq );
 694:Middlewares/Third_Party/SubGHz_Phy/stm32_radio_driver/radio.c ****     TimerInit( &RxTimeoutTimer, RadioOnRxTimeoutIrq );
 695:Middlewares/Third_Party/SubGHz_Phy/stm32_radio_driver/radio.c ****     TimerStop( &TxTimeoutTimer );
 696:Middlewares/Third_Party/SubGHz_Phy/stm32_radio_driver/radio.c ****     TimerStop( &RxTimeoutTimer );
 697:Middlewares/Third_Party/SubGHz_Phy/stm32_radio_driver/radio.c **** }
 698:Middlewares/Third_Party/SubGHz_Phy/stm32_radio_driver/radio.c **** 
 699:Middlewares/Third_Party/SubGHz_Phy/stm32_radio_driver/radio.c **** static RadioState_t RadioGetStatus( void )
 700:Middlewares/Third_Party/SubGHz_Phy/stm32_radio_driver/radio.c **** {
 701:Middlewares/Third_Party/SubGHz_Phy/stm32_radio_driver/radio.c ****     switch( SUBGRF_GetOperatingMode( ) )
 702:Middlewares/Third_Party/SubGHz_Phy/stm32_radio_driver/radio.c ****     {
 703:Middlewares/Third_Party/SubGHz_Phy/stm32_radio_driver/radio.c ****         case MODE_TX:
 704:Middlewares/Third_Party/SubGHz_Phy/stm32_radio_driver/radio.c ****             return RF_TX_RUNNING;
 705:Middlewares/Third_Party/SubGHz_Phy/stm32_radio_driver/radio.c ****         case MODE_RX:
 706:Middlewares/Third_Party/SubGHz_Phy/stm32_radio_driver/radio.c ****             return RF_RX_RUNNING;
 707:Middlewares/Third_Party/SubGHz_Phy/stm32_radio_driver/radio.c ****         case MODE_CAD:
 708:Middlewares/Third_Party/SubGHz_Phy/stm32_radio_driver/radio.c ****             return RF_CAD;
 709:Middlewares/Third_Party/SubGHz_Phy/stm32_radio_driver/radio.c ****         default:
 710:Middlewares/Third_Party/SubGHz_Phy/stm32_radio_driver/radio.c ****             return RF_IDLE;
 711:Middlewares/Third_Party/SubGHz_Phy/stm32_radio_driver/radio.c ****     }
 712:Middlewares/Third_Party/SubGHz_Phy/stm32_radio_driver/radio.c **** }
 713:Middlewares/Third_Party/SubGHz_Phy/stm32_radio_driver/radio.c **** 
 714:Middlewares/Third_Party/SubGHz_Phy/stm32_radio_driver/radio.c **** static void RadioSetModem( RadioModems_t modem )
 715:Middlewares/Third_Party/SubGHz_Phy/stm32_radio_driver/radio.c **** {
 716:Middlewares/Third_Party/SubGHz_Phy/stm32_radio_driver/radio.c ****     SubgRf.Modem = modem;
ARM GAS  /var/folders/9y/n02fl3g16gnf7ppy14xghdy80000gn/T//cc8eCeeT.s 			page 14


 717:Middlewares/Third_Party/SubGHz_Phy/stm32_radio_driver/radio.c ****     RFW_SetRadioModem( modem );
 718:Middlewares/Third_Party/SubGHz_Phy/stm32_radio_driver/radio.c ****     switch( modem )
 719:Middlewares/Third_Party/SubGHz_Phy/stm32_radio_driver/radio.c ****     {
 720:Middlewares/Third_Party/SubGHz_Phy/stm32_radio_driver/radio.c ****     default:
 721:Middlewares/Third_Party/SubGHz_Phy/stm32_radio_driver/radio.c ****     case MODEM_MSK:
 722:Middlewares/Third_Party/SubGHz_Phy/stm32_radio_driver/radio.c ****         SUBGRF_SetPacketType( PACKET_TYPE_GMSK );
 723:Middlewares/Third_Party/SubGHz_Phy/stm32_radio_driver/radio.c ****         // When switching to GFSK mode the LoRa SyncWord register value is reset
 724:Middlewares/Third_Party/SubGHz_Phy/stm32_radio_driver/radio.c ****         // Thus, we also reset the RadioPublicNetwork variable
 725:Middlewares/Third_Party/SubGHz_Phy/stm32_radio_driver/radio.c ****         SubgRf.PublicNetwork.Current = false;
 726:Middlewares/Third_Party/SubGHz_Phy/stm32_radio_driver/radio.c ****         break;
 727:Middlewares/Third_Party/SubGHz_Phy/stm32_radio_driver/radio.c ****     case MODEM_FSK:
 728:Middlewares/Third_Party/SubGHz_Phy/stm32_radio_driver/radio.c ****         SUBGRF_SetPacketType( PACKET_TYPE_GFSK );
 729:Middlewares/Third_Party/SubGHz_Phy/stm32_radio_driver/radio.c ****         // When switching to GFSK mode the LoRa SyncWord register value is reset
 730:Middlewares/Third_Party/SubGHz_Phy/stm32_radio_driver/radio.c ****         // Thus, we also reset the RadioPublicNetwork variable
 731:Middlewares/Third_Party/SubGHz_Phy/stm32_radio_driver/radio.c ****         SubgRf.PublicNetwork.Current = false;
 732:Middlewares/Third_Party/SubGHz_Phy/stm32_radio_driver/radio.c ****         break;
 733:Middlewares/Third_Party/SubGHz_Phy/stm32_radio_driver/radio.c ****     case MODEM_LORA:
 734:Middlewares/Third_Party/SubGHz_Phy/stm32_radio_driver/radio.c ****         SUBGRF_SetPacketType( PACKET_TYPE_LORA );
 735:Middlewares/Third_Party/SubGHz_Phy/stm32_radio_driver/radio.c ****         // Public/Private network register is reset when switching modems
 736:Middlewares/Third_Party/SubGHz_Phy/stm32_radio_driver/radio.c ****         if( SubgRf.PublicNetwork.Current != SubgRf.PublicNetwork.Previous )
 737:Middlewares/Third_Party/SubGHz_Phy/stm32_radio_driver/radio.c ****         {
 738:Middlewares/Third_Party/SubGHz_Phy/stm32_radio_driver/radio.c ****             SubgRf.PublicNetwork.Current = SubgRf.PublicNetwork.Previous;
 739:Middlewares/Third_Party/SubGHz_Phy/stm32_radio_driver/radio.c ****             RadioSetPublicNetwork( SubgRf.PublicNetwork.Current );
 740:Middlewares/Third_Party/SubGHz_Phy/stm32_radio_driver/radio.c ****         }
 741:Middlewares/Third_Party/SubGHz_Phy/stm32_radio_driver/radio.c ****         break;
 742:Middlewares/Third_Party/SubGHz_Phy/stm32_radio_driver/radio.c ****     case MODEM_BPSK:
 743:Middlewares/Third_Party/SubGHz_Phy/stm32_radio_driver/radio.c ****         SUBGRF_SetPacketType( PACKET_TYPE_BPSK );
 744:Middlewares/Third_Party/SubGHz_Phy/stm32_radio_driver/radio.c ****         // When switching to BPSK mode the LoRa SyncWord register value is reset
 745:Middlewares/Third_Party/SubGHz_Phy/stm32_radio_driver/radio.c ****         // Thus, we also reset the RadioPublicNetwork variable
 746:Middlewares/Third_Party/SubGHz_Phy/stm32_radio_driver/radio.c ****         SubgRf.PublicNetwork.Current = false;
 747:Middlewares/Third_Party/SubGHz_Phy/stm32_radio_driver/radio.c ****         break;
 748:Middlewares/Third_Party/SubGHz_Phy/stm32_radio_driver/radio.c **** #if (RADIO_SIGFOX_ENABLE == 1)
 749:Middlewares/Third_Party/SubGHz_Phy/stm32_radio_driver/radio.c ****     case MODEM_SIGFOX_TX:
 750:Middlewares/Third_Party/SubGHz_Phy/stm32_radio_driver/radio.c ****         SUBGRF_SetPacketType( PACKET_TYPE_BPSK );
 751:Middlewares/Third_Party/SubGHz_Phy/stm32_radio_driver/radio.c ****         // When switching to BPSK mode the LoRa SyncWord register value is reset
 752:Middlewares/Third_Party/SubGHz_Phy/stm32_radio_driver/radio.c ****         // Thus, we also reset the RadioPublicNetwork variable
 753:Middlewares/Third_Party/SubGHz_Phy/stm32_radio_driver/radio.c ****         SubgRf.PublicNetwork.Current = false;
 754:Middlewares/Third_Party/SubGHz_Phy/stm32_radio_driver/radio.c ****         break;
 755:Middlewares/Third_Party/SubGHz_Phy/stm32_radio_driver/radio.c ****     case MODEM_SIGFOX_RX:
 756:Middlewares/Third_Party/SubGHz_Phy/stm32_radio_driver/radio.c ****         SUBGRF_SetPacketType( PACKET_TYPE_GFSK );
 757:Middlewares/Third_Party/SubGHz_Phy/stm32_radio_driver/radio.c ****         // When switching to GFSK mode the LoRa SyncWord register value is reset
 758:Middlewares/Third_Party/SubGHz_Phy/stm32_radio_driver/radio.c ****         // Thus, we also reset the RadioPublicNetwork variable
 759:Middlewares/Third_Party/SubGHz_Phy/stm32_radio_driver/radio.c ****         SubgRf.PublicNetwork.Current = false;
 760:Middlewares/Third_Party/SubGHz_Phy/stm32_radio_driver/radio.c ****         break;
 761:Middlewares/Third_Party/SubGHz_Phy/stm32_radio_driver/radio.c **** #endif /*RADIO_SIGFOX_ENABLE == 1*/
 762:Middlewares/Third_Party/SubGHz_Phy/stm32_radio_driver/radio.c ****     }
 763:Middlewares/Third_Party/SubGHz_Phy/stm32_radio_driver/radio.c **** }
 764:Middlewares/Third_Party/SubGHz_Phy/stm32_radio_driver/radio.c **** 
 765:Middlewares/Third_Party/SubGHz_Phy/stm32_radio_driver/radio.c **** static void RadioSetChannel( uint32_t freq )
 766:Middlewares/Third_Party/SubGHz_Phy/stm32_radio_driver/radio.c **** {
 767:Middlewares/Third_Party/SubGHz_Phy/stm32_radio_driver/radio.c ****     SUBGRF_SetRfFrequency( freq );
 768:Middlewares/Third_Party/SubGHz_Phy/stm32_radio_driver/radio.c **** }
 769:Middlewares/Third_Party/SubGHz_Phy/stm32_radio_driver/radio.c **** 
 770:Middlewares/Third_Party/SubGHz_Phy/stm32_radio_driver/radio.c **** static bool RadioIsChannelFree( uint32_t freq, uint32_t rxBandwidth, int16_t rssiThresh, uint32_t m
 771:Middlewares/Third_Party/SubGHz_Phy/stm32_radio_driver/radio.c **** {
 772:Middlewares/Third_Party/SubGHz_Phy/stm32_radio_driver/radio.c ****     bool status = true;
 773:Middlewares/Third_Party/SubGHz_Phy/stm32_radio_driver/radio.c ****     int16_t rssi = 0;
ARM GAS  /var/folders/9y/n02fl3g16gnf7ppy14xghdy80000gn/T//cc8eCeeT.s 			page 15


 774:Middlewares/Third_Party/SubGHz_Phy/stm32_radio_driver/radio.c ****     uint32_t carrierSenseTime = 0;
 775:Middlewares/Third_Party/SubGHz_Phy/stm32_radio_driver/radio.c **** 
 776:Middlewares/Third_Party/SubGHz_Phy/stm32_radio_driver/radio.c ****     RadioStandby( );  /* ST_WORKAROUND: Prevent multiple sleeps with TXCO delay */
 777:Middlewares/Third_Party/SubGHz_Phy/stm32_radio_driver/radio.c **** 
 778:Middlewares/Third_Party/SubGHz_Phy/stm32_radio_driver/radio.c ****     RadioSetModem( MODEM_FSK );
 779:Middlewares/Third_Party/SubGHz_Phy/stm32_radio_driver/radio.c **** 
 780:Middlewares/Third_Party/SubGHz_Phy/stm32_radio_driver/radio.c ****     RadioSetChannel( freq );
 781:Middlewares/Third_Party/SubGHz_Phy/stm32_radio_driver/radio.c **** 
 782:Middlewares/Third_Party/SubGHz_Phy/stm32_radio_driver/radio.c ****     // Set Rx bandwidth. Other parameters are not used.
 783:Middlewares/Third_Party/SubGHz_Phy/stm32_radio_driver/radio.c ****     RadioSetRxConfig( MODEM_FSK, rxBandwidth, 600, 0, rxBandwidth, 3, 0, false,
 784:Middlewares/Third_Party/SubGHz_Phy/stm32_radio_driver/radio.c ****                       0, false, 0, 0, false, true );
 785:Middlewares/Third_Party/SubGHz_Phy/stm32_radio_driver/radio.c ****     RadioRx( 0 );
 786:Middlewares/Third_Party/SubGHz_Phy/stm32_radio_driver/radio.c **** 
 787:Middlewares/Third_Party/SubGHz_Phy/stm32_radio_driver/radio.c ****     RADIO_DELAY_MS( RadioGetWakeupTime( ) );
 788:Middlewares/Third_Party/SubGHz_Phy/stm32_radio_driver/radio.c **** 
 789:Middlewares/Third_Party/SubGHz_Phy/stm32_radio_driver/radio.c ****     carrierSenseTime = TimerGetCurrentTime( );
 790:Middlewares/Third_Party/SubGHz_Phy/stm32_radio_driver/radio.c **** 
 791:Middlewares/Third_Party/SubGHz_Phy/stm32_radio_driver/radio.c ****     // Perform carrier sense for maxCarrierSenseTime
 792:Middlewares/Third_Party/SubGHz_Phy/stm32_radio_driver/radio.c ****     while( TimerGetElapsedTime( carrierSenseTime ) < maxCarrierSenseTime )
 793:Middlewares/Third_Party/SubGHz_Phy/stm32_radio_driver/radio.c ****     {
 794:Middlewares/Third_Party/SubGHz_Phy/stm32_radio_driver/radio.c ****         rssi = RadioRssi( MODEM_FSK );
 795:Middlewares/Third_Party/SubGHz_Phy/stm32_radio_driver/radio.c **** 
 796:Middlewares/Third_Party/SubGHz_Phy/stm32_radio_driver/radio.c ****         if( rssi > rssiThresh )
 797:Middlewares/Third_Party/SubGHz_Phy/stm32_radio_driver/radio.c ****         {
 798:Middlewares/Third_Party/SubGHz_Phy/stm32_radio_driver/radio.c ****             status = false;
 799:Middlewares/Third_Party/SubGHz_Phy/stm32_radio_driver/radio.c ****             break;
 800:Middlewares/Third_Party/SubGHz_Phy/stm32_radio_driver/radio.c ****         }
 801:Middlewares/Third_Party/SubGHz_Phy/stm32_radio_driver/radio.c ****     }
 802:Middlewares/Third_Party/SubGHz_Phy/stm32_radio_driver/radio.c ****     RadioStandby( ); /* ST_WORKAROUND: Prevent multiple sleeps with TXCO delay */
 803:Middlewares/Third_Party/SubGHz_Phy/stm32_radio_driver/radio.c **** 
 804:Middlewares/Third_Party/SubGHz_Phy/stm32_radio_driver/radio.c ****     return status;
 805:Middlewares/Third_Party/SubGHz_Phy/stm32_radio_driver/radio.c **** }
 806:Middlewares/Third_Party/SubGHz_Phy/stm32_radio_driver/radio.c **** 
 807:Middlewares/Third_Party/SubGHz_Phy/stm32_radio_driver/radio.c **** static uint32_t RadioRandom( void )
 808:Middlewares/Third_Party/SubGHz_Phy/stm32_radio_driver/radio.c **** {
 809:Middlewares/Third_Party/SubGHz_Phy/stm32_radio_driver/radio.c ****     uint32_t rnd = 0;
 810:Middlewares/Third_Party/SubGHz_Phy/stm32_radio_driver/radio.c **** 
 811:Middlewares/Third_Party/SubGHz_Phy/stm32_radio_driver/radio.c ****     /*
 812:Middlewares/Third_Party/SubGHz_Phy/stm32_radio_driver/radio.c ****      * Radio setup for random number generation
 813:Middlewares/Third_Party/SubGHz_Phy/stm32_radio_driver/radio.c ****      */
 814:Middlewares/Third_Party/SubGHz_Phy/stm32_radio_driver/radio.c ****     // Disable modem interrupts
 815:Middlewares/Third_Party/SubGHz_Phy/stm32_radio_driver/radio.c ****     SUBGRF_SetDioIrqParams( IRQ_RADIO_NONE, IRQ_RADIO_NONE, IRQ_RADIO_NONE, IRQ_RADIO_NONE );
 816:Middlewares/Third_Party/SubGHz_Phy/stm32_radio_driver/radio.c **** 
 817:Middlewares/Third_Party/SubGHz_Phy/stm32_radio_driver/radio.c ****     rnd = SUBGRF_GetRandom();
 818:Middlewares/Third_Party/SubGHz_Phy/stm32_radio_driver/radio.c **** 
 819:Middlewares/Third_Party/SubGHz_Phy/stm32_radio_driver/radio.c ****     return rnd;
 820:Middlewares/Third_Party/SubGHz_Phy/stm32_radio_driver/radio.c **** }
 821:Middlewares/Third_Party/SubGHz_Phy/stm32_radio_driver/radio.c **** 
 822:Middlewares/Third_Party/SubGHz_Phy/stm32_radio_driver/radio.c **** static void RadioSetRxConfig( RadioModems_t modem, uint32_t bandwidth,
 823:Middlewares/Third_Party/SubGHz_Phy/stm32_radio_driver/radio.c ****                               uint32_t datarate, uint8_t coderate,
 824:Middlewares/Third_Party/SubGHz_Phy/stm32_radio_driver/radio.c ****                               uint32_t bandwidthAfc, uint16_t preambleLen,
 825:Middlewares/Third_Party/SubGHz_Phy/stm32_radio_driver/radio.c ****                               uint16_t symbTimeout, bool fixLen,
 826:Middlewares/Third_Party/SubGHz_Phy/stm32_radio_driver/radio.c ****                               uint8_t payloadLen,
 827:Middlewares/Third_Party/SubGHz_Phy/stm32_radio_driver/radio.c ****                               bool crcOn, bool freqHopOn, uint8_t hopPeriod,
 828:Middlewares/Third_Party/SubGHz_Phy/stm32_radio_driver/radio.c ****                               bool iqInverted, bool rxContinuous )
 829:Middlewares/Third_Party/SubGHz_Phy/stm32_radio_driver/radio.c **** {
 830:Middlewares/Third_Party/SubGHz_Phy/stm32_radio_driver/radio.c **** #if (RADIO_SIGFOX_ENABLE == 1)
ARM GAS  /var/folders/9y/n02fl3g16gnf7ppy14xghdy80000gn/T//cc8eCeeT.s 			page 16


 831:Middlewares/Third_Party/SubGHz_Phy/stm32_radio_driver/radio.c ****     uint8_t modReg;
 832:Middlewares/Third_Party/SubGHz_Phy/stm32_radio_driver/radio.c **** #endif
 833:Middlewares/Third_Party/SubGHz_Phy/stm32_radio_driver/radio.c ****     SubgRf.RxContinuous = rxContinuous;
 834:Middlewares/Third_Party/SubGHz_Phy/stm32_radio_driver/radio.c ****     RFW_DeInit(); /* ST_WORKAROUND: Switch Off FwPacketDecoding by default */
 835:Middlewares/Third_Party/SubGHz_Phy/stm32_radio_driver/radio.c ****     if( rxContinuous == true )
 836:Middlewares/Third_Party/SubGHz_Phy/stm32_radio_driver/radio.c ****     {
 837:Middlewares/Third_Party/SubGHz_Phy/stm32_radio_driver/radio.c ****         symbTimeout = 0;
 838:Middlewares/Third_Party/SubGHz_Phy/stm32_radio_driver/radio.c ****     }
 839:Middlewares/Third_Party/SubGHz_Phy/stm32_radio_driver/radio.c ****     if( fixLen == true )
 840:Middlewares/Third_Party/SubGHz_Phy/stm32_radio_driver/radio.c ****     {
 841:Middlewares/Third_Party/SubGHz_Phy/stm32_radio_driver/radio.c ****         MaxPayloadLength = payloadLen;
 842:Middlewares/Third_Party/SubGHz_Phy/stm32_radio_driver/radio.c ****     }
 843:Middlewares/Third_Party/SubGHz_Phy/stm32_radio_driver/radio.c ****     else
 844:Middlewares/Third_Party/SubGHz_Phy/stm32_radio_driver/radio.c ****     {
 845:Middlewares/Third_Party/SubGHz_Phy/stm32_radio_driver/radio.c ****         MaxPayloadLength = 0xFF;
 846:Middlewares/Third_Party/SubGHz_Phy/stm32_radio_driver/radio.c ****     }
 847:Middlewares/Third_Party/SubGHz_Phy/stm32_radio_driver/radio.c **** 
 848:Middlewares/Third_Party/SubGHz_Phy/stm32_radio_driver/radio.c ****     switch( modem )
 849:Middlewares/Third_Party/SubGHz_Phy/stm32_radio_driver/radio.c ****     {
 850:Middlewares/Third_Party/SubGHz_Phy/stm32_radio_driver/radio.c **** #if (RADIO_SIGFOX_ENABLE == 1)
 851:Middlewares/Third_Party/SubGHz_Phy/stm32_radio_driver/radio.c ****         case MODEM_SIGFOX_RX:
 852:Middlewares/Third_Party/SubGHz_Phy/stm32_radio_driver/radio.c ****             SUBGRF_SetStopRxTimerOnPreambleDetect( true );
 853:Middlewares/Third_Party/SubGHz_Phy/stm32_radio_driver/radio.c ****             SubgRf.ModulationParams.PacketType = PACKET_TYPE_GFSK;
 854:Middlewares/Third_Party/SubGHz_Phy/stm32_radio_driver/radio.c **** 
 855:Middlewares/Third_Party/SubGHz_Phy/stm32_radio_driver/radio.c ****             SubgRf.ModulationParams.Params.Gfsk.BitRate = datarate;
 856:Middlewares/Third_Party/SubGHz_Phy/stm32_radio_driver/radio.c ****             SubgRf.ModulationParams.Params.Gfsk.ModulationShaping = MOD_SHAPING_G_BT_05;
 857:Middlewares/Third_Party/SubGHz_Phy/stm32_radio_driver/radio.c ****             SubgRf.ModulationParams.Params.Gfsk.Fdev = 800;
 858:Middlewares/Third_Party/SubGHz_Phy/stm32_radio_driver/radio.c ****             SubgRf.ModulationParams.Params.Gfsk.Bandwidth = SUBGRF_GetFskBandwidthRegValue( bandwid
 859:Middlewares/Third_Party/SubGHz_Phy/stm32_radio_driver/radio.c **** 
 860:Middlewares/Third_Party/SubGHz_Phy/stm32_radio_driver/radio.c ****             SubgRf.PacketParams.PacketType = PACKET_TYPE_GFSK;
 861:Middlewares/Third_Party/SubGHz_Phy/stm32_radio_driver/radio.c ****             SubgRf.PacketParams.Params.Gfsk.PreambleLength = ( preambleLen << 3 ); // convert byte 
 862:Middlewares/Third_Party/SubGHz_Phy/stm32_radio_driver/radio.c ****             SubgRf.PacketParams.Params.Gfsk.PreambleMinDetect = RADIO_PREAMBLE_DETECTOR_OFF;
 863:Middlewares/Third_Party/SubGHz_Phy/stm32_radio_driver/radio.c ****             SubgRf.PacketParams.Params.Gfsk.SyncWordLength = 2 << 3; // convert byte into bit
 864:Middlewares/Third_Party/SubGHz_Phy/stm32_radio_driver/radio.c ****             SubgRf.PacketParams.Params.Gfsk.AddrComp = RADIO_ADDRESSCOMP_FILT_OFF;
 865:Middlewares/Third_Party/SubGHz_Phy/stm32_radio_driver/radio.c ****             SubgRf.PacketParams.Params.Gfsk.HeaderType = RADIO_PACKET_FIXED_LENGTH;
 866:Middlewares/Third_Party/SubGHz_Phy/stm32_radio_driver/radio.c ****             SubgRf.PacketParams.Params.Gfsk.PayloadLength = MaxPayloadLength;
 867:Middlewares/Third_Party/SubGHz_Phy/stm32_radio_driver/radio.c ****             SubgRf.PacketParams.Params.Gfsk.CrcLength = RADIO_CRC_OFF;
 868:Middlewares/Third_Party/SubGHz_Phy/stm32_radio_driver/radio.c **** 
 869:Middlewares/Third_Party/SubGHz_Phy/stm32_radio_driver/radio.c ****             SubgRf.PacketParams.Params.Gfsk.DcFree = RADIO_DC_FREE_OFF;
 870:Middlewares/Third_Party/SubGHz_Phy/stm32_radio_driver/radio.c **** 
 871:Middlewares/Third_Party/SubGHz_Phy/stm32_radio_driver/radio.c ****             RadioSetModem( MODEM_SIGFOX_RX );
 872:Middlewares/Third_Party/SubGHz_Phy/stm32_radio_driver/radio.c ****             SUBGRF_SetModulationParams( &SubgRf.ModulationParams );
 873:Middlewares/Third_Party/SubGHz_Phy/stm32_radio_driver/radio.c ****             SUBGRF_SetPacketParams( &SubgRf.PacketParams );
 874:Middlewares/Third_Party/SubGHz_Phy/stm32_radio_driver/radio.c ****             SUBGRF_SetSyncWord( ( uint8_t[] ){0xB2, 0x27, 0x00, 0x00, 0x00, 0x00, 0x00, 0x00 } );
 875:Middlewares/Third_Party/SubGHz_Phy/stm32_radio_driver/radio.c ****             SUBGRF_SetWhiteningSeed( 0x01FF );
 876:Middlewares/Third_Party/SubGHz_Phy/stm32_radio_driver/radio.c **** 
 877:Middlewares/Third_Party/SubGHz_Phy/stm32_radio_driver/radio.c ****             /* NO gfo reset (better sensitivity). Reg 0x8b8, bit4 = 0 */
 878:Middlewares/Third_Party/SubGHz_Phy/stm32_radio_driver/radio.c ****             modReg= RadioRead(SUBGHZ_AGCGFORSTCFGR);
 879:Middlewares/Third_Party/SubGHz_Phy/stm32_radio_driver/radio.c ****             modReg&=RADIO_BIT_MASK(4);
 880:Middlewares/Third_Party/SubGHz_Phy/stm32_radio_driver/radio.c ****             RadioWrite(SUBGHZ_AGCGFORSTCFGR, modReg);
 881:Middlewares/Third_Party/SubGHz_Phy/stm32_radio_driver/radio.c ****             /* Lower the threshold of cfo_reset */
 882:Middlewares/Third_Party/SubGHz_Phy/stm32_radio_driver/radio.c ****             RadioWrite(SUBGHZ_AGCGFORSTPOWTHR, 0x4 );
 883:Middlewares/Third_Party/SubGHz_Phy/stm32_radio_driver/radio.c **** 
 884:Middlewares/Third_Party/SubGHz_Phy/stm32_radio_driver/radio.c ****             /* Bigger rssi_len (stability AGC). Reg 0x89b, bits[2 :4] = 0x1 */
 885:Middlewares/Third_Party/SubGHz_Phy/stm32_radio_driver/radio.c ****             modReg= RadioRead(SUBGHZ_AGCRSSICTL0R);
 886:Middlewares/Third_Party/SubGHz_Phy/stm32_radio_driver/radio.c ****             modReg&=( RADIO_BIT_MASK(2) & RADIO_BIT_MASK(3) & RADIO_BIT_MASK(4) );
 887:Middlewares/Third_Party/SubGHz_Phy/stm32_radio_driver/radio.c ****             RadioWrite(SUBGHZ_AGCRSSICTL0R, (modReg| (0x1<<3) ) );
ARM GAS  /var/folders/9y/n02fl3g16gnf7ppy14xghdy80000gn/T//cc8eCeeT.s 			page 17


 888:Middlewares/Third_Party/SubGHz_Phy/stm32_radio_driver/radio.c **** 
 889:Middlewares/Third_Party/SubGHz_Phy/stm32_radio_driver/radio.c ****             /* Bigger afc_pbl_len (better frequency correction). Reg 0x6d1, bits[3 :4] = 0x3 */
 890:Middlewares/Third_Party/SubGHz_Phy/stm32_radio_driver/radio.c ****             modReg= RadioRead(SUBGHZ_GAFCR);
 891:Middlewares/Third_Party/SubGHz_Phy/stm32_radio_driver/radio.c ****             modReg&=( RADIO_BIT_MASK(3) & RADIO_BIT_MASK(4) );
 892:Middlewares/Third_Party/SubGHz_Phy/stm32_radio_driver/radio.c ****             RadioWrite(SUBGHZ_GAFCR, (modReg| (0x3<<3) ));
 893:Middlewares/Third_Party/SubGHz_Phy/stm32_radio_driver/radio.c **** 
 894:Middlewares/Third_Party/SubGHz_Phy/stm32_radio_driver/radio.c ****             /* Use of new bit synchronizer (to avoid CRC errors during PER for payloads with a smal
 895:Middlewares/Third_Party/SubGHz_Phy/stm32_radio_driver/radio.c ****             modReg= RadioRead(SUBGHZ_GBSYNCR);
 896:Middlewares/Third_Party/SubGHz_Phy/stm32_radio_driver/radio.c ****             modReg&=( RADIO_BIT_MASK(4) & RADIO_BIT_MASK(5) & RADIO_BIT_MASK(6) );
 897:Middlewares/Third_Party/SubGHz_Phy/stm32_radio_driver/radio.c ****             RadioWrite(SUBGHZ_GBSYNCR, (modReg| (0x5<<4) ));
 898:Middlewares/Third_Party/SubGHz_Phy/stm32_radio_driver/radio.c ****             /*timeout unused when SubgRf.RxContinuous*/
 899:Middlewares/Third_Party/SubGHz_Phy/stm32_radio_driver/radio.c ****             SubgRf.RxTimeout = ( uint32_t )(( symbTimeout * 8 * 1000 ) /datarate);
 900:Middlewares/Third_Party/SubGHz_Phy/stm32_radio_driver/radio.c ****             break;
 901:Middlewares/Third_Party/SubGHz_Phy/stm32_radio_driver/radio.c **** #endif /*RADIO_SIGFOX_ENABLE == 1*/
 902:Middlewares/Third_Party/SubGHz_Phy/stm32_radio_driver/radio.c ****         case MODEM_FSK:
 903:Middlewares/Third_Party/SubGHz_Phy/stm32_radio_driver/radio.c ****             SUBGRF_SetStopRxTimerOnPreambleDetect( false );
 904:Middlewares/Third_Party/SubGHz_Phy/stm32_radio_driver/radio.c ****             SubgRf.ModulationParams.PacketType = PACKET_TYPE_GFSK;
 905:Middlewares/Third_Party/SubGHz_Phy/stm32_radio_driver/radio.c **** 
 906:Middlewares/Third_Party/SubGHz_Phy/stm32_radio_driver/radio.c ****             SubgRf.ModulationParams.Params.Gfsk.BitRate = datarate;
 907:Middlewares/Third_Party/SubGHz_Phy/stm32_radio_driver/radio.c ****             SubgRf.ModulationParams.Params.Gfsk.ModulationShaping = MOD_SHAPING_G_BT_1;
 908:Middlewares/Third_Party/SubGHz_Phy/stm32_radio_driver/radio.c ****             SubgRf.ModulationParams.Params.Gfsk.Bandwidth = SUBGRF_GetFskBandwidthRegValue( bandwid
 909:Middlewares/Third_Party/SubGHz_Phy/stm32_radio_driver/radio.c **** 
 910:Middlewares/Third_Party/SubGHz_Phy/stm32_radio_driver/radio.c ****             SubgRf.PacketParams.PacketType = PACKET_TYPE_GFSK;
 911:Middlewares/Third_Party/SubGHz_Phy/stm32_radio_driver/radio.c ****             SubgRf.PacketParams.Params.Gfsk.PreambleLength = ( preambleLen << 3 ); // convert byte 
 912:Middlewares/Third_Party/SubGHz_Phy/stm32_radio_driver/radio.c ****             SubgRf.PacketParams.Params.Gfsk.PreambleMinDetect = RADIO_PREAMBLE_DETECTOR_08_BITS;
 913:Middlewares/Third_Party/SubGHz_Phy/stm32_radio_driver/radio.c ****             SubgRf.PacketParams.Params.Gfsk.SyncWordLength = 3 << 3; // convert byte into bit
 914:Middlewares/Third_Party/SubGHz_Phy/stm32_radio_driver/radio.c ****             SubgRf.PacketParams.Params.Gfsk.AddrComp = RADIO_ADDRESSCOMP_FILT_OFF;
 915:Middlewares/Third_Party/SubGHz_Phy/stm32_radio_driver/radio.c ****             SubgRf.PacketParams.Params.Gfsk.HeaderType = ( fixLen == true ) ? RADIO_PACKET_FIXED_LE
 916:Middlewares/Third_Party/SubGHz_Phy/stm32_radio_driver/radio.c ****             SubgRf.PacketParams.Params.Gfsk.PayloadLength = MaxPayloadLength;
 917:Middlewares/Third_Party/SubGHz_Phy/stm32_radio_driver/radio.c ****             if( crcOn == true )
 918:Middlewares/Third_Party/SubGHz_Phy/stm32_radio_driver/radio.c ****             {
 919:Middlewares/Third_Party/SubGHz_Phy/stm32_radio_driver/radio.c ****                 SubgRf.PacketParams.Params.Gfsk.CrcLength = RADIO_CRC_2_BYTES_CCIT;
 920:Middlewares/Third_Party/SubGHz_Phy/stm32_radio_driver/radio.c ****             }
 921:Middlewares/Third_Party/SubGHz_Phy/stm32_radio_driver/radio.c ****             else
 922:Middlewares/Third_Party/SubGHz_Phy/stm32_radio_driver/radio.c ****             {
 923:Middlewares/Third_Party/SubGHz_Phy/stm32_radio_driver/radio.c ****                 SubgRf.PacketParams.Params.Gfsk.CrcLength = RADIO_CRC_OFF;
 924:Middlewares/Third_Party/SubGHz_Phy/stm32_radio_driver/radio.c ****             }
 925:Middlewares/Third_Party/SubGHz_Phy/stm32_radio_driver/radio.c ****             SubgRf.PacketParams.Params.Gfsk.DcFree = RADIO_DC_FREEWHITENING;
 926:Middlewares/Third_Party/SubGHz_Phy/stm32_radio_driver/radio.c **** 
 927:Middlewares/Third_Party/SubGHz_Phy/stm32_radio_driver/radio.c ****             RadioStandby( );
 928:Middlewares/Third_Party/SubGHz_Phy/stm32_radio_driver/radio.c ****             RadioSetModem( MODEM_FSK );
 929:Middlewares/Third_Party/SubGHz_Phy/stm32_radio_driver/radio.c ****             SUBGRF_SetModulationParams( &SubgRf.ModulationParams );
 930:Middlewares/Third_Party/SubGHz_Phy/stm32_radio_driver/radio.c ****             SUBGRF_SetPacketParams( &SubgRf.PacketParams );
 931:Middlewares/Third_Party/SubGHz_Phy/stm32_radio_driver/radio.c ****             SUBGRF_SetSyncWord( ( uint8_t[] ){ 0xC1, 0x94, 0xC1, 0x00, 0x00, 0x00, 0x00, 0x00 } );
 932:Middlewares/Third_Party/SubGHz_Phy/stm32_radio_driver/radio.c ****             SUBGRF_SetWhiteningSeed( 0x01FF );
 933:Middlewares/Third_Party/SubGHz_Phy/stm32_radio_driver/radio.c **** 
 934:Middlewares/Third_Party/SubGHz_Phy/stm32_radio_driver/radio.c ****             /*timeout unused when SubgRf.RxContinuous*/
 935:Middlewares/Third_Party/SubGHz_Phy/stm32_radio_driver/radio.c ****             SubgRf.RxTimeout = ( uint32_t )(( symbTimeout * 8 * 1000 ) /datarate);
 936:Middlewares/Third_Party/SubGHz_Phy/stm32_radio_driver/radio.c ****             break;
 937:Middlewares/Third_Party/SubGHz_Phy/stm32_radio_driver/radio.c **** 
 938:Middlewares/Third_Party/SubGHz_Phy/stm32_radio_driver/radio.c ****         case MODEM_LORA:
 939:Middlewares/Third_Party/SubGHz_Phy/stm32_radio_driver/radio.c ****             SUBGRF_SetStopRxTimerOnPreambleDetect( false );
 940:Middlewares/Third_Party/SubGHz_Phy/stm32_radio_driver/radio.c ****             SubgRf.ModulationParams.PacketType = PACKET_TYPE_LORA;
 941:Middlewares/Third_Party/SubGHz_Phy/stm32_radio_driver/radio.c ****             SubgRf.ModulationParams.Params.LoRa.SpreadingFactor = ( RadioLoRaSpreadingFactors_t )da
 942:Middlewares/Third_Party/SubGHz_Phy/stm32_radio_driver/radio.c ****             SubgRf.ModulationParams.Params.LoRa.Bandwidth = Bandwidths[bandwidth];
 943:Middlewares/Third_Party/SubGHz_Phy/stm32_radio_driver/radio.c ****             SubgRf.ModulationParams.Params.LoRa.CodingRate = ( RadioLoRaCodingRates_t )coderate;
 944:Middlewares/Third_Party/SubGHz_Phy/stm32_radio_driver/radio.c **** 
ARM GAS  /var/folders/9y/n02fl3g16gnf7ppy14xghdy80000gn/T//cc8eCeeT.s 			page 18


 945:Middlewares/Third_Party/SubGHz_Phy/stm32_radio_driver/radio.c ****             if( ( ( bandwidth == 0 ) && ( ( datarate == 11 ) || ( datarate == 12 ) ) ) ||
 946:Middlewares/Third_Party/SubGHz_Phy/stm32_radio_driver/radio.c ****                 ( ( bandwidth == 1 ) && ( datarate == 12 ) ) )
 947:Middlewares/Third_Party/SubGHz_Phy/stm32_radio_driver/radio.c ****             {
 948:Middlewares/Third_Party/SubGHz_Phy/stm32_radio_driver/radio.c ****                 SubgRf.ModulationParams.Params.LoRa.LowDatarateOptimize = 0x01;
 949:Middlewares/Third_Party/SubGHz_Phy/stm32_radio_driver/radio.c ****             }
 950:Middlewares/Third_Party/SubGHz_Phy/stm32_radio_driver/radio.c ****             else
 951:Middlewares/Third_Party/SubGHz_Phy/stm32_radio_driver/radio.c ****             {
 952:Middlewares/Third_Party/SubGHz_Phy/stm32_radio_driver/radio.c ****                 SubgRf.ModulationParams.Params.LoRa.LowDatarateOptimize = 0x00;
 953:Middlewares/Third_Party/SubGHz_Phy/stm32_radio_driver/radio.c ****             }
 954:Middlewares/Third_Party/SubGHz_Phy/stm32_radio_driver/radio.c **** 
 955:Middlewares/Third_Party/SubGHz_Phy/stm32_radio_driver/radio.c ****             SubgRf.PacketParams.PacketType = PACKET_TYPE_LORA;
 956:Middlewares/Third_Party/SubGHz_Phy/stm32_radio_driver/radio.c **** 
 957:Middlewares/Third_Party/SubGHz_Phy/stm32_radio_driver/radio.c ****             if( ( SubgRf.ModulationParams.Params.LoRa.SpreadingFactor == LORA_SF5 ) ||
 958:Middlewares/Third_Party/SubGHz_Phy/stm32_radio_driver/radio.c ****                 ( SubgRf.ModulationParams.Params.LoRa.SpreadingFactor == LORA_SF6 ) )
 959:Middlewares/Third_Party/SubGHz_Phy/stm32_radio_driver/radio.c ****             {
 960:Middlewares/Third_Party/SubGHz_Phy/stm32_radio_driver/radio.c ****                 if( preambleLen < 12 )
 961:Middlewares/Third_Party/SubGHz_Phy/stm32_radio_driver/radio.c ****                 {
 962:Middlewares/Third_Party/SubGHz_Phy/stm32_radio_driver/radio.c ****                     SubgRf.PacketParams.Params.LoRa.PreambleLength = 12;
 963:Middlewares/Third_Party/SubGHz_Phy/stm32_radio_driver/radio.c ****                 }
 964:Middlewares/Third_Party/SubGHz_Phy/stm32_radio_driver/radio.c ****                 else
 965:Middlewares/Third_Party/SubGHz_Phy/stm32_radio_driver/radio.c ****                 {
 966:Middlewares/Third_Party/SubGHz_Phy/stm32_radio_driver/radio.c ****                     SubgRf.PacketParams.Params.LoRa.PreambleLength = preambleLen;
 967:Middlewares/Third_Party/SubGHz_Phy/stm32_radio_driver/radio.c ****                 }
 968:Middlewares/Third_Party/SubGHz_Phy/stm32_radio_driver/radio.c ****             }
 969:Middlewares/Third_Party/SubGHz_Phy/stm32_radio_driver/radio.c ****             else
 970:Middlewares/Third_Party/SubGHz_Phy/stm32_radio_driver/radio.c ****             {
 971:Middlewares/Third_Party/SubGHz_Phy/stm32_radio_driver/radio.c ****                 SubgRf.PacketParams.Params.LoRa.PreambleLength = preambleLen;
 972:Middlewares/Third_Party/SubGHz_Phy/stm32_radio_driver/radio.c ****             }
 973:Middlewares/Third_Party/SubGHz_Phy/stm32_radio_driver/radio.c **** 
 974:Middlewares/Third_Party/SubGHz_Phy/stm32_radio_driver/radio.c ****             SubgRf.PacketParams.Params.LoRa.HeaderType = ( RadioLoRaPacketLengthsMode_t )fixLen;
 975:Middlewares/Third_Party/SubGHz_Phy/stm32_radio_driver/radio.c **** 
 976:Middlewares/Third_Party/SubGHz_Phy/stm32_radio_driver/radio.c ****             SubgRf.PacketParams.Params.LoRa.PayloadLength = MaxPayloadLength;
 977:Middlewares/Third_Party/SubGHz_Phy/stm32_radio_driver/radio.c ****             SubgRf.PacketParams.Params.LoRa.CrcMode = ( RadioLoRaCrcModes_t )crcOn;
 978:Middlewares/Third_Party/SubGHz_Phy/stm32_radio_driver/radio.c ****             SubgRf.PacketParams.Params.LoRa.InvertIQ = ( RadioLoRaIQModes_t )iqInverted;
 979:Middlewares/Third_Party/SubGHz_Phy/stm32_radio_driver/radio.c **** 
 980:Middlewares/Third_Party/SubGHz_Phy/stm32_radio_driver/radio.c ****             RadioStandby( );
 981:Middlewares/Third_Party/SubGHz_Phy/stm32_radio_driver/radio.c ****             RadioSetModem( MODEM_LORA );
 982:Middlewares/Third_Party/SubGHz_Phy/stm32_radio_driver/radio.c ****             SUBGRF_SetModulationParams( &SubgRf.ModulationParams );
 983:Middlewares/Third_Party/SubGHz_Phy/stm32_radio_driver/radio.c ****             SUBGRF_SetPacketParams( &SubgRf.PacketParams );
 984:Middlewares/Third_Party/SubGHz_Phy/stm32_radio_driver/radio.c ****             SUBGRF_SetLoRaSymbNumTimeout( symbTimeout );
 985:Middlewares/Third_Party/SubGHz_Phy/stm32_radio_driver/radio.c **** 
 986:Middlewares/Third_Party/SubGHz_Phy/stm32_radio_driver/radio.c ****             // WORKAROUND - Optimizing the Inverted IQ Operation, see STM32WL Erratasheet
 987:Middlewares/Third_Party/SubGHz_Phy/stm32_radio_driver/radio.c ****             if( SubgRf.PacketParams.Params.LoRa.InvertIQ == LORA_IQ_INVERTED )
 988:Middlewares/Third_Party/SubGHz_Phy/stm32_radio_driver/radio.c ****             {
 989:Middlewares/Third_Party/SubGHz_Phy/stm32_radio_driver/radio.c ****                 // RegIqPolaritySetup = @address 0x0736
 990:Middlewares/Third_Party/SubGHz_Phy/stm32_radio_driver/radio.c ****                 SUBGRF_WriteRegister( SUBGHZ_LIQPOLR, SUBGRF_ReadRegister( SUBGHZ_LIQPOLR ) & ~( 1 
 991:Middlewares/Third_Party/SubGHz_Phy/stm32_radio_driver/radio.c ****             }
 992:Middlewares/Third_Party/SubGHz_Phy/stm32_radio_driver/radio.c ****             else
 993:Middlewares/Third_Party/SubGHz_Phy/stm32_radio_driver/radio.c ****             {
 994:Middlewares/Third_Party/SubGHz_Phy/stm32_radio_driver/radio.c ****                 // RegIqPolaritySetup @address 0x0736
 995:Middlewares/Third_Party/SubGHz_Phy/stm32_radio_driver/radio.c ****                 SUBGRF_WriteRegister( SUBGHZ_LIQPOLR, SUBGRF_ReadRegister( SUBGHZ_LIQPOLR ) | ( 1 <
 996:Middlewares/Third_Party/SubGHz_Phy/stm32_radio_driver/radio.c ****             }
 997:Middlewares/Third_Party/SubGHz_Phy/stm32_radio_driver/radio.c ****             // WORKAROUND END
 998:Middlewares/Third_Party/SubGHz_Phy/stm32_radio_driver/radio.c **** 
 999:Middlewares/Third_Party/SubGHz_Phy/stm32_radio_driver/radio.c ****             // Timeout Max, Timeout handled directly in SetRx function
1000:Middlewares/Third_Party/SubGHz_Phy/stm32_radio_driver/radio.c ****             SubgRf.RxTimeout = 0xFFFF;
1001:Middlewares/Third_Party/SubGHz_Phy/stm32_radio_driver/radio.c **** 
ARM GAS  /var/folders/9y/n02fl3g16gnf7ppy14xghdy80000gn/T//cc8eCeeT.s 			page 19


1002:Middlewares/Third_Party/SubGHz_Phy/stm32_radio_driver/radio.c ****             break;
1003:Middlewares/Third_Party/SubGHz_Phy/stm32_radio_driver/radio.c ****         default:
1004:Middlewares/Third_Party/SubGHz_Phy/stm32_radio_driver/radio.c ****             break;
1005:Middlewares/Third_Party/SubGHz_Phy/stm32_radio_driver/radio.c ****     }
1006:Middlewares/Third_Party/SubGHz_Phy/stm32_radio_driver/radio.c **** }
1007:Middlewares/Third_Party/SubGHz_Phy/stm32_radio_driver/radio.c **** 
1008:Middlewares/Third_Party/SubGHz_Phy/stm32_radio_driver/radio.c **** static void RadioSetTxConfig( RadioModems_t modem, int8_t power, uint32_t fdev,
1009:Middlewares/Third_Party/SubGHz_Phy/stm32_radio_driver/radio.c ****                               uint32_t bandwidth, uint32_t datarate,
1010:Middlewares/Third_Party/SubGHz_Phy/stm32_radio_driver/radio.c ****                               uint8_t coderate, uint16_t preambleLen,
1011:Middlewares/Third_Party/SubGHz_Phy/stm32_radio_driver/radio.c ****                               bool fixLen, bool crcOn, bool freqHopOn,
1012:Middlewares/Third_Party/SubGHz_Phy/stm32_radio_driver/radio.c ****                               uint8_t hopPeriod, bool iqInverted, uint32_t timeout )
1013:Middlewares/Third_Party/SubGHz_Phy/stm32_radio_driver/radio.c **** {
1014:Middlewares/Third_Party/SubGHz_Phy/stm32_radio_driver/radio.c ****     RFW_DeInit(); /* ST_WORKAROUND: Switch Off FwPacketDecoding by default */
1015:Middlewares/Third_Party/SubGHz_Phy/stm32_radio_driver/radio.c ****     switch( modem )
1016:Middlewares/Third_Party/SubGHz_Phy/stm32_radio_driver/radio.c ****     {
1017:Middlewares/Third_Party/SubGHz_Phy/stm32_radio_driver/radio.c ****         case MODEM_FSK:
1018:Middlewares/Third_Party/SubGHz_Phy/stm32_radio_driver/radio.c ****             SubgRf.ModulationParams.PacketType = PACKET_TYPE_GFSK;
1019:Middlewares/Third_Party/SubGHz_Phy/stm32_radio_driver/radio.c ****             SubgRf.ModulationParams.Params.Gfsk.BitRate = datarate;
1020:Middlewares/Third_Party/SubGHz_Phy/stm32_radio_driver/radio.c **** 
1021:Middlewares/Third_Party/SubGHz_Phy/stm32_radio_driver/radio.c ****             SubgRf.ModulationParams.Params.Gfsk.ModulationShaping = MOD_SHAPING_G_BT_1;
1022:Middlewares/Third_Party/SubGHz_Phy/stm32_radio_driver/radio.c ****             SubgRf.ModulationParams.Params.Gfsk.Bandwidth = SUBGRF_GetFskBandwidthRegValue( bandwid
1023:Middlewares/Third_Party/SubGHz_Phy/stm32_radio_driver/radio.c ****             SubgRf.ModulationParams.Params.Gfsk.Fdev = fdev;
1024:Middlewares/Third_Party/SubGHz_Phy/stm32_radio_driver/radio.c **** 
1025:Middlewares/Third_Party/SubGHz_Phy/stm32_radio_driver/radio.c ****             SubgRf.PacketParams.PacketType = PACKET_TYPE_GFSK;
1026:Middlewares/Third_Party/SubGHz_Phy/stm32_radio_driver/radio.c ****             SubgRf.PacketParams.Params.Gfsk.PreambleLength = ( preambleLen << 3 ); // convert byte 
1027:Middlewares/Third_Party/SubGHz_Phy/stm32_radio_driver/radio.c ****             SubgRf.PacketParams.Params.Gfsk.PreambleMinDetect = RADIO_PREAMBLE_DETECTOR_08_BITS;
1028:Middlewares/Third_Party/SubGHz_Phy/stm32_radio_driver/radio.c ****             SubgRf.PacketParams.Params.Gfsk.SyncWordLength = 3 << 3 ; // convert byte into bit
1029:Middlewares/Third_Party/SubGHz_Phy/stm32_radio_driver/radio.c ****             SubgRf.PacketParams.Params.Gfsk.AddrComp = RADIO_ADDRESSCOMP_FILT_OFF;
1030:Middlewares/Third_Party/SubGHz_Phy/stm32_radio_driver/radio.c ****             SubgRf.PacketParams.Params.Gfsk.HeaderType = ( fixLen == true ) ? RADIO_PACKET_FIXED_LE
1031:Middlewares/Third_Party/SubGHz_Phy/stm32_radio_driver/radio.c **** 
1032:Middlewares/Third_Party/SubGHz_Phy/stm32_radio_driver/radio.c ****             if( crcOn == true )
1033:Middlewares/Third_Party/SubGHz_Phy/stm32_radio_driver/radio.c ****             {
1034:Middlewares/Third_Party/SubGHz_Phy/stm32_radio_driver/radio.c ****                 SubgRf.PacketParams.Params.Gfsk.CrcLength = RADIO_CRC_2_BYTES_CCIT;
1035:Middlewares/Third_Party/SubGHz_Phy/stm32_radio_driver/radio.c ****             }
1036:Middlewares/Third_Party/SubGHz_Phy/stm32_radio_driver/radio.c ****             else
1037:Middlewares/Third_Party/SubGHz_Phy/stm32_radio_driver/radio.c ****             {
1038:Middlewares/Third_Party/SubGHz_Phy/stm32_radio_driver/radio.c ****                 SubgRf.PacketParams.Params.Gfsk.CrcLength = RADIO_CRC_OFF;
1039:Middlewares/Third_Party/SubGHz_Phy/stm32_radio_driver/radio.c ****             }
1040:Middlewares/Third_Party/SubGHz_Phy/stm32_radio_driver/radio.c ****             SubgRf.PacketParams.Params.Gfsk.DcFree = RADIO_DC_FREEWHITENING;
1041:Middlewares/Third_Party/SubGHz_Phy/stm32_radio_driver/radio.c **** 
1042:Middlewares/Third_Party/SubGHz_Phy/stm32_radio_driver/radio.c ****             RadioStandby( );
1043:Middlewares/Third_Party/SubGHz_Phy/stm32_radio_driver/radio.c ****             RadioSetModem(  MODEM_FSK  );
1044:Middlewares/Third_Party/SubGHz_Phy/stm32_radio_driver/radio.c ****             SUBGRF_SetModulationParams( &SubgRf.ModulationParams );
1045:Middlewares/Third_Party/SubGHz_Phy/stm32_radio_driver/radio.c ****             SUBGRF_SetPacketParams( &SubgRf.PacketParams );
1046:Middlewares/Third_Party/SubGHz_Phy/stm32_radio_driver/radio.c ****             SUBGRF_SetSyncWord( ( uint8_t[] ){ 0xC1, 0x94, 0xC1, 0x00, 0x00, 0x00, 0x00, 0x00 } );
1047:Middlewares/Third_Party/SubGHz_Phy/stm32_radio_driver/radio.c ****             SUBGRF_SetWhiteningSeed( 0x01FF );
1048:Middlewares/Third_Party/SubGHz_Phy/stm32_radio_driver/radio.c ****             break;
1049:Middlewares/Third_Party/SubGHz_Phy/stm32_radio_driver/radio.c **** 
1050:Middlewares/Third_Party/SubGHz_Phy/stm32_radio_driver/radio.c ****         case MODEM_LORA:
1051:Middlewares/Third_Party/SubGHz_Phy/stm32_radio_driver/radio.c ****             SubgRf.ModulationParams.PacketType = PACKET_TYPE_LORA;
1052:Middlewares/Third_Party/SubGHz_Phy/stm32_radio_driver/radio.c ****             SubgRf.ModulationParams.Params.LoRa.SpreadingFactor = ( RadioLoRaSpreadingFactors_t ) d
1053:Middlewares/Third_Party/SubGHz_Phy/stm32_radio_driver/radio.c ****             SubgRf.ModulationParams.Params.LoRa.Bandwidth =  Bandwidths[bandwidth];
1054:Middlewares/Third_Party/SubGHz_Phy/stm32_radio_driver/radio.c ****             SubgRf.ModulationParams.Params.LoRa.CodingRate= ( RadioLoRaCodingRates_t )coderate;
1055:Middlewares/Third_Party/SubGHz_Phy/stm32_radio_driver/radio.c **** 
1056:Middlewares/Third_Party/SubGHz_Phy/stm32_radio_driver/radio.c ****             if( ( ( bandwidth == 0 ) && ( ( datarate == 11 ) || ( datarate == 12 ) ) ) ||
1057:Middlewares/Third_Party/SubGHz_Phy/stm32_radio_driver/radio.c ****                 ( ( bandwidth == 1 ) && ( datarate == 12 ) ) )
1058:Middlewares/Third_Party/SubGHz_Phy/stm32_radio_driver/radio.c ****             {
ARM GAS  /var/folders/9y/n02fl3g16gnf7ppy14xghdy80000gn/T//cc8eCeeT.s 			page 20


1059:Middlewares/Third_Party/SubGHz_Phy/stm32_radio_driver/radio.c ****                 SubgRf.ModulationParams.Params.LoRa.LowDatarateOptimize = 0x01;
1060:Middlewares/Third_Party/SubGHz_Phy/stm32_radio_driver/radio.c ****             }
1061:Middlewares/Third_Party/SubGHz_Phy/stm32_radio_driver/radio.c ****             else
1062:Middlewares/Third_Party/SubGHz_Phy/stm32_radio_driver/radio.c ****             {
1063:Middlewares/Third_Party/SubGHz_Phy/stm32_radio_driver/radio.c ****                 SubgRf.ModulationParams.Params.LoRa.LowDatarateOptimize = 0x00;
1064:Middlewares/Third_Party/SubGHz_Phy/stm32_radio_driver/radio.c ****             }
1065:Middlewares/Third_Party/SubGHz_Phy/stm32_radio_driver/radio.c **** 
1066:Middlewares/Third_Party/SubGHz_Phy/stm32_radio_driver/radio.c ****             SubgRf.PacketParams.PacketType = PACKET_TYPE_LORA;
1067:Middlewares/Third_Party/SubGHz_Phy/stm32_radio_driver/radio.c **** 
1068:Middlewares/Third_Party/SubGHz_Phy/stm32_radio_driver/radio.c ****             if( ( SubgRf.ModulationParams.Params.LoRa.SpreadingFactor == LORA_SF5 ) ||
1069:Middlewares/Third_Party/SubGHz_Phy/stm32_radio_driver/radio.c ****                 ( SubgRf.ModulationParams.Params.LoRa.SpreadingFactor == LORA_SF6 ) )
1070:Middlewares/Third_Party/SubGHz_Phy/stm32_radio_driver/radio.c ****             {
1071:Middlewares/Third_Party/SubGHz_Phy/stm32_radio_driver/radio.c ****                 if( preambleLen < 12 )
1072:Middlewares/Third_Party/SubGHz_Phy/stm32_radio_driver/radio.c ****                 {
1073:Middlewares/Third_Party/SubGHz_Phy/stm32_radio_driver/radio.c ****                     SubgRf.PacketParams.Params.LoRa.PreambleLength = 12;
1074:Middlewares/Third_Party/SubGHz_Phy/stm32_radio_driver/radio.c ****                 }
1075:Middlewares/Third_Party/SubGHz_Phy/stm32_radio_driver/radio.c ****                 else
1076:Middlewares/Third_Party/SubGHz_Phy/stm32_radio_driver/radio.c ****                 {
1077:Middlewares/Third_Party/SubGHz_Phy/stm32_radio_driver/radio.c ****                     SubgRf.PacketParams.Params.LoRa.PreambleLength = preambleLen;
1078:Middlewares/Third_Party/SubGHz_Phy/stm32_radio_driver/radio.c ****                 }
1079:Middlewares/Third_Party/SubGHz_Phy/stm32_radio_driver/radio.c ****             }
1080:Middlewares/Third_Party/SubGHz_Phy/stm32_radio_driver/radio.c ****             else
1081:Middlewares/Third_Party/SubGHz_Phy/stm32_radio_driver/radio.c ****             {
1082:Middlewares/Third_Party/SubGHz_Phy/stm32_radio_driver/radio.c ****                 SubgRf.PacketParams.Params.LoRa.PreambleLength = preambleLen;
1083:Middlewares/Third_Party/SubGHz_Phy/stm32_radio_driver/radio.c ****             }
1084:Middlewares/Third_Party/SubGHz_Phy/stm32_radio_driver/radio.c ****             SubgRf.PacketParams.Params.LoRa.HeaderType = ( RadioLoRaPacketLengthsMode_t )fixLen;
1085:Middlewares/Third_Party/SubGHz_Phy/stm32_radio_driver/radio.c ****             SubgRf.PacketParams.Params.LoRa.PayloadLength = MaxPayloadLength;
1086:Middlewares/Third_Party/SubGHz_Phy/stm32_radio_driver/radio.c ****             SubgRf.PacketParams.Params.LoRa.CrcMode = ( RadioLoRaCrcModes_t )crcOn;
1087:Middlewares/Third_Party/SubGHz_Phy/stm32_radio_driver/radio.c ****             SubgRf.PacketParams.Params.LoRa.InvertIQ = ( RadioLoRaIQModes_t )iqInverted;
1088:Middlewares/Third_Party/SubGHz_Phy/stm32_radio_driver/radio.c **** 
1089:Middlewares/Third_Party/SubGHz_Phy/stm32_radio_driver/radio.c ****             RadioStandby( );
1090:Middlewares/Third_Party/SubGHz_Phy/stm32_radio_driver/radio.c ****             RadioSetModem( MODEM_LORA );
1091:Middlewares/Third_Party/SubGHz_Phy/stm32_radio_driver/radio.c ****             SUBGRF_SetModulationParams( &SubgRf.ModulationParams );
1092:Middlewares/Third_Party/SubGHz_Phy/stm32_radio_driver/radio.c ****             SUBGRF_SetPacketParams( &SubgRf.PacketParams );
1093:Middlewares/Third_Party/SubGHz_Phy/stm32_radio_driver/radio.c ****             break;
1094:Middlewares/Third_Party/SubGHz_Phy/stm32_radio_driver/radio.c **** #if (RADIO_SIGFOX_ENABLE == 1)
1095:Middlewares/Third_Party/SubGHz_Phy/stm32_radio_driver/radio.c ****         case MODEM_SIGFOX_TX:
1096:Middlewares/Third_Party/SubGHz_Phy/stm32_radio_driver/radio.c ****             RadioSetModem(MODEM_SIGFOX_TX);
1097:Middlewares/Third_Party/SubGHz_Phy/stm32_radio_driver/radio.c ****             SubgRf.ModulationParams.PacketType = PACKET_TYPE_BPSK;
1098:Middlewares/Third_Party/SubGHz_Phy/stm32_radio_driver/radio.c ****             SubgRf.ModulationParams.Params.Bpsk.BitRate           = datarate;
1099:Middlewares/Third_Party/SubGHz_Phy/stm32_radio_driver/radio.c ****             SubgRf.ModulationParams.Params.Bpsk.ModulationShaping = MOD_SHAPING_DBPSK;
1100:Middlewares/Third_Party/SubGHz_Phy/stm32_radio_driver/radio.c ****             SUBGRF_SetModulationParams( &SubgRf.ModulationParams );
1101:Middlewares/Third_Party/SubGHz_Phy/stm32_radio_driver/radio.c ****             break;
1102:Middlewares/Third_Party/SubGHz_Phy/stm32_radio_driver/radio.c **** #endif /*RADIO_SIGFOX_ENABLE == 1*/
1103:Middlewares/Third_Party/SubGHz_Phy/stm32_radio_driver/radio.c ****         default:
1104:Middlewares/Third_Party/SubGHz_Phy/stm32_radio_driver/radio.c ****             break;
1105:Middlewares/Third_Party/SubGHz_Phy/stm32_radio_driver/radio.c ****     }
1106:Middlewares/Third_Party/SubGHz_Phy/stm32_radio_driver/radio.c **** 
1107:Middlewares/Third_Party/SubGHz_Phy/stm32_radio_driver/radio.c ****     SubgRf.AntSwitchPaSelect = SUBGRF_SetRfTxPower( power );
1108:Middlewares/Third_Party/SubGHz_Phy/stm32_radio_driver/radio.c ****     RFW_SetAntSwitch( SubgRf.AntSwitchPaSelect ); /* ST_WORKAROUND: ?????? */
1109:Middlewares/Third_Party/SubGHz_Phy/stm32_radio_driver/radio.c ****     SubgRf.TxTimeout = timeout;
1110:Middlewares/Third_Party/SubGHz_Phy/stm32_radio_driver/radio.c **** }
1111:Middlewares/Third_Party/SubGHz_Phy/stm32_radio_driver/radio.c **** 
1112:Middlewares/Third_Party/SubGHz_Phy/stm32_radio_driver/radio.c **** static bool RadioCheckRfFrequency( uint32_t frequency )
1113:Middlewares/Third_Party/SubGHz_Phy/stm32_radio_driver/radio.c **** {
  27              		.loc 1 1113 1 view -0
  28              		.cfi_startproc
ARM GAS  /var/folders/9y/n02fl3g16gnf7ppy14xghdy80000gn/T//cc8eCeeT.s 			page 21


  29              		@ args = 0, pretend = 0, frame = 0
  30              		@ frame_needed = 0, uses_anonymous_args = 0
  31              		@ link register save eliminated.
1114:Middlewares/Third_Party/SubGHz_Phy/stm32_radio_driver/radio.c ****     return true;
  32              		.loc 1 1114 5 view .LVU1
1115:Middlewares/Third_Party/SubGHz_Phy/stm32_radio_driver/radio.c **** }
  33              		.loc 1 1115 1 is_stmt 0 view .LVU2
  34 0000 0120     		movs	r0, #1
  35              	.LVL1:
  36              		.loc 1 1115 1 view .LVU3
  37 0002 7047     		bx	lr
  38              		.cfi_endproc
  39              	.LFE1171:
  41              		.section	.text.RadioGetLoRaBandwidthInHz,"ax",%progbits
  42              		.align	1
  43              		.syntax unified
  44              		.thumb
  45              		.thumb_func
  46              		.fpu softvfp
  48              	RadioGetLoRaBandwidthInHz:
  49              	.LVL2:
  50              	.LFB1172:
1116:Middlewares/Third_Party/SubGHz_Phy/stm32_radio_driver/radio.c **** 
1117:Middlewares/Third_Party/SubGHz_Phy/stm32_radio_driver/radio.c **** static uint32_t RadioGetLoRaBandwidthInHz( RadioLoRaBandwidths_t bw )
1118:Middlewares/Third_Party/SubGHz_Phy/stm32_radio_driver/radio.c **** {
  51              		.loc 1 1118 1 is_stmt 1 view -0
  52              		.cfi_startproc
  53              		@ args = 0, pretend = 0, frame = 0
  54              		@ frame_needed = 0, uses_anonymous_args = 0
  55              		@ link register save eliminated.
1119:Middlewares/Third_Party/SubGHz_Phy/stm32_radio_driver/radio.c ****     uint32_t bandwidthInHz = 0;
  56              		.loc 1 1119 5 view .LVU5
1120:Middlewares/Third_Party/SubGHz_Phy/stm32_radio_driver/radio.c **** 
1121:Middlewares/Third_Party/SubGHz_Phy/stm32_radio_driver/radio.c ****     switch( bw )
  57              		.loc 1 1121 5 view .LVU6
  58 0000 0A28     		cmp	r0, #10
  59 0002 07D8     		bhi	.L3
  60 0004 DFE800F0 		tbb	[pc, r0]
  61              	.L5:
  62 0008 20       		.byte	(.L15-.L5)/2
  63 0009 0B       		.byte	(.L13-.L5)/2
  64 000a 11       		.byte	(.L12-.L5)/2
  65 000b 17       		.byte	(.L11-.L5)/2
  66 000c 1A       		.byte	(.L10-.L5)/2
  67 000d 1C       		.byte	(.L9-.L5)/2
  68 000e 1E       		.byte	(.L8-.L5)/2
  69 000f 06       		.byte	(.L3-.L5)/2
  70 0010 08       		.byte	(.L7-.L5)/2
  71 0011 0E       		.byte	(.L6-.L5)/2
  72 0012 14       		.byte	(.L4-.L5)/2
  73 0013 00       		.p2align 1
  74              	.L3:
  75 0014 0020     		movs	r0, #0
  76              	.LVL3:
  77              		.loc 1 1121 5 is_stmt 0 view .LVU7
  78 0016 7047     		bx	lr
  79              	.LVL4:
ARM GAS  /var/folders/9y/n02fl3g16gnf7ppy14xghdy80000gn/T//cc8eCeeT.s 			page 22


  80              	.L7:
1122:Middlewares/Third_Party/SubGHz_Phy/stm32_radio_driver/radio.c ****     {
1123:Middlewares/Third_Party/SubGHz_Phy/stm32_radio_driver/radio.c ****     case LORA_BW_007:
1124:Middlewares/Third_Party/SubGHz_Phy/stm32_radio_driver/radio.c ****         bandwidthInHz = 7812UL;
1125:Middlewares/Third_Party/SubGHz_Phy/stm32_radio_driver/radio.c ****         break;
1126:Middlewares/Third_Party/SubGHz_Phy/stm32_radio_driver/radio.c ****     case LORA_BW_010:
1127:Middlewares/Third_Party/SubGHz_Phy/stm32_radio_driver/radio.c ****         bandwidthInHz = 10417UL;
  81              		.loc 1 1127 9 is_stmt 1 view .LVU8
1128:Middlewares/Third_Party/SubGHz_Phy/stm32_radio_driver/radio.c ****         break;
  82              		.loc 1 1128 9 view .LVU9
1127:Middlewares/Third_Party/SubGHz_Phy/stm32_radio_driver/radio.c ****         break;
  83              		.loc 1 1127 23 is_stmt 0 view .LVU10
  84 0018 42F6B100 		movw	r0, #10417
  85              	.LVL5:
  86              		.loc 1 1128 9 view .LVU11
  87 001c 7047     		bx	lr
  88              	.LVL6:
  89              	.L13:
1129:Middlewares/Third_Party/SubGHz_Phy/stm32_radio_driver/radio.c ****     case LORA_BW_015:
1130:Middlewares/Third_Party/SubGHz_Phy/stm32_radio_driver/radio.c ****         bandwidthInHz = 15625UL;
  90              		.loc 1 1130 9 is_stmt 1 view .LVU12
1131:Middlewares/Third_Party/SubGHz_Phy/stm32_radio_driver/radio.c ****         break;
  91              		.loc 1 1131 9 view .LVU13
1130:Middlewares/Third_Party/SubGHz_Phy/stm32_radio_driver/radio.c ****         break;
  92              		.loc 1 1130 23 is_stmt 0 view .LVU14
  93 001e 43F60950 		movw	r0, #15625
  94              	.LVL7:
  95              		.loc 1 1131 9 view .LVU15
  96 0022 7047     		bx	lr
  97              	.LVL8:
  98              	.L6:
1132:Middlewares/Third_Party/SubGHz_Phy/stm32_radio_driver/radio.c ****     case LORA_BW_020:
1133:Middlewares/Third_Party/SubGHz_Phy/stm32_radio_driver/radio.c ****         bandwidthInHz = 20833UL;
  99              		.loc 1 1133 9 is_stmt 1 view .LVU16
1134:Middlewares/Third_Party/SubGHz_Phy/stm32_radio_driver/radio.c ****         break;
 100              		.loc 1 1134 9 view .LVU17
1133:Middlewares/Third_Party/SubGHz_Phy/stm32_radio_driver/radio.c ****         break;
 101              		.loc 1 1133 23 is_stmt 0 view .LVU18
 102 0024 45F26110 		movw	r0, #20833
 103              	.LVL9:
 104              		.loc 1 1134 9 view .LVU19
 105 0028 7047     		bx	lr
 106              	.LVL10:
 107              	.L12:
1135:Middlewares/Third_Party/SubGHz_Phy/stm32_radio_driver/radio.c ****     case LORA_BW_031:
1136:Middlewares/Third_Party/SubGHz_Phy/stm32_radio_driver/radio.c ****         bandwidthInHz = 31250UL;
 108              		.loc 1 1136 9 is_stmt 1 view .LVU20
1137:Middlewares/Third_Party/SubGHz_Phy/stm32_radio_driver/radio.c ****         break;
 109              		.loc 1 1137 9 view .LVU21
1136:Middlewares/Third_Party/SubGHz_Phy/stm32_radio_driver/radio.c ****         break;
 110              		.loc 1 1136 23 is_stmt 0 view .LVU22
 111 002a 47F61220 		movw	r0, #31250
 112              	.LVL11:
 113              		.loc 1 1137 9 view .LVU23
 114 002e 7047     		bx	lr
 115              	.LVL12:
 116              	.L4:
ARM GAS  /var/folders/9y/n02fl3g16gnf7ppy14xghdy80000gn/T//cc8eCeeT.s 			page 23


1138:Middlewares/Third_Party/SubGHz_Phy/stm32_radio_driver/radio.c ****     case LORA_BW_041:
1139:Middlewares/Third_Party/SubGHz_Phy/stm32_radio_driver/radio.c ****         bandwidthInHz = 41667UL;
 117              		.loc 1 1139 9 is_stmt 1 view .LVU24
1140:Middlewares/Third_Party/SubGHz_Phy/stm32_radio_driver/radio.c ****         break;
 118              		.loc 1 1140 9 view .LVU25
1139:Middlewares/Third_Party/SubGHz_Phy/stm32_radio_driver/radio.c ****         break;
 119              		.loc 1 1139 23 is_stmt 0 view .LVU26
 120 0030 4AF2C320 		movw	r0, #41667
 121              	.LVL13:
 122              		.loc 1 1140 9 view .LVU27
 123 0034 7047     		bx	lr
 124              	.LVL14:
 125              	.L11:
1141:Middlewares/Third_Party/SubGHz_Phy/stm32_radio_driver/radio.c ****     case LORA_BW_062:
1142:Middlewares/Third_Party/SubGHz_Phy/stm32_radio_driver/radio.c ****         bandwidthInHz = 62500UL;
 126              		.loc 1 1142 9 is_stmt 1 view .LVU28
1143:Middlewares/Third_Party/SubGHz_Phy/stm32_radio_driver/radio.c ****         break;
 127              		.loc 1 1143 9 view .LVU29
1142:Middlewares/Third_Party/SubGHz_Phy/stm32_radio_driver/radio.c ****         break;
 128              		.loc 1 1142 23 is_stmt 0 view .LVU30
 129 0036 4FF22440 		movw	r0, #62500
 130              	.LVL15:
 131              		.loc 1 1143 9 view .LVU31
 132 003a 7047     		bx	lr
 133              	.LVL16:
 134              	.L10:
1144:Middlewares/Third_Party/SubGHz_Phy/stm32_radio_driver/radio.c ****     case LORA_BW_125:
1145:Middlewares/Third_Party/SubGHz_Phy/stm32_radio_driver/radio.c ****         bandwidthInHz = 125000UL;
 135              		.loc 1 1145 9 is_stmt 1 view .LVU32
1146:Middlewares/Third_Party/SubGHz_Phy/stm32_radio_driver/radio.c ****         break;
 136              		.loc 1 1146 9 view .LVU33
1145:Middlewares/Third_Party/SubGHz_Phy/stm32_radio_driver/radio.c ****         break;
 137              		.loc 1 1145 23 is_stmt 0 view .LVU34
 138 003c 0448     		ldr	r0, .L16
 139              	.LVL17:
 140              		.loc 1 1146 9 view .LVU35
 141 003e 7047     		bx	lr
 142              	.LVL18:
 143              	.L9:
1147:Middlewares/Third_Party/SubGHz_Phy/stm32_radio_driver/radio.c ****     case LORA_BW_250:
1148:Middlewares/Third_Party/SubGHz_Phy/stm32_radio_driver/radio.c ****         bandwidthInHz = 250000UL;
 144              		.loc 1 1148 9 is_stmt 1 view .LVU36
1149:Middlewares/Third_Party/SubGHz_Phy/stm32_radio_driver/radio.c ****         break;
 145              		.loc 1 1149 9 view .LVU37
1148:Middlewares/Third_Party/SubGHz_Phy/stm32_radio_driver/radio.c ****         break;
 146              		.loc 1 1148 23 is_stmt 0 view .LVU38
 147 0040 0448     		ldr	r0, .L16+4
 148              	.LVL19:
 149              		.loc 1 1149 9 view .LVU39
 150 0042 7047     		bx	lr
 151              	.LVL20:
 152              	.L8:
1150:Middlewares/Third_Party/SubGHz_Phy/stm32_radio_driver/radio.c ****     case LORA_BW_500:
1151:Middlewares/Third_Party/SubGHz_Phy/stm32_radio_driver/radio.c ****         bandwidthInHz = 500000UL;
 153              		.loc 1 1151 9 is_stmt 1 view .LVU40
1152:Middlewares/Third_Party/SubGHz_Phy/stm32_radio_driver/radio.c ****         break;
 154              		.loc 1 1152 9 view .LVU41
ARM GAS  /var/folders/9y/n02fl3g16gnf7ppy14xghdy80000gn/T//cc8eCeeT.s 			page 24


1151:Middlewares/Third_Party/SubGHz_Phy/stm32_radio_driver/radio.c ****         break;
 155              		.loc 1 1151 23 is_stmt 0 view .LVU42
 156 0044 0448     		ldr	r0, .L16+8
 157              	.LVL21:
 158              		.loc 1 1152 9 view .LVU43
 159 0046 7047     		bx	lr
 160              	.LVL22:
 161              	.L15:
1124:Middlewares/Third_Party/SubGHz_Phy/stm32_radio_driver/radio.c ****         break;
 162              		.loc 1 1124 23 view .LVU44
 163 0048 41F68460 		movw	r0, #7812
 164              	.LVL23:
1153:Middlewares/Third_Party/SubGHz_Phy/stm32_radio_driver/radio.c ****     }
1154:Middlewares/Third_Party/SubGHz_Phy/stm32_radio_driver/radio.c **** 
1155:Middlewares/Third_Party/SubGHz_Phy/stm32_radio_driver/radio.c ****     return bandwidthInHz;
 165              		.loc 1 1155 5 is_stmt 1 view .LVU45
1156:Middlewares/Third_Party/SubGHz_Phy/stm32_radio_driver/radio.c **** }
 166              		.loc 1 1156 1 is_stmt 0 view .LVU46
 167 004c 7047     		bx	lr
 168              	.L17:
 169 004e 00BF     		.align	2
 170              	.L16:
 171 0050 48E80100 		.word	125000
 172 0054 90D00300 		.word	250000
 173 0058 20A10700 		.word	500000
 174              		.cfi_endproc
 175              	.LFE1172:
 177              		.section	.text.RadioGetGfskTimeOnAirNumerator,"ax",%progbits
 178              		.align	1
 179              		.syntax unified
 180              		.thumb
 181              		.thumb_func
 182              		.fpu softvfp
 184              	RadioGetGfskTimeOnAirNumerator:
 185              	.LVL24:
 186              	.LFB1173:
1157:Middlewares/Third_Party/SubGHz_Phy/stm32_radio_driver/radio.c **** 
1158:Middlewares/Third_Party/SubGHz_Phy/stm32_radio_driver/radio.c **** static uint32_t RadioGetGfskTimeOnAirNumerator( uint32_t datarate, uint8_t coderate,
1159:Middlewares/Third_Party/SubGHz_Phy/stm32_radio_driver/radio.c ****                                                 uint16_t preambleLen, bool fixLen, uint8_t payloadL
1160:Middlewares/Third_Party/SubGHz_Phy/stm32_radio_driver/radio.c ****                                                 bool crcOn )
1161:Middlewares/Third_Party/SubGHz_Phy/stm32_radio_driver/radio.c **** {
 187              		.loc 1 1161 1 is_stmt 1 view -0
 188              		.cfi_startproc
 189              		@ args = 8, pretend = 0, frame = 0
 190              		@ frame_needed = 0, uses_anonymous_args = 0
 191              		@ link register save eliminated.
 192              		.loc 1 1161 1 is_stmt 0 view .LVU48
 193 0000 9DF80410 		ldrb	r1, [sp, #4]	@ zero_extendqisi2
 194              	.LVL25:
1162:Middlewares/Third_Party/SubGHz_Phy/stm32_radio_driver/radio.c ****     /* ST_WORKAROUND_BEGIN: Simplified calculation without const values */
1163:Middlewares/Third_Party/SubGHz_Phy/stm32_radio_driver/radio.c ****     return ( preambleLen << 3 ) +
 195              		.loc 1 1163 5 is_stmt 1 view .LVU49
 196              		.loc 1 1163 26 is_stmt 0 view .LVU50
 197 0004 D200     		lsls	r2, r2, #3
 198              	.LVL26:
1164:Middlewares/Third_Party/SubGHz_Phy/stm32_radio_driver/radio.c ****            ( ( fixLen == false ) ? 8 : 0 ) + 24 +
 199              		.loc 1 1164 38 view .LVU51
ARM GAS  /var/folders/9y/n02fl3g16gnf7ppy14xghdy80000gn/T//cc8eCeeT.s 			page 25


 200 0006 53B9     		cbnz	r3, .L21
 201 0008 0820     		movs	r0, #8
 202              	.LVL27:
 203              	.L19:
1163:Middlewares/Third_Party/SubGHz_Phy/stm32_radio_driver/radio.c ****            ( ( fixLen == false ) ? 8 : 0 ) + 24 +
 204              		.loc 1 1163 33 view .LVU52
 205 000a 0244     		add	r2, r2, r0
 206              		.loc 1 1164 44 view .LVU53
 207 000c 1832     		adds	r2, r2, #24
1165:Middlewares/Third_Party/SubGHz_Phy/stm32_radio_driver/radio.c ****            ( ( payloadLen + ( ( crcOn == true ) ? 2 : 0 ) ) << 3 );
 208              		.loc 1 1165 53 view .LVU54
 209 000e 41B1     		cbz	r1, .L22
 210 0010 0223     		movs	r3, #2
 211              	.LVL28:
 212              	.L20:
 213              		.loc 1 1165 27 discriminator 4 view .LVU55
 214 0012 9DF80000 		ldrb	r0, [sp]	@ zero_extendqisi2
 215 0016 1844     		add	r0, r0, r3
1166:Middlewares/Third_Party/SubGHz_Phy/stm32_radio_driver/radio.c ****     /* ST_WORKAROUND_END */
1167:Middlewares/Third_Party/SubGHz_Phy/stm32_radio_driver/radio.c **** }
 216              		.loc 1 1167 1 discriminator 4 view .LVU56
 217 0018 02EBC000 		add	r0, r2, r0, lsl #3
 218 001c 7047     		bx	lr
 219              	.LVL29:
 220              	.L21:
1164:Middlewares/Third_Party/SubGHz_Phy/stm32_radio_driver/radio.c ****            ( ( payloadLen + ( ( crcOn == true ) ? 2 : 0 ) ) << 3 );
 221              		.loc 1 1164 38 view .LVU57
 222 001e 0020     		movs	r0, #0
 223              	.LVL30:
1164:Middlewares/Third_Party/SubGHz_Phy/stm32_radio_driver/radio.c ****            ( ( payloadLen + ( ( crcOn == true ) ? 2 : 0 ) ) << 3 );
 224              		.loc 1 1164 38 view .LVU58
 225 0020 F3E7     		b	.L19
 226              	.L22:
1165:Middlewares/Third_Party/SubGHz_Phy/stm32_radio_driver/radio.c ****            ( ( payloadLen + ( ( crcOn == true ) ? 2 : 0 ) ) << 3 );
 227              		.loc 1 1165 53 view .LVU59
 228 0022 0023     		movs	r3, #0
 229              	.LVL31:
1165:Middlewares/Third_Party/SubGHz_Phy/stm32_radio_driver/radio.c ****            ( ( payloadLen + ( ( crcOn == true ) ? 2 : 0 ) ) << 3 );
 230              		.loc 1 1165 53 view .LVU60
 231 0024 F5E7     		b	.L20
 232              		.cfi_endproc
 233              	.LFE1173:
 235              		.section	.text.RadioGetLoRaTimeOnAirNumerator,"ax",%progbits
 236              		.align	1
 237              		.syntax unified
 238              		.thumb
 239              		.thumb_func
 240              		.fpu softvfp
 242              	RadioGetLoRaTimeOnAirNumerator:
 243              	.LVL32:
 244              	.LFB1174:
1168:Middlewares/Third_Party/SubGHz_Phy/stm32_radio_driver/radio.c **** 
1169:Middlewares/Third_Party/SubGHz_Phy/stm32_radio_driver/radio.c **** static uint32_t RadioGetLoRaTimeOnAirNumerator( uint32_t bandwidth,
1170:Middlewares/Third_Party/SubGHz_Phy/stm32_radio_driver/radio.c ****                                                 uint32_t datarate, uint8_t coderate,
1171:Middlewares/Third_Party/SubGHz_Phy/stm32_radio_driver/radio.c ****                                                 uint16_t preambleLen, bool fixLen, uint8_t payloadL
1172:Middlewares/Third_Party/SubGHz_Phy/stm32_radio_driver/radio.c ****                                                 bool crcOn )
1173:Middlewares/Third_Party/SubGHz_Phy/stm32_radio_driver/radio.c **** {
ARM GAS  /var/folders/9y/n02fl3g16gnf7ppy14xghdy80000gn/T//cc8eCeeT.s 			page 26


 245              		.loc 1 1173 1 is_stmt 1 view -0
 246              		.cfi_startproc
 247              		@ args = 12, pretend = 0, frame = 0
 248              		@ frame_needed = 0, uses_anonymous_args = 0
 249              		.loc 1 1173 1 is_stmt 0 view .LVU62
 250 0000 70B5     		push	{r4, r5, r6, lr}
 251              		.cfi_def_cfa_offset 16
 252              		.cfi_offset 4, -16
 253              		.cfi_offset 5, -12
 254              		.cfi_offset 6, -8
 255              		.cfi_offset 14, -4
 256 0002 9DF81040 		ldrb	r4, [sp, #16]	@ zero_extendqisi2
 257 0006 9DF81850 		ldrb	r5, [sp, #24]	@ zero_extendqisi2
1174:Middlewares/Third_Party/SubGHz_Phy/stm32_radio_driver/radio.c ****     int32_t crDenom           = coderate + 4;
 258              		.loc 1 1174 5 is_stmt 1 view .LVU63
 259              		.loc 1 1174 13 is_stmt 0 view .LVU64
 260 000a 0432     		adds	r2, r2, #4
 261              	.LVL33:
1175:Middlewares/Third_Party/SubGHz_Phy/stm32_radio_driver/radio.c ****     bool    lowDatareOptimize = false;
 262              		.loc 1 1175 5 is_stmt 1 view .LVU65
1176:Middlewares/Third_Party/SubGHz_Phy/stm32_radio_driver/radio.c **** 
1177:Middlewares/Third_Party/SubGHz_Phy/stm32_radio_driver/radio.c ****     // Ensure that the preamble length is at least 12 symbols when using SF5 or SF6
1178:Middlewares/Third_Party/SubGHz_Phy/stm32_radio_driver/radio.c ****     if( ( datarate == 5 ) || ( datarate == 6 ) )
 263              		.loc 1 1178 5 view .LVU66
 264              		.loc 1 1178 27 is_stmt 0 view .LVU67
 265 000c A1F1050C 		sub	ip, r1, #5
 266              		.loc 1 1178 7 view .LVU68
 267 0010 BCF1010F 		cmp	ip, #1
 268 0014 32D9     		bls	.L42
 269              	.LVL34:
 270              	.L24:
1179:Middlewares/Third_Party/SubGHz_Phy/stm32_radio_driver/radio.c ****     {
1180:Middlewares/Third_Party/SubGHz_Phy/stm32_radio_driver/radio.c ****         if( preambleLen < 12 )
1181:Middlewares/Third_Party/SubGHz_Phy/stm32_radio_driver/radio.c ****         {
1182:Middlewares/Third_Party/SubGHz_Phy/stm32_radio_driver/radio.c ****             preambleLen = 12;
1183:Middlewares/Third_Party/SubGHz_Phy/stm32_radio_driver/radio.c ****         }
1184:Middlewares/Third_Party/SubGHz_Phy/stm32_radio_driver/radio.c ****     }
1185:Middlewares/Third_Party/SubGHz_Phy/stm32_radio_driver/radio.c **** 
1186:Middlewares/Third_Party/SubGHz_Phy/stm32_radio_driver/radio.c ****     if( ( ( bandwidth == 0 ) && ( ( datarate == 11 ) || ( datarate == 12 ) ) ) ||
 271              		.loc 1 1186 5 is_stmt 1 view .LVU69
 272              		.loc 1 1186 7 is_stmt 0 view .LVU70
 273 0016 18B9     		cbnz	r0, .L25
 274              		.loc 1 1186 54 discriminator 1 view .LVU71
 275 0018 A1F10B06 		sub	r6, r1, #11
 276              		.loc 1 1186 30 discriminator 1 view .LVU72
 277 001c 012E     		cmp	r6, #1
 278 001e 35D9     		bls	.L35
 279              	.L25:
 280              		.loc 1 1186 80 discriminator 3 view .LVU73
 281 0020 0128     		cmp	r0, #1
 282 0022 2FD0     		beq	.L43
1175:Middlewares/Third_Party/SubGHz_Phy/stm32_radio_driver/radio.c **** 
 283              		.loc 1 1175 13 view .LVU74
 284 0024 0026     		movs	r6, #0
 285              	.L26:
 286              	.LVL35:
1187:Middlewares/Third_Party/SubGHz_Phy/stm32_radio_driver/radio.c ****         ( ( bandwidth == 1 ) && ( datarate == 12 ) ) )
ARM GAS  /var/folders/9y/n02fl3g16gnf7ppy14xghdy80000gn/T//cc8eCeeT.s 			page 27


1188:Middlewares/Third_Party/SubGHz_Phy/stm32_radio_driver/radio.c ****     {
1189:Middlewares/Third_Party/SubGHz_Phy/stm32_radio_driver/radio.c ****         lowDatareOptimize = true;
1190:Middlewares/Third_Party/SubGHz_Phy/stm32_radio_driver/radio.c ****     }
1191:Middlewares/Third_Party/SubGHz_Phy/stm32_radio_driver/radio.c **** 
1192:Middlewares/Third_Party/SubGHz_Phy/stm32_radio_driver/radio.c ****     int32_t ceilDenominator;
 287              		.loc 1 1192 5 is_stmt 1 view .LVU75
1193:Middlewares/Third_Party/SubGHz_Phy/stm32_radio_driver/radio.c ****     int32_t ceilNumerator = ( payloadLen << 3 ) +
 288              		.loc 1 1193 5 view .LVU76
 289              		.loc 1 1193 42 is_stmt 0 view .LVU77
 290 0026 9DF814E0 		ldrb	lr, [sp, #20]	@ zero_extendqisi2
 291 002a 4FEACE0E 		lsl	lr, lr, #3
1194:Middlewares/Third_Party/SubGHz_Phy/stm32_radio_driver/radio.c ****                             ( crcOn ? 16 : 0 ) -
 292              		.loc 1 1194 42 view .LVU78
 293 002e 8DB3     		cbz	r5, .L38
 294 0030 4FF0100C 		mov	ip, #16
 295              	.L27:
1193:Middlewares/Third_Party/SubGHz_Phy/stm32_radio_driver/radio.c ****     int32_t ceilNumerator = ( payloadLen << 3 ) +
 296              		.loc 1 1193 49 view .LVU79
 297 0034 E644     		add	lr, lr, ip
1195:Middlewares/Third_Party/SubGHz_Phy/stm32_radio_driver/radio.c ****                             ( 4 * datarate ) +
 298              		.loc 1 1195 33 view .LVU80
 299 0036 8800     		lsls	r0, r1, #2
 300              	.LVL36:
1194:Middlewares/Third_Party/SubGHz_Phy/stm32_radio_driver/radio.c ****                             ( crcOn ? 16 : 0 ) -
 301              		.loc 1 1194 48 view .LVU81
 302 0038 AEEB810E 		sub	lr, lr, r1, lsl #2
1196:Middlewares/Third_Party/SubGHz_Phy/stm32_radio_driver/radio.c ****                             ( fixLen ? 0 : 20 );
 303              		.loc 1 1196 42 view .LVU82
 304 003c 6CB3     		cbz	r4, .L39
 305 003e 4FF0000C 		mov	ip, #0
 306              	.L28:
1195:Middlewares/Third_Party/SubGHz_Phy/stm32_radio_driver/radio.c ****                             ( 4 * datarate ) +
 307              		.loc 1 1195 46 view .LVU83
 308 0042 F444     		add	ip, ip, lr
 309              	.LVL37:
1197:Middlewares/Third_Party/SubGHz_Phy/stm32_radio_driver/radio.c **** 
1198:Middlewares/Third_Party/SubGHz_Phy/stm32_radio_driver/radio.c ****     if( datarate <= 6 )
 310              		.loc 1 1198 5 is_stmt 1 view .LVU84
 311              		.loc 1 1198 7 is_stmt 0 view .LVU85
 312 0044 0629     		cmp	r1, #6
 313 0046 04D9     		bls	.L30
1199:Middlewares/Third_Party/SubGHz_Phy/stm32_radio_driver/radio.c ****     {
1200:Middlewares/Third_Party/SubGHz_Phy/stm32_radio_driver/radio.c ****         ceilDenominator = 4 * datarate;
1201:Middlewares/Third_Party/SubGHz_Phy/stm32_radio_driver/radio.c ****     }
1202:Middlewares/Third_Party/SubGHz_Phy/stm32_radio_driver/radio.c ****     else
1203:Middlewares/Third_Party/SubGHz_Phy/stm32_radio_driver/radio.c ****     {
1204:Middlewares/Third_Party/SubGHz_Phy/stm32_radio_driver/radio.c ****         ceilNumerator += 8;
 314              		.loc 1 1204 9 is_stmt 1 view .LVU86
 315              		.loc 1 1204 23 is_stmt 0 view .LVU87
 316 0048 0CF1080C 		add	ip, ip, #8
 317              	.LVL38:
1205:Middlewares/Third_Party/SubGHz_Phy/stm32_radio_driver/radio.c **** 
1206:Middlewares/Third_Party/SubGHz_Phy/stm32_radio_driver/radio.c ****         if( lowDatareOptimize == true )
 318              		.loc 1 1206 9 is_stmt 1 view .LVU88
 319              		.loc 1 1206 11 is_stmt 0 view .LVU89
 320 004c 0EB1     		cbz	r6, .L30
1207:Middlewares/Third_Party/SubGHz_Phy/stm32_radio_driver/radio.c ****         {
ARM GAS  /var/folders/9y/n02fl3g16gnf7ppy14xghdy80000gn/T//cc8eCeeT.s 			page 28


1208:Middlewares/Third_Party/SubGHz_Phy/stm32_radio_driver/radio.c ****             ceilDenominator = 4 * ( datarate - 2 );
 321              		.loc 1 1208 13 is_stmt 1 view .LVU90
 322              		.loc 1 1208 46 is_stmt 0 view .LVU91
 323 004e 881E     		subs	r0, r1, #2
 324              		.loc 1 1208 33 view .LVU92
 325 0050 8000     		lsls	r0, r0, #2
 326              	.LVL39:
 327              	.L30:
1209:Middlewares/Third_Party/SubGHz_Phy/stm32_radio_driver/radio.c ****         }
1210:Middlewares/Third_Party/SubGHz_Phy/stm32_radio_driver/radio.c ****         else
1211:Middlewares/Third_Party/SubGHz_Phy/stm32_radio_driver/radio.c ****         {
1212:Middlewares/Third_Party/SubGHz_Phy/stm32_radio_driver/radio.c ****             ceilDenominator = 4 * datarate;
1213:Middlewares/Third_Party/SubGHz_Phy/stm32_radio_driver/radio.c ****         }
1214:Middlewares/Third_Party/SubGHz_Phy/stm32_radio_driver/radio.c ****     }
1215:Middlewares/Third_Party/SubGHz_Phy/stm32_radio_driver/radio.c **** 
1216:Middlewares/Third_Party/SubGHz_Phy/stm32_radio_driver/radio.c ****     if( ceilNumerator < 0 )
 328              		.loc 1 1216 5 is_stmt 1 view .LVU93
 329              		.loc 1 1216 7 is_stmt 0 view .LVU94
 330 0052 BCF1000F 		cmp	ip, #0
 331 0056 23DB     		blt	.L44
 332              	.LVL40:
 333              	.L32:
1217:Middlewares/Third_Party/SubGHz_Phy/stm32_radio_driver/radio.c ****     {
1218:Middlewares/Third_Party/SubGHz_Phy/stm32_radio_driver/radio.c ****         ceilNumerator = 0;
1219:Middlewares/Third_Party/SubGHz_Phy/stm32_radio_driver/radio.c ****     }
1220:Middlewares/Third_Party/SubGHz_Phy/stm32_radio_driver/radio.c **** 
1221:Middlewares/Third_Party/SubGHz_Phy/stm32_radio_driver/radio.c ****     // Perform integral ceil()
1222:Middlewares/Third_Party/SubGHz_Phy/stm32_radio_driver/radio.c ****     int32_t intermediate =
 334              		.loc 1 1222 5 is_stmt 1 view .LVU95
1223:Middlewares/Third_Party/SubGHz_Phy/stm32_radio_driver/radio.c ****         ( ( ceilNumerator + ceilDenominator - 1 ) / ceilDenominator ) * crDenom + preambleLen + 12;
 335              		.loc 1 1223 27 is_stmt 0 view .LVU96
 336 0058 8444     		add	ip, ip, r0
 337              	.LVL41:
 338              		.loc 1 1223 45 view .LVU97
 339 005a 0CF1FF3C 		add	ip, ip, #-1
 340              		.loc 1 1223 51 view .LVU98
 341 005e 9CFBF0FC 		sdiv	ip, ip, r0
 342              		.loc 1 1223 81 view .LVU99
 343 0062 02FB0C33 		mla	r3, r2, ip, r3
 344              	.LVL42:
1222:Middlewares/Third_Party/SubGHz_Phy/stm32_radio_driver/radio.c ****         ( ( ceilNumerator + ceilDenominator - 1 ) / ceilDenominator ) * crDenom + preambleLen + 12;
 345              		.loc 1 1222 13 view .LVU100
 346 0066 03F10C00 		add	r0, r3, #12
 347              	.LVL43:
1224:Middlewares/Third_Party/SubGHz_Phy/stm32_radio_driver/radio.c **** 
1225:Middlewares/Third_Party/SubGHz_Phy/stm32_radio_driver/radio.c ****     if( datarate <= 6 )
 348              		.loc 1 1225 5 is_stmt 1 view .LVU101
 349              		.loc 1 1225 7 is_stmt 0 view .LVU102
 350 006a 0629     		cmp	r1, #6
 351 006c 01D8     		bhi	.L33
1226:Middlewares/Third_Party/SubGHz_Phy/stm32_radio_driver/radio.c ****     {
1227:Middlewares/Third_Party/SubGHz_Phy/stm32_radio_driver/radio.c ****         intermediate += 2;
 352              		.loc 1 1227 9 is_stmt 1 view .LVU103
 353              		.loc 1 1227 22 is_stmt 0 view .LVU104
 354 006e 03F10E00 		add	r0, r3, #14
 355              	.LVL44:
 356              	.L33:
ARM GAS  /var/folders/9y/n02fl3g16gnf7ppy14xghdy80000gn/T//cc8eCeeT.s 			page 29


1228:Middlewares/Third_Party/SubGHz_Phy/stm32_radio_driver/radio.c ****     }
1229:Middlewares/Third_Party/SubGHz_Phy/stm32_radio_driver/radio.c **** 
1230:Middlewares/Third_Party/SubGHz_Phy/stm32_radio_driver/radio.c ****     return ( uint32_t )( ( 4 * intermediate + 1 ) * ( 1 << ( datarate - 2 ) ) );
 357              		.loc 1 1230 5 is_stmt 1 view .LVU105
 358              		.loc 1 1230 30 is_stmt 0 view .LVU106
 359 0072 8000     		lsls	r0, r0, #2
 360              	.LVL45:
 361              		.loc 1 1230 45 view .LVU107
 362 0074 0130     		adds	r0, r0, #1
 363              		.loc 1 1230 71 view .LVU108
 364 0076 0239     		subs	r1, r1, #2
 365              	.LVL46:
1231:Middlewares/Third_Party/SubGHz_Phy/stm32_radio_driver/radio.c **** }
 366              		.loc 1 1231 1 view .LVU109
 367 0078 8840     		lsls	r0, r0, r1
 368 007a 70BD     		pop	{r4, r5, r6, pc}
 369              	.LVL47:
 370              	.L42:
1180:Middlewares/Third_Party/SubGHz_Phy/stm32_radio_driver/radio.c ****         {
 371              		.loc 1 1180 9 is_stmt 1 view .LVU110
1180:Middlewares/Third_Party/SubGHz_Phy/stm32_radio_driver/radio.c ****         {
 372              		.loc 1 1180 11 is_stmt 0 view .LVU111
 373 007c 0B2B     		cmp	r3, #11
 374 007e CAD8     		bhi	.L24
1182:Middlewares/Third_Party/SubGHz_Phy/stm32_radio_driver/radio.c ****         }
 375              		.loc 1 1182 25 view .LVU112
 376 0080 0C23     		movs	r3, #12
 377              	.LVL48:
1182:Middlewares/Third_Party/SubGHz_Phy/stm32_radio_driver/radio.c ****         }
 378              		.loc 1 1182 25 view .LVU113
 379 0082 C8E7     		b	.L24
 380              	.LVL49:
 381              	.L43:
1187:Middlewares/Third_Party/SubGHz_Phy/stm32_radio_driver/radio.c ****     {
 382              		.loc 1 1187 30 view .LVU114
 383 0084 0C29     		cmp	r1, #12
 384 0086 03D0     		beq	.L37
1175:Middlewares/Third_Party/SubGHz_Phy/stm32_radio_driver/radio.c **** 
 385              		.loc 1 1175 13 view .LVU115
 386 0088 0026     		movs	r6, #0
 387 008a CCE7     		b	.L26
 388              	.L35:
1189:Middlewares/Third_Party/SubGHz_Phy/stm32_radio_driver/radio.c ****     }
 389              		.loc 1 1189 27 view .LVU116
 390 008c 0126     		movs	r6, #1
 391 008e CAE7     		b	.L26
 392              	.L37:
1189:Middlewares/Third_Party/SubGHz_Phy/stm32_radio_driver/radio.c ****     }
 393              		.loc 1 1189 27 view .LVU117
 394 0090 0126     		movs	r6, #1
 395 0092 C8E7     		b	.L26
 396              	.LVL50:
 397              	.L38:
1194:Middlewares/Third_Party/SubGHz_Phy/stm32_radio_driver/radio.c ****                             ( 4 * datarate ) +
 398              		.loc 1 1194 42 view .LVU118
 399 0094 4FF0000C 		mov	ip, #0
 400 0098 CCE7     		b	.L27
ARM GAS  /var/folders/9y/n02fl3g16gnf7ppy14xghdy80000gn/T//cc8eCeeT.s 			page 30


 401              	.LVL51:
 402              	.L39:
1196:Middlewares/Third_Party/SubGHz_Phy/stm32_radio_driver/radio.c **** 
 403              		.loc 1 1196 42 view .LVU119
 404 009a 4FF0140C 		mov	ip, #20
 405 009e D0E7     		b	.L28
 406              	.LVL52:
 407              	.L44:
1218:Middlewares/Third_Party/SubGHz_Phy/stm32_radio_driver/radio.c ****     }
 408              		.loc 1 1218 23 view .LVU120
 409 00a0 4FF0000C 		mov	ip, #0
 410              	.LVL53:
1218:Middlewares/Third_Party/SubGHz_Phy/stm32_radio_driver/radio.c ****     }
 411              		.loc 1 1218 23 view .LVU121
 412 00a4 D8E7     		b	.L32
 413              		.cfi_endproc
 414              	.LFE1174:
 416              		.section	.text.RadioTimeOnAir,"ax",%progbits
 417              		.align	1
 418              		.syntax unified
 419              		.thumb
 420              		.thumb_func
 421              		.fpu softvfp
 423              	RadioTimeOnAir:
 424              	.LVL54:
 425              	.LFB1175:
1232:Middlewares/Third_Party/SubGHz_Phy/stm32_radio_driver/radio.c **** 
1233:Middlewares/Third_Party/SubGHz_Phy/stm32_radio_driver/radio.c **** static uint32_t RadioTimeOnAir( RadioModems_t modem, uint32_t bandwidth,
1234:Middlewares/Third_Party/SubGHz_Phy/stm32_radio_driver/radio.c ****                                 uint32_t datarate, uint8_t coderate,
1235:Middlewares/Third_Party/SubGHz_Phy/stm32_radio_driver/radio.c ****                                 uint16_t preambleLen, bool fixLen, uint8_t payloadLen,
1236:Middlewares/Third_Party/SubGHz_Phy/stm32_radio_driver/radio.c ****                                 bool crcOn )
1237:Middlewares/Third_Party/SubGHz_Phy/stm32_radio_driver/radio.c **** {
 426              		.loc 1 1237 1 is_stmt 1 view -0
 427              		.cfi_startproc
 428              		@ args = 16, pretend = 0, frame = 0
 429              		@ frame_needed = 0, uses_anonymous_args = 0
 430              		.loc 1 1237 1 is_stmt 0 view .LVU123
 431 0000 F0B5     		push	{r4, r5, r6, r7, lr}
 432              		.cfi_def_cfa_offset 20
 433              		.cfi_offset 4, -20
 434              		.cfi_offset 5, -16
 435              		.cfi_offset 6, -12
 436              		.cfi_offset 7, -8
 437              		.cfi_offset 14, -4
 438 0002 85B0     		sub	sp, sp, #20
 439              		.cfi_def_cfa_offset 40
 440 0004 0E46     		mov	r6, r1
 441 0006 1546     		mov	r5, r2
 442 0008 1946     		mov	r1, r3
 443              	.LVL55:
 444              		.loc 1 1237 1 view .LVU124
 445 000a BDF82820 		ldrh	r2, [sp, #40]
 446              	.LVL56:
 447              		.loc 1 1237 1 view .LVU125
 448 000e 9DF82C30 		ldrb	r3, [sp, #44]	@ zero_extendqisi2
 449              	.LVL57:
 450              		.loc 1 1237 1 view .LVU126
ARM GAS  /var/folders/9y/n02fl3g16gnf7ppy14xghdy80000gn/T//cc8eCeeT.s 			page 31


 451 0012 9DF83070 		ldrb	r7, [sp, #48]	@ zero_extendqisi2
 452 0016 9DF834C0 		ldrb	ip, [sp, #52]	@ zero_extendqisi2
1238:Middlewares/Third_Party/SubGHz_Phy/stm32_radio_driver/radio.c ****     uint32_t numerator = 0;
 453              		.loc 1 1238 5 is_stmt 1 view .LVU127
 454              	.LVL58:
1239:Middlewares/Third_Party/SubGHz_Phy/stm32_radio_driver/radio.c ****     uint32_t denominator = 1;
 455              		.loc 1 1239 5 view .LVU128
1240:Middlewares/Third_Party/SubGHz_Phy/stm32_radio_driver/radio.c **** 
1241:Middlewares/Third_Party/SubGHz_Phy/stm32_radio_driver/radio.c ****     switch( modem )
 456              		.loc 1 1241 5 view .LVU129
 457 001a 48B1     		cbz	r0, .L46
 458 001c 0128     		cmp	r0, #1
 459 001e 12D0     		beq	.L47
 460 0020 0125     		movs	r5, #1
 461              	.LVL59:
 462              		.loc 1 1241 5 is_stmt 0 view .LVU130
 463 0022 0024     		movs	r4, #0
 464              	.LVL60:
 465              	.L48:
1242:Middlewares/Third_Party/SubGHz_Phy/stm32_radio_driver/radio.c ****     {
1243:Middlewares/Third_Party/SubGHz_Phy/stm32_radio_driver/radio.c ****     case MODEM_FSK:
1244:Middlewares/Third_Party/SubGHz_Phy/stm32_radio_driver/radio.c ****         {
1245:Middlewares/Third_Party/SubGHz_Phy/stm32_radio_driver/radio.c ****             numerator   = 1000U * RadioGetGfskTimeOnAirNumerator( datarate, coderate,
1246:Middlewares/Third_Party/SubGHz_Phy/stm32_radio_driver/radio.c ****                                                                   preambleLen, fixLen,
1247:Middlewares/Third_Party/SubGHz_Phy/stm32_radio_driver/radio.c ****                                                                   payloadLen, crcOn );
1248:Middlewares/Third_Party/SubGHz_Phy/stm32_radio_driver/radio.c ****             denominator = datarate;
1249:Middlewares/Third_Party/SubGHz_Phy/stm32_radio_driver/radio.c ****         }
1250:Middlewares/Third_Party/SubGHz_Phy/stm32_radio_driver/radio.c ****         break;
1251:Middlewares/Third_Party/SubGHz_Phy/stm32_radio_driver/radio.c ****     case MODEM_LORA:
1252:Middlewares/Third_Party/SubGHz_Phy/stm32_radio_driver/radio.c ****         {
1253:Middlewares/Third_Party/SubGHz_Phy/stm32_radio_driver/radio.c ****             numerator   = 1000U * RadioGetLoRaTimeOnAirNumerator( bandwidth, datarate,
1254:Middlewares/Third_Party/SubGHz_Phy/stm32_radio_driver/radio.c ****                                                                   coderate, preambleLen,
1255:Middlewares/Third_Party/SubGHz_Phy/stm32_radio_driver/radio.c ****                                                                   fixLen, payloadLen, crcOn );
1256:Middlewares/Third_Party/SubGHz_Phy/stm32_radio_driver/radio.c ****             denominator = RadioGetLoRaBandwidthInHz( Bandwidths[bandwidth] );
1257:Middlewares/Third_Party/SubGHz_Phy/stm32_radio_driver/radio.c ****         }
1258:Middlewares/Third_Party/SubGHz_Phy/stm32_radio_driver/radio.c ****         break;
1259:Middlewares/Third_Party/SubGHz_Phy/stm32_radio_driver/radio.c ****     default:
1260:Middlewares/Third_Party/SubGHz_Phy/stm32_radio_driver/radio.c ****         break;
1261:Middlewares/Third_Party/SubGHz_Phy/stm32_radio_driver/radio.c ****     }
1262:Middlewares/Third_Party/SubGHz_Phy/stm32_radio_driver/radio.c ****     // Perform integral ceil()
1263:Middlewares/Third_Party/SubGHz_Phy/stm32_radio_driver/radio.c ****     return DIVC( numerator, denominator ); /* ST_WORKAROUND : simplified calculation with macro usa
 466              		.loc 1 1263 5 is_stmt 1 view .LVU131
 467              		.loc 1 1263 12 is_stmt 0 view .LVU132
 468 0024 2C44     		add	r4, r4, r5
 469              	.LVL61:
 470              		.loc 1 1263 12 view .LVU133
 471 0026 601E     		subs	r0, r4, #1
1264:Middlewares/Third_Party/SubGHz_Phy/stm32_radio_driver/radio.c **** }
 472              		.loc 1 1264 1 view .LVU134
 473 0028 B0FBF5F0 		udiv	r0, r0, r5
 474 002c 05B0     		add	sp, sp, #20
 475              		.cfi_remember_state
 476              		.cfi_def_cfa_offset 20
 477              		@ sp needed
 478 002e F0BD     		pop	{r4, r5, r6, r7, pc}
 479              	.LVL62:
 480              	.L46:
ARM GAS  /var/folders/9y/n02fl3g16gnf7ppy14xghdy80000gn/T//cc8eCeeT.s 			page 32


 481              		.cfi_restore_state
1245:Middlewares/Third_Party/SubGHz_Phy/stm32_radio_driver/radio.c ****                                                                   preambleLen, fixLen,
 482              		.loc 1 1245 13 is_stmt 1 view .LVU135
1245:Middlewares/Third_Party/SubGHz_Phy/stm32_radio_driver/radio.c ****                                                                   preambleLen, fixLen,
 483              		.loc 1 1245 35 is_stmt 0 view .LVU136
 484 0030 CDF804C0 		str	ip, [sp, #4]
 485 0034 0097     		str	r7, [sp]
 486 0036 2846     		mov	r0, r5
 487              	.LVL63:
1245:Middlewares/Third_Party/SubGHz_Phy/stm32_radio_driver/radio.c ****                                                                   preambleLen, fixLen,
 488              		.loc 1 1245 35 view .LVU137
 489 0038 FFF7FEFF 		bl	RadioGetGfskTimeOnAirNumerator
 490              	.LVL64:
1245:Middlewares/Third_Party/SubGHz_Phy/stm32_radio_driver/radio.c ****                                                                   preambleLen, fixLen,
 491              		.loc 1 1245 25 view .LVU138
 492 003c 4FF47A74 		mov	r4, #1000
 493 0040 00FB04F4 		mul	r4, r0, r4
 494              	.LVL65:
1248:Middlewares/Third_Party/SubGHz_Phy/stm32_radio_driver/radio.c ****         }
 495              		.loc 1 1248 13 is_stmt 1 view .LVU139
1250:Middlewares/Third_Party/SubGHz_Phy/stm32_radio_driver/radio.c ****     case MODEM_LORA:
 496              		.loc 1 1250 9 view .LVU140
 497 0044 EEE7     		b	.L48
 498              	.LVL66:
 499              	.L47:
1253:Middlewares/Third_Party/SubGHz_Phy/stm32_radio_driver/radio.c ****                                                                   coderate, preambleLen,
 500              		.loc 1 1253 13 view .LVU141
1253:Middlewares/Third_Party/SubGHz_Phy/stm32_radio_driver/radio.c ****                                                                   coderate, preambleLen,
 501              		.loc 1 1253 35 is_stmt 0 view .LVU142
 502 0046 CDF808C0 		str	ip, [sp, #8]
 503 004a 0197     		str	r7, [sp, #4]
 504 004c 0093     		str	r3, [sp]
 505 004e 1346     		mov	r3, r2
 506 0050 0A46     		mov	r2, r1
 507 0052 2946     		mov	r1, r5
 508 0054 3046     		mov	r0, r6
 509              	.LVL67:
1253:Middlewares/Third_Party/SubGHz_Phy/stm32_radio_driver/radio.c ****                                                                   coderate, preambleLen,
 510              		.loc 1 1253 35 view .LVU143
 511 0056 FFF7FEFF 		bl	RadioGetLoRaTimeOnAirNumerator
 512              	.LVL68:
1253:Middlewares/Third_Party/SubGHz_Phy/stm32_radio_driver/radio.c ****                                                                   coderate, preambleLen,
 513              		.loc 1 1253 25 view .LVU144
 514 005a 4FF47A74 		mov	r4, #1000
 515 005e 00FB04F4 		mul	r4, r0, r4
 516              	.LVL69:
1256:Middlewares/Third_Party/SubGHz_Phy/stm32_radio_driver/radio.c ****         }
 517              		.loc 1 1256 13 is_stmt 1 view .LVU145
1256:Middlewares/Third_Party/SubGHz_Phy/stm32_radio_driver/radio.c ****         }
 518              		.loc 1 1256 27 is_stmt 0 view .LVU146
 519 0062 034B     		ldr	r3, .L50
 520 0064 985D     		ldrb	r0, [r3, r6]	@ zero_extendqisi2
 521 0066 FFF7FEFF 		bl	RadioGetLoRaBandwidthInHz
 522              	.LVL70:
 523 006a 0546     		mov	r5, r0
 524              	.LVL71:
1258:Middlewares/Third_Party/SubGHz_Phy/stm32_radio_driver/radio.c ****     default:
ARM GAS  /var/folders/9y/n02fl3g16gnf7ppy14xghdy80000gn/T//cc8eCeeT.s 			page 33


 525              		.loc 1 1258 9 is_stmt 1 view .LVU147
 526 006c DAE7     		b	.L48
 527              	.L51:
 528 006e 00BF     		.align	2
 529              	.L50:
 530 0070 00000000 		.word	.LANCHOR0
 531              		.cfi_endproc
 532              	.LFE1175:
 534              		.section	.text.RadioOnTxTimeoutProcess,"ax",%progbits
 535              		.align	1
 536              		.syntax unified
 537              		.thumb
 538              		.thumb_func
 539              		.fpu softvfp
 541              	RadioOnTxTimeoutProcess:
 542              	.LFB1194:
1265:Middlewares/Third_Party/SubGHz_Phy/stm32_radio_driver/radio.c **** 
1266:Middlewares/Third_Party/SubGHz_Phy/stm32_radio_driver/radio.c **** static void RadioSend( uint8_t *buffer, uint8_t size )
1267:Middlewares/Third_Party/SubGHz_Phy/stm32_radio_driver/radio.c **** {
1268:Middlewares/Third_Party/SubGHz_Phy/stm32_radio_driver/radio.c ****     /* ST_WORKAROUND_BEGIN : Set the debug pin and update the radio switch */
1269:Middlewares/Third_Party/SubGHz_Phy/stm32_radio_driver/radio.c ****     SUBGRF_SetDioIrqParams( IRQ_TX_DONE | IRQ_RX_TX_TIMEOUT | IRQ_TX_DBG,
1270:Middlewares/Third_Party/SubGHz_Phy/stm32_radio_driver/radio.c ****                             IRQ_TX_DONE | IRQ_RX_TX_TIMEOUT | IRQ_TX_DBG,
1271:Middlewares/Third_Party/SubGHz_Phy/stm32_radio_driver/radio.c ****                             IRQ_RADIO_NONE,
1272:Middlewares/Third_Party/SubGHz_Phy/stm32_radio_driver/radio.c ****                             IRQ_RADIO_NONE );
1273:Middlewares/Third_Party/SubGHz_Phy/stm32_radio_driver/radio.c ****     /* ST_WORKAROUND_END */
1274:Middlewares/Third_Party/SubGHz_Phy/stm32_radio_driver/radio.c **** 
1275:Middlewares/Third_Party/SubGHz_Phy/stm32_radio_driver/radio.c ****     /* ST_WORKAROUND_BEGIN : Set the debug pin and update the radio switch */
1276:Middlewares/Third_Party/SubGHz_Phy/stm32_radio_driver/radio.c ****     /* Set DBG pin */
1277:Middlewares/Third_Party/SubGHz_Phy/stm32_radio_driver/radio.c ****     DBG_GPIO_RADIO_TX( SET );
1278:Middlewares/Third_Party/SubGHz_Phy/stm32_radio_driver/radio.c **** 
1279:Middlewares/Third_Party/SubGHz_Phy/stm32_radio_driver/radio.c ****     /* Set RF switch */
1280:Middlewares/Third_Party/SubGHz_Phy/stm32_radio_driver/radio.c ****     SUBGRF_SetSwitch( SubgRf.AntSwitchPaSelect, RFSWITCH_TX );
1281:Middlewares/Third_Party/SubGHz_Phy/stm32_radio_driver/radio.c ****     /* WORKAROUND - Modulation Quality with 500 kHz LoRaTM Bandwidth*/
1282:Middlewares/Third_Party/SubGHz_Phy/stm32_radio_driver/radio.c ****     /* RegTxModulation = @address 0x0889 */
1283:Middlewares/Third_Party/SubGHz_Phy/stm32_radio_driver/radio.c ****     if( ( SubgRf.Modem == MODEM_LORA ) && ( SubgRf.ModulationParams.Params.LoRa.Bandwidth == LORA_B
1284:Middlewares/Third_Party/SubGHz_Phy/stm32_radio_driver/radio.c ****     {
1285:Middlewares/Third_Party/SubGHz_Phy/stm32_radio_driver/radio.c ****         SUBGRF_WriteRegister( SUBGHZ_SDCFG0R, SUBGRF_ReadRegister( SUBGHZ_SDCFG0R ) & ~( 1 << 2 ) )
1286:Middlewares/Third_Party/SubGHz_Phy/stm32_radio_driver/radio.c ****     }
1287:Middlewares/Third_Party/SubGHz_Phy/stm32_radio_driver/radio.c ****     else
1288:Middlewares/Third_Party/SubGHz_Phy/stm32_radio_driver/radio.c ****     {
1289:Middlewares/Third_Party/SubGHz_Phy/stm32_radio_driver/radio.c ****         SUBGRF_WriteRegister( SUBGHZ_SDCFG0R, SUBGRF_ReadRegister( SUBGHZ_SDCFG0R ) | ( 1 << 2 ) );
1290:Middlewares/Third_Party/SubGHz_Phy/stm32_radio_driver/radio.c ****     }
1291:Middlewares/Third_Party/SubGHz_Phy/stm32_radio_driver/radio.c ****     /* WORKAROUND END */
1292:Middlewares/Third_Party/SubGHz_Phy/stm32_radio_driver/radio.c ****     switch( SubgRf.Modem )
1293:Middlewares/Third_Party/SubGHz_Phy/stm32_radio_driver/radio.c ****     {
1294:Middlewares/Third_Party/SubGHz_Phy/stm32_radio_driver/radio.c ****         case MODEM_LORA:
1295:Middlewares/Third_Party/SubGHz_Phy/stm32_radio_driver/radio.c ****         {
1296:Middlewares/Third_Party/SubGHz_Phy/stm32_radio_driver/radio.c ****             SubgRf.PacketParams.Params.LoRa.PayloadLength = size;
1297:Middlewares/Third_Party/SubGHz_Phy/stm32_radio_driver/radio.c ****             SUBGRF_SetPacketParams( &SubgRf.PacketParams );
1298:Middlewares/Third_Party/SubGHz_Phy/stm32_radio_driver/radio.c ****             SUBGRF_SendPayload( buffer, size, 0 );
1299:Middlewares/Third_Party/SubGHz_Phy/stm32_radio_driver/radio.c ****             break;
1300:Middlewares/Third_Party/SubGHz_Phy/stm32_radio_driver/radio.c ****         }
1301:Middlewares/Third_Party/SubGHz_Phy/stm32_radio_driver/radio.c ****         case MODEM_MSK:
1302:Middlewares/Third_Party/SubGHz_Phy/stm32_radio_driver/radio.c ****         case MODEM_FSK:
1303:Middlewares/Third_Party/SubGHz_Phy/stm32_radio_driver/radio.c ****         {
1304:Middlewares/Third_Party/SubGHz_Phy/stm32_radio_driver/radio.c ****             if ( 1UL == RFW_Is_Init( ) )
1305:Middlewares/Third_Party/SubGHz_Phy/stm32_radio_driver/radio.c ****             {
ARM GAS  /var/folders/9y/n02fl3g16gnf7ppy14xghdy80000gn/T//cc8eCeeT.s 			page 34


1306:Middlewares/Third_Party/SubGHz_Phy/stm32_radio_driver/radio.c ****               uint8_t outsize;
1307:Middlewares/Third_Party/SubGHz_Phy/stm32_radio_driver/radio.c ****               if ( 0UL == RFW_TransmitInit( buffer,size, &outsize ) )
1308:Middlewares/Third_Party/SubGHz_Phy/stm32_radio_driver/radio.c ****               {
1309:Middlewares/Third_Party/SubGHz_Phy/stm32_radio_driver/radio.c ****                   SubgRf.PacketParams.Params.Gfsk.PayloadLength = outsize;
1310:Middlewares/Third_Party/SubGHz_Phy/stm32_radio_driver/radio.c ****                   SUBGRF_SetPacketParams( &SubgRf.PacketParams );
1311:Middlewares/Third_Party/SubGHz_Phy/stm32_radio_driver/radio.c ****                   SUBGRF_SendPayload( buffer, outsize, 0 );
1312:Middlewares/Third_Party/SubGHz_Phy/stm32_radio_driver/radio.c ****               }
1313:Middlewares/Third_Party/SubGHz_Phy/stm32_radio_driver/radio.c ****               else
1314:Middlewares/Third_Party/SubGHz_Phy/stm32_radio_driver/radio.c ****               {
1315:Middlewares/Third_Party/SubGHz_Phy/stm32_radio_driver/radio.c ****                 MW_LOG( TS_ON, VLEVEL_M, "RadioSend Oversize\r\n");
1316:Middlewares/Third_Party/SubGHz_Phy/stm32_radio_driver/radio.c ****                 return;
1317:Middlewares/Third_Party/SubGHz_Phy/stm32_radio_driver/radio.c ****               }
1318:Middlewares/Third_Party/SubGHz_Phy/stm32_radio_driver/radio.c ****             }
1319:Middlewares/Third_Party/SubGHz_Phy/stm32_radio_driver/radio.c ****             else
1320:Middlewares/Third_Party/SubGHz_Phy/stm32_radio_driver/radio.c ****             {
1321:Middlewares/Third_Party/SubGHz_Phy/stm32_radio_driver/radio.c ****               SubgRf.PacketParams.Params.Gfsk.PayloadLength = size;
1322:Middlewares/Third_Party/SubGHz_Phy/stm32_radio_driver/radio.c ****               SUBGRF_SetPacketParams( &SubgRf.PacketParams );
1323:Middlewares/Third_Party/SubGHz_Phy/stm32_radio_driver/radio.c ****               SUBGRF_SendPayload( buffer, size, 0 );
1324:Middlewares/Third_Party/SubGHz_Phy/stm32_radio_driver/radio.c ****             }
1325:Middlewares/Third_Party/SubGHz_Phy/stm32_radio_driver/radio.c ****             break;
1326:Middlewares/Third_Party/SubGHz_Phy/stm32_radio_driver/radio.c ****         }
1327:Middlewares/Third_Party/SubGHz_Phy/stm32_radio_driver/radio.c ****         case MODEM_BPSK:
1328:Middlewares/Third_Party/SubGHz_Phy/stm32_radio_driver/radio.c ****         {
1329:Middlewares/Third_Party/SubGHz_Phy/stm32_radio_driver/radio.c ****             SubgRf.PacketParams.PacketType = PACKET_TYPE_BPSK;
1330:Middlewares/Third_Party/SubGHz_Phy/stm32_radio_driver/radio.c ****             SubgRf.PacketParams.Params.Bpsk.PayloadLength = size;
1331:Middlewares/Third_Party/SubGHz_Phy/stm32_radio_driver/radio.c ****             SUBGRF_SetPacketParams( &SubgRf.PacketParams );
1332:Middlewares/Third_Party/SubGHz_Phy/stm32_radio_driver/radio.c ****             SUBGRF_SendPayload( buffer, size, 0 );
1333:Middlewares/Third_Party/SubGHz_Phy/stm32_radio_driver/radio.c ****             break;
1334:Middlewares/Third_Party/SubGHz_Phy/stm32_radio_driver/radio.c ****         }
1335:Middlewares/Third_Party/SubGHz_Phy/stm32_radio_driver/radio.c **** #if (RADIO_SIGFOX_ENABLE == 1)
1336:Middlewares/Third_Party/SubGHz_Phy/stm32_radio_driver/radio.c ****         case MODEM_SIGFOX_TX:
1337:Middlewares/Third_Party/SubGHz_Phy/stm32_radio_driver/radio.c ****         {
1338:Middlewares/Third_Party/SubGHz_Phy/stm32_radio_driver/radio.c ****             /* from bpsk to dbpsk */
1339:Middlewares/Third_Party/SubGHz_Phy/stm32_radio_driver/radio.c ****             /* first 1 bit duplicated */
1340:Middlewares/Third_Party/SubGHz_Phy/stm32_radio_driver/radio.c ****             /* RadioBuffer is 1 bytes more */
1341:Middlewares/Third_Party/SubGHz_Phy/stm32_radio_driver/radio.c ****             payload_integration( RadioBuffer, buffer, size );
1342:Middlewares/Third_Party/SubGHz_Phy/stm32_radio_driver/radio.c **** 
1343:Middlewares/Third_Party/SubGHz_Phy/stm32_radio_driver/radio.c ****             SubgRf.PacketParams.PacketType = PACKET_TYPE_BPSK;
1344:Middlewares/Third_Party/SubGHz_Phy/stm32_radio_driver/radio.c ****             SubgRf.PacketParams.Params.Bpsk.PayloadLength = size + 1;
1345:Middlewares/Third_Party/SubGHz_Phy/stm32_radio_driver/radio.c ****             SUBGRF_SetPacketParams( &SubgRf.PacketParams );
1346:Middlewares/Third_Party/SubGHz_Phy/stm32_radio_driver/radio.c **** 
1347:Middlewares/Third_Party/SubGHz_Phy/stm32_radio_driver/radio.c ****             RadioWrite( SUBGHZ_RAM_RAMPUPL, 0 ); // clean start-up LSB
1348:Middlewares/Third_Party/SubGHz_Phy/stm32_radio_driver/radio.c ****             RadioWrite( SUBGHZ_RAM_RAMPUPH, 0 ); // clean start-up MSB
1349:Middlewares/Third_Party/SubGHz_Phy/stm32_radio_driver/radio.c ****             if( SubgRf.ModulationParams.Params.Bpsk.BitRate == 100 )
1350:Middlewares/Third_Party/SubGHz_Phy/stm32_radio_driver/radio.c ****             {
1351:Middlewares/Third_Party/SubGHz_Phy/stm32_radio_driver/radio.c ****                 RadioWrite( SUBGHZ_RAM_RAMPDNL, 0x70 ); // clean end of frame LSB
1352:Middlewares/Third_Party/SubGHz_Phy/stm32_radio_driver/radio.c ****                 RadioWrite( SUBGHZ_RAM_RAMPDNH, 0x1D ); // clean end of frame MSB
1353:Middlewares/Third_Party/SubGHz_Phy/stm32_radio_driver/radio.c ****             }
1354:Middlewares/Third_Party/SubGHz_Phy/stm32_radio_driver/radio.c ****             else // 600 bps
1355:Middlewares/Third_Party/SubGHz_Phy/stm32_radio_driver/radio.c ****             {
1356:Middlewares/Third_Party/SubGHz_Phy/stm32_radio_driver/radio.c ****                 RadioWrite( SUBGHZ_RAM_RAMPDNL, 0xE1 ); // clean end of frame LSB
1357:Middlewares/Third_Party/SubGHz_Phy/stm32_radio_driver/radio.c ****                 RadioWrite( SUBGHZ_RAM_RAMPDNH, 0x04 ); // clean end of frame MSB
1358:Middlewares/Third_Party/SubGHz_Phy/stm32_radio_driver/radio.c ****             }
1359:Middlewares/Third_Party/SubGHz_Phy/stm32_radio_driver/radio.c **** 
1360:Middlewares/Third_Party/SubGHz_Phy/stm32_radio_driver/radio.c ****             uint16_t bitNum = ( size * 8 ) + 2;
1361:Middlewares/Third_Party/SubGHz_Phy/stm32_radio_driver/radio.c ****             RadioWrite( SUBGHZ_RAM_FRAMELIMH, ( bitNum >> 8 ) & 0x00FF );    // limit frame
1362:Middlewares/Third_Party/SubGHz_Phy/stm32_radio_driver/radio.c ****             RadioWrite( SUBGHZ_RAM_FRAMELIML, bitNum & 0x00FF );             // limit frame
ARM GAS  /var/folders/9y/n02fl3g16gnf7ppy14xghdy80000gn/T//cc8eCeeT.s 			page 35


1363:Middlewares/Third_Party/SubGHz_Phy/stm32_radio_driver/radio.c ****             SUBGRF_SendPayload( RadioBuffer, size+1 , 0xFFFFFF );
1364:Middlewares/Third_Party/SubGHz_Phy/stm32_radio_driver/radio.c ****             break;
1365:Middlewares/Third_Party/SubGHz_Phy/stm32_radio_driver/radio.c ****         }
1366:Middlewares/Third_Party/SubGHz_Phy/stm32_radio_driver/radio.c **** #endif /*RADIO_SIGFOX_ENABLE == 1*/
1367:Middlewares/Third_Party/SubGHz_Phy/stm32_radio_driver/radio.c ****         default:
1368:Middlewares/Third_Party/SubGHz_Phy/stm32_radio_driver/radio.c ****             break;
1369:Middlewares/Third_Party/SubGHz_Phy/stm32_radio_driver/radio.c ****     }
1370:Middlewares/Third_Party/SubGHz_Phy/stm32_radio_driver/radio.c **** 
1371:Middlewares/Third_Party/SubGHz_Phy/stm32_radio_driver/radio.c ****     TimerSetValue( &TxTimeoutTimer, SubgRf.TxTimeout );
1372:Middlewares/Third_Party/SubGHz_Phy/stm32_radio_driver/radio.c ****     TimerStart( &TxTimeoutTimer );
1373:Middlewares/Third_Party/SubGHz_Phy/stm32_radio_driver/radio.c **** }
1374:Middlewares/Third_Party/SubGHz_Phy/stm32_radio_driver/radio.c **** 
1375:Middlewares/Third_Party/SubGHz_Phy/stm32_radio_driver/radio.c **** static void RadioSleep( void )
1376:Middlewares/Third_Party/SubGHz_Phy/stm32_radio_driver/radio.c **** {
1377:Middlewares/Third_Party/SubGHz_Phy/stm32_radio_driver/radio.c ****     SleepParams_t params = { 0 };
1378:Middlewares/Third_Party/SubGHz_Phy/stm32_radio_driver/radio.c **** 
1379:Middlewares/Third_Party/SubGHz_Phy/stm32_radio_driver/radio.c ****     params.Fields.WarmStart = 1;
1380:Middlewares/Third_Party/SubGHz_Phy/stm32_radio_driver/radio.c ****     SUBGRF_SetSleep( params );
1381:Middlewares/Third_Party/SubGHz_Phy/stm32_radio_driver/radio.c **** 
1382:Middlewares/Third_Party/SubGHz_Phy/stm32_radio_driver/radio.c ****     RADIO_DELAY_MS( 2 );
1383:Middlewares/Third_Party/SubGHz_Phy/stm32_radio_driver/radio.c **** }
1384:Middlewares/Third_Party/SubGHz_Phy/stm32_radio_driver/radio.c **** 
1385:Middlewares/Third_Party/SubGHz_Phy/stm32_radio_driver/radio.c **** static void RadioStandby( void )
1386:Middlewares/Third_Party/SubGHz_Phy/stm32_radio_driver/radio.c **** {
1387:Middlewares/Third_Party/SubGHz_Phy/stm32_radio_driver/radio.c ****     SUBGRF_SetStandby( STDBY_RC );
1388:Middlewares/Third_Party/SubGHz_Phy/stm32_radio_driver/radio.c **** }
1389:Middlewares/Third_Party/SubGHz_Phy/stm32_radio_driver/radio.c **** 
1390:Middlewares/Third_Party/SubGHz_Phy/stm32_radio_driver/radio.c **** static void RadioRx( uint32_t timeout )
1391:Middlewares/Third_Party/SubGHz_Phy/stm32_radio_driver/radio.c **** {
1392:Middlewares/Third_Party/SubGHz_Phy/stm32_radio_driver/radio.c ****     if( 1UL == RFW_Is_Init( ) )
1393:Middlewares/Third_Party/SubGHz_Phy/stm32_radio_driver/radio.c ****     {
1394:Middlewares/Third_Party/SubGHz_Phy/stm32_radio_driver/radio.c ****         RFW_ReceiveInit( );
1395:Middlewares/Third_Party/SubGHz_Phy/stm32_radio_driver/radio.c ****     }
1396:Middlewares/Third_Party/SubGHz_Phy/stm32_radio_driver/radio.c ****     else
1397:Middlewares/Third_Party/SubGHz_Phy/stm32_radio_driver/radio.c ****     {
1398:Middlewares/Third_Party/SubGHz_Phy/stm32_radio_driver/radio.c ****         SUBGRF_SetDioIrqParams( IRQ_RX_DONE | IRQ_RX_TX_TIMEOUT | IRQ_CRC_ERROR | IRQ_HEADER_ERROR 
1399:Middlewares/Third_Party/SubGHz_Phy/stm32_radio_driver/radio.c ****                                 IRQ_RX_DONE | IRQ_RX_TX_TIMEOUT | IRQ_CRC_ERROR | IRQ_HEADER_ERROR 
1400:Middlewares/Third_Party/SubGHz_Phy/stm32_radio_driver/radio.c ****                                 IRQ_RADIO_NONE,
1401:Middlewares/Third_Party/SubGHz_Phy/stm32_radio_driver/radio.c ****                                 IRQ_RADIO_NONE );
1402:Middlewares/Third_Party/SubGHz_Phy/stm32_radio_driver/radio.c ****     }
1403:Middlewares/Third_Party/SubGHz_Phy/stm32_radio_driver/radio.c **** 
1404:Middlewares/Third_Party/SubGHz_Phy/stm32_radio_driver/radio.c ****     if( timeout != 0 )
1405:Middlewares/Third_Party/SubGHz_Phy/stm32_radio_driver/radio.c ****     {
1406:Middlewares/Third_Party/SubGHz_Phy/stm32_radio_driver/radio.c ****         TimerSetValue( &RxTimeoutTimer, timeout );
1407:Middlewares/Third_Party/SubGHz_Phy/stm32_radio_driver/radio.c ****         TimerStart( &RxTimeoutTimer );
1408:Middlewares/Third_Party/SubGHz_Phy/stm32_radio_driver/radio.c ****     }
1409:Middlewares/Third_Party/SubGHz_Phy/stm32_radio_driver/radio.c ****     /* ST_WORKAROUND_BEGIN : Set the debug pin and update the radio switch */
1410:Middlewares/Third_Party/SubGHz_Phy/stm32_radio_driver/radio.c ****     /* switch off RxDcPreambleDetect See STM32WL Errata: RadioSetRxDutyCycle*/
1411:Middlewares/Third_Party/SubGHz_Phy/stm32_radio_driver/radio.c ****     SubgRf.RxDcPreambleDetectTimeout = 0;
1412:Middlewares/Third_Party/SubGHz_Phy/stm32_radio_driver/radio.c ****     /* Set DBG pin */
1413:Middlewares/Third_Party/SubGHz_Phy/stm32_radio_driver/radio.c ****     DBG_GPIO_RADIO_RX( SET );
1414:Middlewares/Third_Party/SubGHz_Phy/stm32_radio_driver/radio.c ****     /* RF switch configuration */
1415:Middlewares/Third_Party/SubGHz_Phy/stm32_radio_driver/radio.c ****     SUBGRF_SetSwitch( SubgRf.AntSwitchPaSelect, RFSWITCH_RX );
1416:Middlewares/Third_Party/SubGHz_Phy/stm32_radio_driver/radio.c ****     /* ST_WORKAROUND_END */
1417:Middlewares/Third_Party/SubGHz_Phy/stm32_radio_driver/radio.c **** 
1418:Middlewares/Third_Party/SubGHz_Phy/stm32_radio_driver/radio.c ****     if( SubgRf.RxContinuous == true )
1419:Middlewares/Third_Party/SubGHz_Phy/stm32_radio_driver/radio.c ****     {
ARM GAS  /var/folders/9y/n02fl3g16gnf7ppy14xghdy80000gn/T//cc8eCeeT.s 			page 36


1420:Middlewares/Third_Party/SubGHz_Phy/stm32_radio_driver/radio.c ****         SUBGRF_SetRx( 0xFFFFFF ); // Rx Continuous
1421:Middlewares/Third_Party/SubGHz_Phy/stm32_radio_driver/radio.c ****     }
1422:Middlewares/Third_Party/SubGHz_Phy/stm32_radio_driver/radio.c ****     else
1423:Middlewares/Third_Party/SubGHz_Phy/stm32_radio_driver/radio.c ****     {
1424:Middlewares/Third_Party/SubGHz_Phy/stm32_radio_driver/radio.c ****         SUBGRF_SetRx( SubgRf.RxTimeout << 6 );
1425:Middlewares/Third_Party/SubGHz_Phy/stm32_radio_driver/radio.c ****     }
1426:Middlewares/Third_Party/SubGHz_Phy/stm32_radio_driver/radio.c **** }
1427:Middlewares/Third_Party/SubGHz_Phy/stm32_radio_driver/radio.c **** 
1428:Middlewares/Third_Party/SubGHz_Phy/stm32_radio_driver/radio.c **** static void RadioRxBoosted( uint32_t timeout )
1429:Middlewares/Third_Party/SubGHz_Phy/stm32_radio_driver/radio.c **** {
1430:Middlewares/Third_Party/SubGHz_Phy/stm32_radio_driver/radio.c ****     if( 1UL == RFW_Is_Init() )
1431:Middlewares/Third_Party/SubGHz_Phy/stm32_radio_driver/radio.c ****     {
1432:Middlewares/Third_Party/SubGHz_Phy/stm32_radio_driver/radio.c ****         RFW_ReceiveInit();
1433:Middlewares/Third_Party/SubGHz_Phy/stm32_radio_driver/radio.c ****     }
1434:Middlewares/Third_Party/SubGHz_Phy/stm32_radio_driver/radio.c ****     else
1435:Middlewares/Third_Party/SubGHz_Phy/stm32_radio_driver/radio.c ****     {
1436:Middlewares/Third_Party/SubGHz_Phy/stm32_radio_driver/radio.c ****         SUBGRF_SetDioIrqParams( IRQ_RX_DONE | IRQ_RX_TX_TIMEOUT | IRQ_CRC_ERROR | IRQ_HEADER_ERROR 
1437:Middlewares/Third_Party/SubGHz_Phy/stm32_radio_driver/radio.c ****                                 IRQ_RX_DONE | IRQ_RX_TX_TIMEOUT | IRQ_CRC_ERROR | IRQ_HEADER_ERROR 
1438:Middlewares/Third_Party/SubGHz_Phy/stm32_radio_driver/radio.c ****                                 IRQ_RADIO_NONE,
1439:Middlewares/Third_Party/SubGHz_Phy/stm32_radio_driver/radio.c ****                                 IRQ_RADIO_NONE );
1440:Middlewares/Third_Party/SubGHz_Phy/stm32_radio_driver/radio.c ****     }
1441:Middlewares/Third_Party/SubGHz_Phy/stm32_radio_driver/radio.c ****     if( timeout != 0 )
1442:Middlewares/Third_Party/SubGHz_Phy/stm32_radio_driver/radio.c ****     {
1443:Middlewares/Third_Party/SubGHz_Phy/stm32_radio_driver/radio.c ****         TimerSetValue( &RxTimeoutTimer, timeout );
1444:Middlewares/Third_Party/SubGHz_Phy/stm32_radio_driver/radio.c ****         TimerStart( &RxTimeoutTimer );
1445:Middlewares/Third_Party/SubGHz_Phy/stm32_radio_driver/radio.c ****     }
1446:Middlewares/Third_Party/SubGHz_Phy/stm32_radio_driver/radio.c ****     /* ST_WORKAROUND_BEGIN : Set the debug pin and update the radio switch */
1447:Middlewares/Third_Party/SubGHz_Phy/stm32_radio_driver/radio.c ****     /* switch off RxDcPreambleDetect See STM32WL Errata: RadioSetRxDutyCycle*/
1448:Middlewares/Third_Party/SubGHz_Phy/stm32_radio_driver/radio.c ****     SubgRf.RxDcPreambleDetectTimeout = 0;
1449:Middlewares/Third_Party/SubGHz_Phy/stm32_radio_driver/radio.c ****     /* Set DBG pin */
1450:Middlewares/Third_Party/SubGHz_Phy/stm32_radio_driver/radio.c ****     DBG_GPIO_RADIO_RX( SET );
1451:Middlewares/Third_Party/SubGHz_Phy/stm32_radio_driver/radio.c ****     /* RF switch configuration */
1452:Middlewares/Third_Party/SubGHz_Phy/stm32_radio_driver/radio.c ****     SUBGRF_SetSwitch( SubgRf.AntSwitchPaSelect, RFSWITCH_RX );
1453:Middlewares/Third_Party/SubGHz_Phy/stm32_radio_driver/radio.c ****     /* ST_WORKAROUND_END */
1454:Middlewares/Third_Party/SubGHz_Phy/stm32_radio_driver/radio.c **** 
1455:Middlewares/Third_Party/SubGHz_Phy/stm32_radio_driver/radio.c ****     if( SubgRf.RxContinuous == true )
1456:Middlewares/Third_Party/SubGHz_Phy/stm32_radio_driver/radio.c ****     {
1457:Middlewares/Third_Party/SubGHz_Phy/stm32_radio_driver/radio.c ****         SUBGRF_SetRxBoosted( 0xFFFFFF ); // Rx Continuous
1458:Middlewares/Third_Party/SubGHz_Phy/stm32_radio_driver/radio.c ****     }
1459:Middlewares/Third_Party/SubGHz_Phy/stm32_radio_driver/radio.c ****     else
1460:Middlewares/Third_Party/SubGHz_Phy/stm32_radio_driver/radio.c ****     {
1461:Middlewares/Third_Party/SubGHz_Phy/stm32_radio_driver/radio.c ****         SUBGRF_SetRxBoosted( SubgRf.RxTimeout << 6 );
1462:Middlewares/Third_Party/SubGHz_Phy/stm32_radio_driver/radio.c ****     }
1463:Middlewares/Third_Party/SubGHz_Phy/stm32_radio_driver/radio.c **** }
1464:Middlewares/Third_Party/SubGHz_Phy/stm32_radio_driver/radio.c **** 
1465:Middlewares/Third_Party/SubGHz_Phy/stm32_radio_driver/radio.c **** static void RadioSetRxDutyCycle( uint32_t rxTime, uint32_t sleepTime )
1466:Middlewares/Third_Party/SubGHz_Phy/stm32_radio_driver/radio.c **** {
1467:Middlewares/Third_Party/SubGHz_Phy/stm32_radio_driver/radio.c ****     /*See STM32WL Errata: RadioSetRxDutyCycle*/
1468:Middlewares/Third_Party/SubGHz_Phy/stm32_radio_driver/radio.c ****     SubgRf.RxDcPreambleDetectTimeout = 2 * rxTime + sleepTime;
1469:Middlewares/Third_Party/SubGHz_Phy/stm32_radio_driver/radio.c ****     /*Enable also the IRQ_PREAMBLE_DETECTED*/
1470:Middlewares/Third_Party/SubGHz_Phy/stm32_radio_driver/radio.c ****     SUBGRF_SetDioIrqParams( IRQ_RADIO_ALL, IRQ_RADIO_ALL, IRQ_RADIO_NONE, IRQ_RADIO_NONE );
1471:Middlewares/Third_Party/SubGHz_Phy/stm32_radio_driver/radio.c ****     /* RF switch configuration */
1472:Middlewares/Third_Party/SubGHz_Phy/stm32_radio_driver/radio.c ****     SUBGRF_SetSwitch( SubgRf.AntSwitchPaSelect, RFSWITCH_RX );
1473:Middlewares/Third_Party/SubGHz_Phy/stm32_radio_driver/radio.c ****     /* Start Rx DutyCycle*/
1474:Middlewares/Third_Party/SubGHz_Phy/stm32_radio_driver/radio.c ****     SUBGRF_SetRxDutyCycle( rxTime, sleepTime );
1475:Middlewares/Third_Party/SubGHz_Phy/stm32_radio_driver/radio.c **** }
1476:Middlewares/Third_Party/SubGHz_Phy/stm32_radio_driver/radio.c **** 
ARM GAS  /var/folders/9y/n02fl3g16gnf7ppy14xghdy80000gn/T//cc8eCeeT.s 			page 37


1477:Middlewares/Third_Party/SubGHz_Phy/stm32_radio_driver/radio.c **** static void RadioStartCad( void )
1478:Middlewares/Third_Party/SubGHz_Phy/stm32_radio_driver/radio.c **** {
1479:Middlewares/Third_Party/SubGHz_Phy/stm32_radio_driver/radio.c ****     /* RF switch configuration */
1480:Middlewares/Third_Party/SubGHz_Phy/stm32_radio_driver/radio.c ****     SUBGRF_SetSwitch( SubgRf.AntSwitchPaSelect, RFSWITCH_RX );
1481:Middlewares/Third_Party/SubGHz_Phy/stm32_radio_driver/radio.c **** 
1482:Middlewares/Third_Party/SubGHz_Phy/stm32_radio_driver/radio.c ****     SUBGRF_SetDioIrqParams( IRQ_CAD_CLEAR | IRQ_CAD_DETECTED,
1483:Middlewares/Third_Party/SubGHz_Phy/stm32_radio_driver/radio.c ****                             IRQ_CAD_CLEAR | IRQ_CAD_DETECTED,
1484:Middlewares/Third_Party/SubGHz_Phy/stm32_radio_driver/radio.c ****                             IRQ_RADIO_NONE,
1485:Middlewares/Third_Party/SubGHz_Phy/stm32_radio_driver/radio.c ****                             IRQ_RADIO_NONE );
1486:Middlewares/Third_Party/SubGHz_Phy/stm32_radio_driver/radio.c ****     SUBGRF_SetCad( );
1487:Middlewares/Third_Party/SubGHz_Phy/stm32_radio_driver/radio.c **** }
1488:Middlewares/Third_Party/SubGHz_Phy/stm32_radio_driver/radio.c **** 
1489:Middlewares/Third_Party/SubGHz_Phy/stm32_radio_driver/radio.c **** static void RadioSetTxContinuousWave( uint32_t freq, int8_t power, uint16_t time )
1490:Middlewares/Third_Party/SubGHz_Phy/stm32_radio_driver/radio.c **** {
1491:Middlewares/Third_Party/SubGHz_Phy/stm32_radio_driver/radio.c ****     uint32_t timeout = ( uint32_t )time * 1000;
1492:Middlewares/Third_Party/SubGHz_Phy/stm32_radio_driver/radio.c ****     uint8_t antswitchpow;
1493:Middlewares/Third_Party/SubGHz_Phy/stm32_radio_driver/radio.c **** 
1494:Middlewares/Third_Party/SubGHz_Phy/stm32_radio_driver/radio.c ****     SUBGRF_SetRfFrequency( freq );
1495:Middlewares/Third_Party/SubGHz_Phy/stm32_radio_driver/radio.c **** 
1496:Middlewares/Third_Party/SubGHz_Phy/stm32_radio_driver/radio.c ****     antswitchpow = SUBGRF_SetRfTxPower( power );
1497:Middlewares/Third_Party/SubGHz_Phy/stm32_radio_driver/radio.c **** 
1498:Middlewares/Third_Party/SubGHz_Phy/stm32_radio_driver/radio.c ****     /* Set RF switch */
1499:Middlewares/Third_Party/SubGHz_Phy/stm32_radio_driver/radio.c ****     SUBGRF_SetSwitch( antswitchpow, RFSWITCH_TX );
1500:Middlewares/Third_Party/SubGHz_Phy/stm32_radio_driver/radio.c **** 
1501:Middlewares/Third_Party/SubGHz_Phy/stm32_radio_driver/radio.c ****     SUBGRF_SetTxContinuousWave( );
1502:Middlewares/Third_Party/SubGHz_Phy/stm32_radio_driver/radio.c **** 
1503:Middlewares/Third_Party/SubGHz_Phy/stm32_radio_driver/radio.c ****     TimerSetValue( &TxTimeoutTimer, timeout );
1504:Middlewares/Third_Party/SubGHz_Phy/stm32_radio_driver/radio.c ****     TimerStart( &TxTimeoutTimer );
1505:Middlewares/Third_Party/SubGHz_Phy/stm32_radio_driver/radio.c **** }
1506:Middlewares/Third_Party/SubGHz_Phy/stm32_radio_driver/radio.c **** 
1507:Middlewares/Third_Party/SubGHz_Phy/stm32_radio_driver/radio.c **** static int16_t RadioRssi( RadioModems_t modem )
1508:Middlewares/Third_Party/SubGHz_Phy/stm32_radio_driver/radio.c **** {
1509:Middlewares/Third_Party/SubGHz_Phy/stm32_radio_driver/radio.c ****     return SUBGRF_GetRssiInst( );
1510:Middlewares/Third_Party/SubGHz_Phy/stm32_radio_driver/radio.c **** }
1511:Middlewares/Third_Party/SubGHz_Phy/stm32_radio_driver/radio.c **** 
1512:Middlewares/Third_Party/SubGHz_Phy/stm32_radio_driver/radio.c **** static void RadioWrite( uint16_t addr, uint8_t data )
1513:Middlewares/Third_Party/SubGHz_Phy/stm32_radio_driver/radio.c **** {
1514:Middlewares/Third_Party/SubGHz_Phy/stm32_radio_driver/radio.c ****     SUBGRF_WriteRegister( addr, data );
1515:Middlewares/Third_Party/SubGHz_Phy/stm32_radio_driver/radio.c **** }
1516:Middlewares/Third_Party/SubGHz_Phy/stm32_radio_driver/radio.c **** 
1517:Middlewares/Third_Party/SubGHz_Phy/stm32_radio_driver/radio.c **** static uint8_t RadioRead( uint16_t addr )
1518:Middlewares/Third_Party/SubGHz_Phy/stm32_radio_driver/radio.c **** {
1519:Middlewares/Third_Party/SubGHz_Phy/stm32_radio_driver/radio.c ****     return SUBGRF_ReadRegister( addr );
1520:Middlewares/Third_Party/SubGHz_Phy/stm32_radio_driver/radio.c **** }
1521:Middlewares/Third_Party/SubGHz_Phy/stm32_radio_driver/radio.c **** 
1522:Middlewares/Third_Party/SubGHz_Phy/stm32_radio_driver/radio.c **** static void RadioWriteRegisters( uint16_t addr, uint8_t *buffer, uint8_t size )
1523:Middlewares/Third_Party/SubGHz_Phy/stm32_radio_driver/radio.c **** {
1524:Middlewares/Third_Party/SubGHz_Phy/stm32_radio_driver/radio.c ****     SUBGRF_WriteRegisters( addr, buffer, size );
1525:Middlewares/Third_Party/SubGHz_Phy/stm32_radio_driver/radio.c **** }
1526:Middlewares/Third_Party/SubGHz_Phy/stm32_radio_driver/radio.c **** 
1527:Middlewares/Third_Party/SubGHz_Phy/stm32_radio_driver/radio.c **** static void RadioReadRegisters( uint16_t addr, uint8_t *buffer, uint8_t size )
1528:Middlewares/Third_Party/SubGHz_Phy/stm32_radio_driver/radio.c **** {
1529:Middlewares/Third_Party/SubGHz_Phy/stm32_radio_driver/radio.c ****     SUBGRF_ReadRegisters( addr, buffer, size );
1530:Middlewares/Third_Party/SubGHz_Phy/stm32_radio_driver/radio.c **** }
1531:Middlewares/Third_Party/SubGHz_Phy/stm32_radio_driver/radio.c **** 
1532:Middlewares/Third_Party/SubGHz_Phy/stm32_radio_driver/radio.c **** static void RadioSetMaxPayloadLength( RadioModems_t modem, uint8_t max )
1533:Middlewares/Third_Party/SubGHz_Phy/stm32_radio_driver/radio.c **** {
ARM GAS  /var/folders/9y/n02fl3g16gnf7ppy14xghdy80000gn/T//cc8eCeeT.s 			page 38


1534:Middlewares/Third_Party/SubGHz_Phy/stm32_radio_driver/radio.c ****     if( modem == MODEM_LORA )
1535:Middlewares/Third_Party/SubGHz_Phy/stm32_radio_driver/radio.c ****     {
1536:Middlewares/Third_Party/SubGHz_Phy/stm32_radio_driver/radio.c ****         SubgRf.PacketParams.Params.LoRa.PayloadLength = MaxPayloadLength = max;
1537:Middlewares/Third_Party/SubGHz_Phy/stm32_radio_driver/radio.c ****         SUBGRF_SetPacketParams( &SubgRf.PacketParams );
1538:Middlewares/Third_Party/SubGHz_Phy/stm32_radio_driver/radio.c ****     }
1539:Middlewares/Third_Party/SubGHz_Phy/stm32_radio_driver/radio.c ****     else
1540:Middlewares/Third_Party/SubGHz_Phy/stm32_radio_driver/radio.c ****     {
1541:Middlewares/Third_Party/SubGHz_Phy/stm32_radio_driver/radio.c ****         if( SubgRf.PacketParams.Params.Gfsk.HeaderType == RADIO_PACKET_VARIABLE_LENGTH )
1542:Middlewares/Third_Party/SubGHz_Phy/stm32_radio_driver/radio.c ****         {
1543:Middlewares/Third_Party/SubGHz_Phy/stm32_radio_driver/radio.c ****             SubgRf.PacketParams.Params.Gfsk.PayloadLength = MaxPayloadLength = max;
1544:Middlewares/Third_Party/SubGHz_Phy/stm32_radio_driver/radio.c ****             SUBGRF_SetPacketParams( &SubgRf.PacketParams );
1545:Middlewares/Third_Party/SubGHz_Phy/stm32_radio_driver/radio.c ****         }
1546:Middlewares/Third_Party/SubGHz_Phy/stm32_radio_driver/radio.c ****     }
1547:Middlewares/Third_Party/SubGHz_Phy/stm32_radio_driver/radio.c **** }
1548:Middlewares/Third_Party/SubGHz_Phy/stm32_radio_driver/radio.c **** 
1549:Middlewares/Third_Party/SubGHz_Phy/stm32_radio_driver/radio.c **** static void RadioSetPublicNetwork( bool enable )
1550:Middlewares/Third_Party/SubGHz_Phy/stm32_radio_driver/radio.c **** {
1551:Middlewares/Third_Party/SubGHz_Phy/stm32_radio_driver/radio.c ****     SubgRf.PublicNetwork.Current = SubgRf.PublicNetwork.Previous = enable;
1552:Middlewares/Third_Party/SubGHz_Phy/stm32_radio_driver/radio.c **** 
1553:Middlewares/Third_Party/SubGHz_Phy/stm32_radio_driver/radio.c ****     RadioSetModem( MODEM_LORA );
1554:Middlewares/Third_Party/SubGHz_Phy/stm32_radio_driver/radio.c ****     if( enable == true )
1555:Middlewares/Third_Party/SubGHz_Phy/stm32_radio_driver/radio.c ****     {
1556:Middlewares/Third_Party/SubGHz_Phy/stm32_radio_driver/radio.c ****         // Change LoRa modem SyncWord
1557:Middlewares/Third_Party/SubGHz_Phy/stm32_radio_driver/radio.c ****         SUBGRF_WriteRegister( REG_LR_SYNCWORD, ( LORA_MAC_PUBLIC_SYNCWORD >> 8 ) & 0xFF );
1558:Middlewares/Third_Party/SubGHz_Phy/stm32_radio_driver/radio.c ****         SUBGRF_WriteRegister( REG_LR_SYNCWORD + 1, LORA_MAC_PUBLIC_SYNCWORD & 0xFF );
1559:Middlewares/Third_Party/SubGHz_Phy/stm32_radio_driver/radio.c ****     }
1560:Middlewares/Third_Party/SubGHz_Phy/stm32_radio_driver/radio.c ****     else
1561:Middlewares/Third_Party/SubGHz_Phy/stm32_radio_driver/radio.c ****     {
1562:Middlewares/Third_Party/SubGHz_Phy/stm32_radio_driver/radio.c ****         // Change LoRa modem SyncWord
1563:Middlewares/Third_Party/SubGHz_Phy/stm32_radio_driver/radio.c ****         SUBGRF_WriteRegister( REG_LR_SYNCWORD, ( LORA_MAC_PRIVATE_SYNCWORD >> 8 ) & 0xFF );
1564:Middlewares/Third_Party/SubGHz_Phy/stm32_radio_driver/radio.c ****         SUBGRF_WriteRegister( REG_LR_SYNCWORD + 1, LORA_MAC_PRIVATE_SYNCWORD & 0xFF );
1565:Middlewares/Third_Party/SubGHz_Phy/stm32_radio_driver/radio.c ****     }
1566:Middlewares/Third_Party/SubGHz_Phy/stm32_radio_driver/radio.c **** }
1567:Middlewares/Third_Party/SubGHz_Phy/stm32_radio_driver/radio.c **** 
1568:Middlewares/Third_Party/SubGHz_Phy/stm32_radio_driver/radio.c **** static uint32_t RadioGetWakeupTime( void )
1569:Middlewares/Third_Party/SubGHz_Phy/stm32_radio_driver/radio.c **** {
1570:Middlewares/Third_Party/SubGHz_Phy/stm32_radio_driver/radio.c ****     return SUBGRF_GetRadioWakeUpTime() + RADIO_WAKEUP_TIME;
1571:Middlewares/Third_Party/SubGHz_Phy/stm32_radio_driver/radio.c **** }
1572:Middlewares/Third_Party/SubGHz_Phy/stm32_radio_driver/radio.c **** 
1573:Middlewares/Third_Party/SubGHz_Phy/stm32_radio_driver/radio.c **** static void RadioOnTxTimeoutIrq( void *context )
1574:Middlewares/Third_Party/SubGHz_Phy/stm32_radio_driver/radio.c **** {
1575:Middlewares/Third_Party/SubGHz_Phy/stm32_radio_driver/radio.c ****     RADIO_TX_TIMEOUT_PROCESS();
1576:Middlewares/Third_Party/SubGHz_Phy/stm32_radio_driver/radio.c **** }
1577:Middlewares/Third_Party/SubGHz_Phy/stm32_radio_driver/radio.c **** 
1578:Middlewares/Third_Party/SubGHz_Phy/stm32_radio_driver/radio.c **** static void RadioOnRxTimeoutIrq( void *context )
1579:Middlewares/Third_Party/SubGHz_Phy/stm32_radio_driver/radio.c **** {
1580:Middlewares/Third_Party/SubGHz_Phy/stm32_radio_driver/radio.c ****     RADIO_RX_TIMEOUT_PROCESS();
1581:Middlewares/Third_Party/SubGHz_Phy/stm32_radio_driver/radio.c **** }
1582:Middlewares/Third_Party/SubGHz_Phy/stm32_radio_driver/radio.c **** 
1583:Middlewares/Third_Party/SubGHz_Phy/stm32_radio_driver/radio.c **** static void RadioOnTxTimeoutProcess( void )
1584:Middlewares/Third_Party/SubGHz_Phy/stm32_radio_driver/radio.c **** {
 543              		.loc 1 1584 1 view -0
 544              		.cfi_startproc
 545              		@ args = 0, pretend = 0, frame = 0
 546              		@ frame_needed = 0, uses_anonymous_args = 0
 547 0000 08B5     		push	{r3, lr}
 548              		.cfi_def_cfa_offset 8
ARM GAS  /var/folders/9y/n02fl3g16gnf7ppy14xghdy80000gn/T//cc8eCeeT.s 			page 39


 549              		.cfi_offset 3, -8
 550              		.cfi_offset 14, -4
1585:Middlewares/Third_Party/SubGHz_Phy/stm32_radio_driver/radio.c ****     /* ST_WORKAROUND_BEGIN: Reset DBG pin */
1586:Middlewares/Third_Party/SubGHz_Phy/stm32_radio_driver/radio.c ****     DBG_GPIO_RADIO_TX( RST );
 551              		.loc 1 1586 29 view .LVU149
1587:Middlewares/Third_Party/SubGHz_Phy/stm32_radio_driver/radio.c ****     /* ST_WORKAROUND_END */
1588:Middlewares/Third_Party/SubGHz_Phy/stm32_radio_driver/radio.c **** 
1589:Middlewares/Third_Party/SubGHz_Phy/stm32_radio_driver/radio.c ****     if( ( RadioEvents != NULL ) && ( RadioEvents->TxTimeout != NULL ) )
 552              		.loc 1 1589 5 view .LVU150
 553              		.loc 1 1589 23 is_stmt 0 view .LVU151
 554 0002 034B     		ldr	r3, .L55
 555 0004 1B68     		ldr	r3, [r3]
 556              		.loc 1 1589 7 view .LVU152
 557 0006 13B1     		cbz	r3, .L52
 558              		.loc 1 1589 49 discriminator 1 view .LVU153
 559 0008 5B68     		ldr	r3, [r3, #4]
 560              		.loc 1 1589 33 discriminator 1 view .LVU154
 561 000a 03B1     		cbz	r3, .L52
1590:Middlewares/Third_Party/SubGHz_Phy/stm32_radio_driver/radio.c ****     {
1591:Middlewares/Third_Party/SubGHz_Phy/stm32_radio_driver/radio.c ****         RadioEvents->TxTimeout( );
 562              		.loc 1 1591 9 is_stmt 1 view .LVU155
 563 000c 9847     		blx	r3
 564              	.LVL72:
 565              	.L52:
1592:Middlewares/Third_Party/SubGHz_Phy/stm32_radio_driver/radio.c ****     }
1593:Middlewares/Third_Party/SubGHz_Phy/stm32_radio_driver/radio.c **** }
 566              		.loc 1 1593 1 is_stmt 0 view .LVU156
 567 000e 08BD     		pop	{r3, pc}
 568              	.L56:
 569              		.align	2
 570              	.L55:
 571 0010 00000000 		.word	.LANCHOR1
 572              		.cfi_endproc
 573              	.LFE1194:
 575              		.section	.text.RadioOnTxTimeoutIrq,"ax",%progbits
 576              		.align	1
 577              		.syntax unified
 578              		.thumb
 579              		.thumb_func
 580              		.fpu softvfp
 582              	RadioOnTxTimeoutIrq:
 583              	.LVL73:
 584              	.LFB1192:
1574:Middlewares/Third_Party/SubGHz_Phy/stm32_radio_driver/radio.c ****     RADIO_TX_TIMEOUT_PROCESS();
 585              		.loc 1 1574 1 is_stmt 1 view -0
 586              		.cfi_startproc
 587              		@ args = 0, pretend = 0, frame = 0
 588              		@ frame_needed = 0, uses_anonymous_args = 0
1574:Middlewares/Third_Party/SubGHz_Phy/stm32_radio_driver/radio.c ****     RADIO_TX_TIMEOUT_PROCESS();
 589              		.loc 1 1574 1 is_stmt 0 view .LVU158
 590 0000 08B5     		push	{r3, lr}
 591              		.cfi_def_cfa_offset 8
 592              		.cfi_offset 3, -8
 593              		.cfi_offset 14, -4
1575:Middlewares/Third_Party/SubGHz_Phy/stm32_radio_driver/radio.c **** }
 594              		.loc 1 1575 5 is_stmt 1 view .LVU159
 595 0002 FFF7FEFF 		bl	RadioOnTxTimeoutProcess
ARM GAS  /var/folders/9y/n02fl3g16gnf7ppy14xghdy80000gn/T//cc8eCeeT.s 			page 40


 596              	.LVL74:
1576:Middlewares/Third_Party/SubGHz_Phy/stm32_radio_driver/radio.c **** 
 597              		.loc 1 1576 1 is_stmt 0 view .LVU160
 598 0006 08BD     		pop	{r3, pc}
 599              		.cfi_endproc
 600              	.LFE1192:
 602              		.section	.text.RadioOnRxTimeoutProcess,"ax",%progbits
 603              		.align	1
 604              		.syntax unified
 605              		.thumb
 606              		.thumb_func
 607              		.fpu softvfp
 609              	RadioOnRxTimeoutProcess:
 610              	.LFB1195:
1594:Middlewares/Third_Party/SubGHz_Phy/stm32_radio_driver/radio.c **** 
1595:Middlewares/Third_Party/SubGHz_Phy/stm32_radio_driver/radio.c **** static void RadioOnRxTimeoutProcess( void )
1596:Middlewares/Third_Party/SubGHz_Phy/stm32_radio_driver/radio.c **** {
 611              		.loc 1 1596 1 is_stmt 1 view -0
 612              		.cfi_startproc
 613              		@ args = 0, pretend = 0, frame = 0
 614              		@ frame_needed = 0, uses_anonymous_args = 0
 615 0000 08B5     		push	{r3, lr}
 616              		.cfi_def_cfa_offset 8
 617              		.cfi_offset 3, -8
 618              		.cfi_offset 14, -4
1597:Middlewares/Third_Party/SubGHz_Phy/stm32_radio_driver/radio.c ****     /* ST_WORKAROUND_BEGIN: Reset DBG pin */
1598:Middlewares/Third_Party/SubGHz_Phy/stm32_radio_driver/radio.c ****     DBG_GPIO_RADIO_RX( RST );
 619              		.loc 1 1598 29 view .LVU162
1599:Middlewares/Third_Party/SubGHz_Phy/stm32_radio_driver/radio.c ****     /* ST_WORKAROUND_END */
1600:Middlewares/Third_Party/SubGHz_Phy/stm32_radio_driver/radio.c **** 
1601:Middlewares/Third_Party/SubGHz_Phy/stm32_radio_driver/radio.c ****     if( ( RadioEvents != NULL ) && ( RadioEvents->RxTimeout != NULL ) )
 620              		.loc 1 1601 5 view .LVU163
 621              		.loc 1 1601 23 is_stmt 0 view .LVU164
 622 0002 034B     		ldr	r3, .L62
 623 0004 1B68     		ldr	r3, [r3]
 624              		.loc 1 1601 7 view .LVU165
 625 0006 13B1     		cbz	r3, .L59
 626              		.loc 1 1601 49 discriminator 1 view .LVU166
 627 0008 DB68     		ldr	r3, [r3, #12]
 628              		.loc 1 1601 33 discriminator 1 view .LVU167
 629 000a 03B1     		cbz	r3, .L59
1602:Middlewares/Third_Party/SubGHz_Phy/stm32_radio_driver/radio.c ****     {
1603:Middlewares/Third_Party/SubGHz_Phy/stm32_radio_driver/radio.c ****         RadioEvents->RxTimeout( );
 630              		.loc 1 1603 9 is_stmt 1 view .LVU168
 631 000c 9847     		blx	r3
 632              	.LVL75:
 633              	.L59:
1604:Middlewares/Third_Party/SubGHz_Phy/stm32_radio_driver/radio.c ****     }
1605:Middlewares/Third_Party/SubGHz_Phy/stm32_radio_driver/radio.c **** }
 634              		.loc 1 1605 1 is_stmt 0 view .LVU169
 635 000e 08BD     		pop	{r3, pc}
 636              	.L63:
 637              		.align	2
 638              	.L62:
 639 0010 00000000 		.word	.LANCHOR1
 640              		.cfi_endproc
 641              	.LFE1195:
ARM GAS  /var/folders/9y/n02fl3g16gnf7ppy14xghdy80000gn/T//cc8eCeeT.s 			page 41


 643              		.section	.text.RadioOnRxTimeoutIrq,"ax",%progbits
 644              		.align	1
 645              		.syntax unified
 646              		.thumb
 647              		.thumb_func
 648              		.fpu softvfp
 650              	RadioOnRxTimeoutIrq:
 651              	.LVL76:
 652              	.LFB1193:
1579:Middlewares/Third_Party/SubGHz_Phy/stm32_radio_driver/radio.c ****     RADIO_RX_TIMEOUT_PROCESS();
 653              		.loc 1 1579 1 is_stmt 1 view -0
 654              		.cfi_startproc
 655              		@ args = 0, pretend = 0, frame = 0
 656              		@ frame_needed = 0, uses_anonymous_args = 0
1579:Middlewares/Third_Party/SubGHz_Phy/stm32_radio_driver/radio.c ****     RADIO_RX_TIMEOUT_PROCESS();
 657              		.loc 1 1579 1 is_stmt 0 view .LVU171
 658 0000 08B5     		push	{r3, lr}
 659              		.cfi_def_cfa_offset 8
 660              		.cfi_offset 3, -8
 661              		.cfi_offset 14, -4
1580:Middlewares/Third_Party/SubGHz_Phy/stm32_radio_driver/radio.c **** }
 662              		.loc 1 1580 5 is_stmt 1 view .LVU172
 663 0002 FFF7FEFF 		bl	RadioOnRxTimeoutProcess
 664              	.LVL77:
1581:Middlewares/Third_Party/SubGHz_Phy/stm32_radio_driver/radio.c **** 
 665              		.loc 1 1581 1 is_stmt 0 view .LVU173
 666 0006 08BD     		pop	{r3, pc}
 667              		.cfi_endproc
 668              	.LFE1193:
 670              		.section	.text.payload_integration,"ax",%progbits
 671              		.align	1
 672              		.syntax unified
 673              		.thumb
 674              		.thumb_func
 675              		.fpu softvfp
 677              	payload_integration:
 678              	.LVL78:
 679              	.LFB1200:
1606:Middlewares/Third_Party/SubGHz_Phy/stm32_radio_driver/radio.c **** 
1607:Middlewares/Third_Party/SubGHz_Phy/stm32_radio_driver/radio.c **** static void RadioOnDioIrq( RadioIrqMasks_t radioIrq )
1608:Middlewares/Third_Party/SubGHz_Phy/stm32_radio_driver/radio.c **** {
1609:Middlewares/Third_Party/SubGHz_Phy/stm32_radio_driver/radio.c ****     SubgRf.RadioIrq = radioIrq;
1610:Middlewares/Third_Party/SubGHz_Phy/stm32_radio_driver/radio.c **** 
1611:Middlewares/Third_Party/SubGHz_Phy/stm32_radio_driver/radio.c ****     RADIO_IRQ_PROCESS();
1612:Middlewares/Third_Party/SubGHz_Phy/stm32_radio_driver/radio.c **** }
1613:Middlewares/Third_Party/SubGHz_Phy/stm32_radio_driver/radio.c **** 
1614:Middlewares/Third_Party/SubGHz_Phy/stm32_radio_driver/radio.c **** static void RadioIrqProcess( void )
1615:Middlewares/Third_Party/SubGHz_Phy/stm32_radio_driver/radio.c **** {
1616:Middlewares/Third_Party/SubGHz_Phy/stm32_radio_driver/radio.c ****     uint8_t size = 0;
1617:Middlewares/Third_Party/SubGHz_Phy/stm32_radio_driver/radio.c ****     int32_t cfo = 0;
1618:Middlewares/Third_Party/SubGHz_Phy/stm32_radio_driver/radio.c **** 
1619:Middlewares/Third_Party/SubGHz_Phy/stm32_radio_driver/radio.c ****     switch( SubgRf.RadioIrq )
1620:Middlewares/Third_Party/SubGHz_Phy/stm32_radio_driver/radio.c ****     {
1621:Middlewares/Third_Party/SubGHz_Phy/stm32_radio_driver/radio.c ****     case IRQ_TX_DONE:
1622:Middlewares/Third_Party/SubGHz_Phy/stm32_radio_driver/radio.c ****         /* ST_WORKAROUND_BEGIN: Reset DBG pin */
1623:Middlewares/Third_Party/SubGHz_Phy/stm32_radio_driver/radio.c ****         DBG_GPIO_RADIO_TX( RST );
1624:Middlewares/Third_Party/SubGHz_Phy/stm32_radio_driver/radio.c ****         /* ST_WORKAROUND_END */
ARM GAS  /var/folders/9y/n02fl3g16gnf7ppy14xghdy80000gn/T//cc8eCeeT.s 			page 42


1625:Middlewares/Third_Party/SubGHz_Phy/stm32_radio_driver/radio.c **** 
1626:Middlewares/Third_Party/SubGHz_Phy/stm32_radio_driver/radio.c ****         TimerStop( &TxTimeoutTimer );
1627:Middlewares/Third_Party/SubGHz_Phy/stm32_radio_driver/radio.c ****         //!< Update operating mode state to a value lower than \ref MODE_STDBY_XOSC
1628:Middlewares/Third_Party/SubGHz_Phy/stm32_radio_driver/radio.c ****         SUBGRF_SetStandby( STDBY_RC );
1629:Middlewares/Third_Party/SubGHz_Phy/stm32_radio_driver/radio.c **** 
1630:Middlewares/Third_Party/SubGHz_Phy/stm32_radio_driver/radio.c ****         if( RFW_Is_LongPacketModeEnabled() == 1 )
1631:Middlewares/Third_Party/SubGHz_Phy/stm32_radio_driver/radio.c ****         {
1632:Middlewares/Third_Party/SubGHz_Phy/stm32_radio_driver/radio.c ****             RFW_DeInit_TxLongPacket( );
1633:Middlewares/Third_Party/SubGHz_Phy/stm32_radio_driver/radio.c ****         }
1634:Middlewares/Third_Party/SubGHz_Phy/stm32_radio_driver/radio.c **** 
1635:Middlewares/Third_Party/SubGHz_Phy/stm32_radio_driver/radio.c ****         if( ( RadioEvents != NULL ) && ( RadioEvents->TxDone != NULL ) )
1636:Middlewares/Third_Party/SubGHz_Phy/stm32_radio_driver/radio.c ****         {
1637:Middlewares/Third_Party/SubGHz_Phy/stm32_radio_driver/radio.c ****             RadioEvents->TxDone( );
1638:Middlewares/Third_Party/SubGHz_Phy/stm32_radio_driver/radio.c ****         }
1639:Middlewares/Third_Party/SubGHz_Phy/stm32_radio_driver/radio.c ****         break;
1640:Middlewares/Third_Party/SubGHz_Phy/stm32_radio_driver/radio.c **** 
1641:Middlewares/Third_Party/SubGHz_Phy/stm32_radio_driver/radio.c ****     case IRQ_RX_DONE:
1642:Middlewares/Third_Party/SubGHz_Phy/stm32_radio_driver/radio.c ****         /* ST_WORKAROUND_BEGIN: Reset DBG pin */
1643:Middlewares/Third_Party/SubGHz_Phy/stm32_radio_driver/radio.c ****         DBG_GPIO_RADIO_RX( RST );
1644:Middlewares/Third_Party/SubGHz_Phy/stm32_radio_driver/radio.c ****         /* ST_WORKAROUND_END */
1645:Middlewares/Third_Party/SubGHz_Phy/stm32_radio_driver/radio.c **** 
1646:Middlewares/Third_Party/SubGHz_Phy/stm32_radio_driver/radio.c ****         TimerStop( &RxTimeoutTimer );
1647:Middlewares/Third_Party/SubGHz_Phy/stm32_radio_driver/radio.c ****         if( SubgRf.RxContinuous == false )
1648:Middlewares/Third_Party/SubGHz_Phy/stm32_radio_driver/radio.c ****         {
1649:Middlewares/Third_Party/SubGHz_Phy/stm32_radio_driver/radio.c ****             //!< Update operating mode state to a value lower than \ref MODE_STDBY_XOSC
1650:Middlewares/Third_Party/SubGHz_Phy/stm32_radio_driver/radio.c ****             SUBGRF_SetStandby( STDBY_RC );
1651:Middlewares/Third_Party/SubGHz_Phy/stm32_radio_driver/radio.c **** 
1652:Middlewares/Third_Party/SubGHz_Phy/stm32_radio_driver/radio.c ****             // WORKAROUND - Implicit Header Mode Timeout Behavior, see STM32WL Erratasheet
1653:Middlewares/Third_Party/SubGHz_Phy/stm32_radio_driver/radio.c ****             SUBGRF_WriteRegister( SUBGHZ_RTCCTLR, 0x00 );
1654:Middlewares/Third_Party/SubGHz_Phy/stm32_radio_driver/radio.c ****             SUBGRF_WriteRegister( SUBGHZ_EVENTMASKR, SUBGRF_ReadRegister( SUBGHZ_EVENTMASKR ) | ( 1
1655:Middlewares/Third_Party/SubGHz_Phy/stm32_radio_driver/radio.c ****             // WORKAROUND END
1656:Middlewares/Third_Party/SubGHz_Phy/stm32_radio_driver/radio.c ****         }
1657:Middlewares/Third_Party/SubGHz_Phy/stm32_radio_driver/radio.c ****         SUBGRF_GetPayload( RadioBuffer, &size, 255 );
1658:Middlewares/Third_Party/SubGHz_Phy/stm32_radio_driver/radio.c ****         SUBGRF_GetPacketStatus( &( SubgRf.PacketStatus ) );
1659:Middlewares/Third_Party/SubGHz_Phy/stm32_radio_driver/radio.c ****         if( ( RadioEvents != NULL ) && ( RadioEvents->RxDone != NULL ) )
1660:Middlewares/Third_Party/SubGHz_Phy/stm32_radio_driver/radio.c ****         {
1661:Middlewares/Third_Party/SubGHz_Phy/stm32_radio_driver/radio.c ****             switch( SubgRf.PacketStatus.packetType )
1662:Middlewares/Third_Party/SubGHz_Phy/stm32_radio_driver/radio.c ****             {
1663:Middlewares/Third_Party/SubGHz_Phy/stm32_radio_driver/radio.c ****             case PACKET_TYPE_LORA:
1664:Middlewares/Third_Party/SubGHz_Phy/stm32_radio_driver/radio.c ****                 RadioEvents->RxDone( RadioBuffer, size, SubgRf.PacketStatus.Params.LoRa.RssiPkt, Su
1665:Middlewares/Third_Party/SubGHz_Phy/stm32_radio_driver/radio.c ****                 break;
1666:Middlewares/Third_Party/SubGHz_Phy/stm32_radio_driver/radio.c ****             default:
1667:Middlewares/Third_Party/SubGHz_Phy/stm32_radio_driver/radio.c ****                 SUBGRF_GetCFO( SubgRf.ModulationParams.Params.Gfsk.BitRate, &cfo );
1668:Middlewares/Third_Party/SubGHz_Phy/stm32_radio_driver/radio.c ****                 RadioEvents->RxDone( RadioBuffer, size, SubgRf.PacketStatus.Params.Gfsk.RssiAvg, (i
1669:Middlewares/Third_Party/SubGHz_Phy/stm32_radio_driver/radio.c ****                 break;
1670:Middlewares/Third_Party/SubGHz_Phy/stm32_radio_driver/radio.c ****             }
1671:Middlewares/Third_Party/SubGHz_Phy/stm32_radio_driver/radio.c ****         }
1672:Middlewares/Third_Party/SubGHz_Phy/stm32_radio_driver/radio.c ****         break;
1673:Middlewares/Third_Party/SubGHz_Phy/stm32_radio_driver/radio.c **** 
1674:Middlewares/Third_Party/SubGHz_Phy/stm32_radio_driver/radio.c ****     case IRQ_CAD_CLEAR:
1675:Middlewares/Third_Party/SubGHz_Phy/stm32_radio_driver/radio.c ****         //!< Update operating mode state to a value lower than \ref MODE_STDBY_XOSC
1676:Middlewares/Third_Party/SubGHz_Phy/stm32_radio_driver/radio.c ****         SUBGRF_SetStandby( STDBY_RC );
1677:Middlewares/Third_Party/SubGHz_Phy/stm32_radio_driver/radio.c ****         if( ( RadioEvents != NULL ) && ( RadioEvents->CadDone != NULL ) )
1678:Middlewares/Third_Party/SubGHz_Phy/stm32_radio_driver/radio.c ****         {
1679:Middlewares/Third_Party/SubGHz_Phy/stm32_radio_driver/radio.c ****             RadioEvents->CadDone( false );
1680:Middlewares/Third_Party/SubGHz_Phy/stm32_radio_driver/radio.c ****         }
1681:Middlewares/Third_Party/SubGHz_Phy/stm32_radio_driver/radio.c ****         break;
ARM GAS  /var/folders/9y/n02fl3g16gnf7ppy14xghdy80000gn/T//cc8eCeeT.s 			page 43


1682:Middlewares/Third_Party/SubGHz_Phy/stm32_radio_driver/radio.c ****     case IRQ_CAD_DETECTED:
1683:Middlewares/Third_Party/SubGHz_Phy/stm32_radio_driver/radio.c ****         //!< Update operating mode state to a value lower than \ref MODE_STDBY_XOSC
1684:Middlewares/Third_Party/SubGHz_Phy/stm32_radio_driver/radio.c ****         SUBGRF_SetStandby( STDBY_RC );
1685:Middlewares/Third_Party/SubGHz_Phy/stm32_radio_driver/radio.c ****         if( ( RadioEvents != NULL ) && ( RadioEvents->CadDone != NULL ) )
1686:Middlewares/Third_Party/SubGHz_Phy/stm32_radio_driver/radio.c ****         {
1687:Middlewares/Third_Party/SubGHz_Phy/stm32_radio_driver/radio.c ****             RadioEvents->CadDone( true );
1688:Middlewares/Third_Party/SubGHz_Phy/stm32_radio_driver/radio.c ****         }
1689:Middlewares/Third_Party/SubGHz_Phy/stm32_radio_driver/radio.c ****         break;
1690:Middlewares/Third_Party/SubGHz_Phy/stm32_radio_driver/radio.c **** 
1691:Middlewares/Third_Party/SubGHz_Phy/stm32_radio_driver/radio.c ****     case IRQ_RX_TX_TIMEOUT:
1692:Middlewares/Third_Party/SubGHz_Phy/stm32_radio_driver/radio.c ****         MW_LOG( TS_ON, VLEVEL_M,  "IRQ_RX_TX_TIMEOUT\r\n" );
1693:Middlewares/Third_Party/SubGHz_Phy/stm32_radio_driver/radio.c ****         if( SUBGRF_GetOperatingMode( ) == MODE_TX )
1694:Middlewares/Third_Party/SubGHz_Phy/stm32_radio_driver/radio.c ****         {
1695:Middlewares/Third_Party/SubGHz_Phy/stm32_radio_driver/radio.c ****             /* ST_WORKAROUND_BEGIN: Reset DBG pin */
1696:Middlewares/Third_Party/SubGHz_Phy/stm32_radio_driver/radio.c ****             DBG_GPIO_RADIO_TX( RST );
1697:Middlewares/Third_Party/SubGHz_Phy/stm32_radio_driver/radio.c ****             /* ST_WORKAROUND_END */
1698:Middlewares/Third_Party/SubGHz_Phy/stm32_radio_driver/radio.c **** 
1699:Middlewares/Third_Party/SubGHz_Phy/stm32_radio_driver/radio.c ****             TimerStop( &TxTimeoutTimer );
1700:Middlewares/Third_Party/SubGHz_Phy/stm32_radio_driver/radio.c ****             //!< Update operating mode state to a value lower than \ref MODE_STDBY_XOSC
1701:Middlewares/Third_Party/SubGHz_Phy/stm32_radio_driver/radio.c ****             SUBGRF_SetStandby( STDBY_RC );
1702:Middlewares/Third_Party/SubGHz_Phy/stm32_radio_driver/radio.c ****             if( ( RadioEvents != NULL ) && ( RadioEvents->TxTimeout != NULL ) )
1703:Middlewares/Third_Party/SubGHz_Phy/stm32_radio_driver/radio.c ****             {
1704:Middlewares/Third_Party/SubGHz_Phy/stm32_radio_driver/radio.c ****                 RadioEvents->TxTimeout( );
1705:Middlewares/Third_Party/SubGHz_Phy/stm32_radio_driver/radio.c ****             }
1706:Middlewares/Third_Party/SubGHz_Phy/stm32_radio_driver/radio.c ****         }
1707:Middlewares/Third_Party/SubGHz_Phy/stm32_radio_driver/radio.c ****         else if( SUBGRF_GetOperatingMode( ) == MODE_RX )
1708:Middlewares/Third_Party/SubGHz_Phy/stm32_radio_driver/radio.c ****         {
1709:Middlewares/Third_Party/SubGHz_Phy/stm32_radio_driver/radio.c ****             /* ST_WORKAROUND_BEGIN: Reset DBG pin */
1710:Middlewares/Third_Party/SubGHz_Phy/stm32_radio_driver/radio.c ****             DBG_GPIO_RADIO_RX( RST );
1711:Middlewares/Third_Party/SubGHz_Phy/stm32_radio_driver/radio.c ****             /* ST_WORKAROUND_END */
1712:Middlewares/Third_Party/SubGHz_Phy/stm32_radio_driver/radio.c **** 
1713:Middlewares/Third_Party/SubGHz_Phy/stm32_radio_driver/radio.c ****             TimerStop( &RxTimeoutTimer );
1714:Middlewares/Third_Party/SubGHz_Phy/stm32_radio_driver/radio.c ****             //!< Update operating mode state to a value lower than \ref MODE_STDBY_XOSC
1715:Middlewares/Third_Party/SubGHz_Phy/stm32_radio_driver/radio.c ****             SUBGRF_SetStandby( STDBY_RC );
1716:Middlewares/Third_Party/SubGHz_Phy/stm32_radio_driver/radio.c ****             if( ( RadioEvents != NULL ) && ( RadioEvents->RxTimeout != NULL ) )
1717:Middlewares/Third_Party/SubGHz_Phy/stm32_radio_driver/radio.c ****             {
1718:Middlewares/Third_Party/SubGHz_Phy/stm32_radio_driver/radio.c ****                 RadioEvents->RxTimeout( );
1719:Middlewares/Third_Party/SubGHz_Phy/stm32_radio_driver/radio.c ****             }
1720:Middlewares/Third_Party/SubGHz_Phy/stm32_radio_driver/radio.c ****         }
1721:Middlewares/Third_Party/SubGHz_Phy/stm32_radio_driver/radio.c ****         break;
1722:Middlewares/Third_Party/SubGHz_Phy/stm32_radio_driver/radio.c ****     case IRQ_PREAMBLE_DETECTED:
1723:Middlewares/Third_Party/SubGHz_Phy/stm32_radio_driver/radio.c ****         MW_LOG( TS_ON, VLEVEL_M,  "PRE OK\r\n" );
1724:Middlewares/Third_Party/SubGHz_Phy/stm32_radio_driver/radio.c ****         /*See STM32WL Errata: RadioSetRxDutyCycle*/
1725:Middlewares/Third_Party/SubGHz_Phy/stm32_radio_driver/radio.c ****         if( SubgRf.RxDcPreambleDetectTimeout != 0 )
1726:Middlewares/Third_Party/SubGHz_Phy/stm32_radio_driver/radio.c ****         {
1727:Middlewares/Third_Party/SubGHz_Phy/stm32_radio_driver/radio.c ****           /* Update Radio RTC period */
1728:Middlewares/Third_Party/SubGHz_Phy/stm32_radio_driver/radio.c ****           Radio.Write(SUBGHZ_RTCPRDR2, (SubgRf.RxDcPreambleDetectTimeout>>16)&0xFF); /*Update Radio
1729:Middlewares/Third_Party/SubGHz_Phy/stm32_radio_driver/radio.c ****           Radio.Write(SUBGHZ_RTCPRDR1, (SubgRf.RxDcPreambleDetectTimeout>>8)&0xFF); /*Update Radio 
1730:Middlewares/Third_Party/SubGHz_Phy/stm32_radio_driver/radio.c ****           Radio.Write(SUBGHZ_RTCPRDR0, (SubgRf.RxDcPreambleDetectTimeout)&0xFF); /*Update Radio RTC
1731:Middlewares/Third_Party/SubGHz_Phy/stm32_radio_driver/radio.c ****           Radio.Write(SUBGHZ_RTCCTLR, Radio.Read(SUBGHZ_RTCCTLR)|0x1); /*restart Radio RTC*/
1732:Middlewares/Third_Party/SubGHz_Phy/stm32_radio_driver/radio.c ****           SubgRf.RxDcPreambleDetectTimeout = 0;
1733:Middlewares/Third_Party/SubGHz_Phy/stm32_radio_driver/radio.c ****           /*Clear IRQ_PREAMBLE_DETECTED mask*/
1734:Middlewares/Third_Party/SubGHz_Phy/stm32_radio_driver/radio.c ****           SUBGRF_SetDioIrqParams( IRQ_RX_DONE | IRQ_RX_TX_TIMEOUT | IRQ_CRC_ERROR | IRQ_HEADER_ERRO
1735:Middlewares/Third_Party/SubGHz_Phy/stm32_radio_driver/radio.c ****                                   IRQ_RX_DONE | IRQ_RX_TX_TIMEOUT | IRQ_CRC_ERROR | IRQ_HEADER_ERRO
1736:Middlewares/Third_Party/SubGHz_Phy/stm32_radio_driver/radio.c ****                                   IRQ_RADIO_NONE,
1737:Middlewares/Third_Party/SubGHz_Phy/stm32_radio_driver/radio.c ****                                   IRQ_RADIO_NONE );
1738:Middlewares/Third_Party/SubGHz_Phy/stm32_radio_driver/radio.c **** 
ARM GAS  /var/folders/9y/n02fl3g16gnf7ppy14xghdy80000gn/T//cc8eCeeT.s 			page 44


1739:Middlewares/Third_Party/SubGHz_Phy/stm32_radio_driver/radio.c ****         }
1740:Middlewares/Third_Party/SubGHz_Phy/stm32_radio_driver/radio.c ****         break;
1741:Middlewares/Third_Party/SubGHz_Phy/stm32_radio_driver/radio.c **** 
1742:Middlewares/Third_Party/SubGHz_Phy/stm32_radio_driver/radio.c ****     case IRQ_SYNCWORD_VALID:
1743:Middlewares/Third_Party/SubGHz_Phy/stm32_radio_driver/radio.c ****         MW_LOG( TS_ON, VLEVEL_M,  "SYNC OK\r\n" );
1744:Middlewares/Third_Party/SubGHz_Phy/stm32_radio_driver/radio.c ****         if( 1UL == RFW_Is_Init( ) )
1745:Middlewares/Third_Party/SubGHz_Phy/stm32_radio_driver/radio.c ****         {
1746:Middlewares/Third_Party/SubGHz_Phy/stm32_radio_driver/radio.c ****             RFW_ReceivePayload( );
1747:Middlewares/Third_Party/SubGHz_Phy/stm32_radio_driver/radio.c ****         }
1748:Middlewares/Third_Party/SubGHz_Phy/stm32_radio_driver/radio.c ****         break;
1749:Middlewares/Third_Party/SubGHz_Phy/stm32_radio_driver/radio.c **** 
1750:Middlewares/Third_Party/SubGHz_Phy/stm32_radio_driver/radio.c ****     case IRQ_HEADER_VALID:
1751:Middlewares/Third_Party/SubGHz_Phy/stm32_radio_driver/radio.c ****         MW_LOG( TS_ON, VLEVEL_M,  "HDR OK\r\n" );
1752:Middlewares/Third_Party/SubGHz_Phy/stm32_radio_driver/radio.c ****         break;
1753:Middlewares/Third_Party/SubGHz_Phy/stm32_radio_driver/radio.c **** 
1754:Middlewares/Third_Party/SubGHz_Phy/stm32_radio_driver/radio.c ****     case IRQ_HEADER_ERROR:
1755:Middlewares/Third_Party/SubGHz_Phy/stm32_radio_driver/radio.c ****         TimerStop( &RxTimeoutTimer );
1756:Middlewares/Third_Party/SubGHz_Phy/stm32_radio_driver/radio.c ****         if( SubgRf.RxContinuous == false )
1757:Middlewares/Third_Party/SubGHz_Phy/stm32_radio_driver/radio.c ****         {
1758:Middlewares/Third_Party/SubGHz_Phy/stm32_radio_driver/radio.c ****             //!< Update operating mode state to a value lower than \ref MODE_STDBY_XOSC
1759:Middlewares/Third_Party/SubGHz_Phy/stm32_radio_driver/radio.c ****             SUBGRF_SetStandby( STDBY_RC );
1760:Middlewares/Third_Party/SubGHz_Phy/stm32_radio_driver/radio.c ****         }
1761:Middlewares/Third_Party/SubGHz_Phy/stm32_radio_driver/radio.c ****         if( ( RadioEvents != NULL ) && ( RadioEvents->RxTimeout != NULL ) )
1762:Middlewares/Third_Party/SubGHz_Phy/stm32_radio_driver/radio.c ****         {
1763:Middlewares/Third_Party/SubGHz_Phy/stm32_radio_driver/radio.c ****             RadioEvents->RxTimeout( );
1764:Middlewares/Third_Party/SubGHz_Phy/stm32_radio_driver/radio.c ****             MW_LOG( TS_ON, VLEVEL_M,  "HDR KO\r\n" );
1765:Middlewares/Third_Party/SubGHz_Phy/stm32_radio_driver/radio.c ****         }
1766:Middlewares/Third_Party/SubGHz_Phy/stm32_radio_driver/radio.c ****         break;
1767:Middlewares/Third_Party/SubGHz_Phy/stm32_radio_driver/radio.c **** 
1768:Middlewares/Third_Party/SubGHz_Phy/stm32_radio_driver/radio.c ****     case IRQ_CRC_ERROR:
1769:Middlewares/Third_Party/SubGHz_Phy/stm32_radio_driver/radio.c ****         MW_LOG( TS_ON, VLEVEL_M,  "IRQ_CRC_ERROR\r\n" );
1770:Middlewares/Third_Party/SubGHz_Phy/stm32_radio_driver/radio.c **** 
1771:Middlewares/Third_Party/SubGHz_Phy/stm32_radio_driver/radio.c ****         if( SubgRf.RxContinuous == false )
1772:Middlewares/Third_Party/SubGHz_Phy/stm32_radio_driver/radio.c ****         {
1773:Middlewares/Third_Party/SubGHz_Phy/stm32_radio_driver/radio.c ****             //!< Update operating mode state to a value lower than \ref MODE_STDBY_XOSC
1774:Middlewares/Third_Party/SubGHz_Phy/stm32_radio_driver/radio.c ****             SUBGRF_SetStandby( STDBY_RC );
1775:Middlewares/Third_Party/SubGHz_Phy/stm32_radio_driver/radio.c ****         }
1776:Middlewares/Third_Party/SubGHz_Phy/stm32_radio_driver/radio.c ****         if( ( RadioEvents != NULL ) && ( RadioEvents->RxError ) )
1777:Middlewares/Third_Party/SubGHz_Phy/stm32_radio_driver/radio.c ****         {
1778:Middlewares/Third_Party/SubGHz_Phy/stm32_radio_driver/radio.c ****             RadioEvents->RxError( );
1779:Middlewares/Third_Party/SubGHz_Phy/stm32_radio_driver/radio.c ****         }
1780:Middlewares/Third_Party/SubGHz_Phy/stm32_radio_driver/radio.c ****         break;
1781:Middlewares/Third_Party/SubGHz_Phy/stm32_radio_driver/radio.c ****     default:
1782:Middlewares/Third_Party/SubGHz_Phy/stm32_radio_driver/radio.c ****         break;
1783:Middlewares/Third_Party/SubGHz_Phy/stm32_radio_driver/radio.c ****     }
1784:Middlewares/Third_Party/SubGHz_Phy/stm32_radio_driver/radio.c **** }
1785:Middlewares/Third_Party/SubGHz_Phy/stm32_radio_driver/radio.c **** 
1786:Middlewares/Third_Party/SubGHz_Phy/stm32_radio_driver/radio.c **** static void RadioTxPrbs( void )
1787:Middlewares/Third_Party/SubGHz_Phy/stm32_radio_driver/radio.c **** {
1788:Middlewares/Third_Party/SubGHz_Phy/stm32_radio_driver/radio.c ****     SUBGRF_SetSwitch( SubgRf.AntSwitchPaSelect, RFSWITCH_TX );
1789:Middlewares/Third_Party/SubGHz_Phy/stm32_radio_driver/radio.c ****     Radio.Write( SUBGHZ_GPKTCTL1AR, 0x2d );  // sel mode prbs9 instead of preamble
1790:Middlewares/Third_Party/SubGHz_Phy/stm32_radio_driver/radio.c ****     SUBGRF_SetTxInfinitePreamble( );
1791:Middlewares/Third_Party/SubGHz_Phy/stm32_radio_driver/radio.c ****     SUBGRF_SetTx( 0x0fffff );
1792:Middlewares/Third_Party/SubGHz_Phy/stm32_radio_driver/radio.c **** }
1793:Middlewares/Third_Party/SubGHz_Phy/stm32_radio_driver/radio.c **** 
1794:Middlewares/Third_Party/SubGHz_Phy/stm32_radio_driver/radio.c **** static void RadioTxCw( int8_t power )
1795:Middlewares/Third_Party/SubGHz_Phy/stm32_radio_driver/radio.c **** {
ARM GAS  /var/folders/9y/n02fl3g16gnf7ppy14xghdy80000gn/T//cc8eCeeT.s 			page 45


1796:Middlewares/Third_Party/SubGHz_Phy/stm32_radio_driver/radio.c ****     uint8_t paselect = SUBGRF_SetRfTxPower( power );
1797:Middlewares/Third_Party/SubGHz_Phy/stm32_radio_driver/radio.c ****     SUBGRF_SetSwitch( paselect, RFSWITCH_TX );
1798:Middlewares/Third_Party/SubGHz_Phy/stm32_radio_driver/radio.c ****     SUBGRF_SetTxContinuousWave( );
1799:Middlewares/Third_Party/SubGHz_Phy/stm32_radio_driver/radio.c **** }
1800:Middlewares/Third_Party/SubGHz_Phy/stm32_radio_driver/radio.c **** 
1801:Middlewares/Third_Party/SubGHz_Phy/stm32_radio_driver/radio.c **** #if (RADIO_SIGFOX_ENABLE == 1)
1802:Middlewares/Third_Party/SubGHz_Phy/stm32_radio_driver/radio.c **** static void payload_integration( uint8_t *outBuffer, uint8_t *inBuffer, uint8_t size )
1803:Middlewares/Third_Party/SubGHz_Phy/stm32_radio_driver/radio.c **** {
 680              		.loc 1 1803 1 is_stmt 1 view -0
 681              		.cfi_startproc
 682              		@ args = 0, pretend = 0, frame = 0
 683              		@ frame_needed = 0, uses_anonymous_args = 0
 684              		.loc 1 1803 1 is_stmt 0 view .LVU175
 685 0000 70B5     		push	{r4, r5, r6, lr}
 686              		.cfi_def_cfa_offset 16
 687              		.cfi_offset 4, -16
 688              		.cfi_offset 5, -12
 689              		.cfi_offset 6, -8
 690              		.cfi_offset 14, -4
1804:Middlewares/Third_Party/SubGHz_Phy/stm32_radio_driver/radio.c ****     uint8_t prevInt = 0;
 691              		.loc 1 1804 5 is_stmt 1 view .LVU176
 692              	.LVL79:
1805:Middlewares/Third_Party/SubGHz_Phy/stm32_radio_driver/radio.c ****     uint8_t currBit;
 693              		.loc 1 1805 5 view .LVU177
1806:Middlewares/Third_Party/SubGHz_Phy/stm32_radio_driver/radio.c ****     uint8_t index_bit;
 694              		.loc 1 1806 5 view .LVU178
1807:Middlewares/Third_Party/SubGHz_Phy/stm32_radio_driver/radio.c ****     uint8_t index_byte;
 695              		.loc 1 1807 5 view .LVU179
1808:Middlewares/Third_Party/SubGHz_Phy/stm32_radio_driver/radio.c ****     uint8_t index_bit_out;
 696              		.loc 1 1808 5 view .LVU180
1809:Middlewares/Third_Party/SubGHz_Phy/stm32_radio_driver/radio.c ****     uint8_t index_byte_out;
 697              		.loc 1 1809 5 view .LVU181
1810:Middlewares/Third_Party/SubGHz_Phy/stm32_radio_driver/radio.c ****     int32_t i = 0;
 698              		.loc 1 1810 5 view .LVU182
1811:Middlewares/Third_Party/SubGHz_Phy/stm32_radio_driver/radio.c **** 
1812:Middlewares/Third_Party/SubGHz_Phy/stm32_radio_driver/radio.c ****     for( i = 0; i < size; i++ )
 699              		.loc 1 1812 5 view .LVU183
 700              		.loc 1 1812 12 is_stmt 0 view .LVU184
 701 0002 0023     		movs	r3, #0
 702              		.loc 1 1812 5 view .LVU185
 703 0004 05E0     		b	.L67
 704              	.LVL80:
 705              	.L68:
1813:Middlewares/Third_Party/SubGHz_Phy/stm32_radio_driver/radio.c ****     {
1814:Middlewares/Third_Party/SubGHz_Phy/stm32_radio_driver/radio.c ****         /* reverse all inputs */
1815:Middlewares/Third_Party/SubGHz_Phy/stm32_radio_driver/radio.c ****         inBuffer[i] = ~inBuffer[i];
 706              		.loc 1 1815 9 is_stmt 1 discriminator 3 view .LVU186
 707              		.loc 1 1815 32 is_stmt 0 discriminator 3 view .LVU187
 708 0006 CC5C     		ldrb	r4, [r1, r3]	@ zero_extendqisi2
 709              		.loc 1 1815 21 discriminator 3 view .LVU188
 710 0008 E443     		mvns	r4, r4
 711 000a CC54     		strb	r4, [r1, r3]
1816:Middlewares/Third_Party/SubGHz_Phy/stm32_radio_driver/radio.c ****         /* init outBuffer */
1817:Middlewares/Third_Party/SubGHz_Phy/stm32_radio_driver/radio.c ****         outBuffer[i] = 0;
 712              		.loc 1 1817 9 is_stmt 1 discriminator 3 view .LVU189
 713              		.loc 1 1817 22 is_stmt 0 discriminator 3 view .LVU190
 714 000c 0024     		movs	r4, #0
ARM GAS  /var/folders/9y/n02fl3g16gnf7ppy14xghdy80000gn/T//cc8eCeeT.s 			page 46


 715 000e C454     		strb	r4, [r0, r3]
1812:Middlewares/Third_Party/SubGHz_Phy/stm32_radio_driver/radio.c ****     {
 716              		.loc 1 1812 27 is_stmt 1 discriminator 3 view .LVU191
1812:Middlewares/Third_Party/SubGHz_Phy/stm32_radio_driver/radio.c ****     {
 717              		.loc 1 1812 28 is_stmt 0 discriminator 3 view .LVU192
 718 0010 0133     		adds	r3, r3, #1
 719              	.LVL81:
 720              	.L67:
1812:Middlewares/Third_Party/SubGHz_Phy/stm32_radio_driver/radio.c ****     {
 721              		.loc 1 1812 17 is_stmt 1 discriminator 1 view .LVU193
1812:Middlewares/Third_Party/SubGHz_Phy/stm32_radio_driver/radio.c ****     {
 722              		.loc 1 1812 5 is_stmt 0 discriminator 1 view .LVU194
 723 0012 9A42     		cmp	r2, r3
 724 0014 F7DC     		bgt	.L68
1818:Middlewares/Third_Party/SubGHz_Phy/stm32_radio_driver/radio.c ****     }
1819:Middlewares/Third_Party/SubGHz_Phy/stm32_radio_driver/radio.c **** 
1820:Middlewares/Third_Party/SubGHz_Phy/stm32_radio_driver/radio.c ****     for( i = 0; i < ( size * 8 ); i++ )
 725              		.loc 1 1820 12 view .LVU195
 726 0016 0023     		movs	r3, #0
 727              	.LVL82:
1804:Middlewares/Third_Party/SubGHz_Phy/stm32_radio_driver/radio.c ****     uint8_t currBit;
 728              		.loc 1 1804 13 view .LVU196
 729 0018 1C46     		mov	r4, r3
 730 001a 13E0     		b	.L69
 731              	.LVL83:
 732              	.L77:
1821:Middlewares/Third_Party/SubGHz_Phy/stm32_radio_driver/radio.c ****     {
1822:Middlewares/Third_Party/SubGHz_Phy/stm32_radio_driver/radio.c ****         /* index to take bit in inBuffer */
1823:Middlewares/Third_Party/SubGHz_Phy/stm32_radio_driver/radio.c ****         index_bit = 7 - ( i % 8 );
1824:Middlewares/Third_Party/SubGHz_Phy/stm32_radio_driver/radio.c ****         index_byte = i / 8;
 733              		.loc 1 1824 24 discriminator 3 view .LVU197
 734 001c 03F1070C 		add	ip, r3, #7
 735 0020 24E0     		b	.L70
 736              	.LVL84:
 737              	.L71:
1825:Middlewares/Third_Party/SubGHz_Phy/stm32_radio_driver/radio.c ****         /* index to place bit in outBuffer is shifted 1 bit right */
1826:Middlewares/Third_Party/SubGHz_Phy/stm32_radio_driver/radio.c ****         index_bit_out = 7 - ( ( i + 1 ) % 8 );
1827:Middlewares/Third_Party/SubGHz_Phy/stm32_radio_driver/radio.c ****         index_byte_out = ( i + 1 ) / 8;
1828:Middlewares/Third_Party/SubGHz_Phy/stm32_radio_driver/radio.c ****         /* extract current bit from input */
1829:Middlewares/Third_Party/SubGHz_Phy/stm32_radio_driver/radio.c ****         currBit = ( inBuffer[index_byte] >> index_bit ) & 0x01;
 738              		.loc 1 1829 9 is_stmt 1 discriminator 3 view .LVU198
 739              		.loc 1 1829 29 is_stmt 0 discriminator 3 view .LVU199
 740 0022 EDB2     		uxtb	r5, r5
 741              		.loc 1 1829 29 discriminator 3 view .LVU200
 742 0024 4D5D     		ldrb	r5, [r1, r5]	@ zero_extendqisi2
 743              	.LVL85:
 744              		.loc 1 1829 42 discriminator 3 view .LVU201
 745 0026 45FA0EFE 		asr	lr, r5, lr
 746              	.LVL86:
 747              		.loc 1 1829 17 discriminator 3 view .LVU202
 748 002a 0EF0010E 		and	lr, lr, #1
 749              	.LVL87:
1830:Middlewares/Third_Party/SubGHz_Phy/stm32_radio_driver/radio.c ****         /* integration */
1831:Middlewares/Third_Party/SubGHz_Phy/stm32_radio_driver/radio.c ****         prevInt ^= currBit;
 750              		.loc 1 1831 9 is_stmt 1 discriminator 3 view .LVU203
 751              		.loc 1 1831 17 is_stmt 0 discriminator 3 view .LVU204
 752 002e 84EA0E04 		eor	r4, r4, lr
ARM GAS  /var/folders/9y/n02fl3g16gnf7ppy14xghdy80000gn/T//cc8eCeeT.s 			page 47


 753              	.LVL88:
1832:Middlewares/Third_Party/SubGHz_Phy/stm32_radio_driver/radio.c ****         /* write result integration in output */
1833:Middlewares/Third_Party/SubGHz_Phy/stm32_radio_driver/radio.c ****         outBuffer[index_byte_out] |= ( prevInt << index_bit_out );
 754              		.loc 1 1833 9 is_stmt 1 discriminator 3 view .LVU205
 755              		.loc 1 1833 35 is_stmt 0 discriminator 3 view .LVU206
 756 0032 C6F3C705 		ubfx	r5, r6, #3, #8
 757              		.loc 1 1833 48 discriminator 3 view .LVU207
 758 0036 04FA0CFC 		lsl	ip, r4, ip
 759              	.LVL89:
 760              		.loc 1 1833 35 discriminator 3 view .LVU208
 761 003a 465D     		ldrb	r6, [r0, r5]	@ zero_extendqisi2
 762              	.LVL90:
 763              		.loc 1 1833 35 discriminator 3 view .LVU209
 764 003c 46EA0C0C 		orr	ip, r6, ip
 765 0040 00F805C0 		strb	ip, [r0, r5]
1820:Middlewares/Third_Party/SubGHz_Phy/stm32_radio_driver/radio.c ****     {
 766              		.loc 1 1820 35 is_stmt 1 discriminator 3 view .LVU210
 767              	.LVL91:
 768              	.L69:
1820:Middlewares/Third_Party/SubGHz_Phy/stm32_radio_driver/radio.c ****     {
 769              		.loc 1 1820 17 discriminator 1 view .LVU211
1820:Middlewares/Third_Party/SubGHz_Phy/stm32_radio_driver/radio.c ****     {
 770              		.loc 1 1820 5 is_stmt 0 discriminator 1 view .LVU212
 771 0044 B3EBC20F 		cmp	r3, r2, lsl #3
 772 0048 26DA     		bge	.L76
1823:Middlewares/Third_Party/SubGHz_Phy/stm32_radio_driver/radio.c ****         index_byte = i / 8;
 773              		.loc 1 1823 9 is_stmt 1 discriminator 3 view .LVU213
1823:Middlewares/Third_Party/SubGHz_Phy/stm32_radio_driver/radio.c ****         index_byte = i / 8;
 774              		.loc 1 1823 29 is_stmt 0 discriminator 3 view .LVU214
 775 004a 5D42     		rsbs	r5, r3, #0
 776 004c 03F0070C 		and	ip, r3, #7
 777 0050 05F00705 		and	r5, r5, #7
 778 0054 58BF     		it	pl
 779 0056 C5F1000C 		rsbpl	ip, r5, #0
1823:Middlewares/Third_Party/SubGHz_Phy/stm32_radio_driver/radio.c ****         index_byte = i / 8;
 780              		.loc 1 1823 23 discriminator 3 view .LVU215
 781 005a 5FFA8CFE 		uxtb	lr, ip
1823:Middlewares/Third_Party/SubGHz_Phy/stm32_radio_driver/radio.c ****         index_byte = i / 8;
 782              		.loc 1 1823 19 discriminator 3 view .LVU216
 783 005e CEF1070E 		rsb	lr, lr, #7
 784 0062 5FFA8EFE 		uxtb	lr, lr
 785              	.LVL92:
1824:Middlewares/Third_Party/SubGHz_Phy/stm32_radio_driver/radio.c ****         /* index to place bit in outBuffer is shifted 1 bit right */
 786              		.loc 1 1824 9 is_stmt 1 discriminator 3 view .LVU217
1824:Middlewares/Third_Party/SubGHz_Phy/stm32_radio_driver/radio.c ****         /* index to place bit in outBuffer is shifted 1 bit right */
 787              		.loc 1 1824 24 is_stmt 0 discriminator 3 view .LVU218
 788 0066 9C46     		mov	ip, r3
 789 0068 002B     		cmp	r3, #0
 790 006a D7DB     		blt	.L77
 791              	.L70:
1824:Middlewares/Third_Party/SubGHz_Phy/stm32_radio_driver/radio.c ****         /* index to place bit in outBuffer is shifted 1 bit right */
 792              		.loc 1 1824 24 discriminator 3 view .LVU219
 793 006c 4FEAEC05 		asr	r5, ip, #3
 794              	.LVL93:
1826:Middlewares/Third_Party/SubGHz_Phy/stm32_radio_driver/radio.c ****         index_byte_out = ( i + 1 ) / 8;
 795              		.loc 1 1826 9 is_stmt 1 discriminator 3 view .LVU220
1826:Middlewares/Third_Party/SubGHz_Phy/stm32_radio_driver/radio.c ****         index_byte_out = ( i + 1 ) / 8;
ARM GAS  /var/folders/9y/n02fl3g16gnf7ppy14xghdy80000gn/T//cc8eCeeT.s 			page 48


 796              		.loc 1 1826 35 is_stmt 0 discriminator 3 view .LVU221
 797 0070 0133     		adds	r3, r3, #1
 798              	.LVL94:
1826:Middlewares/Third_Party/SubGHz_Phy/stm32_radio_driver/radio.c ****         index_byte_out = ( i + 1 ) / 8;
 799              		.loc 1 1826 41 discriminator 3 view .LVU222
 800 0072 5E42     		rsbs	r6, r3, #0
 801 0074 03F0070C 		and	ip, r3, #7
 802 0078 06F00706 		and	r6, r6, #7
 803 007c 58BF     		it	pl
 804 007e C6F1000C 		rsbpl	ip, r6, #0
1826:Middlewares/Third_Party/SubGHz_Phy/stm32_radio_driver/radio.c ****         index_byte_out = ( i + 1 ) / 8;
 805              		.loc 1 1826 27 discriminator 3 view .LVU223
 806 0082 5FFA8CFC 		uxtb	ip, ip
1826:Middlewares/Third_Party/SubGHz_Phy/stm32_radio_driver/radio.c ****         index_byte_out = ( i + 1 ) / 8;
 807              		.loc 1 1826 23 discriminator 3 view .LVU224
 808 0086 CCF1070C 		rsb	ip, ip, #7
 809 008a 5FFA8CFC 		uxtb	ip, ip
 810              	.LVL95:
1827:Middlewares/Third_Party/SubGHz_Phy/stm32_radio_driver/radio.c ****         /* extract current bit from input */
 811              		.loc 1 1827 9 is_stmt 1 discriminator 3 view .LVU225
1827:Middlewares/Third_Party/SubGHz_Phy/stm32_radio_driver/radio.c ****         /* extract current bit from input */
 812              		.loc 1 1827 36 is_stmt 0 discriminator 3 view .LVU226
 813 008e 1E46     		mov	r6, r3
 814 0090 002B     		cmp	r3, #0
 815 0092 C6DA     		bge	.L71
 816 0094 DE1D     		adds	r6, r3, #7
 817 0096 C4E7     		b	.L71
 818              	.LVL96:
 819              	.L76:
1834:Middlewares/Third_Party/SubGHz_Phy/stm32_radio_driver/radio.c ****     }
1835:Middlewares/Third_Party/SubGHz_Phy/stm32_radio_driver/radio.c **** 
1836:Middlewares/Third_Party/SubGHz_Phy/stm32_radio_driver/radio.c ****     outBuffer[size] = ( prevInt << 7 ) | ( prevInt << 6 ) | ( ( ( !prevInt ) & 0x01 ) << 5 ) ;
 820              		.loc 1 1836 5 is_stmt 1 view .LVU227
 821              		.loc 1 1836 52 is_stmt 0 view .LVU228
 822 0098 A301     		lsls	r3, r4, #6
 823              	.LVL97:
 824              		.loc 1 1836 40 view .LVU229
 825 009a 43EAC413 		orr	r3, r3, r4, lsl #7
 826 009e 5BB2     		sxtb	r3, r3
 827              		.loc 1 1836 59 view .LVU230
 828 00a0 1CB9     		cbnz	r4, .L74
 829 00a2 2021     		movs	r1, #32
 830              	.LVL98:
 831              	.L73:
 832              		.loc 1 1836 59 discriminator 4 view .LVU231
 833 00a4 0B43     		orrs	r3, r3, r1
 834              		.loc 1 1836 21 discriminator 4 view .LVU232
 835 00a6 8354     		strb	r3, [r0, r2]
1837:Middlewares/Third_Party/SubGHz_Phy/stm32_radio_driver/radio.c **** }
 836              		.loc 1 1837 1 discriminator 4 view .LVU233
 837 00a8 70BD     		pop	{r4, r5, r6, pc}
 838              	.LVL99:
 839              	.L74:
1836:Middlewares/Third_Party/SubGHz_Phy/stm32_radio_driver/radio.c **** }
 840              		.loc 1 1836 59 view .LVU234
 841 00aa 0021     		movs	r1, #0
 842              	.LVL100:
ARM GAS  /var/folders/9y/n02fl3g16gnf7ppy14xghdy80000gn/T//cc8eCeeT.s 			page 49


1836:Middlewares/Third_Party/SubGHz_Phy/stm32_radio_driver/radio.c **** }
 843              		.loc 1 1836 59 view .LVU235
 844 00ac FAE7     		b	.L73
 845              		.cfi_endproc
 846              	.LFE1200:
 848              		.section	.text.RadioSetMaxPayloadLength,"ax",%progbits
 849              		.align	1
 850              		.syntax unified
 851              		.thumb
 852              		.thumb_func
 853              		.fpu softvfp
 855              	RadioSetMaxPayloadLength:
 856              	.LVL101:
 857              	.LFB1189:
1533:Middlewares/Third_Party/SubGHz_Phy/stm32_radio_driver/radio.c ****     if( modem == MODEM_LORA )
 858              		.loc 1 1533 1 is_stmt 1 view -0
 859              		.cfi_startproc
 860              		@ args = 0, pretend = 0, frame = 0
 861              		@ frame_needed = 0, uses_anonymous_args = 0
1533:Middlewares/Third_Party/SubGHz_Phy/stm32_radio_driver/radio.c ****     if( modem == MODEM_LORA )
 862              		.loc 1 1533 1 is_stmt 0 view .LVU237
 863 0000 08B5     		push	{r3, lr}
 864              		.cfi_def_cfa_offset 8
 865              		.cfi_offset 3, -8
 866              		.cfi_offset 14, -4
1534:Middlewares/Third_Party/SubGHz_Phy/stm32_radio_driver/radio.c ****     {
 867              		.loc 1 1534 5 is_stmt 1 view .LVU238
1534:Middlewares/Third_Party/SubGHz_Phy/stm32_radio_driver/radio.c ****     {
 868              		.loc 1 1534 7 is_stmt 0 view .LVU239
 869 0002 0128     		cmp	r0, #1
 870 0004 04D0     		beq	.L82
1541:Middlewares/Third_Party/SubGHz_Phy/stm32_radio_driver/radio.c ****         {
 871              		.loc 1 1541 9 is_stmt 1 view .LVU240
1541:Middlewares/Third_Party/SubGHz_Phy/stm32_radio_driver/radio.c ****         {
 872              		.loc 1 1541 44 is_stmt 0 view .LVU241
 873 0006 0A4B     		ldr	r3, .L84
 874 0008 5B7D     		ldrb	r3, [r3, #21]	@ zero_extendqisi2
1541:Middlewares/Third_Party/SubGHz_Phy/stm32_radio_driver/radio.c ****         {
 875              		.loc 1 1541 11 view .LVU242
 876 000a 012B     		cmp	r3, #1
 877 000c 08D0     		beq	.L83
 878              	.LVL102:
 879              	.L78:
1547:Middlewares/Third_Party/SubGHz_Phy/stm32_radio_driver/radio.c **** 
 880              		.loc 1 1547 1 view .LVU243
 881 000e 08BD     		pop	{r3, pc}
 882              	.LVL103:
 883              	.L82:
1536:Middlewares/Third_Party/SubGHz_Phy/stm32_radio_driver/radio.c ****         SUBGRF_SetPacketParams( &SubgRf.PacketParams );
 884              		.loc 1 1536 9 is_stmt 1 view .LVU244
1536:Middlewares/Third_Party/SubGHz_Phy/stm32_radio_driver/radio.c ****         SUBGRF_SetPacketParams( &SubgRf.PacketParams );
 885              		.loc 1 1536 74 is_stmt 0 view .LVU245
 886 0010 084B     		ldr	r3, .L84+4
 887 0012 1970     		strb	r1, [r3]
1536:Middlewares/Third_Party/SubGHz_Phy/stm32_radio_driver/radio.c ****         SUBGRF_SetPacketParams( &SubgRf.PacketParams );
 888              		.loc 1 1536 55 view .LVU246
 889 0014 0648     		ldr	r0, .L84
ARM GAS  /var/folders/9y/n02fl3g16gnf7ppy14xghdy80000gn/T//cc8eCeeT.s 			page 50


 890              	.LVL104:
1536:Middlewares/Third_Party/SubGHz_Phy/stm32_radio_driver/radio.c ****         SUBGRF_SetPacketParams( &SubgRf.PacketParams );
 891              		.loc 1 1536 55 view .LVU247
 892 0016 C177     		strb	r1, [r0, #31]
1537:Middlewares/Third_Party/SubGHz_Phy/stm32_radio_driver/radio.c ****     }
 893              		.loc 1 1537 9 is_stmt 1 view .LVU248
 894 0018 0E30     		adds	r0, r0, #14
 895 001a FFF7FEFF 		bl	SUBGRF_SetPacketParams
 896              	.LVL105:
1537:Middlewares/Third_Party/SubGHz_Phy/stm32_radio_driver/radio.c ****     }
 897              		.loc 1 1537 9 is_stmt 0 view .LVU249
 898 001e F6E7     		b	.L78
 899              	.LVL106:
 900              	.L83:
1543:Middlewares/Third_Party/SubGHz_Phy/stm32_radio_driver/radio.c ****             SUBGRF_SetPacketParams( &SubgRf.PacketParams );
 901              		.loc 1 1543 13 is_stmt 1 view .LVU250
1543:Middlewares/Third_Party/SubGHz_Phy/stm32_radio_driver/radio.c ****             SUBGRF_SetPacketParams( &SubgRf.PacketParams );
 902              		.loc 1 1543 78 is_stmt 0 view .LVU251
 903 0020 044B     		ldr	r3, .L84+4
 904 0022 1970     		strb	r1, [r3]
1543:Middlewares/Third_Party/SubGHz_Phy/stm32_radio_driver/radio.c ****             SUBGRF_SetPacketParams( &SubgRf.PacketParams );
 905              		.loc 1 1543 59 view .LVU252
 906 0024 0248     		ldr	r0, .L84
 907              	.LVL107:
1543:Middlewares/Third_Party/SubGHz_Phy/stm32_radio_driver/radio.c ****             SUBGRF_SetPacketParams( &SubgRf.PacketParams );
 908              		.loc 1 1543 59 view .LVU253
 909 0026 8175     		strb	r1, [r0, #22]
1544:Middlewares/Third_Party/SubGHz_Phy/stm32_radio_driver/radio.c ****         }
 910              		.loc 1 1544 13 is_stmt 1 view .LVU254
 911 0028 0E30     		adds	r0, r0, #14
 912 002a FFF7FEFF 		bl	SUBGRF_SetPacketParams
 913              	.LVL108:
1547:Middlewares/Third_Party/SubGHz_Phy/stm32_radio_driver/radio.c **** 
 914              		.loc 1 1547 1 is_stmt 0 view .LVU255
 915 002e EEE7     		b	.L78
 916              	.L85:
 917              		.align	2
 918              	.L84:
 919 0030 00000000 		.word	.LANCHOR3
 920 0034 00000000 		.word	.LANCHOR2
 921              		.cfi_endproc
 922              	.LFE1189:
 924              		.section	.text.RadioRead,"ax",%progbits
 925              		.align	1
 926              		.syntax unified
 927              		.thumb
 928              		.thumb_func
 929              		.fpu softvfp
 931              	RadioRead:
 932              	.LVL109:
 933              	.LFB1186:
1518:Middlewares/Third_Party/SubGHz_Phy/stm32_radio_driver/radio.c ****     return SUBGRF_ReadRegister( addr );
 934              		.loc 1 1518 1 is_stmt 1 view -0
 935              		.cfi_startproc
 936              		@ args = 0, pretend = 0, frame = 0
 937              		@ frame_needed = 0, uses_anonymous_args = 0
1518:Middlewares/Third_Party/SubGHz_Phy/stm32_radio_driver/radio.c ****     return SUBGRF_ReadRegister( addr );
ARM GAS  /var/folders/9y/n02fl3g16gnf7ppy14xghdy80000gn/T//cc8eCeeT.s 			page 51


 938              		.loc 1 1518 1 is_stmt 0 view .LVU257
 939 0000 08B5     		push	{r3, lr}
 940              		.cfi_def_cfa_offset 8
 941              		.cfi_offset 3, -8
 942              		.cfi_offset 14, -4
1519:Middlewares/Third_Party/SubGHz_Phy/stm32_radio_driver/radio.c **** }
 943              		.loc 1 1519 5 is_stmt 1 view .LVU258
1519:Middlewares/Third_Party/SubGHz_Phy/stm32_radio_driver/radio.c **** }
 944              		.loc 1 1519 12 is_stmt 0 view .LVU259
 945 0002 FFF7FEFF 		bl	SUBGRF_ReadRegister
 946              	.LVL110:
1520:Middlewares/Third_Party/SubGHz_Phy/stm32_radio_driver/radio.c **** 
 947              		.loc 1 1520 1 view .LVU260
 948 0006 08BD     		pop	{r3, pc}
 949              		.cfi_endproc
 950              	.LFE1186:
 952              		.section	.text.RadioWrite,"ax",%progbits
 953              		.align	1
 954              		.syntax unified
 955              		.thumb
 956              		.thumb_func
 957              		.fpu softvfp
 959              	RadioWrite:
 960              	.LVL111:
 961              	.LFB1185:
1513:Middlewares/Third_Party/SubGHz_Phy/stm32_radio_driver/radio.c ****     SUBGRF_WriteRegister( addr, data );
 962              		.loc 1 1513 1 is_stmt 1 view -0
 963              		.cfi_startproc
 964              		@ args = 0, pretend = 0, frame = 0
 965              		@ frame_needed = 0, uses_anonymous_args = 0
1513:Middlewares/Third_Party/SubGHz_Phy/stm32_radio_driver/radio.c ****     SUBGRF_WriteRegister( addr, data );
 966              		.loc 1 1513 1 is_stmt 0 view .LVU262
 967 0000 08B5     		push	{r3, lr}
 968              		.cfi_def_cfa_offset 8
 969              		.cfi_offset 3, -8
 970              		.cfi_offset 14, -4
1514:Middlewares/Third_Party/SubGHz_Phy/stm32_radio_driver/radio.c **** }
 971              		.loc 1 1514 5 is_stmt 1 view .LVU263
 972 0002 FFF7FEFF 		bl	SUBGRF_WriteRegister
 973              	.LVL112:
1515:Middlewares/Third_Party/SubGHz_Phy/stm32_radio_driver/radio.c **** 
 974              		.loc 1 1515 1 is_stmt 0 view .LVU264
 975 0006 08BD     		pop	{r3, pc}
 976              		.cfi_endproc
 977              	.LFE1185:
 979              		.section	.text.RadioTxCw,"ax",%progbits
 980              		.align	1
 981              		.syntax unified
 982              		.thumb
 983              		.thumb_func
 984              		.fpu softvfp
 986              	RadioTxCw:
 987              	.LVL113:
 988              	.LFB1199:
1795:Middlewares/Third_Party/SubGHz_Phy/stm32_radio_driver/radio.c ****     uint8_t paselect = SUBGRF_SetRfTxPower( power );
 989              		.loc 1 1795 1 is_stmt 1 view -0
 990              		.cfi_startproc
ARM GAS  /var/folders/9y/n02fl3g16gnf7ppy14xghdy80000gn/T//cc8eCeeT.s 			page 52


 991              		@ args = 0, pretend = 0, frame = 0
 992              		@ frame_needed = 0, uses_anonymous_args = 0
1795:Middlewares/Third_Party/SubGHz_Phy/stm32_radio_driver/radio.c ****     uint8_t paselect = SUBGRF_SetRfTxPower( power );
 993              		.loc 1 1795 1 is_stmt 0 view .LVU266
 994 0000 08B5     		push	{r3, lr}
 995              		.cfi_def_cfa_offset 8
 996              		.cfi_offset 3, -8
 997              		.cfi_offset 14, -4
1796:Middlewares/Third_Party/SubGHz_Phy/stm32_radio_driver/radio.c ****     SUBGRF_SetSwitch( paselect, RFSWITCH_TX );
 998              		.loc 1 1796 5 is_stmt 1 view .LVU267
1796:Middlewares/Third_Party/SubGHz_Phy/stm32_radio_driver/radio.c ****     SUBGRF_SetSwitch( paselect, RFSWITCH_TX );
 999              		.loc 1 1796 24 is_stmt 0 view .LVU268
 1000 0002 FFF7FEFF 		bl	SUBGRF_SetRfTxPower
 1001              	.LVL114:
1797:Middlewares/Third_Party/SubGHz_Phy/stm32_radio_driver/radio.c ****     SUBGRF_SetTxContinuousWave( );
 1002              		.loc 1 1797 5 is_stmt 1 view .LVU269
 1003 0006 0121     		movs	r1, #1
 1004 0008 FFF7FEFF 		bl	SUBGRF_SetSwitch
 1005              	.LVL115:
1798:Middlewares/Third_Party/SubGHz_Phy/stm32_radio_driver/radio.c **** }
 1006              		.loc 1 1798 5 view .LVU270
 1007 000c FFF7FEFF 		bl	SUBGRF_SetTxContinuousWave
 1008              	.LVL116:
1799:Middlewares/Third_Party/SubGHz_Phy/stm32_radio_driver/radio.c **** 
 1009              		.loc 1 1799 1 is_stmt 0 view .LVU271
 1010 0010 08BD     		pop	{r3, pc}
 1011              		.cfi_endproc
 1012              	.LFE1199:
 1014              		.section	.text.RadioTxPrbs,"ax",%progbits
 1015              		.align	1
 1016              		.syntax unified
 1017              		.thumb
 1018              		.thumb_func
 1019              		.fpu softvfp
 1021              	RadioTxPrbs:
 1022              	.LFB1198:
1787:Middlewares/Third_Party/SubGHz_Phy/stm32_radio_driver/radio.c ****     SUBGRF_SetSwitch( SubgRf.AntSwitchPaSelect, RFSWITCH_TX );
 1023              		.loc 1 1787 1 is_stmt 1 view -0
 1024              		.cfi_startproc
 1025              		@ args = 0, pretend = 0, frame = 0
 1026              		@ frame_needed = 0, uses_anonymous_args = 0
 1027 0000 08B5     		push	{r3, lr}
 1028              		.cfi_def_cfa_offset 8
 1029              		.cfi_offset 3, -8
 1030              		.cfi_offset 14, -4
1788:Middlewares/Third_Party/SubGHz_Phy/stm32_radio_driver/radio.c ****     Radio.Write( SUBGHZ_GPKTCTL1AR, 0x2d );  // sel mode prbs9 instead of preamble
 1031              		.loc 1 1788 5 view .LVU273
 1032 0002 0121     		movs	r1, #1
 1033 0004 074B     		ldr	r3, .L94
 1034 0006 93F85600 		ldrb	r0, [r3, #86]	@ zero_extendqisi2
 1035 000a FFF7FEFF 		bl	SUBGRF_SetSwitch
 1036              	.LVL117:
1789:Middlewares/Third_Party/SubGHz_Phy/stm32_radio_driver/radio.c ****     SUBGRF_SetTxInfinitePreamble( );
 1037              		.loc 1 1789 5 view .LVU274
 1038 000e 2D21     		movs	r1, #45
 1039 0010 4FF4D760 		mov	r0, #1720
 1040 0014 FFF7FEFF 		bl	RadioWrite
ARM GAS  /var/folders/9y/n02fl3g16gnf7ppy14xghdy80000gn/T//cc8eCeeT.s 			page 53


 1041              	.LVL118:
1790:Middlewares/Third_Party/SubGHz_Phy/stm32_radio_driver/radio.c ****     SUBGRF_SetTx( 0x0fffff );
 1042              		.loc 1 1790 5 view .LVU275
 1043 0018 FFF7FEFF 		bl	SUBGRF_SetTxInfinitePreamble
 1044              	.LVL119:
1791:Middlewares/Third_Party/SubGHz_Phy/stm32_radio_driver/radio.c **** }
 1045              		.loc 1 1791 5 view .LVU276
 1046 001c 0248     		ldr	r0, .L94+4
 1047 001e FFF7FEFF 		bl	SUBGRF_SetTx
 1048              	.LVL120:
1792:Middlewares/Third_Party/SubGHz_Phy/stm32_radio_driver/radio.c **** 
 1049              		.loc 1 1792 1 is_stmt 0 view .LVU277
 1050 0022 08BD     		pop	{r3, pc}
 1051              	.L95:
 1052              		.align	2
 1053              	.L94:
 1054 0024 00000000 		.word	.LANCHOR3
 1055 0028 FFFF0F00 		.word	1048575
 1056              		.cfi_endproc
 1057              	.LFE1198:
 1059              		.section	.text.RadioSetRxDutyCycle,"ax",%progbits
 1060              		.align	1
 1061              		.syntax unified
 1062              		.thumb
 1063              		.thumb_func
 1064              		.fpu softvfp
 1066              	RadioSetRxDutyCycle:
 1067              	.LVL121:
 1068              	.LFB1181:
1466:Middlewares/Third_Party/SubGHz_Phy/stm32_radio_driver/radio.c ****     /*See STM32WL Errata: RadioSetRxDutyCycle*/
 1069              		.loc 1 1466 1 is_stmt 1 view -0
 1070              		.cfi_startproc
 1071              		@ args = 0, pretend = 0, frame = 0
 1072              		@ frame_needed = 0, uses_anonymous_args = 0
1466:Middlewares/Third_Party/SubGHz_Phy/stm32_radio_driver/radio.c ****     /*See STM32WL Errata: RadioSetRxDutyCycle*/
 1073              		.loc 1 1466 1 is_stmt 0 view .LVU279
 1074 0000 70B5     		push	{r4, r5, r6, lr}
 1075              		.cfi_def_cfa_offset 16
 1076              		.cfi_offset 4, -16
 1077              		.cfi_offset 5, -12
 1078              		.cfi_offset 6, -8
 1079              		.cfi_offset 14, -4
 1080 0002 0446     		mov	r4, r0
 1081 0004 0D46     		mov	r5, r1
1468:Middlewares/Third_Party/SubGHz_Phy/stm32_radio_driver/radio.c ****     /*Enable also the IRQ_PREAMBLE_DETECTED*/
 1082              		.loc 1 1468 5 is_stmt 1 view .LVU280
1468:Middlewares/Third_Party/SubGHz_Phy/stm32_radio_driver/radio.c ****     /*Enable also the IRQ_PREAMBLE_DETECTED*/
 1083              		.loc 1 1468 51 is_stmt 0 view .LVU281
 1084 0006 01EB4003 		add	r3, r1, r0, lsl #1
1468:Middlewares/Third_Party/SubGHz_Phy/stm32_radio_driver/radio.c ****     /*Enable also the IRQ_PREAMBLE_DETECTED*/
 1085              		.loc 1 1468 38 view .LVU282
 1086 000a 094E     		ldr	r6, .L98
 1087 000c B365     		str	r3, [r6, #88]
1470:Middlewares/Third_Party/SubGHz_Phy/stm32_radio_driver/radio.c ****     /* RF switch configuration */
 1088              		.loc 1 1470 5 is_stmt 1 view .LVU283
 1089 000e 0023     		movs	r3, #0
 1090 0010 1A46     		mov	r2, r3
ARM GAS  /var/folders/9y/n02fl3g16gnf7ppy14xghdy80000gn/T//cc8eCeeT.s 			page 54


 1091 0012 4FF6FF71 		movw	r1, #65535
 1092              	.LVL122:
1470:Middlewares/Third_Party/SubGHz_Phy/stm32_radio_driver/radio.c ****     /* RF switch configuration */
 1093              		.loc 1 1470 5 is_stmt 0 view .LVU284
 1094 0016 0846     		mov	r0, r1
 1095              	.LVL123:
1470:Middlewares/Third_Party/SubGHz_Phy/stm32_radio_driver/radio.c ****     /* RF switch configuration */
 1096              		.loc 1 1470 5 view .LVU285
 1097 0018 FFF7FEFF 		bl	SUBGRF_SetDioIrqParams
 1098              	.LVL124:
1472:Middlewares/Third_Party/SubGHz_Phy/stm32_radio_driver/radio.c ****     /* Start Rx DutyCycle*/
 1099              		.loc 1 1472 5 is_stmt 1 view .LVU286
 1100 001c 0021     		movs	r1, #0
 1101 001e 96F85600 		ldrb	r0, [r6, #86]	@ zero_extendqisi2
 1102 0022 FFF7FEFF 		bl	SUBGRF_SetSwitch
 1103              	.LVL125:
1474:Middlewares/Third_Party/SubGHz_Phy/stm32_radio_driver/radio.c **** }
 1104              		.loc 1 1474 5 view .LVU287
 1105 0026 2946     		mov	r1, r5
 1106 0028 2046     		mov	r0, r4
 1107 002a FFF7FEFF 		bl	SUBGRF_SetRxDutyCycle
 1108              	.LVL126:
1475:Middlewares/Third_Party/SubGHz_Phy/stm32_radio_driver/radio.c **** 
 1109              		.loc 1 1475 1 is_stmt 0 view .LVU288
 1110 002e 70BD     		pop	{r4, r5, r6, pc}
 1111              	.LVL127:
 1112              	.L99:
1475:Middlewares/Third_Party/SubGHz_Phy/stm32_radio_driver/radio.c **** 
 1113              		.loc 1 1475 1 view .LVU289
 1114              		.align	2
 1115              	.L98:
 1116 0030 00000000 		.word	.LANCHOR3
 1117              		.cfi_endproc
 1118              	.LFE1181:
 1120              		.section	.text.RadioRxBoosted,"ax",%progbits
 1121              		.align	1
 1122              		.syntax unified
 1123              		.thumb
 1124              		.thumb_func
 1125              		.fpu softvfp
 1127              	RadioRxBoosted:
 1128              	.LVL128:
 1129              	.LFB1180:
1429:Middlewares/Third_Party/SubGHz_Phy/stm32_radio_driver/radio.c ****     if( 1UL == RFW_Is_Init() )
 1130              		.loc 1 1429 1 is_stmt 1 view -0
 1131              		.cfi_startproc
 1132              		@ args = 0, pretend = 0, frame = 0
 1133              		@ frame_needed = 0, uses_anonymous_args = 0
1429:Middlewares/Third_Party/SubGHz_Phy/stm32_radio_driver/radio.c ****     if( 1UL == RFW_Is_Init() )
 1134              		.loc 1 1429 1 is_stmt 0 view .LVU291
 1135 0000 38B5     		push	{r3, r4, r5, lr}
 1136              		.cfi_def_cfa_offset 16
 1137              		.cfi_offset 3, -16
 1138              		.cfi_offset 4, -12
 1139              		.cfi_offset 5, -8
 1140              		.cfi_offset 14, -4
 1141 0002 0446     		mov	r4, r0
ARM GAS  /var/folders/9y/n02fl3g16gnf7ppy14xghdy80000gn/T//cc8eCeeT.s 			page 55


1430:Middlewares/Third_Party/SubGHz_Phy/stm32_radio_driver/radio.c ****     {
 1142              		.loc 1 1430 5 is_stmt 1 view .LVU292
1430:Middlewares/Third_Party/SubGHz_Phy/stm32_radio_driver/radio.c ****     {
 1143              		.loc 1 1430 16 is_stmt 0 view .LVU293
 1144 0004 FFF7FEFF 		bl	RFW_Is_Init
 1145              	.LVL129:
1430:Middlewares/Third_Party/SubGHz_Phy/stm32_radio_driver/radio.c ****     {
 1146              		.loc 1 1430 7 view .LVU294
 1147 0008 0128     		cmp	r0, #1
 1148 000a 15D0     		beq	.L107
1436:Middlewares/Third_Party/SubGHz_Phy/stm32_radio_driver/radio.c ****                                 IRQ_RX_DONE | IRQ_RX_TX_TIMEOUT | IRQ_CRC_ERROR | IRQ_HEADER_ERROR 
 1149              		.loc 1 1436 9 is_stmt 1 view .LVU295
 1150 000c 0023     		movs	r3, #0
 1151 000e 1A46     		mov	r2, r3
 1152 0010 40F26221 		movw	r1, #610
 1153 0014 0846     		mov	r0, r1
 1154 0016 FFF7FEFF 		bl	SUBGRF_SetDioIrqParams
 1155              	.LVL130:
 1156              	.L102:
1441:Middlewares/Third_Party/SubGHz_Phy/stm32_radio_driver/radio.c ****     {
 1157              		.loc 1 1441 5 view .LVU296
1441:Middlewares/Third_Party/SubGHz_Phy/stm32_radio_driver/radio.c ****     {
 1158              		.loc 1 1441 7 is_stmt 0 view .LVU297
 1159 001a 84B9     		cbnz	r4, .L108
 1160              	.L103:
1444:Middlewares/Third_Party/SubGHz_Phy/stm32_radio_driver/radio.c ****     }
 1161              		.loc 1 1444 9 is_stmt 1 discriminator 1 view .LVU298
1448:Middlewares/Third_Party/SubGHz_Phy/stm32_radio_driver/radio.c ****     /* Set DBG pin */
 1162              		.loc 1 1448 5 discriminator 1 view .LVU299
1448:Middlewares/Third_Party/SubGHz_Phy/stm32_radio_driver/radio.c ****     /* Set DBG pin */
 1163              		.loc 1 1448 38 is_stmt 0 discriminator 1 view .LVU300
 1164 001c 0F4C     		ldr	r4, .L109
 1165              	.LVL131:
1448:Middlewares/Third_Party/SubGHz_Phy/stm32_radio_driver/radio.c ****     /* Set DBG pin */
 1166              		.loc 1 1448 38 discriminator 1 view .LVU301
 1167 001e 0021     		movs	r1, #0
 1168 0020 A165     		str	r1, [r4, #88]
1450:Middlewares/Third_Party/SubGHz_Phy/stm32_radio_driver/radio.c ****     /* RF switch configuration */
 1169              		.loc 1 1450 29 is_stmt 1 discriminator 1 view .LVU302
1452:Middlewares/Third_Party/SubGHz_Phy/stm32_radio_driver/radio.c ****     /* ST_WORKAROUND_END */
 1170              		.loc 1 1452 5 discriminator 1 view .LVU303
 1171 0022 94F85600 		ldrb	r0, [r4, #86]	@ zero_extendqisi2
 1172 0026 FFF7FEFF 		bl	SUBGRF_SetSwitch
 1173              	.LVL132:
1455:Middlewares/Third_Party/SubGHz_Phy/stm32_radio_driver/radio.c ****     {
 1174              		.loc 1 1455 5 discriminator 1 view .LVU304
1455:Middlewares/Third_Party/SubGHz_Phy/stm32_radio_driver/radio.c ****     {
 1175              		.loc 1 1455 15 is_stmt 0 discriminator 1 view .LVU305
 1176 002a 6378     		ldrb	r3, [r4, #1]	@ zero_extendqisi2
1455:Middlewares/Third_Party/SubGHz_Phy/stm32_radio_driver/radio.c ****     {
 1177              		.loc 1 1455 7 discriminator 1 view .LVU306
 1178 002c 83B1     		cbz	r3, .L104
1457:Middlewares/Third_Party/SubGHz_Phy/stm32_radio_driver/radio.c ****     }
 1179              		.loc 1 1457 9 is_stmt 1 view .LVU307
 1180 002e 6FF07F40 		mvn	r0, #-16777216
 1181 0032 FFF7FEFF 		bl	SUBGRF_SetRxBoosted
 1182              	.LVL133:
ARM GAS  /var/folders/9y/n02fl3g16gnf7ppy14xghdy80000gn/T//cc8eCeeT.s 			page 56


 1183              	.L100:
1463:Middlewares/Third_Party/SubGHz_Phy/stm32_radio_driver/radio.c **** 
 1184              		.loc 1 1463 1 is_stmt 0 view .LVU308
 1185 0036 38BD     		pop	{r3, r4, r5, pc}
 1186              	.LVL134:
 1187              	.L107:
1432:Middlewares/Third_Party/SubGHz_Phy/stm32_radio_driver/radio.c ****     }
 1188              		.loc 1 1432 9 is_stmt 1 view .LVU309
 1189 0038 FFF7FEFF 		bl	RFW_ReceiveInit
 1190              	.LVL135:
 1191 003c EDE7     		b	.L102
 1192              	.L108:
1443:Middlewares/Third_Party/SubGHz_Phy/stm32_radio_driver/radio.c ****         TimerStart( &RxTimeoutTimer );
 1193              		.loc 1 1443 9 view .LVU310
1443:Middlewares/Third_Party/SubGHz_Phy/stm32_radio_driver/radio.c ****         TimerStart( &RxTimeoutTimer );
 1194              		.loc 1 1443 9 view .LVU311
 1195 003e 084D     		ldr	r5, .L109+4
 1196 0040 2146     		mov	r1, r4
 1197 0042 2846     		mov	r0, r5
 1198 0044 FFF7FEFF 		bl	UTIL_TIMER_SetPeriod
 1199              	.LVL136:
1443:Middlewares/Third_Party/SubGHz_Phy/stm32_radio_driver/radio.c ****         TimerStart( &RxTimeoutTimer );
 1200              		.loc 1 1443 9 view .LVU312
1444:Middlewares/Third_Party/SubGHz_Phy/stm32_radio_driver/radio.c ****     }
 1201              		.loc 1 1444 9 view .LVU313
1444:Middlewares/Third_Party/SubGHz_Phy/stm32_radio_driver/radio.c ****     }
 1202              		.loc 1 1444 9 view .LVU314
 1203 0048 2846     		mov	r0, r5
 1204 004a FFF7FEFF 		bl	UTIL_TIMER_Start
 1205              	.LVL137:
 1206 004e E5E7     		b	.L103
 1207              	.LVL138:
 1208              	.L104:
1461:Middlewares/Third_Party/SubGHz_Phy/stm32_radio_driver/radio.c ****     }
 1209              		.loc 1 1461 9 view .LVU315
1461:Middlewares/Third_Party/SubGHz_Phy/stm32_radio_driver/radio.c ****     }
 1210              		.loc 1 1461 36 is_stmt 0 view .LVU316
 1211 0050 024B     		ldr	r3, .L109
 1212 0052 9868     		ldr	r0, [r3, #8]
1461:Middlewares/Third_Party/SubGHz_Phy/stm32_radio_driver/radio.c ****     }
 1213              		.loc 1 1461 9 view .LVU317
 1214 0054 8001     		lsls	r0, r0, #6
 1215 0056 FFF7FEFF 		bl	SUBGRF_SetRxBoosted
 1216              	.LVL139:
1463:Middlewares/Third_Party/SubGHz_Phy/stm32_radio_driver/radio.c **** 
 1217              		.loc 1 1463 1 view .LVU318
 1218 005a ECE7     		b	.L100
 1219              	.L110:
 1220              		.align	2
 1221              	.L109:
 1222 005c 00000000 		.word	.LANCHOR3
 1223 0060 00000000 		.word	.LANCHOR4
 1224              		.cfi_endproc
 1225              	.LFE1180:
 1227              		.section	.text.RadioStandby,"ax",%progbits
 1228              		.align	1
 1229              		.syntax unified
ARM GAS  /var/folders/9y/n02fl3g16gnf7ppy14xghdy80000gn/T//cc8eCeeT.s 			page 57


 1230              		.thumb
 1231              		.thumb_func
 1232              		.fpu softvfp
 1234              	RadioStandby:
 1235              	.LFB1178:
1386:Middlewares/Third_Party/SubGHz_Phy/stm32_radio_driver/radio.c ****     SUBGRF_SetStandby( STDBY_RC );
 1236              		.loc 1 1386 1 is_stmt 1 view -0
 1237              		.cfi_startproc
 1238              		@ args = 0, pretend = 0, frame = 0
 1239              		@ frame_needed = 0, uses_anonymous_args = 0
 1240 0000 08B5     		push	{r3, lr}
 1241              		.cfi_def_cfa_offset 8
 1242              		.cfi_offset 3, -8
 1243              		.cfi_offset 14, -4
1387:Middlewares/Third_Party/SubGHz_Phy/stm32_radio_driver/radio.c **** }
 1244              		.loc 1 1387 5 view .LVU320
 1245 0002 0020     		movs	r0, #0
 1246 0004 FFF7FEFF 		bl	SUBGRF_SetStandby
 1247              	.LVL140:
1388:Middlewares/Third_Party/SubGHz_Phy/stm32_radio_driver/radio.c **** 
 1248              		.loc 1 1388 1 is_stmt 0 view .LVU321
 1249 0008 08BD     		pop	{r3, pc}
 1250              		.cfi_endproc
 1251              	.LFE1178:
 1253              		.section	.text.RadioGetStatus,"ax",%progbits
 1254              		.align	1
 1255              		.syntax unified
 1256              		.thumb
 1257              		.thumb_func
 1258              		.fpu softvfp
 1260              	RadioGetStatus:
 1261              	.LFB1164:
 700:Middlewares/Third_Party/SubGHz_Phy/stm32_radio_driver/radio.c ****     switch( SUBGRF_GetOperatingMode( ) )
 1262              		.loc 1 700 1 is_stmt 1 view -0
 1263              		.cfi_startproc
 1264              		@ args = 0, pretend = 0, frame = 0
 1265              		@ frame_needed = 0, uses_anonymous_args = 0
 1266 0000 08B5     		push	{r3, lr}
 1267              		.cfi_def_cfa_offset 8
 1268              		.cfi_offset 3, -8
 1269              		.cfi_offset 14, -4
 701:Middlewares/Third_Party/SubGHz_Phy/stm32_radio_driver/radio.c ****     {
 1270              		.loc 1 701 5 view .LVU323
 701:Middlewares/Third_Party/SubGHz_Phy/stm32_radio_driver/radio.c ****     {
 1271              		.loc 1 701 13 is_stmt 0 view .LVU324
 1272 0002 FFF7FEFF 		bl	SUBGRF_GetOperatingMode
 1273              	.LVL141:
 701:Middlewares/Third_Party/SubGHz_Phy/stm32_radio_driver/radio.c ****     {
 1274              		.loc 1 701 5 view .LVU325
 1275 0006 0528     		cmp	r0, #5
 1276 0008 07D0     		beq	.L115
 1277 000a 0728     		cmp	r0, #7
 1278 000c 07D0     		beq	.L116
 1279 000e 0428     		cmp	r0, #4
 1280 0010 01D0     		beq	.L119
 710:Middlewares/Third_Party/SubGHz_Phy/stm32_radio_driver/radio.c ****     }
 1281              		.loc 1 710 20 view .LVU326
ARM GAS  /var/folders/9y/n02fl3g16gnf7ppy14xghdy80000gn/T//cc8eCeeT.s 			page 58


 1282 0012 0020     		movs	r0, #0
 1283              	.L114:
 712:Middlewares/Third_Party/SubGHz_Phy/stm32_radio_driver/radio.c **** 
 1284              		.loc 1 712 1 view .LVU327
 1285 0014 08BD     		pop	{r3, pc}
 1286              	.L119:
 701:Middlewares/Third_Party/SubGHz_Phy/stm32_radio_driver/radio.c ****     {
 1287              		.loc 1 701 5 view .LVU328
 1288 0016 0220     		movs	r0, #2
 1289 0018 FCE7     		b	.L114
 1290              	.L115:
 706:Middlewares/Third_Party/SubGHz_Phy/stm32_radio_driver/radio.c ****         case MODE_CAD:
 1291              		.loc 1 706 20 view .LVU329
 1292 001a 0120     		movs	r0, #1
 1293 001c FAE7     		b	.L114
 1294              	.L116:
 708:Middlewares/Third_Party/SubGHz_Phy/stm32_radio_driver/radio.c ****         default:
 1295              		.loc 1 708 20 view .LVU330
 1296 001e 0320     		movs	r0, #3
 1297 0020 F8E7     		b	.L114
 1298              		.cfi_endproc
 1299              	.LFE1164:
 1301              		.section	.rodata.RadioIrqProcess.str1.4,"aMS",%progbits,1
 1302              		.align	2
 1303              	.LC2:
 1304 0000 4952515F 		.ascii	"IRQ_RX_TX_TIMEOUT\015\012\000"
 1304      52585F54 
 1304      585F5449 
 1304      4D454F55 
 1304      540D0A00 
 1305              		.align	2
 1306              	.LC3:
 1307 0014 50524520 		.ascii	"PRE OK\015\012\000"
 1307      4F4B0D0A 
 1307      00
 1308 001d 000000   		.align	2
 1309              	.LC4:
 1310 0020 53594E43 		.ascii	"SYNC OK\015\012\000"
 1310      204F4B0D 
 1310      0A00
 1311 002a 0000     		.align	2
 1312              	.LC5:
 1313 002c 48445220 		.ascii	"HDR OK\015\012\000"
 1313      4F4B0D0A 
 1313      00
 1314 0035 000000   		.align	2
 1315              	.LC6:
 1316 0038 48445220 		.ascii	"HDR KO\015\012\000"
 1316      4B4F0D0A 
 1316      00
 1317 0041 000000   		.align	2
 1318              	.LC7:
 1319 0044 4952515F 		.ascii	"IRQ_CRC_ERROR\015\012\000"
 1319      4352435F 
 1319      4552524F 
 1319      520D0A00 
 1320              		.section	.text.RadioIrqProcess,"ax",%progbits
ARM GAS  /var/folders/9y/n02fl3g16gnf7ppy14xghdy80000gn/T//cc8eCeeT.s 			page 59


 1321              		.align	1
 1322              		.syntax unified
 1323              		.thumb
 1324              		.thumb_func
 1325              		.fpu softvfp
 1327              	RadioIrqProcess:
 1328              	.LFB1197:
1615:Middlewares/Third_Party/SubGHz_Phy/stm32_radio_driver/radio.c ****     uint8_t size = 0;
 1329              		.loc 1 1615 1 is_stmt 1 view -0
 1330              		.cfi_startproc
 1331              		@ args = 0, pretend = 0, frame = 8
 1332              		@ frame_needed = 0, uses_anonymous_args = 0
 1333 0000 30B5     		push	{r4, r5, lr}
 1334              		.cfi_def_cfa_offset 12
 1335              		.cfi_offset 4, -12
 1336              		.cfi_offset 5, -8
 1337              		.cfi_offset 14, -4
 1338 0002 83B0     		sub	sp, sp, #12
 1339              		.cfi_def_cfa_offset 24
1616:Middlewares/Third_Party/SubGHz_Phy/stm32_radio_driver/radio.c ****     int32_t cfo = 0;
 1340              		.loc 1 1616 5 view .LVU332
1616:Middlewares/Third_Party/SubGHz_Phy/stm32_radio_driver/radio.c ****     int32_t cfo = 0;
 1341              		.loc 1 1616 13 is_stmt 0 view .LVU333
 1342 0004 0023     		movs	r3, #0
 1343 0006 8DF80730 		strb	r3, [sp, #7]
1617:Middlewares/Third_Party/SubGHz_Phy/stm32_radio_driver/radio.c **** 
 1344              		.loc 1 1617 5 is_stmt 1 view .LVU334
1617:Middlewares/Third_Party/SubGHz_Phy/stm32_radio_driver/radio.c **** 
 1345              		.loc 1 1617 13 is_stmt 0 view .LVU335
 1346 000a 0093     		str	r3, [sp]
1619:Middlewares/Third_Party/SubGHz_Phy/stm32_radio_driver/radio.c ****     {
 1347              		.loc 1 1619 5 is_stmt 1 view .LVU336
1619:Middlewares/Third_Party/SubGHz_Phy/stm32_radio_driver/radio.c ****     {
 1348              		.loc 1 1619 19 is_stmt 0 view .LVU337
 1349 000c A94B     		ldr	r3, .L148
 1350 000e B3F85430 		ldrh	r3, [r3, #84]
1619:Middlewares/Third_Party/SubGHz_Phy/stm32_radio_driver/radio.c ****     {
 1351              		.loc 1 1619 5 view .LVU338
 1352 0012 202B     		cmp	r3, #32
 1353 0014 29D8     		bhi	.L121
 1354 0016 1AB2     		sxth	r2, r3
 1355 0018 002A     		cmp	r2, #0
 1356 001a 00F03081 		beq	.L120
 1357 001e 013B     		subs	r3, r3, #1
 1358 0020 1F2B     		cmp	r3, #31
 1359 0022 00F22C81 		bhi	.L120
 1360 0026 DFE813F0 		tbh	[pc, r3, lsl #1]
 1361              	.L124:
 1362 002a 5F00     		.2byte	(.L129-.L124)/2
 1363 002c 7700     		.2byte	(.L128-.L124)/2
 1364 002e 2A01     		.2byte	(.L120-.L124)/2
 1365 0030 E700     		.2byte	(.L127-.L124)/2
 1366 0032 2A01     		.2byte	(.L120-.L124)/2
 1367 0034 2A01     		.2byte	(.L120-.L124)/2
 1368 0036 2A01     		.2byte	(.L120-.L124)/2
 1369 0038 1701     		.2byte	(.L126-.L124)/2
 1370 003a 2A01     		.2byte	(.L120-.L124)/2
ARM GAS  /var/folders/9y/n02fl3g16gnf7ppy14xghdy80000gn/T//cc8eCeeT.s 			page 60


 1371 003c 2A01     		.2byte	(.L120-.L124)/2
 1372 003e 2A01     		.2byte	(.L120-.L124)/2
 1373 0040 2A01     		.2byte	(.L120-.L124)/2
 1374 0042 2A01     		.2byte	(.L120-.L124)/2
 1375 0044 2A01     		.2byte	(.L120-.L124)/2
 1376 0046 2A01     		.2byte	(.L120-.L124)/2
 1377 0048 2401     		.2byte	(.L125-.L124)/2
 1378 004a 2A01     		.2byte	(.L120-.L124)/2
 1379 004c 2A01     		.2byte	(.L120-.L124)/2
 1380 004e 2A01     		.2byte	(.L120-.L124)/2
 1381 0050 2A01     		.2byte	(.L120-.L124)/2
 1382 0052 2A01     		.2byte	(.L120-.L124)/2
 1383 0054 2A01     		.2byte	(.L120-.L124)/2
 1384 0056 2A01     		.2byte	(.L120-.L124)/2
 1385 0058 2A01     		.2byte	(.L120-.L124)/2
 1386 005a 2A01     		.2byte	(.L120-.L124)/2
 1387 005c 2A01     		.2byte	(.L120-.L124)/2
 1388 005e 2A01     		.2byte	(.L120-.L124)/2
 1389 0060 2A01     		.2byte	(.L120-.L124)/2
 1390 0062 2A01     		.2byte	(.L120-.L124)/2
 1391 0064 2A01     		.2byte	(.L120-.L124)/2
 1392 0066 2A01     		.2byte	(.L120-.L124)/2
 1393 0068 2C01     		.2byte	(.L123-.L124)/2
 1394              		.p2align 1
 1395              	.L121:
 1396 006a B3F5807F 		cmp	r3, #256
 1397 006e 00F0A780 		beq	.L130
 1398 0072 24D9     		bls	.L142
 1399 0074 B3F5007F 		cmp	r3, #512
 1400 0078 40F00181 		bne	.L120
1692:Middlewares/Third_Party/SubGHz_Phy/stm32_radio_driver/radio.c ****         if( SUBGRF_GetOperatingMode( ) == MODE_TX )
 1401              		.loc 1 1692 9 is_stmt 1 view .LVU339
1692:Middlewares/Third_Party/SubGHz_Phy/stm32_radio_driver/radio.c ****         if( SUBGRF_GetOperatingMode( ) == MODE_TX )
 1402              		.loc 1 1692 9 view .LVU340
 1403 007c 8E4B     		ldr	r3, .L148+4
 1404 007e 0122     		movs	r2, #1
 1405 0080 0021     		movs	r1, #0
 1406 0082 0220     		movs	r0, #2
 1407 0084 FFF7FEFF 		bl	UTIL_ADV_TRACE_COND_FSend
 1408              	.LVL142:
1692:Middlewares/Third_Party/SubGHz_Phy/stm32_radio_driver/radio.c ****         if( SUBGRF_GetOperatingMode( ) == MODE_TX )
 1409              		.loc 1 1692 9 view .LVU341
1693:Middlewares/Third_Party/SubGHz_Phy/stm32_radio_driver/radio.c ****         {
 1410              		.loc 1 1693 9 view .LVU342
1693:Middlewares/Third_Party/SubGHz_Phy/stm32_radio_driver/radio.c ****         {
 1411              		.loc 1 1693 13 is_stmt 0 view .LVU343
 1412 0088 FFF7FEFF 		bl	SUBGRF_GetOperatingMode
 1413              	.LVL143:
1693:Middlewares/Third_Party/SubGHz_Phy/stm32_radio_driver/radio.c ****         {
 1414              		.loc 1 1693 11 view .LVU344
 1415 008c 0428     		cmp	r0, #4
 1416 008e 00F0A480 		beq	.L143
1707:Middlewares/Third_Party/SubGHz_Phy/stm32_radio_driver/radio.c ****         {
 1417              		.loc 1 1707 14 is_stmt 1 view .LVU345
1707:Middlewares/Third_Party/SubGHz_Phy/stm32_radio_driver/radio.c ****         {
 1418              		.loc 1 1707 18 is_stmt 0 view .LVU346
 1419 0092 FFF7FEFF 		bl	SUBGRF_GetOperatingMode
ARM GAS  /var/folders/9y/n02fl3g16gnf7ppy14xghdy80000gn/T//cc8eCeeT.s 			page 61


 1420              	.LVL144:
1707:Middlewares/Third_Party/SubGHz_Phy/stm32_radio_driver/radio.c ****         {
 1421              		.loc 1 1707 16 view .LVU347
 1422 0096 0528     		cmp	r0, #5
 1423 0098 40F0F180 		bne	.L120
1710:Middlewares/Third_Party/SubGHz_Phy/stm32_radio_driver/radio.c ****             /* ST_WORKAROUND_END */
 1424              		.loc 1 1710 37 is_stmt 1 view .LVU348
1713:Middlewares/Third_Party/SubGHz_Phy/stm32_radio_driver/radio.c ****             //!< Update operating mode state to a value lower than \ref MODE_STDBY_XOSC
 1425              		.loc 1 1713 13 view .LVU349
1713:Middlewares/Third_Party/SubGHz_Phy/stm32_radio_driver/radio.c ****             //!< Update operating mode state to a value lower than \ref MODE_STDBY_XOSC
 1426              		.loc 1 1713 13 view .LVU350
 1427 009c 8748     		ldr	r0, .L148+8
 1428 009e FFF7FEFF 		bl	UTIL_TIMER_Stop
 1429              	.LVL145:
1713:Middlewares/Third_Party/SubGHz_Phy/stm32_radio_driver/radio.c ****             //!< Update operating mode state to a value lower than \ref MODE_STDBY_XOSC
 1430              		.loc 1 1713 13 view .LVU351
1715:Middlewares/Third_Party/SubGHz_Phy/stm32_radio_driver/radio.c ****             if( ( RadioEvents != NULL ) && ( RadioEvents->RxTimeout != NULL ) )
 1431              		.loc 1 1715 13 view .LVU352
 1432 00a2 0020     		movs	r0, #0
 1433 00a4 FFF7FEFF 		bl	SUBGRF_SetStandby
 1434              	.LVL146:
1716:Middlewares/Third_Party/SubGHz_Phy/stm32_radio_driver/radio.c ****             {
 1435              		.loc 1 1716 13 view .LVU353
1716:Middlewares/Third_Party/SubGHz_Phy/stm32_radio_driver/radio.c ****             {
 1436              		.loc 1 1716 31 is_stmt 0 view .LVU354
 1437 00a8 854B     		ldr	r3, .L148+12
 1438 00aa 1B68     		ldr	r3, [r3]
1716:Middlewares/Third_Party/SubGHz_Phy/stm32_radio_driver/radio.c ****             {
 1439              		.loc 1 1716 15 view .LVU355
 1440 00ac 002B     		cmp	r3, #0
 1441 00ae 00F0E680 		beq	.L120
1716:Middlewares/Third_Party/SubGHz_Phy/stm32_radio_driver/radio.c ****             {
 1442              		.loc 1 1716 57 discriminator 1 view .LVU356
 1443 00b2 DB68     		ldr	r3, [r3, #12]
1716:Middlewares/Third_Party/SubGHz_Phy/stm32_radio_driver/radio.c ****             {
 1444              		.loc 1 1716 41 discriminator 1 view .LVU357
 1445 00b4 002B     		cmp	r3, #0
 1446 00b6 00F0E280 		beq	.L120
1718:Middlewares/Third_Party/SubGHz_Phy/stm32_radio_driver/radio.c ****             }
 1447              		.loc 1 1718 17 is_stmt 1 view .LVU358
 1448 00ba 9847     		blx	r3
 1449              	.LVL147:
 1450 00bc DFE0     		b	.L120
 1451              	.L142:
1619:Middlewares/Third_Party/SubGHz_Phy/stm32_radio_driver/radio.c ****     {
 1452              		.loc 1 1619 5 is_stmt 0 view .LVU359
 1453 00be 402B     		cmp	r3, #64
 1454 00c0 00F01081 		beq	.L132
 1455 00c4 802B     		cmp	r3, #128
 1456 00c6 40F0DA80 		bne	.L120
1676:Middlewares/Third_Party/SubGHz_Phy/stm32_radio_driver/radio.c ****         if( ( RadioEvents != NULL ) && ( RadioEvents->CadDone != NULL ) )
 1457              		.loc 1 1676 9 is_stmt 1 view .LVU360
 1458 00ca 0020     		movs	r0, #0
 1459 00cc FFF7FEFF 		bl	SUBGRF_SetStandby
 1460              	.LVL148:
1677:Middlewares/Third_Party/SubGHz_Phy/stm32_radio_driver/radio.c ****         {
 1461              		.loc 1 1677 9 view .LVU361
ARM GAS  /var/folders/9y/n02fl3g16gnf7ppy14xghdy80000gn/T//cc8eCeeT.s 			page 62


1677:Middlewares/Third_Party/SubGHz_Phy/stm32_radio_driver/radio.c ****         {
 1462              		.loc 1 1677 27 is_stmt 0 view .LVU362
 1463 00d0 7B4B     		ldr	r3, .L148+12
 1464 00d2 1B68     		ldr	r3, [r3]
1677:Middlewares/Third_Party/SubGHz_Phy/stm32_radio_driver/radio.c ****         {
 1465              		.loc 1 1677 11 view .LVU363
 1466 00d4 002B     		cmp	r3, #0
 1467 00d6 00F0D280 		beq	.L120
1677:Middlewares/Third_Party/SubGHz_Phy/stm32_radio_driver/radio.c ****         {
 1468              		.loc 1 1677 53 discriminator 1 view .LVU364
 1469 00da 9B69     		ldr	r3, [r3, #24]
1677:Middlewares/Third_Party/SubGHz_Phy/stm32_radio_driver/radio.c ****         {
 1470              		.loc 1 1677 37 discriminator 1 view .LVU365
 1471 00dc 002B     		cmp	r3, #0
 1472 00de 00F0CE80 		beq	.L120
1679:Middlewares/Third_Party/SubGHz_Phy/stm32_radio_driver/radio.c ****         }
 1473              		.loc 1 1679 13 is_stmt 1 view .LVU366
 1474 00e2 0020     		movs	r0, #0
 1475 00e4 9847     		blx	r3
 1476              	.LVL149:
 1477 00e6 CAE0     		b	.L120
 1478              	.L129:
1623:Middlewares/Third_Party/SubGHz_Phy/stm32_radio_driver/radio.c ****         /* ST_WORKAROUND_END */
 1479              		.loc 1 1623 33 view .LVU367
1626:Middlewares/Third_Party/SubGHz_Phy/stm32_radio_driver/radio.c ****         //!< Update operating mode state to a value lower than \ref MODE_STDBY_XOSC
 1480              		.loc 1 1626 9 view .LVU368
1626:Middlewares/Third_Party/SubGHz_Phy/stm32_radio_driver/radio.c ****         //!< Update operating mode state to a value lower than \ref MODE_STDBY_XOSC
 1481              		.loc 1 1626 9 view .LVU369
 1482 00e8 7648     		ldr	r0, .L148+16
 1483 00ea FFF7FEFF 		bl	UTIL_TIMER_Stop
 1484              	.LVL150:
1626:Middlewares/Third_Party/SubGHz_Phy/stm32_radio_driver/radio.c ****         //!< Update operating mode state to a value lower than \ref MODE_STDBY_XOSC
 1485              		.loc 1 1626 9 view .LVU370
1628:Middlewares/Third_Party/SubGHz_Phy/stm32_radio_driver/radio.c **** 
 1486              		.loc 1 1628 9 view .LVU371
 1487 00ee 0020     		movs	r0, #0
 1488 00f0 FFF7FEFF 		bl	SUBGRF_SetStandby
 1489              	.LVL151:
1630:Middlewares/Third_Party/SubGHz_Phy/stm32_radio_driver/radio.c ****         {
 1490              		.loc 1 1630 9 view .LVU372
1630:Middlewares/Third_Party/SubGHz_Phy/stm32_radio_driver/radio.c ****         {
 1491              		.loc 1 1630 13 is_stmt 0 view .LVU373
 1492 00f4 FFF7FEFF 		bl	RFW_Is_LongPacketModeEnabled
 1493              	.LVL152:
1630:Middlewares/Third_Party/SubGHz_Phy/stm32_radio_driver/radio.c ****         {
 1494              		.loc 1 1630 11 view .LVU374
 1495 00f8 0128     		cmp	r0, #1
 1496 00fa 0AD0     		beq	.L144
 1497              	.L135:
1635:Middlewares/Third_Party/SubGHz_Phy/stm32_radio_driver/radio.c ****         {
 1498              		.loc 1 1635 9 is_stmt 1 view .LVU375
1635:Middlewares/Third_Party/SubGHz_Phy/stm32_radio_driver/radio.c ****         {
 1499              		.loc 1 1635 27 is_stmt 0 view .LVU376
 1500 00fc 704B     		ldr	r3, .L148+12
 1501 00fe 1B68     		ldr	r3, [r3]
1635:Middlewares/Third_Party/SubGHz_Phy/stm32_radio_driver/radio.c ****         {
 1502              		.loc 1 1635 11 view .LVU377
ARM GAS  /var/folders/9y/n02fl3g16gnf7ppy14xghdy80000gn/T//cc8eCeeT.s 			page 63


 1503 0100 002B     		cmp	r3, #0
 1504 0102 00F0BC80 		beq	.L120
1635:Middlewares/Third_Party/SubGHz_Phy/stm32_radio_driver/radio.c ****         {
 1505              		.loc 1 1635 53 discriminator 1 view .LVU378
 1506 0106 1B68     		ldr	r3, [r3]
1635:Middlewares/Third_Party/SubGHz_Phy/stm32_radio_driver/radio.c ****         {
 1507              		.loc 1 1635 37 discriminator 1 view .LVU379
 1508 0108 002B     		cmp	r3, #0
 1509 010a 00F0B880 		beq	.L120
1637:Middlewares/Third_Party/SubGHz_Phy/stm32_radio_driver/radio.c ****         }
 1510              		.loc 1 1637 13 is_stmt 1 view .LVU380
 1511 010e 9847     		blx	r3
 1512              	.LVL153:
 1513 0110 B5E0     		b	.L120
 1514              	.L144:
1632:Middlewares/Third_Party/SubGHz_Phy/stm32_radio_driver/radio.c ****         }
 1515              		.loc 1 1632 13 view .LVU381
 1516 0112 FFF7FEFF 		bl	RFW_DeInit_TxLongPacket
 1517              	.LVL154:
 1518 0116 F1E7     		b	.L135
 1519              	.L128:
1643:Middlewares/Third_Party/SubGHz_Phy/stm32_radio_driver/radio.c ****         /* ST_WORKAROUND_END */
 1520              		.loc 1 1643 33 view .LVU382
1646:Middlewares/Third_Party/SubGHz_Phy/stm32_radio_driver/radio.c ****         if( SubgRf.RxContinuous == false )
 1521              		.loc 1 1646 9 view .LVU383
1646:Middlewares/Third_Party/SubGHz_Phy/stm32_radio_driver/radio.c ****         if( SubgRf.RxContinuous == false )
 1522              		.loc 1 1646 9 view .LVU384
 1523 0118 6848     		ldr	r0, .L148+8
 1524 011a FFF7FEFF 		bl	UTIL_TIMER_Stop
 1525              	.LVL155:
1646:Middlewares/Third_Party/SubGHz_Phy/stm32_radio_driver/radio.c ****         if( SubgRf.RxContinuous == false )
 1526              		.loc 1 1646 9 view .LVU385
1647:Middlewares/Third_Party/SubGHz_Phy/stm32_radio_driver/radio.c ****         {
 1527              		.loc 1 1647 9 view .LVU386
1647:Middlewares/Third_Party/SubGHz_Phy/stm32_radio_driver/radio.c ****         {
 1528              		.loc 1 1647 19 is_stmt 0 view .LVU387
 1529 011e 654B     		ldr	r3, .L148
 1530 0120 5B78     		ldrb	r3, [r3, #1]	@ zero_extendqisi2
1647:Middlewares/Third_Party/SubGHz_Phy/stm32_radio_driver/radio.c ****         {
 1531              		.loc 1 1647 11 view .LVU388
 1532 0122 03B3     		cbz	r3, .L145
 1533              	.L136:
1657:Middlewares/Third_Party/SubGHz_Phy/stm32_radio_driver/radio.c ****         SUBGRF_GetPacketStatus( &( SubgRf.PacketStatus ) );
 1534              		.loc 1 1657 9 is_stmt 1 view .LVU389
 1535 0124 FF22     		movs	r2, #255
 1536 0126 0DF10701 		add	r1, sp, #7
 1537 012a 6748     		ldr	r0, .L148+20
 1538 012c FFF7FEFF 		bl	SUBGRF_GetPayload
 1539              	.LVL156:
1658:Middlewares/Third_Party/SubGHz_Phy/stm32_radio_driver/radio.c ****         if( ( RadioEvents != NULL ) && ( RadioEvents->RxDone != NULL ) )
 1540              		.loc 1 1658 9 view .LVU390
 1541 0130 6648     		ldr	r0, .L148+24
 1542 0132 FFF7FEFF 		bl	SUBGRF_GetPacketStatus
 1543              	.LVL157:
1659:Middlewares/Third_Party/SubGHz_Phy/stm32_radio_driver/radio.c ****         {
 1544              		.loc 1 1659 9 view .LVU391
1659:Middlewares/Third_Party/SubGHz_Phy/stm32_radio_driver/radio.c ****         {
ARM GAS  /var/folders/9y/n02fl3g16gnf7ppy14xghdy80000gn/T//cc8eCeeT.s 			page 64


 1545              		.loc 1 1659 27 is_stmt 0 view .LVU392
 1546 0136 624B     		ldr	r3, .L148+12
 1547 0138 1B68     		ldr	r3, [r3]
1659:Middlewares/Third_Party/SubGHz_Phy/stm32_radio_driver/radio.c ****         {
 1548              		.loc 1 1659 11 view .LVU393
 1549 013a 002B     		cmp	r3, #0
 1550 013c 00F09F80 		beq	.L120
1659:Middlewares/Third_Party/SubGHz_Phy/stm32_radio_driver/radio.c ****         {
 1551              		.loc 1 1659 53 discriminator 1 view .LVU394
 1552 0140 9C68     		ldr	r4, [r3, #8]
1659:Middlewares/Third_Party/SubGHz_Phy/stm32_radio_driver/radio.c ****         {
 1553              		.loc 1 1659 37 discriminator 1 view .LVU395
 1554 0142 002C     		cmp	r4, #0
 1555 0144 00F09B80 		beq	.L120
1661:Middlewares/Third_Party/SubGHz_Phy/stm32_radio_driver/radio.c ****             {
 1556              		.loc 1 1661 13 is_stmt 1 view .LVU396
1661:Middlewares/Third_Party/SubGHz_Phy/stm32_radio_driver/radio.c ****             {
 1557              		.loc 1 1661 40 is_stmt 0 view .LVU397
 1558 0148 5A4B     		ldr	r3, .L148
 1559 014a 93F82430 		ldrb	r3, [r3, #36]	@ zero_extendqisi2
 1560 014e 012B     		cmp	r3, #1
 1561 0150 1DD1     		bne	.L137
1664:Middlewares/Third_Party/SubGHz_Phy/stm32_radio_driver/radio.c ****                 break;
 1562              		.loc 1 1664 17 is_stmt 1 view .LVU398
1664:Middlewares/Third_Party/SubGHz_Phy/stm32_radio_driver/radio.c ****                 break;
 1563              		.loc 1 1664 88 is_stmt 0 view .LVU399
 1564 0152 584A     		ldr	r2, .L148
1664:Middlewares/Third_Party/SubGHz_Phy/stm32_radio_driver/radio.c ****                 break;
 1565              		.loc 1 1664 17 view .LVU400
 1566 0154 92F93130 		ldrsb	r3, [r2, #49]
 1567 0158 92F93020 		ldrsb	r2, [r2, #48]
 1568 015c 9DF80710 		ldrb	r1, [sp, #7]	@ zero_extendqisi2
 1569 0160 5948     		ldr	r0, .L148+20
 1570 0162 A047     		blx	r4
 1571              	.LVL158:
1665:Middlewares/Third_Party/SubGHz_Phy/stm32_radio_driver/radio.c ****             default:
 1572              		.loc 1 1665 17 is_stmt 1 view .LVU401
 1573 0164 8BE0     		b	.L120
 1574              	.L145:
1650:Middlewares/Third_Party/SubGHz_Phy/stm32_radio_driver/radio.c **** 
 1575              		.loc 1 1650 13 view .LVU402
 1576 0166 0020     		movs	r0, #0
 1577 0168 FFF7FEFF 		bl	SUBGRF_SetStandby
 1578              	.LVL159:
1653:Middlewares/Third_Party/SubGHz_Phy/stm32_radio_driver/radio.c ****             SUBGRF_WriteRegister( SUBGHZ_EVENTMASKR, SUBGRF_ReadRegister( SUBGHZ_EVENTMASKR ) | ( 1
 1579              		.loc 1 1653 13 view .LVU403
 1580 016c 0021     		movs	r1, #0
 1581 016e 40F60210 		movw	r0, #2306
 1582 0172 FFF7FEFF 		bl	SUBGRF_WriteRegister
 1583              	.LVL160:
1654:Middlewares/Third_Party/SubGHz_Phy/stm32_radio_driver/radio.c ****             // WORKAROUND END
 1584              		.loc 1 1654 13 view .LVU404
1654:Middlewares/Third_Party/SubGHz_Phy/stm32_radio_driver/radio.c ****             // WORKAROUND END
 1585              		.loc 1 1654 54 is_stmt 0 view .LVU405
 1586 0176 40F64410 		movw	r0, #2372
 1587 017a FFF7FEFF 		bl	SUBGRF_ReadRegister
 1588              	.LVL161:
ARM GAS  /var/folders/9y/n02fl3g16gnf7ppy14xghdy80000gn/T//cc8eCeeT.s 			page 65


1654:Middlewares/Third_Party/SubGHz_Phy/stm32_radio_driver/radio.c ****             // WORKAROUND END
 1589              		.loc 1 1654 13 view .LVU406
 1590 017e 40F00201 		orr	r1, r0, #2
 1591 0182 C9B2     		uxtb	r1, r1
 1592 0184 40F64410 		movw	r0, #2372
 1593 0188 FFF7FEFF 		bl	SUBGRF_WriteRegister
 1594              	.LVL162:
 1595 018c CAE7     		b	.L136
 1596              	.L137:
1667:Middlewares/Third_Party/SubGHz_Phy/stm32_radio_driver/radio.c ****                 RadioEvents->RxDone( RadioBuffer, size, SubgRf.PacketStatus.Params.Gfsk.RssiAvg, (i
 1597              		.loc 1 1667 17 is_stmt 1 view .LVU407
 1598 018e 494C     		ldr	r4, .L148
 1599 0190 6946     		mov	r1, sp
 1600 0192 E06B     		ldr	r0, [r4, #60]
 1601 0194 FFF7FEFF 		bl	SUBGRF_GetCFO
 1602              	.LVL163:
1668:Middlewares/Third_Party/SubGHz_Phy/stm32_radio_driver/radio.c ****                 break;
 1603              		.loc 1 1668 17 view .LVU408
1668:Middlewares/Third_Party/SubGHz_Phy/stm32_radio_driver/radio.c ****                 break;
 1604              		.loc 1 1668 28 is_stmt 0 view .LVU409
 1605 0198 494B     		ldr	r3, .L148+12
 1606 019a 1B68     		ldr	r3, [r3]
 1607 019c 9D68     		ldr	r5, [r3, #8]
1668:Middlewares/Third_Party/SubGHz_Phy/stm32_radio_driver/radio.c ****                 break;
 1608              		.loc 1 1668 107 view .LVU410
 1609 019e 009B     		ldr	r3, [sp]
 1610 01a0 03F5FA73 		add	r3, r3, #500
 1611 01a4 4A4A     		ldr	r2, .L148+28
 1612 01a6 82FB0312 		smull	r1, r2, r2, r3
 1613 01aa DB17     		asrs	r3, r3, #31
 1614 01ac C3EBA213 		rsb	r3, r3, r2, asr #6
1668:Middlewares/Third_Party/SubGHz_Phy/stm32_radio_driver/radio.c ****                 break;
 1615              		.loc 1 1668 17 view .LVU411
 1616 01b0 5BB2     		sxtb	r3, r3
 1617 01b2 94F92920 		ldrsb	r2, [r4, #41]
 1618 01b6 9DF80710 		ldrb	r1, [sp, #7]	@ zero_extendqisi2
 1619 01ba 4348     		ldr	r0, .L148+20
 1620 01bc A847     		blx	r5
 1621              	.LVL164:
1669:Middlewares/Third_Party/SubGHz_Phy/stm32_radio_driver/radio.c ****             }
 1622              		.loc 1 1669 17 is_stmt 1 view .LVU412
 1623 01be 5EE0     		b	.L120
 1624              	.L130:
1684:Middlewares/Third_Party/SubGHz_Phy/stm32_radio_driver/radio.c ****         if( ( RadioEvents != NULL ) && ( RadioEvents->CadDone != NULL ) )
 1625              		.loc 1 1684 9 view .LVU413
 1626 01c0 0020     		movs	r0, #0
 1627 01c2 FFF7FEFF 		bl	SUBGRF_SetStandby
 1628              	.LVL165:
1685:Middlewares/Third_Party/SubGHz_Phy/stm32_radio_driver/radio.c ****         {
 1629              		.loc 1 1685 9 view .LVU414
1685:Middlewares/Third_Party/SubGHz_Phy/stm32_radio_driver/radio.c ****         {
 1630              		.loc 1 1685 27 is_stmt 0 view .LVU415
 1631 01c6 3E4B     		ldr	r3, .L148+12
 1632 01c8 1B68     		ldr	r3, [r3]
1685:Middlewares/Third_Party/SubGHz_Phy/stm32_radio_driver/radio.c ****         {
 1633              		.loc 1 1685 11 view .LVU416
 1634 01ca 002B     		cmp	r3, #0
ARM GAS  /var/folders/9y/n02fl3g16gnf7ppy14xghdy80000gn/T//cc8eCeeT.s 			page 66


 1635 01cc 57D0     		beq	.L120
1685:Middlewares/Third_Party/SubGHz_Phy/stm32_radio_driver/radio.c ****         {
 1636              		.loc 1 1685 53 discriminator 1 view .LVU417
 1637 01ce 9B69     		ldr	r3, [r3, #24]
1685:Middlewares/Third_Party/SubGHz_Phy/stm32_radio_driver/radio.c ****         {
 1638              		.loc 1 1685 37 discriminator 1 view .LVU418
 1639 01d0 002B     		cmp	r3, #0
 1640 01d2 54D0     		beq	.L120
1687:Middlewares/Third_Party/SubGHz_Phy/stm32_radio_driver/radio.c ****         }
 1641              		.loc 1 1687 13 is_stmt 1 view .LVU419
 1642 01d4 0120     		movs	r0, #1
 1643 01d6 9847     		blx	r3
 1644              	.LVL166:
 1645 01d8 51E0     		b	.L120
 1646              	.L143:
1696:Middlewares/Third_Party/SubGHz_Phy/stm32_radio_driver/radio.c ****             /* ST_WORKAROUND_END */
 1647              		.loc 1 1696 37 view .LVU420
1699:Middlewares/Third_Party/SubGHz_Phy/stm32_radio_driver/radio.c ****             //!< Update operating mode state to a value lower than \ref MODE_STDBY_XOSC
 1648              		.loc 1 1699 13 view .LVU421
1699:Middlewares/Third_Party/SubGHz_Phy/stm32_radio_driver/radio.c ****             //!< Update operating mode state to a value lower than \ref MODE_STDBY_XOSC
 1649              		.loc 1 1699 13 view .LVU422
 1650 01da 3A48     		ldr	r0, .L148+16
 1651 01dc FFF7FEFF 		bl	UTIL_TIMER_Stop
 1652              	.LVL167:
1699:Middlewares/Third_Party/SubGHz_Phy/stm32_radio_driver/radio.c ****             //!< Update operating mode state to a value lower than \ref MODE_STDBY_XOSC
 1653              		.loc 1 1699 13 view .LVU423
1701:Middlewares/Third_Party/SubGHz_Phy/stm32_radio_driver/radio.c ****             if( ( RadioEvents != NULL ) && ( RadioEvents->TxTimeout != NULL ) )
 1654              		.loc 1 1701 13 view .LVU424
 1655 01e0 0020     		movs	r0, #0
 1656 01e2 FFF7FEFF 		bl	SUBGRF_SetStandby
 1657              	.LVL168:
1702:Middlewares/Third_Party/SubGHz_Phy/stm32_radio_driver/radio.c ****             {
 1658              		.loc 1 1702 13 view .LVU425
1702:Middlewares/Third_Party/SubGHz_Phy/stm32_radio_driver/radio.c ****             {
 1659              		.loc 1 1702 31 is_stmt 0 view .LVU426
 1660 01e6 364B     		ldr	r3, .L148+12
 1661 01e8 1B68     		ldr	r3, [r3]
1702:Middlewares/Third_Party/SubGHz_Phy/stm32_radio_driver/radio.c ****             {
 1662              		.loc 1 1702 15 view .LVU427
 1663 01ea 002B     		cmp	r3, #0
 1664 01ec 47D0     		beq	.L120
1702:Middlewares/Third_Party/SubGHz_Phy/stm32_radio_driver/radio.c ****             {
 1665              		.loc 1 1702 57 discriminator 1 view .LVU428
 1666 01ee 5B68     		ldr	r3, [r3, #4]
1702:Middlewares/Third_Party/SubGHz_Phy/stm32_radio_driver/radio.c ****             {
 1667              		.loc 1 1702 41 discriminator 1 view .LVU429
 1668 01f0 002B     		cmp	r3, #0
 1669 01f2 44D0     		beq	.L120
1704:Middlewares/Third_Party/SubGHz_Phy/stm32_radio_driver/radio.c ****             }
 1670              		.loc 1 1704 17 is_stmt 1 view .LVU430
 1671 01f4 9847     		blx	r3
 1672              	.LVL169:
 1673 01f6 42E0     		b	.L120
 1674              	.L127:
1723:Middlewares/Third_Party/SubGHz_Phy/stm32_radio_driver/radio.c ****         /*See STM32WL Errata: RadioSetRxDutyCycle*/
 1675              		.loc 1 1723 9 view .LVU431
1723:Middlewares/Third_Party/SubGHz_Phy/stm32_radio_driver/radio.c ****         /*See STM32WL Errata: RadioSetRxDutyCycle*/
ARM GAS  /var/folders/9y/n02fl3g16gnf7ppy14xghdy80000gn/T//cc8eCeeT.s 			page 67


 1676              		.loc 1 1723 9 view .LVU432
 1677 01f8 364B     		ldr	r3, .L148+32
 1678 01fa 0122     		movs	r2, #1
 1679 01fc 0021     		movs	r1, #0
 1680 01fe 0220     		movs	r0, #2
 1681 0200 FFF7FEFF 		bl	UTIL_ADV_TRACE_COND_FSend
 1682              	.LVL170:
1723:Middlewares/Third_Party/SubGHz_Phy/stm32_radio_driver/radio.c ****         /*See STM32WL Errata: RadioSetRxDutyCycle*/
 1683              		.loc 1 1723 9 view .LVU433
1725:Middlewares/Third_Party/SubGHz_Phy/stm32_radio_driver/radio.c ****         {
 1684              		.loc 1 1725 9 view .LVU434
1725:Middlewares/Third_Party/SubGHz_Phy/stm32_radio_driver/radio.c ****         {
 1685              		.loc 1 1725 19 is_stmt 0 view .LVU435
 1686 0204 2B4B     		ldr	r3, .L148
 1687 0206 996D     		ldr	r1, [r3, #88]
1725:Middlewares/Third_Party/SubGHz_Phy/stm32_radio_driver/radio.c ****         {
 1688              		.loc 1 1725 11 view .LVU436
 1689 0208 C9B3     		cbz	r1, .L120
1728:Middlewares/Third_Party/SubGHz_Phy/stm32_radio_driver/radio.c ****           Radio.Write(SUBGHZ_RTCPRDR1, (SubgRf.RxDcPreambleDetectTimeout>>8)&0xFF); /*Update Radio 
 1690              		.loc 1 1728 11 is_stmt 1 view .LVU437
 1691 020a C1F30741 		ubfx	r1, r1, #16, #8
 1692 020e 40F60310 		movw	r0, #2307
 1693 0212 FFF7FEFF 		bl	RadioWrite
 1694              	.LVL171:
1729:Middlewares/Third_Party/SubGHz_Phy/stm32_radio_driver/radio.c ****           Radio.Write(SUBGHZ_RTCPRDR0, (SubgRf.RxDcPreambleDetectTimeout)&0xFF); /*Update Radio RTC
 1695              		.loc 1 1729 11 view .LVU438
1729:Middlewares/Third_Party/SubGHz_Phy/stm32_radio_driver/radio.c ****           Radio.Write(SUBGHZ_RTCPRDR0, (SubgRf.RxDcPreambleDetectTimeout)&0xFF); /*Update Radio RTC
 1696              		.loc 1 1729 47 is_stmt 0 view .LVU439
 1697 0216 274C     		ldr	r4, .L148
1729:Middlewares/Third_Party/SubGHz_Phy/stm32_radio_driver/radio.c ****           Radio.Write(SUBGHZ_RTCPRDR0, (SubgRf.RxDcPreambleDetectTimeout)&0xFF); /*Update Radio RTC
 1698              		.loc 1 1729 11 view .LVU440
 1699 0218 94F85910 		ldrb	r1, [r4, #89]	@ zero_extendqisi2
 1700 021c 40F60410 		movw	r0, #2308
 1701 0220 FFF7FEFF 		bl	RadioWrite
 1702              	.LVL172:
1730:Middlewares/Third_Party/SubGHz_Phy/stm32_radio_driver/radio.c ****           Radio.Write(SUBGHZ_RTCCTLR, Radio.Read(SUBGHZ_RTCCTLR)|0x1); /*restart Radio RTC*/
 1703              		.loc 1 1730 11 is_stmt 1 view .LVU441
 1704 0224 94F85810 		ldrb	r1, [r4, #88]	@ zero_extendqisi2
 1705 0228 40F60510 		movw	r0, #2309
 1706 022c FFF7FEFF 		bl	RadioWrite
 1707              	.LVL173:
1731:Middlewares/Third_Party/SubGHz_Phy/stm32_radio_driver/radio.c ****           SubgRf.RxDcPreambleDetectTimeout = 0;
 1708              		.loc 1 1731 11 view .LVU442
1731:Middlewares/Third_Party/SubGHz_Phy/stm32_radio_driver/radio.c ****           SubgRf.RxDcPreambleDetectTimeout = 0;
 1709              		.loc 1 1731 39 is_stmt 0 view .LVU443
 1710 0230 40F60210 		movw	r0, #2306
 1711 0234 FFF7FEFF 		bl	RadioRead
 1712              	.LVL174:
1731:Middlewares/Third_Party/SubGHz_Phy/stm32_radio_driver/radio.c ****           SubgRf.RxDcPreambleDetectTimeout = 0;
 1713              		.loc 1 1731 11 view .LVU444
 1714 0238 40F00101 		orr	r1, r0, #1
 1715 023c C9B2     		uxtb	r1, r1
 1716 023e 40F60210 		movw	r0, #2306
 1717 0242 FFF7FEFF 		bl	RadioWrite
 1718              	.LVL175:
1732:Middlewares/Third_Party/SubGHz_Phy/stm32_radio_driver/radio.c ****           /*Clear IRQ_PREAMBLE_DETECTED mask*/
 1719              		.loc 1 1732 11 is_stmt 1 view .LVU445
ARM GAS  /var/folders/9y/n02fl3g16gnf7ppy14xghdy80000gn/T//cc8eCeeT.s 			page 68


1732:Middlewares/Third_Party/SubGHz_Phy/stm32_radio_driver/radio.c ****           /*Clear IRQ_PREAMBLE_DETECTED mask*/
 1720              		.loc 1 1732 44 is_stmt 0 view .LVU446
 1721 0246 0022     		movs	r2, #0
 1722 0248 A265     		str	r2, [r4, #88]
1734:Middlewares/Third_Party/SubGHz_Phy/stm32_radio_driver/radio.c ****                                   IRQ_RX_DONE | IRQ_RX_TX_TIMEOUT | IRQ_CRC_ERROR | IRQ_HEADER_ERRO
 1723              		.loc 1 1734 11 is_stmt 1 view .LVU447
 1724 024a 1346     		mov	r3, r2
 1725 024c 40F26221 		movw	r1, #610
 1726 0250 0846     		mov	r0, r1
 1727 0252 FFF7FEFF 		bl	SUBGRF_SetDioIrqParams
 1728              	.LVL176:
 1729 0256 12E0     		b	.L120
 1730              	.L126:
1743:Middlewares/Third_Party/SubGHz_Phy/stm32_radio_driver/radio.c ****         if( 1UL == RFW_Is_Init( ) )
 1731              		.loc 1 1743 9 view .LVU448
1743:Middlewares/Third_Party/SubGHz_Phy/stm32_radio_driver/radio.c ****         if( 1UL == RFW_Is_Init( ) )
 1732              		.loc 1 1743 9 view .LVU449
 1733 0258 1F4B     		ldr	r3, .L148+36
 1734 025a 0122     		movs	r2, #1
 1735 025c 0021     		movs	r1, #0
 1736 025e 0220     		movs	r0, #2
 1737 0260 FFF7FEFF 		bl	UTIL_ADV_TRACE_COND_FSend
 1738              	.LVL177:
1743:Middlewares/Third_Party/SubGHz_Phy/stm32_radio_driver/radio.c ****         if( 1UL == RFW_Is_Init( ) )
 1739              		.loc 1 1743 9 view .LVU450
1744:Middlewares/Third_Party/SubGHz_Phy/stm32_radio_driver/radio.c ****         {
 1740              		.loc 1 1744 9 view .LVU451
1744:Middlewares/Third_Party/SubGHz_Phy/stm32_radio_driver/radio.c ****         {
 1741              		.loc 1 1744 20 is_stmt 0 view .LVU452
 1742 0264 FFF7FEFF 		bl	RFW_Is_Init
 1743              	.LVL178:
1744:Middlewares/Third_Party/SubGHz_Phy/stm32_radio_driver/radio.c ****         {
 1744              		.loc 1 1744 11 view .LVU453
 1745 0268 0128     		cmp	r0, #1
 1746 026a 08D1     		bne	.L120
1746:Middlewares/Third_Party/SubGHz_Phy/stm32_radio_driver/radio.c ****         }
 1747              		.loc 1 1746 13 is_stmt 1 view .LVU454
 1748 026c FFF7FEFF 		bl	RFW_ReceivePayload
 1749              	.LVL179:
 1750 0270 05E0     		b	.L120
 1751              	.L125:
1751:Middlewares/Third_Party/SubGHz_Phy/stm32_radio_driver/radio.c ****         break;
 1752              		.loc 1 1751 9 view .LVU455
1751:Middlewares/Third_Party/SubGHz_Phy/stm32_radio_driver/radio.c ****         break;
 1753              		.loc 1 1751 9 view .LVU456
 1754 0272 1A4B     		ldr	r3, .L148+40
 1755 0274 0122     		movs	r2, #1
 1756 0276 0021     		movs	r1, #0
 1757 0278 0220     		movs	r0, #2
 1758 027a FFF7FEFF 		bl	UTIL_ADV_TRACE_COND_FSend
 1759              	.LVL180:
1751:Middlewares/Third_Party/SubGHz_Phy/stm32_radio_driver/radio.c ****         break;
 1760              		.loc 1 1751 9 view .LVU457
1752:Middlewares/Third_Party/SubGHz_Phy/stm32_radio_driver/radio.c **** 
 1761              		.loc 1 1752 9 view .LVU458
 1762              	.L120:
1784:Middlewares/Third_Party/SubGHz_Phy/stm32_radio_driver/radio.c **** 
ARM GAS  /var/folders/9y/n02fl3g16gnf7ppy14xghdy80000gn/T//cc8eCeeT.s 			page 69


 1763              		.loc 1 1784 1 is_stmt 0 view .LVU459
 1764 027e 03B0     		add	sp, sp, #12
 1765              		.cfi_remember_state
 1766              		.cfi_def_cfa_offset 12
 1767              		@ sp needed
 1768 0280 30BD     		pop	{r4, r5, pc}
 1769              	.L123:
 1770              		.cfi_restore_state
1755:Middlewares/Third_Party/SubGHz_Phy/stm32_radio_driver/radio.c ****         if( SubgRf.RxContinuous == false )
 1771              		.loc 1 1755 9 is_stmt 1 view .LVU460
1755:Middlewares/Third_Party/SubGHz_Phy/stm32_radio_driver/radio.c ****         if( SubgRf.RxContinuous == false )
 1772              		.loc 1 1755 9 view .LVU461
 1773 0282 0E48     		ldr	r0, .L148+8
 1774 0284 FFF7FEFF 		bl	UTIL_TIMER_Stop
 1775              	.LVL181:
1755:Middlewares/Third_Party/SubGHz_Phy/stm32_radio_driver/radio.c ****         if( SubgRf.RxContinuous == false )
 1776              		.loc 1 1755 9 view .LVU462
1756:Middlewares/Third_Party/SubGHz_Phy/stm32_radio_driver/radio.c ****         {
 1777              		.loc 1 1756 9 view .LVU463
1756:Middlewares/Third_Party/SubGHz_Phy/stm32_radio_driver/radio.c ****         {
 1778              		.loc 1 1756 19 is_stmt 0 view .LVU464
 1779 0288 0A4B     		ldr	r3, .L148
 1780 028a 5B78     		ldrb	r3, [r3, #1]	@ zero_extendqisi2
1756:Middlewares/Third_Party/SubGHz_Phy/stm32_radio_driver/radio.c ****         {
 1781              		.loc 1 1756 11 view .LVU465
 1782 028c 73B1     		cbz	r3, .L146
 1783              	.L139:
1761:Middlewares/Third_Party/SubGHz_Phy/stm32_radio_driver/radio.c ****         {
 1784              		.loc 1 1761 9 is_stmt 1 view .LVU466
1761:Middlewares/Third_Party/SubGHz_Phy/stm32_radio_driver/radio.c ****         {
 1785              		.loc 1 1761 27 is_stmt 0 view .LVU467
 1786 028e 0C4B     		ldr	r3, .L148+12
 1787 0290 1B68     		ldr	r3, [r3]
1761:Middlewares/Third_Party/SubGHz_Phy/stm32_radio_driver/radio.c ****         {
 1788              		.loc 1 1761 11 view .LVU468
 1789 0292 002B     		cmp	r3, #0
 1790 0294 F3D0     		beq	.L120
1761:Middlewares/Third_Party/SubGHz_Phy/stm32_radio_driver/radio.c ****         {
 1791              		.loc 1 1761 53 discriminator 1 view .LVU469
 1792 0296 DB68     		ldr	r3, [r3, #12]
1761:Middlewares/Third_Party/SubGHz_Phy/stm32_radio_driver/radio.c ****         {
 1793              		.loc 1 1761 37 discriminator 1 view .LVU470
 1794 0298 002B     		cmp	r3, #0
 1795 029a F0D0     		beq	.L120
1763:Middlewares/Third_Party/SubGHz_Phy/stm32_radio_driver/radio.c ****             MW_LOG( TS_ON, VLEVEL_M,  "HDR KO\r\n" );
 1796              		.loc 1 1763 13 is_stmt 1 view .LVU471
 1797 029c 9847     		blx	r3
 1798              	.LVL182:
1764:Middlewares/Third_Party/SubGHz_Phy/stm32_radio_driver/radio.c ****         }
 1799              		.loc 1 1764 13 view .LVU472
1764:Middlewares/Third_Party/SubGHz_Phy/stm32_radio_driver/radio.c ****         }
 1800              		.loc 1 1764 13 view .LVU473
 1801 029e 104B     		ldr	r3, .L148+44
 1802 02a0 0122     		movs	r2, #1
 1803 02a2 0021     		movs	r1, #0
 1804 02a4 0220     		movs	r0, #2
 1805 02a6 FFF7FEFF 		bl	UTIL_ADV_TRACE_COND_FSend
ARM GAS  /var/folders/9y/n02fl3g16gnf7ppy14xghdy80000gn/T//cc8eCeeT.s 			page 70


 1806              	.LVL183:
 1807 02aa E8E7     		b	.L120
 1808              	.L146:
1759:Middlewares/Third_Party/SubGHz_Phy/stm32_radio_driver/radio.c ****         }
 1809              		.loc 1 1759 13 view .LVU474
 1810 02ac 0020     		movs	r0, #0
 1811 02ae FFF7FEFF 		bl	SUBGRF_SetStandby
 1812              	.LVL184:
 1813 02b2 ECE7     		b	.L139
 1814              	.L149:
 1815              		.align	2
 1816              	.L148:
 1817 02b4 00000000 		.word	.LANCHOR3
 1818 02b8 00000000 		.word	.LC2
 1819 02bc 00000000 		.word	.LANCHOR4
 1820 02c0 00000000 		.word	.LANCHOR1
 1821 02c4 00000000 		.word	.LANCHOR5
 1822 02c8 00000000 		.word	.LANCHOR6
 1823 02cc 24000000 		.word	.LANCHOR3+36
 1824 02d0 D34D6210 		.word	274877907
 1825 02d4 14000000 		.word	.LC3
 1826 02d8 20000000 		.word	.LC4
 1827 02dc 2C000000 		.word	.LC5
 1828 02e0 38000000 		.word	.LC6
 1829              	.L132:
1769:Middlewares/Third_Party/SubGHz_Phy/stm32_radio_driver/radio.c **** 
 1830              		.loc 1 1769 9 view .LVU475
1769:Middlewares/Third_Party/SubGHz_Phy/stm32_radio_driver/radio.c **** 
 1831              		.loc 1 1769 9 view .LVU476
 1832 02e4 0A4B     		ldr	r3, .L150
 1833 02e6 0122     		movs	r2, #1
 1834 02e8 0021     		movs	r1, #0
 1835 02ea 0220     		movs	r0, #2
 1836 02ec FFF7FEFF 		bl	UTIL_ADV_TRACE_COND_FSend
 1837              	.LVL185:
1769:Middlewares/Third_Party/SubGHz_Phy/stm32_radio_driver/radio.c **** 
 1838              		.loc 1 1769 9 view .LVU477
1771:Middlewares/Third_Party/SubGHz_Phy/stm32_radio_driver/radio.c ****         {
 1839              		.loc 1 1771 9 view .LVU478
1771:Middlewares/Third_Party/SubGHz_Phy/stm32_radio_driver/radio.c ****         {
 1840              		.loc 1 1771 19 is_stmt 0 view .LVU479
 1841 02f0 084B     		ldr	r3, .L150+4
 1842 02f2 5B78     		ldrb	r3, [r3, #1]	@ zero_extendqisi2
1771:Middlewares/Third_Party/SubGHz_Phy/stm32_radio_driver/radio.c ****         {
 1843              		.loc 1 1771 11 view .LVU480
 1844 02f4 43B1     		cbz	r3, .L147
 1845              	.L140:
1776:Middlewares/Third_Party/SubGHz_Phy/stm32_radio_driver/radio.c ****         {
 1846              		.loc 1 1776 9 is_stmt 1 view .LVU481
1776:Middlewares/Third_Party/SubGHz_Phy/stm32_radio_driver/radio.c ****         {
 1847              		.loc 1 1776 27 is_stmt 0 view .LVU482
 1848 02f6 084B     		ldr	r3, .L150+8
 1849 02f8 1B68     		ldr	r3, [r3]
1776:Middlewares/Third_Party/SubGHz_Phy/stm32_radio_driver/radio.c ****         {
 1850              		.loc 1 1776 11 view .LVU483
 1851 02fa 002B     		cmp	r3, #0
 1852 02fc BFD0     		beq	.L120
ARM GAS  /var/folders/9y/n02fl3g16gnf7ppy14xghdy80000gn/T//cc8eCeeT.s 			page 71


1776:Middlewares/Third_Party/SubGHz_Phy/stm32_radio_driver/radio.c ****         {
 1853              		.loc 1 1776 53 discriminator 1 view .LVU484
 1854 02fe 1B69     		ldr	r3, [r3, #16]
1776:Middlewares/Third_Party/SubGHz_Phy/stm32_radio_driver/radio.c ****         {
 1855              		.loc 1 1776 37 discriminator 1 view .LVU485
 1856 0300 002B     		cmp	r3, #0
 1857 0302 BCD0     		beq	.L120
1778:Middlewares/Third_Party/SubGHz_Phy/stm32_radio_driver/radio.c ****         }
 1858              		.loc 1 1778 13 is_stmt 1 view .LVU486
 1859 0304 9847     		blx	r3
 1860              	.LVL186:
1784:Middlewares/Third_Party/SubGHz_Phy/stm32_radio_driver/radio.c **** 
 1861              		.loc 1 1784 1 is_stmt 0 view .LVU487
 1862 0306 BAE7     		b	.L120
 1863              	.L147:
1774:Middlewares/Third_Party/SubGHz_Phy/stm32_radio_driver/radio.c ****         }
 1864              		.loc 1 1774 13 is_stmt 1 view .LVU488
 1865 0308 0020     		movs	r0, #0
 1866 030a FFF7FEFF 		bl	SUBGRF_SetStandby
 1867              	.LVL187:
 1868 030e F2E7     		b	.L140
 1869              	.L151:
 1870              		.align	2
 1871              	.L150:
 1872 0310 44000000 		.word	.LC7
 1873 0314 00000000 		.word	.LANCHOR3
 1874 0318 00000000 		.word	.LANCHOR1
 1875              		.cfi_endproc
 1876              	.LFE1197:
 1878              		.section	.text.RadioOnDioIrq,"ax",%progbits
 1879              		.align	1
 1880              		.syntax unified
 1881              		.thumb
 1882              		.thumb_func
 1883              		.fpu softvfp
 1885              	RadioOnDioIrq:
 1886              	.LVL188:
 1887              	.LFB1196:
1608:Middlewares/Third_Party/SubGHz_Phy/stm32_radio_driver/radio.c ****     SubgRf.RadioIrq = radioIrq;
 1888              		.loc 1 1608 1 view -0
 1889              		.cfi_startproc
 1890              		@ args = 0, pretend = 0, frame = 0
 1891              		@ frame_needed = 0, uses_anonymous_args = 0
1608:Middlewares/Third_Party/SubGHz_Phy/stm32_radio_driver/radio.c ****     SubgRf.RadioIrq = radioIrq;
 1892              		.loc 1 1608 1 is_stmt 0 view .LVU490
 1893 0000 08B5     		push	{r3, lr}
 1894              		.cfi_def_cfa_offset 8
 1895              		.cfi_offset 3, -8
 1896              		.cfi_offset 14, -4
1609:Middlewares/Third_Party/SubGHz_Phy/stm32_radio_driver/radio.c **** 
 1897              		.loc 1 1609 5 is_stmt 1 view .LVU491
1609:Middlewares/Third_Party/SubGHz_Phy/stm32_radio_driver/radio.c **** 
 1898              		.loc 1 1609 21 is_stmt 0 view .LVU492
 1899 0002 034B     		ldr	r3, .L154
 1900 0004 A3F85400 		strh	r0, [r3, #84]	@ movhi
1611:Middlewares/Third_Party/SubGHz_Phy/stm32_radio_driver/radio.c **** }
 1901              		.loc 1 1611 5 is_stmt 1 view .LVU493
ARM GAS  /var/folders/9y/n02fl3g16gnf7ppy14xghdy80000gn/T//cc8eCeeT.s 			page 72


 1902 0008 FFF7FEFF 		bl	RadioIrqProcess
 1903              	.LVL189:
1612:Middlewares/Third_Party/SubGHz_Phy/stm32_radio_driver/radio.c **** 
 1904              		.loc 1 1612 1 is_stmt 0 view .LVU494
 1905 000c 08BD     		pop	{r3, pc}
 1906              	.L155:
 1907 000e 00BF     		.align	2
 1908              	.L154:
 1909 0010 00000000 		.word	.LANCHOR3
 1910              		.cfi_endproc
 1911              	.LFE1196:
 1913              		.section	.text.RadioGetWakeupTime,"ax",%progbits
 1914              		.align	1
 1915              		.syntax unified
 1916              		.thumb
 1917              		.thumb_func
 1918              		.fpu softvfp
 1920              	RadioGetWakeupTime:
 1921              	.LFB1191:
1569:Middlewares/Third_Party/SubGHz_Phy/stm32_radio_driver/radio.c ****     return SUBGRF_GetRadioWakeUpTime() + RADIO_WAKEUP_TIME;
 1922              		.loc 1 1569 1 is_stmt 1 view -0
 1923              		.cfi_startproc
 1924              		@ args = 0, pretend = 0, frame = 0
 1925              		@ frame_needed = 0, uses_anonymous_args = 0
 1926 0000 08B5     		push	{r3, lr}
 1927              		.cfi_def_cfa_offset 8
 1928              		.cfi_offset 3, -8
 1929              		.cfi_offset 14, -4
1570:Middlewares/Third_Party/SubGHz_Phy/stm32_radio_driver/radio.c **** }
 1930              		.loc 1 1570 5 view .LVU496
1570:Middlewares/Third_Party/SubGHz_Phy/stm32_radio_driver/radio.c **** }
 1931              		.loc 1 1570 12 is_stmt 0 view .LVU497
 1932 0002 FFF7FEFF 		bl	SUBGRF_GetRadioWakeUpTime
 1933              	.LVL190:
1571:Middlewares/Third_Party/SubGHz_Phy/stm32_radio_driver/radio.c **** 
 1934              		.loc 1 1571 1 view .LVU498
 1935 0006 0330     		adds	r0, r0, #3
 1936 0008 08BD     		pop	{r3, pc}
 1937              		.cfi_endproc
 1938              	.LFE1191:
 1940              		.section	.text.RadioReadRegisters,"ax",%progbits
 1941              		.align	1
 1942              		.syntax unified
 1943              		.thumb
 1944              		.thumb_func
 1945              		.fpu softvfp
 1947              	RadioReadRegisters:
 1948              	.LVL191:
 1949              	.LFB1188:
1528:Middlewares/Third_Party/SubGHz_Phy/stm32_radio_driver/radio.c ****     SUBGRF_ReadRegisters( addr, buffer, size );
 1950              		.loc 1 1528 1 is_stmt 1 view -0
 1951              		.cfi_startproc
 1952              		@ args = 0, pretend = 0, frame = 0
 1953              		@ frame_needed = 0, uses_anonymous_args = 0
1528:Middlewares/Third_Party/SubGHz_Phy/stm32_radio_driver/radio.c ****     SUBGRF_ReadRegisters( addr, buffer, size );
 1954              		.loc 1 1528 1 is_stmt 0 view .LVU500
 1955 0000 08B5     		push	{r3, lr}
ARM GAS  /var/folders/9y/n02fl3g16gnf7ppy14xghdy80000gn/T//cc8eCeeT.s 			page 73


 1956              		.cfi_def_cfa_offset 8
 1957              		.cfi_offset 3, -8
 1958              		.cfi_offset 14, -4
1529:Middlewares/Third_Party/SubGHz_Phy/stm32_radio_driver/radio.c **** }
 1959              		.loc 1 1529 5 is_stmt 1 view .LVU501
 1960 0002 FFF7FEFF 		bl	SUBGRF_ReadRegisters
 1961              	.LVL192:
1530:Middlewares/Third_Party/SubGHz_Phy/stm32_radio_driver/radio.c **** 
 1962              		.loc 1 1530 1 is_stmt 0 view .LVU502
 1963 0006 08BD     		pop	{r3, pc}
 1964              		.cfi_endproc
 1965              	.LFE1188:
 1967              		.section	.text.RadioWriteRegisters,"ax",%progbits
 1968              		.align	1
 1969              		.syntax unified
 1970              		.thumb
 1971              		.thumb_func
 1972              		.fpu softvfp
 1974              	RadioWriteRegisters:
 1975              	.LVL193:
 1976              	.LFB1187:
1523:Middlewares/Third_Party/SubGHz_Phy/stm32_radio_driver/radio.c ****     SUBGRF_WriteRegisters( addr, buffer, size );
 1977              		.loc 1 1523 1 is_stmt 1 view -0
 1978              		.cfi_startproc
 1979              		@ args = 0, pretend = 0, frame = 0
 1980              		@ frame_needed = 0, uses_anonymous_args = 0
1523:Middlewares/Third_Party/SubGHz_Phy/stm32_radio_driver/radio.c ****     SUBGRF_WriteRegisters( addr, buffer, size );
 1981              		.loc 1 1523 1 is_stmt 0 view .LVU504
 1982 0000 08B5     		push	{r3, lr}
 1983              		.cfi_def_cfa_offset 8
 1984              		.cfi_offset 3, -8
 1985              		.cfi_offset 14, -4
1524:Middlewares/Third_Party/SubGHz_Phy/stm32_radio_driver/radio.c **** }
 1986              		.loc 1 1524 5 is_stmt 1 view .LVU505
 1987 0002 FFF7FEFF 		bl	SUBGRF_WriteRegisters
 1988              	.LVL194:
1525:Middlewares/Third_Party/SubGHz_Phy/stm32_radio_driver/radio.c **** 
 1989              		.loc 1 1525 1 is_stmt 0 view .LVU506
 1990 0006 08BD     		pop	{r3, pc}
 1991              		.cfi_endproc
 1992              	.LFE1187:
 1994              		.section	.text.RadioRssi,"ax",%progbits
 1995              		.align	1
 1996              		.syntax unified
 1997              		.thumb
 1998              		.thumb_func
 1999              		.fpu softvfp
 2001              	RadioRssi:
 2002              	.LVL195:
 2003              	.LFB1184:
1508:Middlewares/Third_Party/SubGHz_Phy/stm32_radio_driver/radio.c ****     return SUBGRF_GetRssiInst( );
 2004              		.loc 1 1508 1 is_stmt 1 view -0
 2005              		.cfi_startproc
 2006              		@ args = 0, pretend = 0, frame = 0
 2007              		@ frame_needed = 0, uses_anonymous_args = 0
1508:Middlewares/Third_Party/SubGHz_Phy/stm32_radio_driver/radio.c ****     return SUBGRF_GetRssiInst( );
 2008              		.loc 1 1508 1 is_stmt 0 view .LVU508
ARM GAS  /var/folders/9y/n02fl3g16gnf7ppy14xghdy80000gn/T//cc8eCeeT.s 			page 74


 2009 0000 08B5     		push	{r3, lr}
 2010              		.cfi_def_cfa_offset 8
 2011              		.cfi_offset 3, -8
 2012              		.cfi_offset 14, -4
1509:Middlewares/Third_Party/SubGHz_Phy/stm32_radio_driver/radio.c **** }
 2013              		.loc 1 1509 5 is_stmt 1 view .LVU509
1509:Middlewares/Third_Party/SubGHz_Phy/stm32_radio_driver/radio.c **** }
 2014              		.loc 1 1509 12 is_stmt 0 view .LVU510
 2015 0002 FFF7FEFF 		bl	SUBGRF_GetRssiInst
 2016              	.LVL196:
1510:Middlewares/Third_Party/SubGHz_Phy/stm32_radio_driver/radio.c **** 
 2017              		.loc 1 1510 1 view .LVU511
 2018 0006 00B2     		sxth	r0, r0
 2019 0008 08BD     		pop	{r3, pc}
 2020              		.cfi_endproc
 2021              	.LFE1184:
 2023              		.section	.text.RadioSetTxContinuousWave,"ax",%progbits
 2024              		.align	1
 2025              		.syntax unified
 2026              		.thumb
 2027              		.thumb_func
 2028              		.fpu softvfp
 2030              	RadioSetTxContinuousWave:
 2031              	.LVL197:
 2032              	.LFB1183:
1490:Middlewares/Third_Party/SubGHz_Phy/stm32_radio_driver/radio.c ****     uint32_t timeout = ( uint32_t )time * 1000;
 2033              		.loc 1 1490 1 is_stmt 1 view -0
 2034              		.cfi_startproc
 2035              		@ args = 0, pretend = 0, frame = 0
 2036              		@ frame_needed = 0, uses_anonymous_args = 0
1490:Middlewares/Third_Party/SubGHz_Phy/stm32_radio_driver/radio.c ****     uint32_t timeout = ( uint32_t )time * 1000;
 2037              		.loc 1 1490 1 is_stmt 0 view .LVU513
 2038 0000 38B5     		push	{r3, r4, r5, lr}
 2039              		.cfi_def_cfa_offset 16
 2040              		.cfi_offset 3, -16
 2041              		.cfi_offset 4, -12
 2042              		.cfi_offset 5, -8
 2043              		.cfi_offset 14, -4
 2044 0002 0D46     		mov	r5, r1
1491:Middlewares/Third_Party/SubGHz_Phy/stm32_radio_driver/radio.c ****     uint8_t antswitchpow;
 2045              		.loc 1 1491 5 is_stmt 1 view .LVU514
1491:Middlewares/Third_Party/SubGHz_Phy/stm32_radio_driver/radio.c ****     uint8_t antswitchpow;
 2046              		.loc 1 1491 14 is_stmt 0 view .LVU515
 2047 0004 4FF47A74 		mov	r4, #1000
 2048 0008 02FB04F4 		mul	r4, r2, r4
 2049              	.LVL198:
1492:Middlewares/Third_Party/SubGHz_Phy/stm32_radio_driver/radio.c **** 
 2050              		.loc 1 1492 5 is_stmt 1 view .LVU516
1494:Middlewares/Third_Party/SubGHz_Phy/stm32_radio_driver/radio.c **** 
 2051              		.loc 1 1494 5 view .LVU517
 2052 000c FFF7FEFF 		bl	SUBGRF_SetRfFrequency
 2053              	.LVL199:
1496:Middlewares/Third_Party/SubGHz_Phy/stm32_radio_driver/radio.c **** 
 2054              		.loc 1 1496 5 view .LVU518
1496:Middlewares/Third_Party/SubGHz_Phy/stm32_radio_driver/radio.c **** 
 2055              		.loc 1 1496 20 is_stmt 0 view .LVU519
 2056 0010 2846     		mov	r0, r5
ARM GAS  /var/folders/9y/n02fl3g16gnf7ppy14xghdy80000gn/T//cc8eCeeT.s 			page 75


 2057 0012 FFF7FEFF 		bl	SUBGRF_SetRfTxPower
 2058              	.LVL200:
1499:Middlewares/Third_Party/SubGHz_Phy/stm32_radio_driver/radio.c **** 
 2059              		.loc 1 1499 5 is_stmt 1 view .LVU520
 2060 0016 0121     		movs	r1, #1
 2061 0018 FFF7FEFF 		bl	SUBGRF_SetSwitch
 2062              	.LVL201:
1501:Middlewares/Third_Party/SubGHz_Phy/stm32_radio_driver/radio.c **** 
 2063              		.loc 1 1501 5 view .LVU521
 2064 001c FFF7FEFF 		bl	SUBGRF_SetTxContinuousWave
 2065              	.LVL202:
1503:Middlewares/Third_Party/SubGHz_Phy/stm32_radio_driver/radio.c ****     TimerStart( &TxTimeoutTimer );
 2066              		.loc 1 1503 5 view .LVU522
1503:Middlewares/Third_Party/SubGHz_Phy/stm32_radio_driver/radio.c ****     TimerStart( &TxTimeoutTimer );
 2067              		.loc 1 1503 5 view .LVU523
 2068 0020 044D     		ldr	r5, .L166
 2069 0022 2146     		mov	r1, r4
 2070 0024 2846     		mov	r0, r5
 2071 0026 FFF7FEFF 		bl	UTIL_TIMER_SetPeriod
 2072              	.LVL203:
1503:Middlewares/Third_Party/SubGHz_Phy/stm32_radio_driver/radio.c ****     TimerStart( &TxTimeoutTimer );
 2073              		.loc 1 1503 5 view .LVU524
1504:Middlewares/Third_Party/SubGHz_Phy/stm32_radio_driver/radio.c **** }
 2074              		.loc 1 1504 5 view .LVU525
1504:Middlewares/Third_Party/SubGHz_Phy/stm32_radio_driver/radio.c **** }
 2075              		.loc 1 1504 5 view .LVU526
 2076 002a 2846     		mov	r0, r5
 2077 002c FFF7FEFF 		bl	UTIL_TIMER_Start
 2078              	.LVL204:
1504:Middlewares/Third_Party/SubGHz_Phy/stm32_radio_driver/radio.c **** }
 2079              		.loc 1 1504 5 view .LVU527
1505:Middlewares/Third_Party/SubGHz_Phy/stm32_radio_driver/radio.c **** 
 2080              		.loc 1 1505 1 is_stmt 0 view .LVU528
 2081 0030 38BD     		pop	{r3, r4, r5, pc}
 2082              	.LVL205:
 2083              	.L167:
1505:Middlewares/Third_Party/SubGHz_Phy/stm32_radio_driver/radio.c **** 
 2084              		.loc 1 1505 1 view .LVU529
 2085 0032 00BF     		.align	2
 2086              	.L166:
 2087 0034 00000000 		.word	.LANCHOR5
 2088              		.cfi_endproc
 2089              	.LFE1183:
 2091              		.section	.text.RadioSetChannel,"ax",%progbits
 2092              		.align	1
 2093              		.syntax unified
 2094              		.thumb
 2095              		.thumb_func
 2096              		.fpu softvfp
 2098              	RadioSetChannel:
 2099              	.LVL206:
 2100              	.LFB1166:
 766:Middlewares/Third_Party/SubGHz_Phy/stm32_radio_driver/radio.c ****     SUBGRF_SetRfFrequency( freq );
 2101              		.loc 1 766 1 is_stmt 1 view -0
 2102              		.cfi_startproc
 2103              		@ args = 0, pretend = 0, frame = 0
 2104              		@ frame_needed = 0, uses_anonymous_args = 0
ARM GAS  /var/folders/9y/n02fl3g16gnf7ppy14xghdy80000gn/T//cc8eCeeT.s 			page 76


 766:Middlewares/Third_Party/SubGHz_Phy/stm32_radio_driver/radio.c ****     SUBGRF_SetRfFrequency( freq );
 2105              		.loc 1 766 1 is_stmt 0 view .LVU531
 2106 0000 08B5     		push	{r3, lr}
 2107              		.cfi_def_cfa_offset 8
 2108              		.cfi_offset 3, -8
 2109              		.cfi_offset 14, -4
 767:Middlewares/Third_Party/SubGHz_Phy/stm32_radio_driver/radio.c **** }
 2110              		.loc 1 767 5 is_stmt 1 view .LVU532
 2111 0002 FFF7FEFF 		bl	SUBGRF_SetRfFrequency
 2112              	.LVL207:
 768:Middlewares/Third_Party/SubGHz_Phy/stm32_radio_driver/radio.c **** 
 2113              		.loc 1 768 1 is_stmt 0 view .LVU533
 2114 0006 08BD     		pop	{r3, pc}
 2115              		.cfi_endproc
 2116              	.LFE1166:
 2118              		.section	.text.RadioStartCad,"ax",%progbits
 2119              		.align	1
 2120              		.syntax unified
 2121              		.thumb
 2122              		.thumb_func
 2123              		.fpu softvfp
 2125              	RadioStartCad:
 2126              	.LFB1182:
1478:Middlewares/Third_Party/SubGHz_Phy/stm32_radio_driver/radio.c ****     /* RF switch configuration */
 2127              		.loc 1 1478 1 is_stmt 1 view -0
 2128              		.cfi_startproc
 2129              		@ args = 0, pretend = 0, frame = 0
 2130              		@ frame_needed = 0, uses_anonymous_args = 0
 2131 0000 08B5     		push	{r3, lr}
 2132              		.cfi_def_cfa_offset 8
 2133              		.cfi_offset 3, -8
 2134              		.cfi_offset 14, -4
1480:Middlewares/Third_Party/SubGHz_Phy/stm32_radio_driver/radio.c **** 
 2135              		.loc 1 1480 5 view .LVU535
 2136 0002 0021     		movs	r1, #0
 2137 0004 074B     		ldr	r3, .L172
 2138 0006 93F85600 		ldrb	r0, [r3, #86]	@ zero_extendqisi2
 2139 000a FFF7FEFF 		bl	SUBGRF_SetSwitch
 2140              	.LVL208:
1482:Middlewares/Third_Party/SubGHz_Phy/stm32_radio_driver/radio.c ****                             IRQ_CAD_CLEAR | IRQ_CAD_DETECTED,
 2141              		.loc 1 1482 5 view .LVU536
 2142 000e 0023     		movs	r3, #0
 2143 0010 1A46     		mov	r2, r3
 2144 0012 4FF4C071 		mov	r1, #384
 2145 0016 0846     		mov	r0, r1
 2146 0018 FFF7FEFF 		bl	SUBGRF_SetDioIrqParams
 2147              	.LVL209:
1486:Middlewares/Third_Party/SubGHz_Phy/stm32_radio_driver/radio.c **** }
 2148              		.loc 1 1486 5 view .LVU537
 2149 001c FFF7FEFF 		bl	SUBGRF_SetCad
 2150              	.LVL210:
1487:Middlewares/Third_Party/SubGHz_Phy/stm32_radio_driver/radio.c **** 
 2151              		.loc 1 1487 1 is_stmt 0 view .LVU538
 2152 0020 08BD     		pop	{r3, pc}
 2153              	.L173:
 2154 0022 00BF     		.align	2
 2155              	.L172:
ARM GAS  /var/folders/9y/n02fl3g16gnf7ppy14xghdy80000gn/T//cc8eCeeT.s 			page 77


 2156 0024 00000000 		.word	.LANCHOR3
 2157              		.cfi_endproc
 2158              	.LFE1182:
 2160              		.section	.text.RadioRx,"ax",%progbits
 2161              		.align	1
 2162              		.syntax unified
 2163              		.thumb
 2164              		.thumb_func
 2165              		.fpu softvfp
 2167              	RadioRx:
 2168              	.LVL211:
 2169              	.LFB1179:
1391:Middlewares/Third_Party/SubGHz_Phy/stm32_radio_driver/radio.c ****     if( 1UL == RFW_Is_Init( ) )
 2170              		.loc 1 1391 1 is_stmt 1 view -0
 2171              		.cfi_startproc
 2172              		@ args = 0, pretend = 0, frame = 0
 2173              		@ frame_needed = 0, uses_anonymous_args = 0
1391:Middlewares/Third_Party/SubGHz_Phy/stm32_radio_driver/radio.c ****     if( 1UL == RFW_Is_Init( ) )
 2174              		.loc 1 1391 1 is_stmt 0 view .LVU540
 2175 0000 38B5     		push	{r3, r4, r5, lr}
 2176              		.cfi_def_cfa_offset 16
 2177              		.cfi_offset 3, -16
 2178              		.cfi_offset 4, -12
 2179              		.cfi_offset 5, -8
 2180              		.cfi_offset 14, -4
 2181 0002 0446     		mov	r4, r0
1392:Middlewares/Third_Party/SubGHz_Phy/stm32_radio_driver/radio.c ****     {
 2182              		.loc 1 1392 5 is_stmt 1 view .LVU541
1392:Middlewares/Third_Party/SubGHz_Phy/stm32_radio_driver/radio.c ****     {
 2183              		.loc 1 1392 16 is_stmt 0 view .LVU542
 2184 0004 FFF7FEFF 		bl	RFW_Is_Init
 2185              	.LVL212:
1392:Middlewares/Third_Party/SubGHz_Phy/stm32_radio_driver/radio.c ****     {
 2186              		.loc 1 1392 7 view .LVU543
 2187 0008 0128     		cmp	r0, #1
 2188 000a 15D0     		beq	.L181
1398:Middlewares/Third_Party/SubGHz_Phy/stm32_radio_driver/radio.c ****                                 IRQ_RX_DONE | IRQ_RX_TX_TIMEOUT | IRQ_CRC_ERROR | IRQ_HEADER_ERROR 
 2189              		.loc 1 1398 9 is_stmt 1 view .LVU544
 2190 000c 0023     		movs	r3, #0
 2191 000e 1A46     		mov	r2, r3
 2192 0010 40F26221 		movw	r1, #610
 2193 0014 0846     		mov	r0, r1
 2194 0016 FFF7FEFF 		bl	SUBGRF_SetDioIrqParams
 2195              	.LVL213:
 2196              	.L176:
1404:Middlewares/Third_Party/SubGHz_Phy/stm32_radio_driver/radio.c ****     {
 2197              		.loc 1 1404 5 view .LVU545
1404:Middlewares/Third_Party/SubGHz_Phy/stm32_radio_driver/radio.c ****     {
 2198              		.loc 1 1404 7 is_stmt 0 view .LVU546
 2199 001a 84B9     		cbnz	r4, .L182
 2200              	.L177:
1407:Middlewares/Third_Party/SubGHz_Phy/stm32_radio_driver/radio.c ****     }
 2201              		.loc 1 1407 9 is_stmt 1 discriminator 1 view .LVU547
1411:Middlewares/Third_Party/SubGHz_Phy/stm32_radio_driver/radio.c ****     /* Set DBG pin */
 2202              		.loc 1 1411 5 discriminator 1 view .LVU548
1411:Middlewares/Third_Party/SubGHz_Phy/stm32_radio_driver/radio.c ****     /* Set DBG pin */
 2203              		.loc 1 1411 38 is_stmt 0 discriminator 1 view .LVU549
ARM GAS  /var/folders/9y/n02fl3g16gnf7ppy14xghdy80000gn/T//cc8eCeeT.s 			page 78


 2204 001c 0F4C     		ldr	r4, .L183
 2205              	.LVL214:
1411:Middlewares/Third_Party/SubGHz_Phy/stm32_radio_driver/radio.c ****     /* Set DBG pin */
 2206              		.loc 1 1411 38 discriminator 1 view .LVU550
 2207 001e 0021     		movs	r1, #0
 2208 0020 A165     		str	r1, [r4, #88]
1413:Middlewares/Third_Party/SubGHz_Phy/stm32_radio_driver/radio.c ****     /* RF switch configuration */
 2209              		.loc 1 1413 29 is_stmt 1 discriminator 1 view .LVU551
1415:Middlewares/Third_Party/SubGHz_Phy/stm32_radio_driver/radio.c ****     /* ST_WORKAROUND_END */
 2210              		.loc 1 1415 5 discriminator 1 view .LVU552
 2211 0022 94F85600 		ldrb	r0, [r4, #86]	@ zero_extendqisi2
 2212 0026 FFF7FEFF 		bl	SUBGRF_SetSwitch
 2213              	.LVL215:
1418:Middlewares/Third_Party/SubGHz_Phy/stm32_radio_driver/radio.c ****     {
 2214              		.loc 1 1418 5 discriminator 1 view .LVU553
1418:Middlewares/Third_Party/SubGHz_Phy/stm32_radio_driver/radio.c ****     {
 2215              		.loc 1 1418 15 is_stmt 0 discriminator 1 view .LVU554
 2216 002a 6378     		ldrb	r3, [r4, #1]	@ zero_extendqisi2
1418:Middlewares/Third_Party/SubGHz_Phy/stm32_radio_driver/radio.c ****     {
 2217              		.loc 1 1418 7 discriminator 1 view .LVU555
 2218 002c 83B1     		cbz	r3, .L178
1420:Middlewares/Third_Party/SubGHz_Phy/stm32_radio_driver/radio.c ****     }
 2219              		.loc 1 1420 9 is_stmt 1 view .LVU556
 2220 002e 6FF07F40 		mvn	r0, #-16777216
 2221 0032 FFF7FEFF 		bl	SUBGRF_SetRx
 2222              	.LVL216:
 2223              	.L174:
1426:Middlewares/Third_Party/SubGHz_Phy/stm32_radio_driver/radio.c **** 
 2224              		.loc 1 1426 1 is_stmt 0 view .LVU557
 2225 0036 38BD     		pop	{r3, r4, r5, pc}
 2226              	.LVL217:
 2227              	.L181:
1394:Middlewares/Third_Party/SubGHz_Phy/stm32_radio_driver/radio.c ****     }
 2228              		.loc 1 1394 9 is_stmt 1 view .LVU558
 2229 0038 FFF7FEFF 		bl	RFW_ReceiveInit
 2230              	.LVL218:
 2231 003c EDE7     		b	.L176
 2232              	.L182:
1406:Middlewares/Third_Party/SubGHz_Phy/stm32_radio_driver/radio.c ****         TimerStart( &RxTimeoutTimer );
 2233              		.loc 1 1406 9 view .LVU559
1406:Middlewares/Third_Party/SubGHz_Phy/stm32_radio_driver/radio.c ****         TimerStart( &RxTimeoutTimer );
 2234              		.loc 1 1406 9 view .LVU560
 2235 003e 084D     		ldr	r5, .L183+4
 2236 0040 2146     		mov	r1, r4
 2237 0042 2846     		mov	r0, r5
 2238 0044 FFF7FEFF 		bl	UTIL_TIMER_SetPeriod
 2239              	.LVL219:
1406:Middlewares/Third_Party/SubGHz_Phy/stm32_radio_driver/radio.c ****         TimerStart( &RxTimeoutTimer );
 2240              		.loc 1 1406 9 view .LVU561
1407:Middlewares/Third_Party/SubGHz_Phy/stm32_radio_driver/radio.c ****     }
 2241              		.loc 1 1407 9 view .LVU562
1407:Middlewares/Third_Party/SubGHz_Phy/stm32_radio_driver/radio.c ****     }
 2242              		.loc 1 1407 9 view .LVU563
 2243 0048 2846     		mov	r0, r5
 2244 004a FFF7FEFF 		bl	UTIL_TIMER_Start
 2245              	.LVL220:
 2246 004e E5E7     		b	.L177
ARM GAS  /var/folders/9y/n02fl3g16gnf7ppy14xghdy80000gn/T//cc8eCeeT.s 			page 79


 2247              	.LVL221:
 2248              	.L178:
1424:Middlewares/Third_Party/SubGHz_Phy/stm32_radio_driver/radio.c ****     }
 2249              		.loc 1 1424 9 view .LVU564
1424:Middlewares/Third_Party/SubGHz_Phy/stm32_radio_driver/radio.c ****     }
 2250              		.loc 1 1424 29 is_stmt 0 view .LVU565
 2251 0050 024B     		ldr	r3, .L183
 2252 0052 9868     		ldr	r0, [r3, #8]
1424:Middlewares/Third_Party/SubGHz_Phy/stm32_radio_driver/radio.c ****     }
 2253              		.loc 1 1424 9 view .LVU566
 2254 0054 8001     		lsls	r0, r0, #6
 2255 0056 FFF7FEFF 		bl	SUBGRF_SetRx
 2256              	.LVL222:
1426:Middlewares/Third_Party/SubGHz_Phy/stm32_radio_driver/radio.c **** 
 2257              		.loc 1 1426 1 view .LVU567
 2258 005a ECE7     		b	.L174
 2259              	.L184:
 2260              		.align	2
 2261              	.L183:
 2262 005c 00000000 		.word	.LANCHOR3
 2263 0060 00000000 		.word	.LANCHOR4
 2264              		.cfi_endproc
 2265              	.LFE1179:
 2267              		.section	.text.RadioSleep,"ax",%progbits
 2268              		.align	1
 2269              		.syntax unified
 2270              		.thumb
 2271              		.thumb_func
 2272              		.fpu softvfp
 2274              	RadioSleep:
 2275              	.LFB1177:
1376:Middlewares/Third_Party/SubGHz_Phy/stm32_radio_driver/radio.c ****     SleepParams_t params = { 0 };
 2276              		.loc 1 1376 1 is_stmt 1 view -0
 2277              		.cfi_startproc
 2278              		@ args = 0, pretend = 0, frame = 0
 2279              		@ frame_needed = 0, uses_anonymous_args = 0
 2280 0000 08B5     		push	{r3, lr}
 2281              		.cfi_def_cfa_offset 8
 2282              		.cfi_offset 3, -8
 2283              		.cfi_offset 14, -4
1377:Middlewares/Third_Party/SubGHz_Phy/stm32_radio_driver/radio.c **** 
 2284              		.loc 1 1377 5 view .LVU569
1379:Middlewares/Third_Party/SubGHz_Phy/stm32_radio_driver/radio.c ****     SUBGRF_SetSleep( params );
 2285              		.loc 1 1379 5 view .LVU570
1380:Middlewares/Third_Party/SubGHz_Phy/stm32_radio_driver/radio.c **** 
 2286              		.loc 1 1380 5 view .LVU571
 2287 0002 4FF00400 		mov	r0, #4
 2288 0006 FFF7FEFF 		bl	SUBGRF_SetSleep
 2289              	.LVL223:
1382:Middlewares/Third_Party/SubGHz_Phy/stm32_radio_driver/radio.c **** }
 2290              		.loc 1 1382 5 view .LVU572
 2291 000a 0220     		movs	r0, #2
 2292 000c FFF7FEFF 		bl	HAL_Delay
 2293              	.LVL224:
1383:Middlewares/Third_Party/SubGHz_Phy/stm32_radio_driver/radio.c **** 
 2294              		.loc 1 1383 1 is_stmt 0 view .LVU573
 2295 0010 08BD     		pop	{r3, pc}
ARM GAS  /var/folders/9y/n02fl3g16gnf7ppy14xghdy80000gn/T//cc8eCeeT.s 			page 80


 2296              		.cfi_endproc
 2297              	.LFE1177:
 2299              		.section	.rodata.RadioSend.str1.4,"aMS",%progbits,1
 2300              		.align	2
 2301              	.LC8:
 2302 0000 52616469 		.ascii	"RadioSend Oversize\015\012\000"
 2302      6F53656E 
 2302      64204F76 
 2302      65727369 
 2302      7A650D0A 
 2303              		.section	.text.RadioSend,"ax",%progbits
 2304              		.align	1
 2305              		.syntax unified
 2306              		.thumb
 2307              		.thumb_func
 2308              		.fpu softvfp
 2310              	RadioSend:
 2311              	.LVL225:
 2312              	.LFB1176:
1267:Middlewares/Third_Party/SubGHz_Phy/stm32_radio_driver/radio.c ****     /* ST_WORKAROUND_BEGIN : Set the debug pin and update the radio switch */
 2313              		.loc 1 1267 1 is_stmt 1 view -0
 2314              		.cfi_startproc
 2315              		@ args = 0, pretend = 0, frame = 8
 2316              		@ frame_needed = 0, uses_anonymous_args = 0
1267:Middlewares/Third_Party/SubGHz_Phy/stm32_radio_driver/radio.c ****     /* ST_WORKAROUND_BEGIN : Set the debug pin and update the radio switch */
 2317              		.loc 1 1267 1 is_stmt 0 view .LVU575
 2318 0000 70B5     		push	{r4, r5, r6, lr}
 2319              		.cfi_def_cfa_offset 16
 2320              		.cfi_offset 4, -16
 2321              		.cfi_offset 5, -12
 2322              		.cfi_offset 6, -8
 2323              		.cfi_offset 14, -4
 2324 0002 82B0     		sub	sp, sp, #8
 2325              		.cfi_def_cfa_offset 24
 2326 0004 0546     		mov	r5, r0
 2327 0006 0C46     		mov	r4, r1
1269:Middlewares/Third_Party/SubGHz_Phy/stm32_radio_driver/radio.c ****                             IRQ_TX_DONE | IRQ_RX_TX_TIMEOUT | IRQ_TX_DBG,
 2328              		.loc 1 1269 5 is_stmt 1 view .LVU576
 2329 0008 0023     		movs	r3, #0
 2330 000a 1A46     		mov	r2, r3
 2331 000c 40F20121 		movw	r1, #513
 2332              	.LVL226:
1269:Middlewares/Third_Party/SubGHz_Phy/stm32_radio_driver/radio.c ****                             IRQ_TX_DONE | IRQ_RX_TX_TIMEOUT | IRQ_TX_DBG,
 2333              		.loc 1 1269 5 is_stmt 0 view .LVU577
 2334 0010 0846     		mov	r0, r1
 2335              	.LVL227:
1269:Middlewares/Third_Party/SubGHz_Phy/stm32_radio_driver/radio.c ****                             IRQ_TX_DONE | IRQ_RX_TX_TIMEOUT | IRQ_TX_DBG,
 2336              		.loc 1 1269 5 view .LVU578
 2337 0012 FFF7FEFF 		bl	SUBGRF_SetDioIrqParams
 2338              	.LVL228:
1277:Middlewares/Third_Party/SubGHz_Phy/stm32_radio_driver/radio.c **** 
 2339              		.loc 1 1277 29 is_stmt 1 view .LVU579
1280:Middlewares/Third_Party/SubGHz_Phy/stm32_radio_driver/radio.c ****     /* WORKAROUND - Modulation Quality with 500 kHz LoRaTM Bandwidth*/
 2340              		.loc 1 1280 5 view .LVU580
 2341 0016 5B4E     		ldr	r6, .L205
 2342 0018 0121     		movs	r1, #1
 2343 001a 96F85600 		ldrb	r0, [r6, #86]	@ zero_extendqisi2
ARM GAS  /var/folders/9y/n02fl3g16gnf7ppy14xghdy80000gn/T//cc8eCeeT.s 			page 81


 2344 001e FFF7FEFF 		bl	SUBGRF_SetSwitch
 2345              	.LVL229:
1283:Middlewares/Third_Party/SubGHz_Phy/stm32_radio_driver/radio.c ****     {
 2346              		.loc 1 1283 5 view .LVU581
1283:Middlewares/Third_Party/SubGHz_Phy/stm32_radio_driver/radio.c ****     {
 2347              		.loc 1 1283 17 is_stmt 0 view .LVU582
 2348 0022 3378     		ldrb	r3, [r6]	@ zero_extendqisi2
1283:Middlewares/Third_Party/SubGHz_Phy/stm32_radio_driver/radio.c ****     {
 2349              		.loc 1 1283 7 view .LVU583
 2350 0024 012B     		cmp	r3, #1
 2351 0026 03D1     		bne	.L188
1283:Middlewares/Third_Party/SubGHz_Phy/stm32_radio_driver/radio.c ****     {
 2352              		.loc 1 1283 80 discriminator 1 view .LVU584
 2353 0028 96F85130 		ldrb	r3, [r6, #81]	@ zero_extendqisi2
1283:Middlewares/Third_Party/SubGHz_Phy/stm32_radio_driver/radio.c ****     {
 2354              		.loc 1 1283 40 discriminator 1 view .LVU585
 2355 002c 062B     		cmp	r3, #6
 2356 002e 13D0     		beq	.L202
 2357              	.L188:
1289:Middlewares/Third_Party/SubGHz_Phy/stm32_radio_driver/radio.c ****     }
 2358              		.loc 1 1289 9 is_stmt 1 view .LVU586
1289:Middlewares/Third_Party/SubGHz_Phy/stm32_radio_driver/radio.c ****     }
 2359              		.loc 1 1289 47 is_stmt 0 view .LVU587
 2360 0030 40F68900 		movw	r0, #2185
 2361 0034 FFF7FEFF 		bl	SUBGRF_ReadRegister
 2362              	.LVL230:
1289:Middlewares/Third_Party/SubGHz_Phy/stm32_radio_driver/radio.c ****     }
 2363              		.loc 1 1289 9 view .LVU588
 2364 0038 40F00401 		orr	r1, r0, #4
 2365 003c C9B2     		uxtb	r1, r1
 2366 003e 40F68900 		movw	r0, #2185
 2367 0042 FFF7FEFF 		bl	SUBGRF_WriteRegister
 2368              	.LVL231:
 2369              	.L189:
1292:Middlewares/Third_Party/SubGHz_Phy/stm32_radio_driver/radio.c ****     {
 2370              		.loc 1 1292 5 is_stmt 1 view .LVU589
1292:Middlewares/Third_Party/SubGHz_Phy/stm32_radio_driver/radio.c ****     {
 2371              		.loc 1 1292 19 is_stmt 0 view .LVU590
 2372 0046 4F4B     		ldr	r3, .L205
 2373 0048 1B78     		ldrb	r3, [r3]	@ zero_extendqisi2
1292:Middlewares/Third_Party/SubGHz_Phy/stm32_radio_driver/radio.c ****     {
 2374              		.loc 1 1292 5 view .LVU591
 2375 004a 042B     		cmp	r3, #4
 2376 004c 19D8     		bhi	.L190
 2377 004e DFE803F0 		tbb	[pc, r3]
 2378              	.L192:
 2379 0052 23       		.byte	(.L194-.L192)/2
 2380 0053 0E       		.byte	(.L195-.L192)/2
 2381 0054 23       		.byte	(.L194-.L192)/2
 2382 0055 4E       		.byte	(.L193-.L192)/2
 2383 0056 5B       		.byte	(.L191-.L192)/2
 2384 0057 00       		.p2align 1
 2385              	.L202:
1285:Middlewares/Third_Party/SubGHz_Phy/stm32_radio_driver/radio.c ****     }
 2386              		.loc 1 1285 9 is_stmt 1 view .LVU592
1285:Middlewares/Third_Party/SubGHz_Phy/stm32_radio_driver/radio.c ****     }
 2387              		.loc 1 1285 47 is_stmt 0 view .LVU593
ARM GAS  /var/folders/9y/n02fl3g16gnf7ppy14xghdy80000gn/T//cc8eCeeT.s 			page 82


 2388 0058 40F68900 		movw	r0, #2185
 2389 005c FFF7FEFF 		bl	SUBGRF_ReadRegister
 2390              	.LVL232:
1285:Middlewares/Third_Party/SubGHz_Phy/stm32_radio_driver/radio.c ****     }
 2391              		.loc 1 1285 9 view .LVU594
 2392 0060 00F0FB01 		and	r1, r0, #251
 2393 0064 40F68900 		movw	r0, #2185
 2394 0068 FFF7FEFF 		bl	SUBGRF_WriteRegister
 2395              	.LVL233:
 2396 006c EBE7     		b	.L189
 2397              	.L195:
1296:Middlewares/Third_Party/SubGHz_Phy/stm32_radio_driver/radio.c ****             SUBGRF_SetPacketParams( &SubgRf.PacketParams );
 2398              		.loc 1 1296 13 is_stmt 1 view .LVU595
1296:Middlewares/Third_Party/SubGHz_Phy/stm32_radio_driver/radio.c ****             SUBGRF_SetPacketParams( &SubgRf.PacketParams );
 2399              		.loc 1 1296 59 is_stmt 0 view .LVU596
 2400 006e 4548     		ldr	r0, .L205
 2401 0070 C477     		strb	r4, [r0, #31]
1297:Middlewares/Third_Party/SubGHz_Phy/stm32_radio_driver/radio.c ****             SUBGRF_SendPayload( buffer, size, 0 );
 2402              		.loc 1 1297 13 is_stmt 1 view .LVU597
 2403 0072 0E30     		adds	r0, r0, #14
 2404 0074 FFF7FEFF 		bl	SUBGRF_SetPacketParams
 2405              	.LVL234:
1298:Middlewares/Third_Party/SubGHz_Phy/stm32_radio_driver/radio.c ****             break;
 2406              		.loc 1 1298 13 view .LVU598
 2407 0078 0022     		movs	r2, #0
 2408 007a 2146     		mov	r1, r4
 2409 007c 2846     		mov	r0, r5
 2410 007e FFF7FEFF 		bl	SUBGRF_SendPayload
 2411              	.LVL235:
1299:Middlewares/Third_Party/SubGHz_Phy/stm32_radio_driver/radio.c ****         }
 2412              		.loc 1 1299 13 view .LVU599
 2413              	.L190:
1371:Middlewares/Third_Party/SubGHz_Phy/stm32_radio_driver/radio.c ****     TimerStart( &TxTimeoutTimer );
 2414              		.loc 1 1371 5 view .LVU600
1371:Middlewares/Third_Party/SubGHz_Phy/stm32_radio_driver/radio.c ****     TimerStart( &TxTimeoutTimer );
 2415              		.loc 1 1371 5 view .LVU601
 2416 0082 414C     		ldr	r4, .L205+4
 2417 0084 3F4B     		ldr	r3, .L205
 2418 0086 5968     		ldr	r1, [r3, #4]
 2419 0088 2046     		mov	r0, r4
 2420 008a FFF7FEFF 		bl	UTIL_TIMER_SetPeriod
 2421              	.LVL236:
1371:Middlewares/Third_Party/SubGHz_Phy/stm32_radio_driver/radio.c ****     TimerStart( &TxTimeoutTimer );
 2422              		.loc 1 1371 5 view .LVU602
1372:Middlewares/Third_Party/SubGHz_Phy/stm32_radio_driver/radio.c **** }
 2423              		.loc 1 1372 5 view .LVU603
1372:Middlewares/Third_Party/SubGHz_Phy/stm32_radio_driver/radio.c **** }
 2424              		.loc 1 1372 5 view .LVU604
 2425 008e 2046     		mov	r0, r4
 2426 0090 FFF7FEFF 		bl	UTIL_TIMER_Start
 2427              	.LVL237:
1372:Middlewares/Third_Party/SubGHz_Phy/stm32_radio_driver/radio.c **** }
 2428              		.loc 1 1372 5 view .LVU605
 2429              	.L187:
1373:Middlewares/Third_Party/SubGHz_Phy/stm32_radio_driver/radio.c **** 
 2430              		.loc 1 1373 1 is_stmt 0 view .LVU606
 2431 0094 02B0     		add	sp, sp, #8
ARM GAS  /var/folders/9y/n02fl3g16gnf7ppy14xghdy80000gn/T//cc8eCeeT.s 			page 83


 2432              		.cfi_remember_state
 2433              		.cfi_def_cfa_offset 16
 2434              		@ sp needed
 2435 0096 70BD     		pop	{r4, r5, r6, pc}
 2436              	.LVL238:
 2437              	.L194:
 2438              		.cfi_restore_state
1304:Middlewares/Third_Party/SubGHz_Phy/stm32_radio_driver/radio.c ****             {
 2439              		.loc 1 1304 13 is_stmt 1 view .LVU607
1304:Middlewares/Third_Party/SubGHz_Phy/stm32_radio_driver/radio.c ****             {
 2440              		.loc 1 1304 25 is_stmt 0 view .LVU608
 2441 0098 FFF7FEFF 		bl	RFW_Is_Init
 2442              	.LVL239:
1304:Middlewares/Third_Party/SubGHz_Phy/stm32_radio_driver/radio.c ****             {
 2443              		.loc 1 1304 16 view .LVU609
 2444 009c 0128     		cmp	r0, #1
 2445 009e 0AD0     		beq	.L203
1321:Middlewares/Third_Party/SubGHz_Phy/stm32_radio_driver/radio.c ****               SUBGRF_SetPacketParams( &SubgRf.PacketParams );
 2446              		.loc 1 1321 15 is_stmt 1 view .LVU610
1321:Middlewares/Third_Party/SubGHz_Phy/stm32_radio_driver/radio.c ****               SUBGRF_SetPacketParams( &SubgRf.PacketParams );
 2447              		.loc 1 1321 61 is_stmt 0 view .LVU611
 2448 00a0 3848     		ldr	r0, .L205
 2449 00a2 8475     		strb	r4, [r0, #22]
1322:Middlewares/Third_Party/SubGHz_Phy/stm32_radio_driver/radio.c ****               SUBGRF_SendPayload( buffer, size, 0 );
 2450              		.loc 1 1322 15 is_stmt 1 view .LVU612
 2451 00a4 0E30     		adds	r0, r0, #14
 2452 00a6 FFF7FEFF 		bl	SUBGRF_SetPacketParams
 2453              	.LVL240:
1323:Middlewares/Third_Party/SubGHz_Phy/stm32_radio_driver/radio.c ****             }
 2454              		.loc 1 1323 15 view .LVU613
 2455 00aa 0022     		movs	r2, #0
 2456 00ac 2146     		mov	r1, r4
 2457 00ae 2846     		mov	r0, r5
 2458 00b0 FFF7FEFF 		bl	SUBGRF_SendPayload
 2459              	.LVL241:
 2460 00b4 E5E7     		b	.L190
 2461              	.L203:
 2462              	.LBB2:
1306:Middlewares/Third_Party/SubGHz_Phy/stm32_radio_driver/radio.c ****               if ( 0UL == RFW_TransmitInit( buffer,size, &outsize ) )
 2463              		.loc 1 1306 15 view .LVU614
1307:Middlewares/Third_Party/SubGHz_Phy/stm32_radio_driver/radio.c ****               {
 2464              		.loc 1 1307 15 view .LVU615
1307:Middlewares/Third_Party/SubGHz_Phy/stm32_radio_driver/radio.c ****               {
 2465              		.loc 1 1307 27 is_stmt 0 view .LVU616
 2466 00b6 0DF10702 		add	r2, sp, #7
 2467 00ba 2146     		mov	r1, r4
 2468 00bc 2846     		mov	r0, r5
 2469 00be FFF7FEFF 		bl	RFW_TransmitInit
 2470              	.LVL242:
1307:Middlewares/Third_Party/SubGHz_Phy/stm32_radio_driver/radio.c ****               {
 2471              		.loc 1 1307 18 view .LVU617
 2472 00c2 68B9     		cbnz	r0, .L197
1309:Middlewares/Third_Party/SubGHz_Phy/stm32_radio_driver/radio.c ****                   SUBGRF_SetPacketParams( &SubgRf.PacketParams );
 2473              		.loc 1 1309 19 is_stmt 1 view .LVU618
1309:Middlewares/Third_Party/SubGHz_Phy/stm32_radio_driver/radio.c ****                   SUBGRF_SetPacketParams( &SubgRf.PacketParams );
 2474              		.loc 1 1309 65 is_stmt 0 view .LVU619
 2475 00c4 2F48     		ldr	r0, .L205
ARM GAS  /var/folders/9y/n02fl3g16gnf7ppy14xghdy80000gn/T//cc8eCeeT.s 			page 84


 2476 00c6 9DF80730 		ldrb	r3, [sp, #7]	@ zero_extendqisi2
 2477 00ca 8375     		strb	r3, [r0, #22]
1310:Middlewares/Third_Party/SubGHz_Phy/stm32_radio_driver/radio.c ****                   SUBGRF_SendPayload( buffer, outsize, 0 );
 2478              		.loc 1 1310 19 is_stmt 1 view .LVU620
 2479 00cc 0E30     		adds	r0, r0, #14
 2480 00ce FFF7FEFF 		bl	SUBGRF_SetPacketParams
 2481              	.LVL243:
1311:Middlewares/Third_Party/SubGHz_Phy/stm32_radio_driver/radio.c ****               }
 2482              		.loc 1 1311 19 view .LVU621
 2483 00d2 0022     		movs	r2, #0
 2484 00d4 9DF80710 		ldrb	r1, [sp, #7]	@ zero_extendqisi2
 2485 00d8 2846     		mov	r0, r5
 2486 00da FFF7FEFF 		bl	SUBGRF_SendPayload
 2487              	.LVL244:
 2488 00de D0E7     		b	.L190
 2489              	.L197:
1315:Middlewares/Third_Party/SubGHz_Phy/stm32_radio_driver/radio.c ****                 return;
 2490              		.loc 1 1315 17 view .LVU622
1315:Middlewares/Third_Party/SubGHz_Phy/stm32_radio_driver/radio.c ****                 return;
 2491              		.loc 1 1315 17 view .LVU623
 2492 00e0 2A4B     		ldr	r3, .L205+8
 2493 00e2 0122     		movs	r2, #1
 2494 00e4 0021     		movs	r1, #0
 2495 00e6 0220     		movs	r0, #2
 2496 00e8 FFF7FEFF 		bl	UTIL_ADV_TRACE_COND_FSend
 2497              	.LVL245:
1315:Middlewares/Third_Party/SubGHz_Phy/stm32_radio_driver/radio.c ****                 return;
 2498              		.loc 1 1315 17 view .LVU624
1316:Middlewares/Third_Party/SubGHz_Phy/stm32_radio_driver/radio.c ****               }
 2499              		.loc 1 1316 17 view .LVU625
 2500 00ec D2E7     		b	.L187
 2501              	.L193:
1316:Middlewares/Third_Party/SubGHz_Phy/stm32_radio_driver/radio.c ****               }
 2502              		.loc 1 1316 17 is_stmt 0 view .LVU626
 2503              	.LBE2:
1329:Middlewares/Third_Party/SubGHz_Phy/stm32_radio_driver/radio.c ****             SubgRf.PacketParams.Params.Bpsk.PayloadLength = size;
 2504              		.loc 1 1329 13 is_stmt 1 view .LVU627
1329:Middlewares/Third_Party/SubGHz_Phy/stm32_radio_driver/radio.c ****             SubgRf.PacketParams.Params.Bpsk.PayloadLength = size;
 2505              		.loc 1 1329 44 is_stmt 0 view .LVU628
 2506 00ee 2548     		ldr	r0, .L205
 2507 00f0 0223     		movs	r3, #2
 2508 00f2 8373     		strb	r3, [r0, #14]
1330:Middlewares/Third_Party/SubGHz_Phy/stm32_radio_driver/radio.c ****             SUBGRF_SetPacketParams( &SubgRf.PacketParams );
 2509              		.loc 1 1330 13 is_stmt 1 view .LVU629
1330:Middlewares/Third_Party/SubGHz_Phy/stm32_radio_driver/radio.c ****             SUBGRF_SetPacketParams( &SubgRf.PacketParams );
 2510              		.loc 1 1330 59 is_stmt 0 view .LVU630
 2511 00f4 8476     		strb	r4, [r0, #26]
1331:Middlewares/Third_Party/SubGHz_Phy/stm32_radio_driver/radio.c ****             SUBGRF_SendPayload( buffer, size, 0 );
 2512              		.loc 1 1331 13 is_stmt 1 view .LVU631
 2513 00f6 0E30     		adds	r0, r0, #14
 2514 00f8 FFF7FEFF 		bl	SUBGRF_SetPacketParams
 2515              	.LVL246:
1332:Middlewares/Third_Party/SubGHz_Phy/stm32_radio_driver/radio.c ****             break;
 2516              		.loc 1 1332 13 view .LVU632
 2517 00fc 0022     		movs	r2, #0
 2518 00fe 2146     		mov	r1, r4
 2519 0100 2846     		mov	r0, r5
ARM GAS  /var/folders/9y/n02fl3g16gnf7ppy14xghdy80000gn/T//cc8eCeeT.s 			page 85


 2520 0102 FFF7FEFF 		bl	SUBGRF_SendPayload
 2521              	.LVL247:
1333:Middlewares/Third_Party/SubGHz_Phy/stm32_radio_driver/radio.c ****         }
 2522              		.loc 1 1333 13 view .LVU633
 2523 0106 BCE7     		b	.L190
 2524              	.L191:
 2525              	.LBB3:
1341:Middlewares/Third_Party/SubGHz_Phy/stm32_radio_driver/radio.c **** 
 2526              		.loc 1 1341 13 view .LVU634
 2527 0108 2246     		mov	r2, r4
 2528 010a 2946     		mov	r1, r5
 2529 010c 2048     		ldr	r0, .L205+12
 2530 010e FFF7FEFF 		bl	payload_integration
 2531              	.LVL248:
1343:Middlewares/Third_Party/SubGHz_Phy/stm32_radio_driver/radio.c ****             SubgRf.PacketParams.Params.Bpsk.PayloadLength = size + 1;
 2532              		.loc 1 1343 13 view .LVU635
1343:Middlewares/Third_Party/SubGHz_Phy/stm32_radio_driver/radio.c ****             SubgRf.PacketParams.Params.Bpsk.PayloadLength = size + 1;
 2533              		.loc 1 1343 44 is_stmt 0 view .LVU636
 2534 0112 1C4E     		ldr	r6, .L205
 2535 0114 0223     		movs	r3, #2
 2536 0116 B373     		strb	r3, [r6, #14]
1344:Middlewares/Third_Party/SubGHz_Phy/stm32_radio_driver/radio.c ****             SUBGRF_SetPacketParams( &SubgRf.PacketParams );
 2537              		.loc 1 1344 13 is_stmt 1 view .LVU637
1344:Middlewares/Third_Party/SubGHz_Phy/stm32_radio_driver/radio.c ****             SUBGRF_SetPacketParams( &SubgRf.PacketParams );
 2538              		.loc 1 1344 66 is_stmt 0 view .LVU638
 2539 0118 651C     		adds	r5, r4, #1
 2540              	.LVL249:
1344:Middlewares/Third_Party/SubGHz_Phy/stm32_radio_driver/radio.c ****             SUBGRF_SetPacketParams( &SubgRf.PacketParams );
 2541              		.loc 1 1344 66 view .LVU639
 2542 011a EDB2     		uxtb	r5, r5
1344:Middlewares/Third_Party/SubGHz_Phy/stm32_radio_driver/radio.c ****             SUBGRF_SetPacketParams( &SubgRf.PacketParams );
 2543              		.loc 1 1344 59 view .LVU640
 2544 011c B576     		strb	r5, [r6, #26]
1345:Middlewares/Third_Party/SubGHz_Phy/stm32_radio_driver/radio.c **** 
 2545              		.loc 1 1345 13 is_stmt 1 view .LVU641
 2546 011e 06F10E00 		add	r0, r6, #14
 2547 0122 FFF7FEFF 		bl	SUBGRF_SetPacketParams
 2548              	.LVL250:
1347:Middlewares/Third_Party/SubGHz_Phy/stm32_radio_driver/radio.c ****             RadioWrite( SUBGHZ_RAM_RAMPUPH, 0 ); // clean start-up MSB
 2549              		.loc 1 1347 13 view .LVU642
 2550 0126 0021     		movs	r1, #0
 2551 0128 F120     		movs	r0, #241
 2552 012a FFF7FEFF 		bl	RadioWrite
 2553              	.LVL251:
1348:Middlewares/Third_Party/SubGHz_Phy/stm32_radio_driver/radio.c ****             if( SubgRf.ModulationParams.Params.Bpsk.BitRate == 100 )
 2554              		.loc 1 1348 13 view .LVU643
 2555 012e 0021     		movs	r1, #0
 2556 0130 F020     		movs	r0, #240
 2557 0132 FFF7FEFF 		bl	RadioWrite
 2558              	.LVL252:
1349:Middlewares/Third_Party/SubGHz_Phy/stm32_radio_driver/radio.c ****             {
 2559              		.loc 1 1349 13 view .LVU644
1349:Middlewares/Third_Party/SubGHz_Phy/stm32_radio_driver/radio.c ****             {
 2560              		.loc 1 1349 52 is_stmt 0 view .LVU645
 2561 0136 B36C     		ldr	r3, [r6, #72]
1349:Middlewares/Third_Party/SubGHz_Phy/stm32_radio_driver/radio.c ****             {
 2562              		.loc 1 1349 15 view .LVU646
ARM GAS  /var/folders/9y/n02fl3g16gnf7ppy14xghdy80000gn/T//cc8eCeeT.s 			page 86


 2563 0138 642B     		cmp	r3, #100
 2564 013a 19D0     		beq	.L204
1356:Middlewares/Third_Party/SubGHz_Phy/stm32_radio_driver/radio.c ****                 RadioWrite( SUBGHZ_RAM_RAMPDNH, 0x04 ); // clean end of frame MSB
 2565              		.loc 1 1356 17 is_stmt 1 view .LVU647
 2566 013c E121     		movs	r1, #225
 2567 013e F320     		movs	r0, #243
 2568 0140 FFF7FEFF 		bl	RadioWrite
 2569              	.LVL253:
1357:Middlewares/Third_Party/SubGHz_Phy/stm32_radio_driver/radio.c ****             }
 2570              		.loc 1 1357 17 view .LVU648
 2571 0144 0421     		movs	r1, #4
 2572 0146 F220     		movs	r0, #242
 2573 0148 FFF7FEFF 		bl	RadioWrite
 2574              	.LVL254:
 2575              	.L200:
1360:Middlewares/Third_Party/SubGHz_Phy/stm32_radio_driver/radio.c ****             RadioWrite( SUBGHZ_RAM_FRAMELIMH, ( bitNum >> 8 ) & 0x00FF );    // limit frame
 2576              		.loc 1 1360 13 view .LVU649
1360:Middlewares/Third_Party/SubGHz_Phy/stm32_radio_driver/radio.c ****             RadioWrite( SUBGHZ_RAM_FRAMELIMH, ( bitNum >> 8 ) & 0x00FF );    // limit frame
 2577              		.loc 1 1360 44 is_stmt 0 view .LVU650
 2578 014c E100     		lsls	r1, r4, #3
1360:Middlewares/Third_Party/SubGHz_Phy/stm32_radio_driver/radio.c ****             RadioWrite( SUBGHZ_RAM_FRAMELIMH, ( bitNum >> 8 ) & 0x00FF );    // limit frame
 2579              		.loc 1 1360 22 view .LVU651
 2580 014e 8C1C     		adds	r4, r1, #2
 2581              	.LVL255:
1361:Middlewares/Third_Party/SubGHz_Phy/stm32_radio_driver/radio.c ****             RadioWrite( SUBGHZ_RAM_FRAMELIML, bitNum & 0x00FF );             // limit frame
 2582              		.loc 1 1361 13 is_stmt 1 view .LVU652
 2583 0150 090A     		lsrs	r1, r1, #8
 2584 0152 F420     		movs	r0, #244
 2585 0154 FFF7FEFF 		bl	RadioWrite
 2586              	.LVL256:
1362:Middlewares/Third_Party/SubGHz_Phy/stm32_radio_driver/radio.c ****             SUBGRF_SendPayload( RadioBuffer, size+1 , 0xFFFFFF );
 2587              		.loc 1 1362 13 view .LVU653
 2588 0158 04F0FE01 		and	r1, r4, #254
 2589 015c F520     		movs	r0, #245
 2590 015e FFF7FEFF 		bl	RadioWrite
 2591              	.LVL257:
1363:Middlewares/Third_Party/SubGHz_Phy/stm32_radio_driver/radio.c ****             break;
 2592              		.loc 1 1363 13 view .LVU654
 2593 0162 6FF07F42 		mvn	r2, #-16777216
 2594 0166 2946     		mov	r1, r5
 2595 0168 0948     		ldr	r0, .L205+12
 2596 016a FFF7FEFF 		bl	SUBGRF_SendPayload
 2597              	.LVL258:
1364:Middlewares/Third_Party/SubGHz_Phy/stm32_radio_driver/radio.c ****         }
 2598              		.loc 1 1364 13 view .LVU655
 2599 016e 88E7     		b	.L190
 2600              	.LVL259:
 2601              	.L204:
1351:Middlewares/Third_Party/SubGHz_Phy/stm32_radio_driver/radio.c ****                 RadioWrite( SUBGHZ_RAM_RAMPDNH, 0x1D ); // clean end of frame MSB
 2602              		.loc 1 1351 17 view .LVU656
 2603 0170 7021     		movs	r1, #112
 2604 0172 F320     		movs	r0, #243
 2605 0174 FFF7FEFF 		bl	RadioWrite
 2606              	.LVL260:
1352:Middlewares/Third_Party/SubGHz_Phy/stm32_radio_driver/radio.c ****             }
 2607              		.loc 1 1352 17 view .LVU657
 2608 0178 1D21     		movs	r1, #29
ARM GAS  /var/folders/9y/n02fl3g16gnf7ppy14xghdy80000gn/T//cc8eCeeT.s 			page 87


 2609 017a F220     		movs	r0, #242
 2610 017c FFF7FEFF 		bl	RadioWrite
 2611              	.LVL261:
 2612 0180 E4E7     		b	.L200
 2613              	.L206:
 2614 0182 00BF     		.align	2
 2615              	.L205:
 2616 0184 00000000 		.word	.LANCHOR3
 2617 0188 00000000 		.word	.LANCHOR5
 2618 018c 00000000 		.word	.LC8
 2619 0190 00000000 		.word	.LANCHOR6
 2620              	.LBE3:
 2621              		.cfi_endproc
 2622              	.LFE1176:
 2624              		.section	.text.RadioRandom,"ax",%progbits
 2625              		.align	1
 2626              		.syntax unified
 2627              		.thumb
 2628              		.thumb_func
 2629              		.fpu softvfp
 2631              	RadioRandom:
 2632              	.LFB1168:
 808:Middlewares/Third_Party/SubGHz_Phy/stm32_radio_driver/radio.c ****     uint32_t rnd = 0;
 2633              		.loc 1 808 1 view -0
 2634              		.cfi_startproc
 2635              		@ args = 0, pretend = 0, frame = 0
 2636              		@ frame_needed = 0, uses_anonymous_args = 0
 2637 0000 08B5     		push	{r3, lr}
 2638              		.cfi_def_cfa_offset 8
 2639              		.cfi_offset 3, -8
 2640              		.cfi_offset 14, -4
 809:Middlewares/Third_Party/SubGHz_Phy/stm32_radio_driver/radio.c **** 
 2641              		.loc 1 809 5 view .LVU659
 2642              	.LVL262:
 815:Middlewares/Third_Party/SubGHz_Phy/stm32_radio_driver/radio.c **** 
 2643              		.loc 1 815 5 view .LVU660
 2644 0002 0023     		movs	r3, #0
 2645 0004 1A46     		mov	r2, r3
 2646 0006 1946     		mov	r1, r3
 2647 0008 1846     		mov	r0, r3
 2648 000a FFF7FEFF 		bl	SUBGRF_SetDioIrqParams
 2649              	.LVL263:
 817:Middlewares/Third_Party/SubGHz_Phy/stm32_radio_driver/radio.c **** 
 2650              		.loc 1 817 5 view .LVU661
 817:Middlewares/Third_Party/SubGHz_Phy/stm32_radio_driver/radio.c **** 
 2651              		.loc 1 817 11 is_stmt 0 view .LVU662
 2652 000e FFF7FEFF 		bl	SUBGRF_GetRandom
 2653              	.LVL264:
 819:Middlewares/Third_Party/SubGHz_Phy/stm32_radio_driver/radio.c **** }
 2654              		.loc 1 819 5 is_stmt 1 view .LVU663
 820:Middlewares/Third_Party/SubGHz_Phy/stm32_radio_driver/radio.c **** 
 2655              		.loc 1 820 1 is_stmt 0 view .LVU664
 2656 0012 08BD     		pop	{r3, pc}
 2657              		.cfi_endproc
 2658              	.LFE1168:
 2660              		.section	.text.RadioSetModem,"ax",%progbits
 2661              		.align	1
ARM GAS  /var/folders/9y/n02fl3g16gnf7ppy14xghdy80000gn/T//cc8eCeeT.s 			page 88


 2662              		.syntax unified
 2663              		.thumb
 2664              		.thumb_func
 2665              		.fpu softvfp
 2667              	RadioSetModem:
 2668              	.LVL265:
 2669              	.LFB1165:
 715:Middlewares/Third_Party/SubGHz_Phy/stm32_radio_driver/radio.c ****     SubgRf.Modem = modem;
 2670              		.loc 1 715 1 is_stmt 1 view -0
 2671              		.cfi_startproc
 2672              		@ args = 0, pretend = 0, frame = 0
 2673              		@ frame_needed = 0, uses_anonymous_args = 0
 715:Middlewares/Third_Party/SubGHz_Phy/stm32_radio_driver/radio.c ****     SubgRf.Modem = modem;
 2674              		.loc 1 715 1 is_stmt 0 view .LVU666
 2675 0000 10B5     		push	{r4, lr}
 2676              		.cfi_def_cfa_offset 8
 2677              		.cfi_offset 4, -8
 2678              		.cfi_offset 14, -4
 2679 0002 0446     		mov	r4, r0
 716:Middlewares/Third_Party/SubGHz_Phy/stm32_radio_driver/radio.c ****     RFW_SetRadioModem( modem );
 2680              		.loc 1 716 5 is_stmt 1 view .LVU667
 716:Middlewares/Third_Party/SubGHz_Phy/stm32_radio_driver/radio.c ****     RFW_SetRadioModem( modem );
 2681              		.loc 1 716 18 is_stmt 0 view .LVU668
 2682 0004 1C4B     		ldr	r3, .L219
 2683 0006 1870     		strb	r0, [r3]
 717:Middlewares/Third_Party/SubGHz_Phy/stm32_radio_driver/radio.c ****     switch( modem )
 2684              		.loc 1 717 5 is_stmt 1 view .LVU669
 2685 0008 FFF7FEFF 		bl	RFW_SetRadioModem
 2686              	.LVL266:
 718:Middlewares/Third_Party/SubGHz_Phy/stm32_radio_driver/radio.c ****     {
 2687              		.loc 1 718 5 view .LVU670
 2688 000c 052C     		cmp	r4, #5
 2689 000e 04D8     		bhi	.L210
 2690 0010 DFE804F0 		tbb	[pc, r4]
 2691              	.L212:
 2692 0014 0A       		.byte	(.L216-.L212)/2
 2693 0015 11       		.byte	(.L215-.L212)/2
 2694 0016 03       		.byte	(.L210-.L212)/2
 2695 0017 1D       		.byte	(.L214-.L212)/2
 2696 0018 24       		.byte	(.L213-.L212)/2
 2697 0019 2B       		.byte	(.L211-.L212)/2
 2698              		.p2align 1
 2699              	.L210:
 722:Middlewares/Third_Party/SubGHz_Phy/stm32_radio_driver/radio.c ****         // When switching to GFSK mode the LoRa SyncWord register value is reset
 2700              		.loc 1 722 9 view .LVU671
 2701 001a 0320     		movs	r0, #3
 2702 001c FFF7FEFF 		bl	SUBGRF_SetPacketType
 2703              	.LVL267:
 725:Middlewares/Third_Party/SubGHz_Phy/stm32_radio_driver/radio.c ****         break;
 2704              		.loc 1 725 9 view .LVU672
 725:Middlewares/Third_Party/SubGHz_Phy/stm32_radio_driver/radio.c ****         break;
 2705              		.loc 1 725 38 is_stmt 0 view .LVU673
 2706 0020 154B     		ldr	r3, .L219
 2707 0022 0022     		movs	r2, #0
 2708 0024 5A73     		strb	r2, [r3, #13]
 726:Middlewares/Third_Party/SubGHz_Phy/stm32_radio_driver/radio.c ****     case MODEM_FSK:
 2709              		.loc 1 726 9 is_stmt 1 view .LVU674
ARM GAS  /var/folders/9y/n02fl3g16gnf7ppy14xghdy80000gn/T//cc8eCeeT.s 			page 89


 2710              	.L209:
 763:Middlewares/Third_Party/SubGHz_Phy/stm32_radio_driver/radio.c **** 
 2711              		.loc 1 763 1 is_stmt 0 view .LVU675
 2712 0026 10BD     		pop	{r4, pc}
 2713              	.L216:
 728:Middlewares/Third_Party/SubGHz_Phy/stm32_radio_driver/radio.c ****         // When switching to GFSK mode the LoRa SyncWord register value is reset
 2714              		.loc 1 728 9 is_stmt 1 view .LVU676
 2715 0028 0020     		movs	r0, #0
 2716 002a FFF7FEFF 		bl	SUBGRF_SetPacketType
 2717              	.LVL268:
 731:Middlewares/Third_Party/SubGHz_Phy/stm32_radio_driver/radio.c ****         break;
 2718              		.loc 1 731 9 view .LVU677
 731:Middlewares/Third_Party/SubGHz_Phy/stm32_radio_driver/radio.c ****         break;
 2719              		.loc 1 731 38 is_stmt 0 view .LVU678
 2720 002e 124B     		ldr	r3, .L219
 2721 0030 0022     		movs	r2, #0
 2722 0032 5A73     		strb	r2, [r3, #13]
 732:Middlewares/Third_Party/SubGHz_Phy/stm32_radio_driver/radio.c ****     case MODEM_LORA:
 2723              		.loc 1 732 9 is_stmt 1 view .LVU679
 2724 0034 F7E7     		b	.L209
 2725              	.L215:
 734:Middlewares/Third_Party/SubGHz_Phy/stm32_radio_driver/radio.c ****         // Public/Private network register is reset when switching modems
 2726              		.loc 1 734 9 view .LVU680
 2727 0036 0120     		movs	r0, #1
 2728 0038 FFF7FEFF 		bl	SUBGRF_SetPacketType
 2729              	.LVL269:
 736:Middlewares/Third_Party/SubGHz_Phy/stm32_radio_driver/radio.c ****         {
 2730              		.loc 1 736 9 view .LVU681
 736:Middlewares/Third_Party/SubGHz_Phy/stm32_radio_driver/radio.c ****         {
 2731              		.loc 1 736 33 is_stmt 0 view .LVU682
 2732 003c 0E4B     		ldr	r3, .L219
 2733 003e 5A7B     		ldrb	r2, [r3, #13]	@ zero_extendqisi2
 736:Middlewares/Third_Party/SubGHz_Phy/stm32_radio_driver/radio.c ****         {
 2734              		.loc 1 736 65 view .LVU683
 2735 0040 187B     		ldrb	r0, [r3, #12]	@ zero_extendqisi2
 736:Middlewares/Third_Party/SubGHz_Phy/stm32_radio_driver/radio.c ****         {
 2736              		.loc 1 736 11 view .LVU684
 2737 0042 8242     		cmp	r2, r0
 2738 0044 EFD0     		beq	.L209
 738:Middlewares/Third_Party/SubGHz_Phy/stm32_radio_driver/radio.c ****             RadioSetPublicNetwork( SubgRf.PublicNetwork.Current );
 2739              		.loc 1 738 13 is_stmt 1 view .LVU685
 738:Middlewares/Third_Party/SubGHz_Phy/stm32_radio_driver/radio.c ****             RadioSetPublicNetwork( SubgRf.PublicNetwork.Current );
 2740              		.loc 1 738 42 is_stmt 0 view .LVU686
 2741 0046 5873     		strb	r0, [r3, #13]
 739:Middlewares/Third_Party/SubGHz_Phy/stm32_radio_driver/radio.c ****         }
 2742              		.loc 1 739 13 is_stmt 1 view .LVU687
 2743 0048 FFF7FEFF 		bl	RadioSetPublicNetwork
 2744              	.LVL270:
 2745 004c EBE7     		b	.L209
 2746              	.L214:
 743:Middlewares/Third_Party/SubGHz_Phy/stm32_radio_driver/radio.c ****         // When switching to BPSK mode the LoRa SyncWord register value is reset
 2747              		.loc 1 743 9 view .LVU688
 2748 004e 0220     		movs	r0, #2
 2749 0050 FFF7FEFF 		bl	SUBGRF_SetPacketType
 2750              	.LVL271:
 746:Middlewares/Third_Party/SubGHz_Phy/stm32_radio_driver/radio.c ****         break;
 2751              		.loc 1 746 9 view .LVU689
ARM GAS  /var/folders/9y/n02fl3g16gnf7ppy14xghdy80000gn/T//cc8eCeeT.s 			page 90


 746:Middlewares/Third_Party/SubGHz_Phy/stm32_radio_driver/radio.c ****         break;
 2752              		.loc 1 746 38 is_stmt 0 view .LVU690
 2753 0054 084B     		ldr	r3, .L219
 2754 0056 0022     		movs	r2, #0
 2755 0058 5A73     		strb	r2, [r3, #13]
 747:Middlewares/Third_Party/SubGHz_Phy/stm32_radio_driver/radio.c **** #if (RADIO_SIGFOX_ENABLE == 1)
 2756              		.loc 1 747 9 is_stmt 1 view .LVU691
 2757 005a E4E7     		b	.L209
 2758              	.L213:
 750:Middlewares/Third_Party/SubGHz_Phy/stm32_radio_driver/radio.c ****         // When switching to BPSK mode the LoRa SyncWord register value is reset
 2759              		.loc 1 750 9 view .LVU692
 2760 005c 0220     		movs	r0, #2
 2761 005e FFF7FEFF 		bl	SUBGRF_SetPacketType
 2762              	.LVL272:
 753:Middlewares/Third_Party/SubGHz_Phy/stm32_radio_driver/radio.c ****         break;
 2763              		.loc 1 753 9 view .LVU693
 753:Middlewares/Third_Party/SubGHz_Phy/stm32_radio_driver/radio.c ****         break;
 2764              		.loc 1 753 38 is_stmt 0 view .LVU694
 2765 0062 054B     		ldr	r3, .L219
 2766 0064 0022     		movs	r2, #0
 2767 0066 5A73     		strb	r2, [r3, #13]
 754:Middlewares/Third_Party/SubGHz_Phy/stm32_radio_driver/radio.c ****     case MODEM_SIGFOX_RX:
 2768              		.loc 1 754 9 is_stmt 1 view .LVU695
 2769 0068 DDE7     		b	.L209
 2770              	.L211:
 756:Middlewares/Third_Party/SubGHz_Phy/stm32_radio_driver/radio.c ****         // When switching to GFSK mode the LoRa SyncWord register value is reset
 2771              		.loc 1 756 9 view .LVU696
 2772 006a 0020     		movs	r0, #0
 2773 006c FFF7FEFF 		bl	SUBGRF_SetPacketType
 2774              	.LVL273:
 759:Middlewares/Third_Party/SubGHz_Phy/stm32_radio_driver/radio.c ****         break;
 2775              		.loc 1 759 9 view .LVU697
 759:Middlewares/Third_Party/SubGHz_Phy/stm32_radio_driver/radio.c ****         break;
 2776              		.loc 1 759 38 is_stmt 0 view .LVU698
 2777 0070 014B     		ldr	r3, .L219
 2778 0072 0022     		movs	r2, #0
 2779 0074 5A73     		strb	r2, [r3, #13]
 760:Middlewares/Third_Party/SubGHz_Phy/stm32_radio_driver/radio.c **** #endif /*RADIO_SIGFOX_ENABLE == 1*/
 2780              		.loc 1 760 9 is_stmt 1 view .LVU699
 763:Middlewares/Third_Party/SubGHz_Phy/stm32_radio_driver/radio.c **** 
 2781              		.loc 1 763 1 is_stmt 0 view .LVU700
 2782 0076 D6E7     		b	.L209
 2783              	.L220:
 2784              		.align	2
 2785              	.L219:
 2786 0078 00000000 		.word	.LANCHOR3
 2787              		.cfi_endproc
 2788              	.LFE1165:
 2790              		.section	.text.RadioSetTxGenericConfig,"ax",%progbits
 2791              		.align	1
 2792              		.syntax unified
 2793              		.thumb
 2794              		.thumb_func
 2795              		.fpu softvfp
 2797              	RadioSetTxGenericConfig:
 2798              	.LVL274:
 2799              	.LFB1202:
ARM GAS  /var/folders/9y/n02fl3g16gnf7ppy14xghdy80000gn/T//cc8eCeeT.s 			page 91


1838:Middlewares/Third_Party/SubGHz_Phy/stm32_radio_driver/radio.c **** #endif /*RADIO_SIGFOX_ENABLE == 1*/
1839:Middlewares/Third_Party/SubGHz_Phy/stm32_radio_driver/radio.c **** 
1840:Middlewares/Third_Party/SubGHz_Phy/stm32_radio_driver/radio.c **** static int32_t RadioSetRxGenericConfig( GenericModems_t modem, RxConfigGeneric_t* config, uint32_t 
1841:Middlewares/Third_Party/SubGHz_Phy/stm32_radio_driver/radio.c **** {
1842:Middlewares/Third_Party/SubGHz_Phy/stm32_radio_driver/radio.c **** #if (RADIO_GENERIC_CONFIG_ENABLE == 1)
1843:Middlewares/Third_Party/SubGHz_Phy/stm32_radio_driver/radio.c ****     int32_t status = 0;
1844:Middlewares/Third_Party/SubGHz_Phy/stm32_radio_driver/radio.c ****     uint8_t syncword[8] = {0};
1845:Middlewares/Third_Party/SubGHz_Phy/stm32_radio_driver/radio.c ****     uint8_t MaxPayloadLength;
1846:Middlewares/Third_Party/SubGHz_Phy/stm32_radio_driver/radio.c **** 
1847:Middlewares/Third_Party/SubGHz_Phy/stm32_radio_driver/radio.c ****     RFW_DeInit( ); /* switch Off FwPacketDecoding by default */
1848:Middlewares/Third_Party/SubGHz_Phy/stm32_radio_driver/radio.c **** 
1849:Middlewares/Third_Party/SubGHz_Phy/stm32_radio_driver/radio.c ****     if( rxContinuous != 0 )
1850:Middlewares/Third_Party/SubGHz_Phy/stm32_radio_driver/radio.c ****     {
1851:Middlewares/Third_Party/SubGHz_Phy/stm32_radio_driver/radio.c ****         symbTimeout = 0;
1852:Middlewares/Third_Party/SubGHz_Phy/stm32_radio_driver/radio.c ****     }
1853:Middlewares/Third_Party/SubGHz_Phy/stm32_radio_driver/radio.c ****     SubgRf.RxContinuous = ( rxContinuous == 0 ) ? false : true;
1854:Middlewares/Third_Party/SubGHz_Phy/stm32_radio_driver/radio.c **** 
1855:Middlewares/Third_Party/SubGHz_Phy/stm32_radio_driver/radio.c ****     switch( modem )
1856:Middlewares/Third_Party/SubGHz_Phy/stm32_radio_driver/radio.c ****     {
1857:Middlewares/Third_Party/SubGHz_Phy/stm32_radio_driver/radio.c ****     case GENERIC_FSK:
1858:Middlewares/Third_Party/SubGHz_Phy/stm32_radio_driver/radio.c ****         if( ( config->fsk.BitRate == 0 ) || ( config->fsk.PreambleLen == 0 ) )
1859:Middlewares/Third_Party/SubGHz_Phy/stm32_radio_driver/radio.c ****         {
1860:Middlewares/Third_Party/SubGHz_Phy/stm32_radio_driver/radio.c ****             return -1;
1861:Middlewares/Third_Party/SubGHz_Phy/stm32_radio_driver/radio.c ****         }
1862:Middlewares/Third_Party/SubGHz_Phy/stm32_radio_driver/radio.c ****         if( config->fsk.SyncWordLength > 8 )
1863:Middlewares/Third_Party/SubGHz_Phy/stm32_radio_driver/radio.c ****         {
1864:Middlewares/Third_Party/SubGHz_Phy/stm32_radio_driver/radio.c ****             return -1;
1865:Middlewares/Third_Party/SubGHz_Phy/stm32_radio_driver/radio.c ****         }
1866:Middlewares/Third_Party/SubGHz_Phy/stm32_radio_driver/radio.c ****         else
1867:Middlewares/Third_Party/SubGHz_Phy/stm32_radio_driver/radio.c ****         {
1868:Middlewares/Third_Party/SubGHz_Phy/stm32_radio_driver/radio.c ****             RADIO_MEMCPY8( syncword, config->fsk.SyncWord, config->fsk.SyncWordLength );
1869:Middlewares/Third_Party/SubGHz_Phy/stm32_radio_driver/radio.c ****         }
1870:Middlewares/Third_Party/SubGHz_Phy/stm32_radio_driver/radio.c **** 
1871:Middlewares/Third_Party/SubGHz_Phy/stm32_radio_driver/radio.c ****         SUBGRF_SetStopRxTimerOnPreambleDetect( ( config->fsk.StopTimerOnPreambleDetect == 0 ) ? fal
1872:Middlewares/Third_Party/SubGHz_Phy/stm32_radio_driver/radio.c **** 
1873:Middlewares/Third_Party/SubGHz_Phy/stm32_radio_driver/radio.c ****         SubgRf.ModulationParams.PacketType = PACKET_TYPE_GFSK;
1874:Middlewares/Third_Party/SubGHz_Phy/stm32_radio_driver/radio.c ****         SubgRf.ModulationParams.Params.Gfsk.BitRate = config->fsk.BitRate;
1875:Middlewares/Third_Party/SubGHz_Phy/stm32_radio_driver/radio.c ****         SubgRf.ModulationParams.Params.Gfsk.ModulationShaping = (RadioModShapings_t) config->fsk.Mo
1876:Middlewares/Third_Party/SubGHz_Phy/stm32_radio_driver/radio.c ****         SubgRf.ModulationParams.Params.Gfsk.Bandwidth = SUBGRF_GetFskBandwidthRegValue( config->fsk
1877:Middlewares/Third_Party/SubGHz_Phy/stm32_radio_driver/radio.c **** 
1878:Middlewares/Third_Party/SubGHz_Phy/stm32_radio_driver/radio.c ****         SubgRf.PacketParams.PacketType = PACKET_TYPE_GFSK;
1879:Middlewares/Third_Party/SubGHz_Phy/stm32_radio_driver/radio.c ****         SubgRf.PacketParams.Params.Gfsk.PreambleLength = ( config->fsk.PreambleLen ) << 3 ; // conv
1880:Middlewares/Third_Party/SubGHz_Phy/stm32_radio_driver/radio.c ****         SubgRf.PacketParams.Params.Gfsk.PreambleMinDetect = ( RadioPreambleDetection_t ) config->fs
1881:Middlewares/Third_Party/SubGHz_Phy/stm32_radio_driver/radio.c ****         SubgRf.PacketParams.Params.Gfsk.SyncWordLength = ( config->fsk.SyncWordLength ) << 3; // co
1882:Middlewares/Third_Party/SubGHz_Phy/stm32_radio_driver/radio.c ****         SubgRf.PacketParams.Params.Gfsk.AddrComp = ( RadioAddressComp_t ) config->fsk.AddrComp;
1883:Middlewares/Third_Party/SubGHz_Phy/stm32_radio_driver/radio.c **** 
1884:Middlewares/Third_Party/SubGHz_Phy/stm32_radio_driver/radio.c ****         if( config->fsk.LengthMode == RADIO_FSK_PACKET_FIXED_LENGTH )
1885:Middlewares/Third_Party/SubGHz_Phy/stm32_radio_driver/radio.c ****         {
1886:Middlewares/Third_Party/SubGHz_Phy/stm32_radio_driver/radio.c ****             SubgRf.PacketParams.Params.Gfsk.PayloadLength = config->fsk.MaxPayloadLength;
1887:Middlewares/Third_Party/SubGHz_Phy/stm32_radio_driver/radio.c ****         }
1888:Middlewares/Third_Party/SubGHz_Phy/stm32_radio_driver/radio.c ****         else if( config->fsk.LengthMode == RADIO_FSK_PACKET_2BYTES_LENGTH )
1889:Middlewares/Third_Party/SubGHz_Phy/stm32_radio_driver/radio.c ****         {
1890:Middlewares/Third_Party/SubGHz_Phy/stm32_radio_driver/radio.c ****             /* Set max in the radio, in long packet mode will be tuned based dynamically on receive
1891:Middlewares/Third_Party/SubGHz_Phy/stm32_radio_driver/radio.c ****             SubgRf.PacketParams.Params.Gfsk.PayloadLength = 0xFF;
1892:Middlewares/Third_Party/SubGHz_Phy/stm32_radio_driver/radio.c ****         }
1893:Middlewares/Third_Party/SubGHz_Phy/stm32_radio_driver/radio.c ****         else
1894:Middlewares/Third_Party/SubGHz_Phy/stm32_radio_driver/radio.c ****         {
ARM GAS  /var/folders/9y/n02fl3g16gnf7ppy14xghdy80000gn/T//cc8eCeeT.s 			page 92


1895:Middlewares/Third_Party/SubGHz_Phy/stm32_radio_driver/radio.c ****             /* Set max in the radio */
1896:Middlewares/Third_Party/SubGHz_Phy/stm32_radio_driver/radio.c ****             SubgRf.PacketParams.Params.Gfsk.PayloadLength = 0xFF;
1897:Middlewares/Third_Party/SubGHz_Phy/stm32_radio_driver/radio.c ****         }
1898:Middlewares/Third_Party/SubGHz_Phy/stm32_radio_driver/radio.c **** 
1899:Middlewares/Third_Party/SubGHz_Phy/stm32_radio_driver/radio.c ****         if( ( config->fsk.Whitening == RADIO_FSK_DC_IBM_WHITENING ) || ( config->fsk.LengthMode == 
1900:Middlewares/Third_Party/SubGHz_Phy/stm32_radio_driver/radio.c ****         {
1901:Middlewares/Third_Party/SubGHz_Phy/stm32_radio_driver/radio.c ****           /* Supports only RADIO_FSK_CRC_2_BYTES_IBM or RADIO_FSK_CRC_2_BYTES_CCIT*/
1902:Middlewares/Third_Party/SubGHz_Phy/stm32_radio_driver/radio.c ****           if( ( config->fsk.CrcLength != RADIO_FSK_CRC_2_BYTES_IBM ) && ( config->fsk.CrcLength != 
1903:Middlewares/Third_Party/SubGHz_Phy/stm32_radio_driver/radio.c ****           {
1904:Middlewares/Third_Party/SubGHz_Phy/stm32_radio_driver/radio.c ****             return -1;
1905:Middlewares/Third_Party/SubGHz_Phy/stm32_radio_driver/radio.c ****           }
1906:Middlewares/Third_Party/SubGHz_Phy/stm32_radio_driver/radio.c ****           ConfigGeneric_t ConfigGeneric;
1907:Middlewares/Third_Party/SubGHz_Phy/stm32_radio_driver/radio.c ****           ConfigGeneric.rtx = CONFIG_RX;
1908:Middlewares/Third_Party/SubGHz_Phy/stm32_radio_driver/radio.c ****           ConfigGeneric.RxConfig = config;
1909:Middlewares/Third_Party/SubGHz_Phy/stm32_radio_driver/radio.c ****           if( 0UL != RFW_Init( &ConfigGeneric, RadioEvents, &RxTimeoutTimer ) )
1910:Middlewares/Third_Party/SubGHz_Phy/stm32_radio_driver/radio.c ****           {
1911:Middlewares/Third_Party/SubGHz_Phy/stm32_radio_driver/radio.c ****             return -1;
1912:Middlewares/Third_Party/SubGHz_Phy/stm32_radio_driver/radio.c ****           }
1913:Middlewares/Third_Party/SubGHz_Phy/stm32_radio_driver/radio.c ****           /* Whitening off, will be processed by FW, switch off built-in radio whitening*/
1914:Middlewares/Third_Party/SubGHz_Phy/stm32_radio_driver/radio.c ****           SubgRf.PacketParams.Params.Gfsk.DcFree = ( RadioDcFree_t ) RADIO_FSK_DC_FREE_OFF;
1915:Middlewares/Third_Party/SubGHz_Phy/stm32_radio_driver/radio.c ****           /* Crc off, Crc processed by FW, switch off built-in radio Crc*/
1916:Middlewares/Third_Party/SubGHz_Phy/stm32_radio_driver/radio.c ****           SubgRf.PacketParams.Params.Gfsk.CrcLength = ( RadioCrcTypes_t ) RADIO_CRC_OFF;
1917:Middlewares/Third_Party/SubGHz_Phy/stm32_radio_driver/radio.c ****           /* Length contained in Tx, but will be processed by FW after de-whitening*/
1918:Middlewares/Third_Party/SubGHz_Phy/stm32_radio_driver/radio.c ****           SubgRf.PacketParams.Params.Gfsk.HeaderType = ( RadioPacketLengthModes_t ) RADIO_PACKET_FI
1919:Middlewares/Third_Party/SubGHz_Phy/stm32_radio_driver/radio.c ****         }
1920:Middlewares/Third_Party/SubGHz_Phy/stm32_radio_driver/radio.c ****         else
1921:Middlewares/Third_Party/SubGHz_Phy/stm32_radio_driver/radio.c ****         {
1922:Middlewares/Third_Party/SubGHz_Phy/stm32_radio_driver/radio.c ****           SubgRf.PacketParams.Params.Gfsk.CrcLength = ( RadioCrcTypes_t ) config->fsk.CrcLength;
1923:Middlewares/Third_Party/SubGHz_Phy/stm32_radio_driver/radio.c ****           SubgRf.PacketParams.Params.Gfsk.DcFree = ( RadioDcFree_t ) config->fsk.Whitening;
1924:Middlewares/Third_Party/SubGHz_Phy/stm32_radio_driver/radio.c ****           SubgRf.PacketParams.Params.Gfsk.HeaderType = ( RadioPacketLengthModes_t ) config->fsk.Len
1925:Middlewares/Third_Party/SubGHz_Phy/stm32_radio_driver/radio.c ****         }
1926:Middlewares/Third_Party/SubGHz_Phy/stm32_radio_driver/radio.c **** 
1927:Middlewares/Third_Party/SubGHz_Phy/stm32_radio_driver/radio.c ****         RadioStandby( );
1928:Middlewares/Third_Party/SubGHz_Phy/stm32_radio_driver/radio.c ****         RadioSetModem( MODEM_FSK );
1929:Middlewares/Third_Party/SubGHz_Phy/stm32_radio_driver/radio.c ****         SUBGRF_SetModulationParams( &SubgRf.ModulationParams );
1930:Middlewares/Third_Party/SubGHz_Phy/stm32_radio_driver/radio.c ****         SUBGRF_SetPacketParams( &SubgRf.PacketParams );
1931:Middlewares/Third_Party/SubGHz_Phy/stm32_radio_driver/radio.c ****         SUBGRF_SetSyncWord( syncword );
1932:Middlewares/Third_Party/SubGHz_Phy/stm32_radio_driver/radio.c ****         SUBGRF_SetWhiteningSeed( config->fsk.whiteSeed );
1933:Middlewares/Third_Party/SubGHz_Phy/stm32_radio_driver/radio.c ****         SUBGRF_SetCrcPolynomial( config->fsk.CrcPolynomial );
1934:Middlewares/Third_Party/SubGHz_Phy/stm32_radio_driver/radio.c ****         /* timeout unused when SubgRf.RxContinuous */
1935:Middlewares/Third_Party/SubGHz_Phy/stm32_radio_driver/radio.c ****         SubgRf.RxTimeout = ( uint32_t )( ( symbTimeout * 1000 * 8 ) / config->fsk.BitRate );
1936:Middlewares/Third_Party/SubGHz_Phy/stm32_radio_driver/radio.c ****         break;
1937:Middlewares/Third_Party/SubGHz_Phy/stm32_radio_driver/radio.c ****     case GENERIC_LORA:
1938:Middlewares/Third_Party/SubGHz_Phy/stm32_radio_driver/radio.c ****         if( config->lora.PreambleLen == 0 )
1939:Middlewares/Third_Party/SubGHz_Phy/stm32_radio_driver/radio.c ****         {
1940:Middlewares/Third_Party/SubGHz_Phy/stm32_radio_driver/radio.c ****             return -1;
1941:Middlewares/Third_Party/SubGHz_Phy/stm32_radio_driver/radio.c ****         }
1942:Middlewares/Third_Party/SubGHz_Phy/stm32_radio_driver/radio.c **** 
1943:Middlewares/Third_Party/SubGHz_Phy/stm32_radio_driver/radio.c ****         if( config->lora.LengthMode == RADIO_LORA_PACKET_FIXED_LENGTH )
1944:Middlewares/Third_Party/SubGHz_Phy/stm32_radio_driver/radio.c ****         {
1945:Middlewares/Third_Party/SubGHz_Phy/stm32_radio_driver/radio.c ****             MaxPayloadLength = config->fsk.MaxPayloadLength;
1946:Middlewares/Third_Party/SubGHz_Phy/stm32_radio_driver/radio.c ****         }
1947:Middlewares/Third_Party/SubGHz_Phy/stm32_radio_driver/radio.c ****         else
1948:Middlewares/Third_Party/SubGHz_Phy/stm32_radio_driver/radio.c ****         {
1949:Middlewares/Third_Party/SubGHz_Phy/stm32_radio_driver/radio.c ****             MaxPayloadLength = 0xFF;
1950:Middlewares/Third_Party/SubGHz_Phy/stm32_radio_driver/radio.c ****         }
1951:Middlewares/Third_Party/SubGHz_Phy/stm32_radio_driver/radio.c ****         SUBGRF_SetStopRxTimerOnPreambleDetect( ( config->lora.StopTimerOnPreambleDetect == 0 ) ? fa
ARM GAS  /var/folders/9y/n02fl3g16gnf7ppy14xghdy80000gn/T//cc8eCeeT.s 			page 93


1952:Middlewares/Third_Party/SubGHz_Phy/stm32_radio_driver/radio.c ****         SUBGRF_SetLoRaSymbNumTimeout( symbTimeout );
1953:Middlewares/Third_Party/SubGHz_Phy/stm32_radio_driver/radio.c **** 
1954:Middlewares/Third_Party/SubGHz_Phy/stm32_radio_driver/radio.c ****         SubgRf.ModulationParams.PacketType = PACKET_TYPE_LORA;
1955:Middlewares/Third_Party/SubGHz_Phy/stm32_radio_driver/radio.c ****         SubgRf.ModulationParams.Params.LoRa.SpreadingFactor = ( RadioLoRaSpreadingFactors_t ) confi
1956:Middlewares/Third_Party/SubGHz_Phy/stm32_radio_driver/radio.c ****         SubgRf.ModulationParams.Params.LoRa.Bandwidth = ( RadioLoRaBandwidths_t ) config->lora.Band
1957:Middlewares/Third_Party/SubGHz_Phy/stm32_radio_driver/radio.c ****         SubgRf.ModulationParams.Params.LoRa.CodingRate = ( RadioLoRaCodingRates_t ) config->lora.Co
1958:Middlewares/Third_Party/SubGHz_Phy/stm32_radio_driver/radio.c ****         switch( config->lora.LowDatarateOptimize )
1959:Middlewares/Third_Party/SubGHz_Phy/stm32_radio_driver/radio.c ****         {
1960:Middlewares/Third_Party/SubGHz_Phy/stm32_radio_driver/radio.c ****         case RADIO_LORA_LOWDR_OPT_OFF:
1961:Middlewares/Third_Party/SubGHz_Phy/stm32_radio_driver/radio.c ****             SubgRf.ModulationParams.Params.LoRa.LowDatarateOptimize = 0;
1962:Middlewares/Third_Party/SubGHz_Phy/stm32_radio_driver/radio.c ****             break;
1963:Middlewares/Third_Party/SubGHz_Phy/stm32_radio_driver/radio.c ****         case RADIO_LORA_LOWDR_OPT_ON:
1964:Middlewares/Third_Party/SubGHz_Phy/stm32_radio_driver/radio.c ****             SubgRf.ModulationParams.Params.LoRa.LowDatarateOptimize = 1;
1965:Middlewares/Third_Party/SubGHz_Phy/stm32_radio_driver/radio.c ****             break;
1966:Middlewares/Third_Party/SubGHz_Phy/stm32_radio_driver/radio.c ****         case RADIO_LORA_LOWDR_OPT_AUTO:
1967:Middlewares/Third_Party/SubGHz_Phy/stm32_radio_driver/radio.c ****             if( ( config->lora.SpreadingFactor == RADIO_LORA_SF11 ) || ( config->lora.SpreadingFact
1968:Middlewares/Third_Party/SubGHz_Phy/stm32_radio_driver/radio.c ****             {
1969:Middlewares/Third_Party/SubGHz_Phy/stm32_radio_driver/radio.c ****                 SubgRf.ModulationParams.Params.LoRa.LowDatarateOptimize = 1;
1970:Middlewares/Third_Party/SubGHz_Phy/stm32_radio_driver/radio.c ****             }
1971:Middlewares/Third_Party/SubGHz_Phy/stm32_radio_driver/radio.c ****             else
1972:Middlewares/Third_Party/SubGHz_Phy/stm32_radio_driver/radio.c ****             {
1973:Middlewares/Third_Party/SubGHz_Phy/stm32_radio_driver/radio.c ****                 SubgRf.ModulationParams.Params.LoRa.LowDatarateOptimize = 0;
1974:Middlewares/Third_Party/SubGHz_Phy/stm32_radio_driver/radio.c ****             }
1975:Middlewares/Third_Party/SubGHz_Phy/stm32_radio_driver/radio.c ****             break;
1976:Middlewares/Third_Party/SubGHz_Phy/stm32_radio_driver/radio.c ****         default:
1977:Middlewares/Third_Party/SubGHz_Phy/stm32_radio_driver/radio.c ****             break;
1978:Middlewares/Third_Party/SubGHz_Phy/stm32_radio_driver/radio.c ****         }
1979:Middlewares/Third_Party/SubGHz_Phy/stm32_radio_driver/radio.c **** 
1980:Middlewares/Third_Party/SubGHz_Phy/stm32_radio_driver/radio.c ****         SubgRf.PacketParams.PacketType = PACKET_TYPE_LORA;
1981:Middlewares/Third_Party/SubGHz_Phy/stm32_radio_driver/radio.c ****         SubgRf.PacketParams.Params.LoRa.PreambleLength = config->lora.PreambleLen;
1982:Middlewares/Third_Party/SubGHz_Phy/stm32_radio_driver/radio.c ****         SubgRf.PacketParams.Params.LoRa.HeaderType = ( RadioLoRaPacketLengthsMode_t ) config->lora.
1983:Middlewares/Third_Party/SubGHz_Phy/stm32_radio_driver/radio.c ****         SubgRf.PacketParams.Params.LoRa.PayloadLength = MaxPayloadLength;
1984:Middlewares/Third_Party/SubGHz_Phy/stm32_radio_driver/radio.c ****         SubgRf.PacketParams.Params.LoRa.CrcMode = ( RadioLoRaCrcModes_t ) config->lora.CrcMode;
1985:Middlewares/Third_Party/SubGHz_Phy/stm32_radio_driver/radio.c ****         SubgRf.PacketParams.Params.LoRa.InvertIQ = ( RadioLoRaIQModes_t ) config->lora.IqInverted;
1986:Middlewares/Third_Party/SubGHz_Phy/stm32_radio_driver/radio.c **** 
1987:Middlewares/Third_Party/SubGHz_Phy/stm32_radio_driver/radio.c ****         RadioStandby( );
1988:Middlewares/Third_Party/SubGHz_Phy/stm32_radio_driver/radio.c ****         RadioSetModem( MODEM_LORA );
1989:Middlewares/Third_Party/SubGHz_Phy/stm32_radio_driver/radio.c ****         SUBGRF_SetModulationParams( &SubgRf.ModulationParams );
1990:Middlewares/Third_Party/SubGHz_Phy/stm32_radio_driver/radio.c ****         SUBGRF_SetPacketParams( &SubgRf.PacketParams );
1991:Middlewares/Third_Party/SubGHz_Phy/stm32_radio_driver/radio.c **** 
1992:Middlewares/Third_Party/SubGHz_Phy/stm32_radio_driver/radio.c ****         /* WORKAROUND - Optimizing the Inverted IQ Operation, see STM32WL Erratasheet*/
1993:Middlewares/Third_Party/SubGHz_Phy/stm32_radio_driver/radio.c ****         if( SubgRf.PacketParams.Params.LoRa.InvertIQ == LORA_IQ_INVERTED )
1994:Middlewares/Third_Party/SubGHz_Phy/stm32_radio_driver/radio.c ****         {
1995:Middlewares/Third_Party/SubGHz_Phy/stm32_radio_driver/radio.c ****             SUBGRF_WriteRegister( SUBGHZ_LIQPOLR, SUBGRF_ReadRegister( SUBGHZ_LIQPOLR ) & ~( 1 << 2
1996:Middlewares/Third_Party/SubGHz_Phy/stm32_radio_driver/radio.c ****         }
1997:Middlewares/Third_Party/SubGHz_Phy/stm32_radio_driver/radio.c ****         else
1998:Middlewares/Third_Party/SubGHz_Phy/stm32_radio_driver/radio.c ****         {
1999:Middlewares/Third_Party/SubGHz_Phy/stm32_radio_driver/radio.c ****             SUBGRF_WriteRegister( SUBGHZ_LIQPOLR, SUBGRF_ReadRegister( SUBGHZ_LIQPOLR ) | ( 1 << 2 
2000:Middlewares/Third_Party/SubGHz_Phy/stm32_radio_driver/radio.c ****         }
2001:Middlewares/Third_Party/SubGHz_Phy/stm32_radio_driver/radio.c ****         // WORKAROUND END
2002:Middlewares/Third_Party/SubGHz_Phy/stm32_radio_driver/radio.c **** 
2003:Middlewares/Third_Party/SubGHz_Phy/stm32_radio_driver/radio.c ****         // Timeout Max, Timeout handled directly in SetRx function
2004:Middlewares/Third_Party/SubGHz_Phy/stm32_radio_driver/radio.c ****         SubgRf.RxTimeout = 0xFFFF;
2005:Middlewares/Third_Party/SubGHz_Phy/stm32_radio_driver/radio.c ****         break;
2006:Middlewares/Third_Party/SubGHz_Phy/stm32_radio_driver/radio.c ****     default:
2007:Middlewares/Third_Party/SubGHz_Phy/stm32_radio_driver/radio.c ****         break;
2008:Middlewares/Third_Party/SubGHz_Phy/stm32_radio_driver/radio.c ****     }
ARM GAS  /var/folders/9y/n02fl3g16gnf7ppy14xghdy80000gn/T//cc8eCeeT.s 			page 94


2009:Middlewares/Third_Party/SubGHz_Phy/stm32_radio_driver/radio.c ****     return status;
2010:Middlewares/Third_Party/SubGHz_Phy/stm32_radio_driver/radio.c **** #else /* RADIO_GENERIC_CONFIG_ENABLE == 1*/
2011:Middlewares/Third_Party/SubGHz_Phy/stm32_radio_driver/radio.c ****     return -1;
2012:Middlewares/Third_Party/SubGHz_Phy/stm32_radio_driver/radio.c **** #endif /* RADIO_GENERIC_CONFIG_ENABLE == 0*/
2013:Middlewares/Third_Party/SubGHz_Phy/stm32_radio_driver/radio.c **** }
2014:Middlewares/Third_Party/SubGHz_Phy/stm32_radio_driver/radio.c **** 
2015:Middlewares/Third_Party/SubGHz_Phy/stm32_radio_driver/radio.c **** static int32_t RadioSetTxGenericConfig( GenericModems_t modem, TxConfigGeneric_t* config, int8_t po
2016:Middlewares/Third_Party/SubGHz_Phy/stm32_radio_driver/radio.c **** {
 2800              		.loc 1 2016 1 is_stmt 1 view -0
 2801              		.cfi_startproc
 2802              		@ args = 0, pretend = 0, frame = 24
 2803              		@ frame_needed = 0, uses_anonymous_args = 0
 2804              		.loc 1 2016 1 is_stmt 0 view .LVU702
 2805 0000 2DE9F041 		push	{r4, r5, r6, r7, r8, lr}
 2806              		.cfi_def_cfa_offset 24
 2807              		.cfi_offset 4, -24
 2808              		.cfi_offset 5, -20
 2809              		.cfi_offset 6, -16
 2810              		.cfi_offset 7, -12
 2811              		.cfi_offset 8, -8
 2812              		.cfi_offset 14, -4
 2813 0004 86B0     		sub	sp, sp, #24
 2814              		.cfi_def_cfa_offset 48
 2815 0006 0546     		mov	r5, r0
 2816 0008 0C46     		mov	r4, r1
 2817 000a 1746     		mov	r7, r2
 2818 000c 1E46     		mov	r6, r3
2017:Middlewares/Third_Party/SubGHz_Phy/stm32_radio_driver/radio.c **** #if (RADIO_GENERIC_CONFIG_ENABLE == 1)
2018:Middlewares/Third_Party/SubGHz_Phy/stm32_radio_driver/radio.c ****     uint8_t syncword[8] = {0};
 2819              		.loc 1 2018 5 is_stmt 1 view .LVU703
 2820              		.loc 1 2018 13 is_stmt 0 view .LVU704
 2821 000e 0021     		movs	r1, #0
 2822              	.LVL275:
 2823              		.loc 1 2018 13 view .LVU705
 2824 0010 0491     		str	r1, [sp, #16]
 2825 0012 0591     		str	r1, [sp, #20]
2019:Middlewares/Third_Party/SubGHz_Phy/stm32_radio_driver/radio.c ****     RadioModems_t radio_modem;
 2826              		.loc 1 2019 5 is_stmt 1 view .LVU706
2020:Middlewares/Third_Party/SubGHz_Phy/stm32_radio_driver/radio.c ****     RFW_DeInit( ); /* switch Off FwPacketDecoding by default */
 2827              		.loc 1 2020 5 view .LVU707
 2828 0014 FFF7FEFF 		bl	RFW_DeInit
 2829              	.LVL276:
2021:Middlewares/Third_Party/SubGHz_Phy/stm32_radio_driver/radio.c ****     switch( modem )
 2830              		.loc 1 2021 5 view .LVU708
 2831 0018 032D     		cmp	r5, #3
 2832 001a 00F25681 		bhi	.L222
 2833 001e DFE815F0 		tbh	[pc, r5, lsl #1]
 2834              	.L224:
 2835 0022 7A00     		.2byte	(.L227-.L224)/2
 2836 0024 DD00     		.2byte	(.L226-.L224)/2
 2837 0026 4001     		.2byte	(.L225-.L224)/2
 2838 0028 0400     		.2byte	(.L223-.L224)/2
 2839              		.p2align 1
 2840              	.L223:
2022:Middlewares/Third_Party/SubGHz_Phy/stm32_radio_driver/radio.c ****     {
2023:Middlewares/Third_Party/SubGHz_Phy/stm32_radio_driver/radio.c ****     case GENERIC_MSK:
2024:Middlewares/Third_Party/SubGHz_Phy/stm32_radio_driver/radio.c ****         if( config->msk.SyncWordLength > 8 )
ARM GAS  /var/folders/9y/n02fl3g16gnf7ppy14xghdy80000gn/T//cc8eCeeT.s 			page 95


 2841              		.loc 1 2024 9 view .LVU709
 2842              		.loc 1 2024 24 is_stmt 0 view .LVU710
 2843 002a A27C     		ldrb	r2, [r4, #18]	@ zero_extendqisi2
 2844              		.loc 1 2024 11 view .LVU711
 2845 002c 082A     		cmp	r2, #8
 2846 002e 00F25981 		bhi	.L246
2025:Middlewares/Third_Party/SubGHz_Phy/stm32_radio_driver/radio.c ****         {
2026:Middlewares/Third_Party/SubGHz_Phy/stm32_radio_driver/radio.c ****             return -1;
2027:Middlewares/Third_Party/SubGHz_Phy/stm32_radio_driver/radio.c ****         }
2028:Middlewares/Third_Party/SubGHz_Phy/stm32_radio_driver/radio.c ****         else
2029:Middlewares/Third_Party/SubGHz_Phy/stm32_radio_driver/radio.c ****         {
2030:Middlewares/Third_Party/SubGHz_Phy/stm32_radio_driver/radio.c ****           RADIO_MEMCPY8(syncword, config->msk.SyncWord, config->msk.SyncWordLength);
 2847              		.loc 1 2030 11 is_stmt 1 view .LVU712
 2848 0032 A168     		ldr	r1, [r4, #8]
 2849 0034 04A8     		add	r0, sp, #16
 2850 0036 FFF7FEFF 		bl	UTIL_MEM_cpy_8
 2851              	.LVL277:
2031:Middlewares/Third_Party/SubGHz_Phy/stm32_radio_driver/radio.c ****         }
2032:Middlewares/Third_Party/SubGHz_Phy/stm32_radio_driver/radio.c ****         if( ( config->msk.BitRate == 0 ) )
 2852              		.loc 1 2032 9 view .LVU713
 2853              		.loc 1 2032 26 is_stmt 0 view .LVU714
 2854 003a 2368     		ldr	r3, [r4]
 2855              		.loc 1 2032 11 view .LVU715
 2856 003c 002B     		cmp	r3, #0
 2857 003e 00F05481 		beq	.L247
2033:Middlewares/Third_Party/SubGHz_Phy/stm32_radio_driver/radio.c ****         {
2034:Middlewares/Third_Party/SubGHz_Phy/stm32_radio_driver/radio.c ****             return -1;
2035:Middlewares/Third_Party/SubGHz_Phy/stm32_radio_driver/radio.c ****         }
2036:Middlewares/Third_Party/SubGHz_Phy/stm32_radio_driver/radio.c ****         else if (config->msk.BitRate<= 10000)
 2858              		.loc 1 2036 14 is_stmt 1 view .LVU716
 2859              		.loc 1 2036 17 is_stmt 0 view .LVU717
 2860 0042 42F21072 		movw	r2, #10000
 2861 0046 9342     		cmp	r3, r2
 2862 0048 23D8     		bhi	.L229
2037:Middlewares/Third_Party/SubGHz_Phy/stm32_radio_driver/radio.c ****         {
2038:Middlewares/Third_Party/SubGHz_Phy/stm32_radio_driver/radio.c ****           /*max msk modulator datarate is 10kbps*/
2039:Middlewares/Third_Party/SubGHz_Phy/stm32_radio_driver/radio.c ****           radio_modem= MODEM_MSK;
 2863              		.loc 1 2039 11 is_stmt 1 view .LVU718
 2864              	.LVL278:
2040:Middlewares/Third_Party/SubGHz_Phy/stm32_radio_driver/radio.c ****           SubgRf.PacketParams.PacketType = PACKET_TYPE_GMSK;
 2865              		.loc 1 2040 11 view .LVU719
 2866              		.loc 1 2040 42 is_stmt 0 view .LVU720
 2867 004a AE4B     		ldr	r3, .L255
 2868 004c 0322     		movs	r2, #3
 2869 004e 9A73     		strb	r2, [r3, #14]
2041:Middlewares/Third_Party/SubGHz_Phy/stm32_radio_driver/radio.c ****           SubgRf.ModulationParams.PacketType = PACKET_TYPE_GMSK;
 2870              		.loc 1 2041 11 is_stmt 1 view .LVU721
 2871              		.loc 1 2041 46 is_stmt 0 view .LVU722
 2872 0050 83F83820 		strb	r2, [r3, #56]
2042:Middlewares/Third_Party/SubGHz_Phy/stm32_radio_driver/radio.c ****           SubgRf.ModulationParams.Params.Gfsk.BitRate = config->msk.BitRate;
 2873              		.loc 1 2042 11 is_stmt 1 view .LVU723
 2874              		.loc 1 2042 68 is_stmt 0 view .LVU724
 2875 0054 2268     		ldr	r2, [r4]
 2876              		.loc 1 2042 55 view .LVU725
 2877 0056 DA63     		str	r2, [r3, #60]
2043:Middlewares/Third_Party/SubGHz_Phy/stm32_radio_driver/radio.c ****           SubgRf.ModulationParams.Params.Gfsk.ModulationShaping = ( RadioModShapings_t ) config->ms
 2878              		.loc 1 2043 11 is_stmt 1 view .LVU726
ARM GAS  /var/folders/9y/n02fl3g16gnf7ppy14xghdy80000gn/T//cc8eCeeT.s 			page 96


 2879              		.loc 1 2043 101 is_stmt 0 view .LVU727
 2880 0058 E27C     		ldrb	r2, [r4, #19]	@ zero_extendqisi2
 2881              		.loc 1 2043 65 view .LVU728
 2882 005a 83F84420 		strb	r2, [r3, #68]
2039:Middlewares/Third_Party/SubGHz_Phy/stm32_radio_driver/radio.c ****           SubgRf.PacketParams.PacketType = PACKET_TYPE_GMSK;
 2883              		.loc 1 2039 22 view .LVU729
 2884 005e 0225     		movs	r5, #2
 2885              	.LVL279:
 2886              	.L230:
2044:Middlewares/Third_Party/SubGHz_Phy/stm32_radio_driver/radio.c ****         }
2045:Middlewares/Third_Party/SubGHz_Phy/stm32_radio_driver/radio.c ****         else
2046:Middlewares/Third_Party/SubGHz_Phy/stm32_radio_driver/radio.c ****         {
2047:Middlewares/Third_Party/SubGHz_Phy/stm32_radio_driver/radio.c ****           radio_modem= MODEM_FSK;
2048:Middlewares/Third_Party/SubGHz_Phy/stm32_radio_driver/radio.c ****           SubgRf.PacketParams.PacketType = PACKET_TYPE_GFSK;
2049:Middlewares/Third_Party/SubGHz_Phy/stm32_radio_driver/radio.c ****           SubgRf.ModulationParams.PacketType = PACKET_TYPE_GFSK;
2050:Middlewares/Third_Party/SubGHz_Phy/stm32_radio_driver/radio.c ****           SubgRf.ModulationParams.Params.Gfsk.BitRate = config->msk.BitRate;
2051:Middlewares/Third_Party/SubGHz_Phy/stm32_radio_driver/radio.c ****           SubgRf.ModulationParams.Params.Gfsk.ModulationShaping = ( RadioModShapings_t ) config->ms
2052:Middlewares/Third_Party/SubGHz_Phy/stm32_radio_driver/radio.c ****           /*do msk with gfsk modulator*/
2053:Middlewares/Third_Party/SubGHz_Phy/stm32_radio_driver/radio.c ****           SubgRf.ModulationParams.Params.Gfsk.Fdev = config->msk.BitRate/4;
2054:Middlewares/Third_Party/SubGHz_Phy/stm32_radio_driver/radio.c ****         }
2055:Middlewares/Third_Party/SubGHz_Phy/stm32_radio_driver/radio.c **** 
2056:Middlewares/Third_Party/SubGHz_Phy/stm32_radio_driver/radio.c ****         SubgRf.PacketParams.Params.Gfsk.PreambleLength = ( config->msk.PreambleLen ) << 3; // conve
 2887              		.loc 1 2056 9 is_stmt 1 view .LVU730
 2888              		.loc 1 2056 71 is_stmt 0 view .LVU731
 2889 0060 6368     		ldr	r3, [r4, #4]
 2890              		.loc 1 2056 86 view .LVU732
 2891 0062 DA00     		lsls	r2, r3, #3
 2892              		.loc 1 2056 56 view .LVU733
 2893 0064 A74B     		ldr	r3, .L255
 2894 0066 1A82     		strh	r2, [r3, #16]	@ movhi
2057:Middlewares/Third_Party/SubGHz_Phy/stm32_radio_driver/radio.c ****         SubgRf.PacketParams.Params.Gfsk.PreambleMinDetect = RADIO_PREAMBLE_DETECTOR_08_BITS; // don
 2895              		.loc 1 2057 9 is_stmt 1 view .LVU734
 2896              		.loc 1 2057 59 is_stmt 0 view .LVU735
 2897 0068 0422     		movs	r2, #4
 2898 006a 9A74     		strb	r2, [r3, #18]
2058:Middlewares/Third_Party/SubGHz_Phy/stm32_radio_driver/radio.c ****         SubgRf.PacketParams.Params.Gfsk.SyncWordLength = ( config->msk.SyncWordLength ) << 3; // co
 2899              		.loc 1 2058 9 is_stmt 1 view .LVU736
 2900              		.loc 1 2058 71 is_stmt 0 view .LVU737
 2901 006c A27C     		ldrb	r2, [r4, #18]	@ zero_extendqisi2
 2902              		.loc 1 2058 89 view .LVU738
 2903 006e D200     		lsls	r2, r2, #3
 2904              		.loc 1 2058 56 view .LVU739
 2905 0070 DA74     		strb	r2, [r3, #19]
2059:Middlewares/Third_Party/SubGHz_Phy/stm32_radio_driver/radio.c ****         SubgRf.PacketParams.Params.Gfsk.AddrComp = RADIO_ADDRESSCOMP_FILT_OFF; // don't care in tx
 2906              		.loc 1 2059 9 is_stmt 1 view .LVU740
 2907              		.loc 1 2059 50 is_stmt 0 view .LVU741
 2908 0072 0022     		movs	r2, #0
 2909 0074 1A75     		strb	r2, [r3, #20]
2060:Middlewares/Third_Party/SubGHz_Phy/stm32_radio_driver/radio.c **** 
2061:Middlewares/Third_Party/SubGHz_Phy/stm32_radio_driver/radio.c ****         if( ( config->msk.Whitening == RADIO_FSK_DC_IBM_WHITENING ) || ( config->msk.HeaderType == 
 2910              		.loc 1 2061 9 is_stmt 1 view .LVU742
 2911              		.loc 1 2061 26 is_stmt 0 view .LVU743
 2912 0076 A37D     		ldrb	r3, [r4, #22]	@ zero_extendqisi2
 2913              		.loc 1 2061 11 view .LVU744
 2914 0078 022B     		cmp	r3, #2
 2915 007a 18D0     		beq	.L231
 2916              		.loc 1 2061 85 discriminator 1 view .LVU745
ARM GAS  /var/folders/9y/n02fl3g16gnf7ppy14xghdy80000gn/T//cc8eCeeT.s 			page 97


 2917 007c 237D     		ldrb	r3, [r4, #20]	@ zero_extendqisi2
 2918              		.loc 1 2061 69 discriminator 1 view .LVU746
 2919 007e 022B     		cmp	r3, #2
 2920 0080 15D0     		beq	.L231
2062:Middlewares/Third_Party/SubGHz_Phy/stm32_radio_driver/radio.c ****         {
2063:Middlewares/Third_Party/SubGHz_Phy/stm32_radio_driver/radio.c ****             /* Supports only RADIO_FSK_CRC_2_BYTES_IBM or RADIO_FSK_CRC_2_BYTES_CCIT */
2064:Middlewares/Third_Party/SubGHz_Phy/stm32_radio_driver/radio.c ****             if( ( config->msk.CrcLength != RADIO_FSK_CRC_2_BYTES_IBM ) && ( config->msk.CrcLength !
2065:Middlewares/Third_Party/SubGHz_Phy/stm32_radio_driver/radio.c ****             {
2066:Middlewares/Third_Party/SubGHz_Phy/stm32_radio_driver/radio.c ****                 return -1;
2067:Middlewares/Third_Party/SubGHz_Phy/stm32_radio_driver/radio.c ****             }
2068:Middlewares/Third_Party/SubGHz_Phy/stm32_radio_driver/radio.c ****             ConfigGeneric_t ConfigGeneric;
2069:Middlewares/Third_Party/SubGHz_Phy/stm32_radio_driver/radio.c ****             /*msk and fsk are union, no need for copy as fsk/msk struct are on same address*/
2070:Middlewares/Third_Party/SubGHz_Phy/stm32_radio_driver/radio.c ****             ConfigGeneric.TxConfig= config;
2071:Middlewares/Third_Party/SubGHz_Phy/stm32_radio_driver/radio.c ****             ConfigGeneric.rtx = CONFIG_TX;
2072:Middlewares/Third_Party/SubGHz_Phy/stm32_radio_driver/radio.c ****             if( 0UL != RFW_Init( &ConfigGeneric, RadioEvents, &TxTimeoutTimer ) )
2073:Middlewares/Third_Party/SubGHz_Phy/stm32_radio_driver/radio.c ****             {
2074:Middlewares/Third_Party/SubGHz_Phy/stm32_radio_driver/radio.c ****               return -1;
2075:Middlewares/Third_Party/SubGHz_Phy/stm32_radio_driver/radio.c ****             }
2076:Middlewares/Third_Party/SubGHz_Phy/stm32_radio_driver/radio.c ****             /* whitening off, will be processed by FW, switch off built-in radio whitening */
2077:Middlewares/Third_Party/SubGHz_Phy/stm32_radio_driver/radio.c ****             SubgRf.PacketParams.Params.Gfsk.DcFree = ( RadioDcFree_t ) RADIO_FSK_DC_FREE_OFF;
2078:Middlewares/Third_Party/SubGHz_Phy/stm32_radio_driver/radio.c ****             /* Crc processed by FW, switch off built-in radio Crc */
2079:Middlewares/Third_Party/SubGHz_Phy/stm32_radio_driver/radio.c ****             SubgRf.PacketParams.Params.Gfsk.CrcLength = (RadioCrcTypes_t) RADIO_CRC_OFF;
2080:Middlewares/Third_Party/SubGHz_Phy/stm32_radio_driver/radio.c ****             /* length contained in Tx, but will be processed by FW after de-whitening */
2081:Middlewares/Third_Party/SubGHz_Phy/stm32_radio_driver/radio.c ****             SubgRf.PacketParams.Params.Gfsk.HeaderType = ( RadioPacketLengthModes_t ) RADIO_PACKET_
2082:Middlewares/Third_Party/SubGHz_Phy/stm32_radio_driver/radio.c ****         }
2083:Middlewares/Third_Party/SubGHz_Phy/stm32_radio_driver/radio.c ****         else
2084:Middlewares/Third_Party/SubGHz_Phy/stm32_radio_driver/radio.c ****         {
2085:Middlewares/Third_Party/SubGHz_Phy/stm32_radio_driver/radio.c ****           SubgRf.PacketParams.Params.Gfsk.CrcLength = ( RadioCrcTypes_t ) config->msk.CrcLength;
 2921              		.loc 1 2085 11 is_stmt 1 view .LVU747
 2922              		.loc 1 2085 86 is_stmt 0 view .LVU748
 2923 0082 627D     		ldrb	r2, [r4, #21]	@ zero_extendqisi2
 2924              		.loc 1 2085 53 view .LVU749
 2925 0084 9F4B     		ldr	r3, .L255
 2926 0086 DA75     		strb	r2, [r3, #23]
2086:Middlewares/Third_Party/SubGHz_Phy/stm32_radio_driver/radio.c ****           SubgRf.PacketParams.Params.Gfsk.DcFree = ( RadioDcFree_t ) config->msk.Whitening;
 2927              		.loc 1 2086 11 is_stmt 1 view .LVU750
 2928              		.loc 1 2086 81 is_stmt 0 view .LVU751
 2929 0088 A27D     		ldrb	r2, [r4, #22]	@ zero_extendqisi2
 2930              		.loc 1 2086 50 view .LVU752
 2931 008a 1A76     		strb	r2, [r3, #24]
2087:Middlewares/Third_Party/SubGHz_Phy/stm32_radio_driver/radio.c ****           SubgRf.PacketParams.Params.Gfsk.HeaderType = ( RadioPacketLengthModes_t ) config->msk.Hea
 2932              		.loc 1 2087 11 is_stmt 1 view .LVU753
 2933              		.loc 1 2087 96 is_stmt 0 view .LVU754
 2934 008c 227D     		ldrb	r2, [r4, #20]	@ zero_extendqisi2
 2935              		.loc 1 2087 54 view .LVU755
 2936 008e 5A75     		strb	r2, [r3, #21]
 2937 0090 26E0     		b	.L235
 2938              	.LVL280:
 2939              	.L229:
2047:Middlewares/Third_Party/SubGHz_Phy/stm32_radio_driver/radio.c ****           SubgRf.PacketParams.PacketType = PACKET_TYPE_GFSK;
 2940              		.loc 1 2047 11 is_stmt 1 view .LVU756
2048:Middlewares/Third_Party/SubGHz_Phy/stm32_radio_driver/radio.c ****           SubgRf.ModulationParams.PacketType = PACKET_TYPE_GFSK;
 2941              		.loc 1 2048 11 view .LVU757
2048:Middlewares/Third_Party/SubGHz_Phy/stm32_radio_driver/radio.c ****           SubgRf.ModulationParams.PacketType = PACKET_TYPE_GFSK;
 2942              		.loc 1 2048 42 is_stmt 0 view .LVU758
 2943 0092 9C4B     		ldr	r3, .L255
 2944 0094 0025     		movs	r5, #0
ARM GAS  /var/folders/9y/n02fl3g16gnf7ppy14xghdy80000gn/T//cc8eCeeT.s 			page 98


 2945 0096 9D73     		strb	r5, [r3, #14]
2049:Middlewares/Third_Party/SubGHz_Phy/stm32_radio_driver/radio.c ****           SubgRf.ModulationParams.Params.Gfsk.BitRate = config->msk.BitRate;
 2946              		.loc 1 2049 11 is_stmt 1 view .LVU759
2049:Middlewares/Third_Party/SubGHz_Phy/stm32_radio_driver/radio.c ****           SubgRf.ModulationParams.Params.Gfsk.BitRate = config->msk.BitRate;
 2947              		.loc 1 2049 46 is_stmt 0 view .LVU760
 2948 0098 83F83850 		strb	r5, [r3, #56]
2050:Middlewares/Third_Party/SubGHz_Phy/stm32_radio_driver/radio.c ****           SubgRf.ModulationParams.Params.Gfsk.ModulationShaping = ( RadioModShapings_t ) config->ms
 2949              		.loc 1 2050 11 is_stmt 1 view .LVU761
2050:Middlewares/Third_Party/SubGHz_Phy/stm32_radio_driver/radio.c ****           SubgRf.ModulationParams.Params.Gfsk.ModulationShaping = ( RadioModShapings_t ) config->ms
 2950              		.loc 1 2050 68 is_stmt 0 view .LVU762
 2951 009c 2268     		ldr	r2, [r4]
2050:Middlewares/Third_Party/SubGHz_Phy/stm32_radio_driver/radio.c ****           SubgRf.ModulationParams.Params.Gfsk.ModulationShaping = ( RadioModShapings_t ) config->ms
 2952              		.loc 1 2050 55 view .LVU763
 2953 009e DA63     		str	r2, [r3, #60]
2051:Middlewares/Third_Party/SubGHz_Phy/stm32_radio_driver/radio.c ****           /*do msk with gfsk modulator*/
 2954              		.loc 1 2051 11 is_stmt 1 view .LVU764
2051:Middlewares/Third_Party/SubGHz_Phy/stm32_radio_driver/radio.c ****           /*do msk with gfsk modulator*/
 2955              		.loc 1 2051 101 is_stmt 0 view .LVU765
 2956 00a0 E27C     		ldrb	r2, [r4, #19]	@ zero_extendqisi2
2051:Middlewares/Third_Party/SubGHz_Phy/stm32_radio_driver/radio.c ****           /*do msk with gfsk modulator*/
 2957              		.loc 1 2051 65 view .LVU766
 2958 00a2 83F84420 		strb	r2, [r3, #68]
2053:Middlewares/Third_Party/SubGHz_Phy/stm32_radio_driver/radio.c ****         }
 2959              		.loc 1 2053 11 is_stmt 1 view .LVU767
2053:Middlewares/Third_Party/SubGHz_Phy/stm32_radio_driver/radio.c ****         }
 2960              		.loc 1 2053 65 is_stmt 0 view .LVU768
 2961 00a6 2268     		ldr	r2, [r4]
2053:Middlewares/Third_Party/SubGHz_Phy/stm32_radio_driver/radio.c ****         }
 2962              		.loc 1 2053 73 view .LVU769
 2963 00a8 9208     		lsrs	r2, r2, #2
2053:Middlewares/Third_Party/SubGHz_Phy/stm32_radio_driver/radio.c ****         }
 2964              		.loc 1 2053 52 view .LVU770
 2965 00aa 1A64     		str	r2, [r3, #64]
 2966 00ac D8E7     		b	.L230
 2967              	.LVL281:
 2968              	.L231:
 2969              	.LBB4:
2064:Middlewares/Third_Party/SubGHz_Phy/stm32_radio_driver/radio.c ****             {
 2970              		.loc 1 2064 13 is_stmt 1 view .LVU771
2064:Middlewares/Third_Party/SubGHz_Phy/stm32_radio_driver/radio.c ****             {
 2971              		.loc 1 2064 30 is_stmt 0 view .LVU772
 2972 00ae 627D     		ldrb	r2, [r4, #21]	@ zero_extendqisi2
2064:Middlewares/Third_Party/SubGHz_Phy/stm32_radio_driver/radio.c ****             {
 2973              		.loc 1 2064 72 view .LVU773
 2974 00b0 02F10F03 		add	r3, r2, #15
 2975 00b4 DBB2     		uxtb	r3, r3
2064:Middlewares/Third_Party/SubGHz_Phy/stm32_radio_driver/radio.c ****             {
 2976              		.loc 1 2064 15 view .LVU774
 2977 00b6 012B     		cmp	r3, #1
 2978 00b8 01D9     		bls	.L233
2064:Middlewares/Third_Party/SubGHz_Phy/stm32_radio_driver/radio.c ****             {
 2979              		.loc 1 2064 131 discriminator 1 view .LVU775
 2980 00ba 012A     		cmp	r2, #1
 2981 00bc 28D1     		bne	.L234
 2982              	.L233:
2068:Middlewares/Third_Party/SubGHz_Phy/stm32_radio_driver/radio.c ****             /*msk and fsk are union, no need for copy as fsk/msk struct are on same address*/
 2983              		.loc 1 2068 13 is_stmt 1 view .LVU776
ARM GAS  /var/folders/9y/n02fl3g16gnf7ppy14xghdy80000gn/T//cc8eCeeT.s 			page 99


2070:Middlewares/Third_Party/SubGHz_Phy/stm32_radio_driver/radio.c ****             ConfigGeneric.rtx = CONFIG_TX;
 2984              		.loc 1 2070 13 view .LVU777
2070:Middlewares/Third_Party/SubGHz_Phy/stm32_radio_driver/radio.c ****             ConfigGeneric.rtx = CONFIG_TX;
 2985              		.loc 1 2070 35 is_stmt 0 view .LVU778
 2986 00be 0194     		str	r4, [sp, #4]
2071:Middlewares/Third_Party/SubGHz_Phy/stm32_radio_driver/radio.c ****             if( 0UL != RFW_Init( &ConfigGeneric, RadioEvents, &TxTimeoutTimer ) )
 2987              		.loc 1 2071 13 is_stmt 1 view .LVU779
2071:Middlewares/Third_Party/SubGHz_Phy/stm32_radio_driver/radio.c ****             if( 0UL != RFW_Init( &ConfigGeneric, RadioEvents, &TxTimeoutTimer ) )
 2988              		.loc 1 2071 31 is_stmt 0 view .LVU780
 2989 00c0 0123     		movs	r3, #1
 2990 00c2 8DF80C30 		strb	r3, [sp, #12]
2072:Middlewares/Third_Party/SubGHz_Phy/stm32_radio_driver/radio.c ****             {
 2991              		.loc 1 2072 13 is_stmt 1 view .LVU781
2072:Middlewares/Third_Party/SubGHz_Phy/stm32_radio_driver/radio.c ****             {
 2992              		.loc 1 2072 24 is_stmt 0 view .LVU782
 2993 00c6 904A     		ldr	r2, .L255+4
 2994 00c8 904B     		ldr	r3, .L255+8
 2995 00ca 1968     		ldr	r1, [r3]
 2996 00cc 01A8     		add	r0, sp, #4
 2997 00ce FFF7FEFF 		bl	RFW_Init
 2998              	.LVL282:
2072:Middlewares/Third_Party/SubGHz_Phy/stm32_radio_driver/radio.c ****             {
 2999              		.loc 1 2072 15 view .LVU783
 3000 00d2 E8B9     		cbnz	r0, .L234
2077:Middlewares/Third_Party/SubGHz_Phy/stm32_radio_driver/radio.c ****             /* Crc processed by FW, switch off built-in radio Crc */
 3001              		.loc 1 2077 13 is_stmt 1 view .LVU784
2077:Middlewares/Third_Party/SubGHz_Phy/stm32_radio_driver/radio.c ****             /* Crc processed by FW, switch off built-in radio Crc */
 3002              		.loc 1 2077 52 is_stmt 0 view .LVU785
 3003 00d4 8B4B     		ldr	r3, .L255
 3004 00d6 0022     		movs	r2, #0
 3005 00d8 1A76     		strb	r2, [r3, #24]
2079:Middlewares/Third_Party/SubGHz_Phy/stm32_radio_driver/radio.c ****             /* length contained in Tx, but will be processed by FW after de-whitening */
 3006              		.loc 1 2079 13 is_stmt 1 view .LVU786
2079:Middlewares/Third_Party/SubGHz_Phy/stm32_radio_driver/radio.c ****             /* length contained in Tx, but will be processed by FW after de-whitening */
 3007              		.loc 1 2079 55 is_stmt 0 view .LVU787
 3008 00da 0121     		movs	r1, #1
 3009 00dc D975     		strb	r1, [r3, #23]
2081:Middlewares/Third_Party/SubGHz_Phy/stm32_radio_driver/radio.c ****         }
 3010              		.loc 1 2081 13 is_stmt 1 view .LVU788
2081:Middlewares/Third_Party/SubGHz_Phy/stm32_radio_driver/radio.c ****         }
 3011              		.loc 1 2081 56 is_stmt 0 view .LVU789
 3012 00de 5A75     		strb	r2, [r3, #21]
 3013              	.L235:
2081:Middlewares/Third_Party/SubGHz_Phy/stm32_radio_driver/radio.c ****         }
 3014              		.loc 1 2081 56 view .LVU790
 3015              	.LBE4:
2088:Middlewares/Third_Party/SubGHz_Phy/stm32_radio_driver/radio.c ****         }
2089:Middlewares/Third_Party/SubGHz_Phy/stm32_radio_driver/radio.c **** 
2090:Middlewares/Third_Party/SubGHz_Phy/stm32_radio_driver/radio.c ****         RadioStandby( );
 3016              		.loc 1 2090 9 is_stmt 1 view .LVU791
 3017 00e0 FFF7FEFF 		bl	RadioStandby
 3018              	.LVL283:
2091:Middlewares/Third_Party/SubGHz_Phy/stm32_radio_driver/radio.c ****         RadioSetModem( radio_modem );
 3019              		.loc 1 2091 9 view .LVU792
 3020 00e4 2846     		mov	r0, r5
 3021 00e6 FFF7FEFF 		bl	RadioSetModem
 3022              	.LVL284:
ARM GAS  /var/folders/9y/n02fl3g16gnf7ppy14xghdy80000gn/T//cc8eCeeT.s 			page 100


2092:Middlewares/Third_Party/SubGHz_Phy/stm32_radio_driver/radio.c **** 
2093:Middlewares/Third_Party/SubGHz_Phy/stm32_radio_driver/radio.c ****         SUBGRF_SetModulationParams( &SubgRf.ModulationParams );
 3023              		.loc 1 2093 9 view .LVU793
 3024 00ea 864D     		ldr	r5, .L255
 3025              	.LVL285:
 3026              		.loc 1 2093 9 is_stmt 0 view .LVU794
 3027 00ec 05F13800 		add	r0, r5, #56
 3028 00f0 FFF7FEFF 		bl	SUBGRF_SetModulationParams
 3029              	.LVL286:
2094:Middlewares/Third_Party/SubGHz_Phy/stm32_radio_driver/radio.c ****         SUBGRF_SetPacketParams( &SubgRf.PacketParams );
 3030              		.loc 1 2094 9 is_stmt 1 view .LVU795
 3031 00f4 05F10E00 		add	r0, r5, #14
 3032 00f8 FFF7FEFF 		bl	SUBGRF_SetPacketParams
 3033              	.LVL287:
2095:Middlewares/Third_Party/SubGHz_Phy/stm32_radio_driver/radio.c ****         SUBGRF_SetSyncWord( syncword );
 3034              		.loc 1 2095 9 view .LVU796
 3035 00fc 04A8     		add	r0, sp, #16
 3036 00fe FFF7FEFF 		bl	SUBGRF_SetSyncWord
 3037              	.LVL288:
2096:Middlewares/Third_Party/SubGHz_Phy/stm32_radio_driver/radio.c ****         SUBGRF_SetWhiteningSeed( config->msk.whiteSeed );
 3038              		.loc 1 2096 9 view .LVU797
 3039 0102 208A     		ldrh	r0, [r4, #16]
 3040 0104 FFF7FEFF 		bl	SUBGRF_SetWhiteningSeed
 3041              	.LVL289:
2097:Middlewares/Third_Party/SubGHz_Phy/stm32_radio_driver/radio.c ****         SUBGRF_SetCrcPolynomial(config->msk.CrcPolynomial );
 3042              		.loc 1 2097 9 view .LVU798
 3043 0108 A089     		ldrh	r0, [r4, #12]
 3044 010a FFF7FEFF 		bl	SUBGRF_SetCrcPolynomial
 3045              	.LVL290:
2098:Middlewares/Third_Party/SubGHz_Phy/stm32_radio_driver/radio.c ****         break;
 3046              		.loc 1 2098 9 view .LVU799
 3047 010e DCE0     		b	.L222
 3048              	.LVL291:
 3049              	.L234:
 3050              	.LBB5:
2066:Middlewares/Third_Party/SubGHz_Phy/stm32_radio_driver/radio.c ****             }
 3051              		.loc 1 2066 24 is_stmt 0 discriminator 1 view .LVU800
 3052 0110 4FF0FF30 		mov	r0, #-1
 3053 0114 E3E0     		b	.L221
 3054              	.LVL292:
 3055              	.L227:
2066:Middlewares/Third_Party/SubGHz_Phy/stm32_radio_driver/radio.c ****             }
 3056              		.loc 1 2066 24 discriminator 1 view .LVU801
 3057              	.LBE5:
2099:Middlewares/Third_Party/SubGHz_Phy/stm32_radio_driver/radio.c ****     case GENERIC_FSK:
2100:Middlewares/Third_Party/SubGHz_Phy/stm32_radio_driver/radio.c ****         if( config->fsk.BitRate == 0 )
 3058              		.loc 1 2100 9 is_stmt 1 view .LVU802
 3059              		.loc 1 2100 24 is_stmt 0 view .LVU803
 3060 0116 2368     		ldr	r3, [r4]
 3061              		.loc 1 2100 11 view .LVU804
 3062 0118 002B     		cmp	r3, #0
 3063 011a 00F0E980 		beq	.L248
2101:Middlewares/Third_Party/SubGHz_Phy/stm32_radio_driver/radio.c ****         {
2102:Middlewares/Third_Party/SubGHz_Phy/stm32_radio_driver/radio.c ****             return -1;
2103:Middlewares/Third_Party/SubGHz_Phy/stm32_radio_driver/radio.c ****         }
2104:Middlewares/Third_Party/SubGHz_Phy/stm32_radio_driver/radio.c ****         if( config->fsk.SyncWordLength > 8 )
 3064              		.loc 1 2104 9 is_stmt 1 view .LVU805
ARM GAS  /var/folders/9y/n02fl3g16gnf7ppy14xghdy80000gn/T//cc8eCeeT.s 			page 101


 3065              		.loc 1 2104 24 is_stmt 0 view .LVU806
 3066 011e A27C     		ldrb	r2, [r4, #18]	@ zero_extendqisi2
 3067              		.loc 1 2104 11 view .LVU807
 3068 0120 082A     		cmp	r2, #8
 3069 0122 00F2E880 		bhi	.L249
2105:Middlewares/Third_Party/SubGHz_Phy/stm32_radio_driver/radio.c ****         {
2106:Middlewares/Third_Party/SubGHz_Phy/stm32_radio_driver/radio.c ****             return -1;
2107:Middlewares/Third_Party/SubGHz_Phy/stm32_radio_driver/radio.c ****         }
2108:Middlewares/Third_Party/SubGHz_Phy/stm32_radio_driver/radio.c ****         else
2109:Middlewares/Third_Party/SubGHz_Phy/stm32_radio_driver/radio.c ****         {
2110:Middlewares/Third_Party/SubGHz_Phy/stm32_radio_driver/radio.c ****             RADIO_MEMCPY8(syncword, config->fsk.SyncWord, config->fsk.SyncWordLength);
 3070              		.loc 1 2110 13 is_stmt 1 view .LVU808
 3071 0126 A168     		ldr	r1, [r4, #8]
 3072 0128 04A8     		add	r0, sp, #16
 3073 012a FFF7FEFF 		bl	UTIL_MEM_cpy_8
 3074              	.LVL293:
2111:Middlewares/Third_Party/SubGHz_Phy/stm32_radio_driver/radio.c ****         }
2112:Middlewares/Third_Party/SubGHz_Phy/stm32_radio_driver/radio.c ****         SubgRf.ModulationParams.PacketType = PACKET_TYPE_GFSK;
 3075              		.loc 1 2112 9 view .LVU809
 3076              		.loc 1 2112 44 is_stmt 0 view .LVU810
 3077 012e 754B     		ldr	r3, .L255
 3078 0130 0022     		movs	r2, #0
 3079 0132 83F83820 		strb	r2, [r3, #56]
2113:Middlewares/Third_Party/SubGHz_Phy/stm32_radio_driver/radio.c ****         SubgRf.ModulationParams.Params.Gfsk.BitRate = config->fsk.BitRate;
 3080              		.loc 1 2113 9 is_stmt 1 view .LVU811
 3081              		.loc 1 2113 66 is_stmt 0 view .LVU812
 3082 0136 2168     		ldr	r1, [r4]
 3083              		.loc 1 2113 53 view .LVU813
 3084 0138 D963     		str	r1, [r3, #60]
2114:Middlewares/Third_Party/SubGHz_Phy/stm32_radio_driver/radio.c ****         SubgRf.ModulationParams.Params.Gfsk.ModulationShaping = ( RadioModShapings_t ) config->fsk.
 3085              		.loc 1 2114 9 is_stmt 1 view .LVU814
 3086              		.loc 1 2114 99 is_stmt 0 view .LVU815
 3087 013a E17C     		ldrb	r1, [r4, #19]	@ zero_extendqisi2
 3088              		.loc 1 2114 63 view .LVU816
 3089 013c 83F84410 		strb	r1, [r3, #68]
2115:Middlewares/Third_Party/SubGHz_Phy/stm32_radio_driver/radio.c ****         SubgRf.ModulationParams.Params.Gfsk.Fdev = config->fsk.FrequencyDeviation;
 3090              		.loc 1 2115 9 is_stmt 1 view .LVU817
 3091              		.loc 1 2115 63 is_stmt 0 view .LVU818
 3092 0140 A169     		ldr	r1, [r4, #24]
 3093              		.loc 1 2115 50 view .LVU819
 3094 0142 1964     		str	r1, [r3, #64]
2116:Middlewares/Third_Party/SubGHz_Phy/stm32_radio_driver/radio.c **** 
2117:Middlewares/Third_Party/SubGHz_Phy/stm32_radio_driver/radio.c ****         SubgRf.PacketParams.PacketType = PACKET_TYPE_GFSK;
 3095              		.loc 1 2117 9 is_stmt 1 view .LVU820
 3096              		.loc 1 2117 40 is_stmt 0 view .LVU821
 3097 0144 9A73     		strb	r2, [r3, #14]
2118:Middlewares/Third_Party/SubGHz_Phy/stm32_radio_driver/radio.c ****         SubgRf.PacketParams.Params.Gfsk.PreambleLength = ( config->fsk.PreambleLen ) << 3; // conve
 3098              		.loc 1 2118 9 is_stmt 1 view .LVU822
 3099              		.loc 1 2118 71 is_stmt 0 view .LVU823
 3100 0146 6168     		ldr	r1, [r4, #4]
 3101              		.loc 1 2118 86 view .LVU824
 3102 0148 C900     		lsls	r1, r1, #3
 3103              		.loc 1 2118 56 view .LVU825
 3104 014a 1982     		strh	r1, [r3, #16]	@ movhi
2119:Middlewares/Third_Party/SubGHz_Phy/stm32_radio_driver/radio.c ****         SubgRf.PacketParams.Params.Gfsk.PreambleMinDetect = RADIO_PREAMBLE_DETECTOR_08_BITS; // don
 3105              		.loc 1 2119 9 is_stmt 1 view .LVU826
 3106              		.loc 1 2119 59 is_stmt 0 view .LVU827
ARM GAS  /var/folders/9y/n02fl3g16gnf7ppy14xghdy80000gn/T//cc8eCeeT.s 			page 102


 3107 014c 0421     		movs	r1, #4
 3108 014e 9974     		strb	r1, [r3, #18]
2120:Middlewares/Third_Party/SubGHz_Phy/stm32_radio_driver/radio.c ****         SubgRf.PacketParams.Params.Gfsk.SyncWordLength = ( config->fsk.SyncWordLength ) << 3; // co
 3109              		.loc 1 2120 9 is_stmt 1 view .LVU828
 3110              		.loc 1 2120 71 is_stmt 0 view .LVU829
 3111 0150 A17C     		ldrb	r1, [r4, #18]	@ zero_extendqisi2
 3112              		.loc 1 2120 89 view .LVU830
 3113 0152 C900     		lsls	r1, r1, #3
 3114              		.loc 1 2120 56 view .LVU831
 3115 0154 D974     		strb	r1, [r3, #19]
2121:Middlewares/Third_Party/SubGHz_Phy/stm32_radio_driver/radio.c ****         SubgRf.PacketParams.Params.Gfsk.AddrComp = RADIO_ADDRESSCOMP_FILT_OFF; // don't care in tx
 3116              		.loc 1 2121 9 is_stmt 1 view .LVU832
 3117              		.loc 1 2121 50 is_stmt 0 view .LVU833
 3118 0156 1A75     		strb	r2, [r3, #20]
2122:Middlewares/Third_Party/SubGHz_Phy/stm32_radio_driver/radio.c **** 
2123:Middlewares/Third_Party/SubGHz_Phy/stm32_radio_driver/radio.c ****         if( ( config->fsk.Whitening == RADIO_FSK_DC_IBM_WHITENING ) || ( config->fsk.HeaderType == 
 3119              		.loc 1 2123 9 is_stmt 1 view .LVU834
 3120              		.loc 1 2123 26 is_stmt 0 view .LVU835
 3121 0158 A37D     		ldrb	r3, [r4, #22]	@ zero_extendqisi2
 3122              		.loc 1 2123 11 view .LVU836
 3123 015a 022B     		cmp	r3, #2
 3124 015c 0AD0     		beq	.L236
 3125              		.loc 1 2123 85 discriminator 1 view .LVU837
 3126 015e 237D     		ldrb	r3, [r4, #20]	@ zero_extendqisi2
 3127              		.loc 1 2123 69 discriminator 1 view .LVU838
 3128 0160 022B     		cmp	r3, #2
 3129 0162 07D0     		beq	.L236
2124:Middlewares/Third_Party/SubGHz_Phy/stm32_radio_driver/radio.c ****         {
2125:Middlewares/Third_Party/SubGHz_Phy/stm32_radio_driver/radio.c ****             /* Supports only RADIO_FSK_CRC_2_BYTES_IBM or RADIO_FSK_CRC_2_BYTES_CCIT */
2126:Middlewares/Third_Party/SubGHz_Phy/stm32_radio_driver/radio.c ****             if( ( config->fsk.CrcLength != RADIO_FSK_CRC_2_BYTES_IBM ) && ( config->fsk.CrcLength !
2127:Middlewares/Third_Party/SubGHz_Phy/stm32_radio_driver/radio.c ****             {
2128:Middlewares/Third_Party/SubGHz_Phy/stm32_radio_driver/radio.c ****                 return -1;
2129:Middlewares/Third_Party/SubGHz_Phy/stm32_radio_driver/radio.c ****             }
2130:Middlewares/Third_Party/SubGHz_Phy/stm32_radio_driver/radio.c ****             ConfigGeneric_t ConfigGeneric;
2131:Middlewares/Third_Party/SubGHz_Phy/stm32_radio_driver/radio.c ****             ConfigGeneric.rtx = CONFIG_TX;
2132:Middlewares/Third_Party/SubGHz_Phy/stm32_radio_driver/radio.c ****             ConfigGeneric.TxConfig = config;
2133:Middlewares/Third_Party/SubGHz_Phy/stm32_radio_driver/radio.c ****             if( 0UL != RFW_Init( &ConfigGeneric, RadioEvents, &TxTimeoutTimer ) )
2134:Middlewares/Third_Party/SubGHz_Phy/stm32_radio_driver/radio.c ****             {
2135:Middlewares/Third_Party/SubGHz_Phy/stm32_radio_driver/radio.c ****               return -1;
2136:Middlewares/Third_Party/SubGHz_Phy/stm32_radio_driver/radio.c ****             }
2137:Middlewares/Third_Party/SubGHz_Phy/stm32_radio_driver/radio.c ****             /* whitening off, will be processed by FW, switch off built-in radio whitening */
2138:Middlewares/Third_Party/SubGHz_Phy/stm32_radio_driver/radio.c ****             SubgRf.PacketParams.Params.Gfsk.DcFree = ( RadioDcFree_t ) RADIO_FSK_DC_FREE_OFF;
2139:Middlewares/Third_Party/SubGHz_Phy/stm32_radio_driver/radio.c ****             /* Crc processed by FW, switch off built-in radio Crc */
2140:Middlewares/Third_Party/SubGHz_Phy/stm32_radio_driver/radio.c ****             SubgRf.PacketParams.Params.Gfsk.CrcLength = (RadioCrcTypes_t) RADIO_CRC_OFF;
2141:Middlewares/Third_Party/SubGHz_Phy/stm32_radio_driver/radio.c ****             /* length contained in Tx, but will be processed by FW after de-whitening */
2142:Middlewares/Third_Party/SubGHz_Phy/stm32_radio_driver/radio.c ****             SubgRf.PacketParams.Params.Gfsk.HeaderType = ( RadioPacketLengthModes_t ) RADIO_PACKET_
2143:Middlewares/Third_Party/SubGHz_Phy/stm32_radio_driver/radio.c ****         }
2144:Middlewares/Third_Party/SubGHz_Phy/stm32_radio_driver/radio.c ****         else
2145:Middlewares/Third_Party/SubGHz_Phy/stm32_radio_driver/radio.c ****         {
2146:Middlewares/Third_Party/SubGHz_Phy/stm32_radio_driver/radio.c ****           SubgRf.PacketParams.Params.Gfsk.CrcLength = ( RadioCrcTypes_t ) config->fsk.CrcLength;
 3130              		.loc 1 2146 11 is_stmt 1 view .LVU839
 3131              		.loc 1 2146 86 is_stmt 0 view .LVU840
 3132 0164 627D     		ldrb	r2, [r4, #21]	@ zero_extendqisi2
 3133              		.loc 1 2146 53 view .LVU841
 3134 0166 674B     		ldr	r3, .L255
 3135 0168 DA75     		strb	r2, [r3, #23]
2147:Middlewares/Third_Party/SubGHz_Phy/stm32_radio_driver/radio.c ****           SubgRf.PacketParams.Params.Gfsk.DcFree = ( RadioDcFree_t ) config->fsk.Whitening;
ARM GAS  /var/folders/9y/n02fl3g16gnf7ppy14xghdy80000gn/T//cc8eCeeT.s 			page 103


 3136              		.loc 1 2147 11 is_stmt 1 view .LVU842
 3137              		.loc 1 2147 81 is_stmt 0 view .LVU843
 3138 016a A27D     		ldrb	r2, [r4, #22]	@ zero_extendqisi2
 3139              		.loc 1 2147 50 view .LVU844
 3140 016c 1A76     		strb	r2, [r3, #24]
2148:Middlewares/Third_Party/SubGHz_Phy/stm32_radio_driver/radio.c ****           SubgRf.PacketParams.Params.Gfsk.HeaderType = ( RadioPacketLengthModes_t ) config->fsk.Hea
 3141              		.loc 1 2148 11 is_stmt 1 view .LVU845
 3142              		.loc 1 2148 96 is_stmt 0 view .LVU846
 3143 016e 227D     		ldrb	r2, [r4, #20]	@ zero_extendqisi2
 3144              		.loc 1 2148 54 view .LVU847
 3145 0170 5A75     		strb	r2, [r3, #21]
 3146 0172 18E0     		b	.L240
 3147              	.L236:
 3148              	.LBB6:
2126:Middlewares/Third_Party/SubGHz_Phy/stm32_radio_driver/radio.c ****             {
 3149              		.loc 1 2126 13 is_stmt 1 view .LVU848
2126:Middlewares/Third_Party/SubGHz_Phy/stm32_radio_driver/radio.c ****             {
 3150              		.loc 1 2126 30 is_stmt 0 view .LVU849
 3151 0174 627D     		ldrb	r2, [r4, #21]	@ zero_extendqisi2
2126:Middlewares/Third_Party/SubGHz_Phy/stm32_radio_driver/radio.c ****             {
 3152              		.loc 1 2126 72 view .LVU850
 3153 0176 02F10F03 		add	r3, r2, #15
 3154 017a DBB2     		uxtb	r3, r3
2126:Middlewares/Third_Party/SubGHz_Phy/stm32_radio_driver/radio.c ****             {
 3155              		.loc 1 2126 15 view .LVU851
 3156 017c 012B     		cmp	r3, #1
 3157 017e 01D9     		bls	.L238
2126:Middlewares/Third_Party/SubGHz_Phy/stm32_radio_driver/radio.c ****             {
 3158              		.loc 1 2126 131 discriminator 1 view .LVU852
 3159 0180 012A     		cmp	r2, #1
 3160 0182 28D1     		bne	.L239
 3161              	.L238:
2130:Middlewares/Third_Party/SubGHz_Phy/stm32_radio_driver/radio.c ****             ConfigGeneric.rtx = CONFIG_TX;
 3162              		.loc 1 2130 13 is_stmt 1 view .LVU853
2131:Middlewares/Third_Party/SubGHz_Phy/stm32_radio_driver/radio.c ****             ConfigGeneric.TxConfig = config;
 3163              		.loc 1 2131 13 view .LVU854
2131:Middlewares/Third_Party/SubGHz_Phy/stm32_radio_driver/radio.c ****             ConfigGeneric.TxConfig = config;
 3164              		.loc 1 2131 31 is_stmt 0 view .LVU855
 3165 0184 0123     		movs	r3, #1
 3166 0186 8DF80C30 		strb	r3, [sp, #12]
2132:Middlewares/Third_Party/SubGHz_Phy/stm32_radio_driver/radio.c ****             if( 0UL != RFW_Init( &ConfigGeneric, RadioEvents, &TxTimeoutTimer ) )
 3167              		.loc 1 2132 13 is_stmt 1 view .LVU856
2132:Middlewares/Third_Party/SubGHz_Phy/stm32_radio_driver/radio.c ****             if( 0UL != RFW_Init( &ConfigGeneric, RadioEvents, &TxTimeoutTimer ) )
 3168              		.loc 1 2132 36 is_stmt 0 view .LVU857
 3169 018a 0194     		str	r4, [sp, #4]
2133:Middlewares/Third_Party/SubGHz_Phy/stm32_radio_driver/radio.c ****             {
 3170              		.loc 1 2133 13 is_stmt 1 view .LVU858
2133:Middlewares/Third_Party/SubGHz_Phy/stm32_radio_driver/radio.c ****             {
 3171              		.loc 1 2133 24 is_stmt 0 view .LVU859
 3172 018c 5E4A     		ldr	r2, .L255+4
 3173 018e 5F4B     		ldr	r3, .L255+8
 3174 0190 1968     		ldr	r1, [r3]
 3175 0192 01A8     		add	r0, sp, #4
 3176 0194 FFF7FEFF 		bl	RFW_Init
 3177              	.LVL294:
2133:Middlewares/Third_Party/SubGHz_Phy/stm32_radio_driver/radio.c ****             {
 3178              		.loc 1 2133 15 view .LVU860
ARM GAS  /var/folders/9y/n02fl3g16gnf7ppy14xghdy80000gn/T//cc8eCeeT.s 			page 104


 3179 0198 E8B9     		cbnz	r0, .L239
2138:Middlewares/Third_Party/SubGHz_Phy/stm32_radio_driver/radio.c ****             /* Crc processed by FW, switch off built-in radio Crc */
 3180              		.loc 1 2138 13 is_stmt 1 view .LVU861
2138:Middlewares/Third_Party/SubGHz_Phy/stm32_radio_driver/radio.c ****             /* Crc processed by FW, switch off built-in radio Crc */
 3181              		.loc 1 2138 52 is_stmt 0 view .LVU862
 3182 019a 5A4B     		ldr	r3, .L255
 3183 019c 0022     		movs	r2, #0
 3184 019e 1A76     		strb	r2, [r3, #24]
2140:Middlewares/Third_Party/SubGHz_Phy/stm32_radio_driver/radio.c ****             /* length contained in Tx, but will be processed by FW after de-whitening */
 3185              		.loc 1 2140 13 is_stmt 1 view .LVU863
2140:Middlewares/Third_Party/SubGHz_Phy/stm32_radio_driver/radio.c ****             /* length contained in Tx, but will be processed by FW after de-whitening */
 3186              		.loc 1 2140 55 is_stmt 0 view .LVU864
 3187 01a0 0121     		movs	r1, #1
 3188 01a2 D975     		strb	r1, [r3, #23]
2142:Middlewares/Third_Party/SubGHz_Phy/stm32_radio_driver/radio.c ****         }
 3189              		.loc 1 2142 13 is_stmt 1 view .LVU865
2142:Middlewares/Third_Party/SubGHz_Phy/stm32_radio_driver/radio.c ****         }
 3190              		.loc 1 2142 56 is_stmt 0 view .LVU866
 3191 01a4 5A75     		strb	r2, [r3, #21]
 3192              	.L240:
2142:Middlewares/Third_Party/SubGHz_Phy/stm32_radio_driver/radio.c ****         }
 3193              		.loc 1 2142 56 view .LVU867
 3194              	.LBE6:
2149:Middlewares/Third_Party/SubGHz_Phy/stm32_radio_driver/radio.c ****         }
2150:Middlewares/Third_Party/SubGHz_Phy/stm32_radio_driver/radio.c **** 
2151:Middlewares/Third_Party/SubGHz_Phy/stm32_radio_driver/radio.c ****         RadioStandby( );
 3195              		.loc 1 2151 9 is_stmt 1 view .LVU868
 3196 01a6 FFF7FEFF 		bl	RadioStandby
 3197              	.LVL295:
2152:Middlewares/Third_Party/SubGHz_Phy/stm32_radio_driver/radio.c ****         RadioSetModem( MODEM_FSK );
 3198              		.loc 1 2152 9 view .LVU869
 3199 01aa 0020     		movs	r0, #0
 3200 01ac FFF7FEFF 		bl	RadioSetModem
 3201              	.LVL296:
2153:Middlewares/Third_Party/SubGHz_Phy/stm32_radio_driver/radio.c ****         SUBGRF_SetModulationParams( &SubgRf.ModulationParams );
 3202              		.loc 1 2153 9 view .LVU870
 3203 01b0 544D     		ldr	r5, .L255
 3204 01b2 05F13800 		add	r0, r5, #56
 3205 01b6 FFF7FEFF 		bl	SUBGRF_SetModulationParams
 3206              	.LVL297:
2154:Middlewares/Third_Party/SubGHz_Phy/stm32_radio_driver/radio.c ****         SUBGRF_SetPacketParams( &SubgRf.PacketParams );
 3207              		.loc 1 2154 9 view .LVU871
 3208 01ba 05F10E00 		add	r0, r5, #14
 3209 01be FFF7FEFF 		bl	SUBGRF_SetPacketParams
 3210              	.LVL298:
2155:Middlewares/Third_Party/SubGHz_Phy/stm32_radio_driver/radio.c ****         SUBGRF_SetSyncWord( syncword );
 3211              		.loc 1 2155 9 view .LVU872
 3212 01c2 04A8     		add	r0, sp, #16
 3213 01c4 FFF7FEFF 		bl	SUBGRF_SetSyncWord
 3214              	.LVL299:
2156:Middlewares/Third_Party/SubGHz_Phy/stm32_radio_driver/radio.c ****         SUBGRF_SetWhiteningSeed( config->fsk.whiteSeed );
 3215              		.loc 1 2156 9 view .LVU873
 3216 01c8 208A     		ldrh	r0, [r4, #16]
 3217 01ca FFF7FEFF 		bl	SUBGRF_SetWhiteningSeed
 3218              	.LVL300:
2157:Middlewares/Third_Party/SubGHz_Phy/stm32_radio_driver/radio.c ****         SUBGRF_SetCrcPolynomial(config->fsk.CrcPolynomial );
 3219              		.loc 1 2157 9 view .LVU874
ARM GAS  /var/folders/9y/n02fl3g16gnf7ppy14xghdy80000gn/T//cc8eCeeT.s 			page 105


 3220 01ce A089     		ldrh	r0, [r4, #12]
 3221 01d0 FFF7FEFF 		bl	SUBGRF_SetCrcPolynomial
 3222              	.LVL301:
2158:Middlewares/Third_Party/SubGHz_Phy/stm32_radio_driver/radio.c ****         break;
 3223              		.loc 1 2158 9 view .LVU875
 3224 01d4 79E0     		b	.L222
 3225              	.L239:
 3226              	.LBB7:
2128:Middlewares/Third_Party/SubGHz_Phy/stm32_radio_driver/radio.c ****             }
 3227              		.loc 1 2128 24 is_stmt 0 discriminator 1 view .LVU876
 3228 01d6 4FF0FF30 		mov	r0, #-1
 3229 01da 80E0     		b	.L221
 3230              	.L226:
2128:Middlewares/Third_Party/SubGHz_Phy/stm32_radio_driver/radio.c ****             }
 3231              		.loc 1 2128 24 discriminator 1 view .LVU877
 3232              	.LBE7:
2159:Middlewares/Third_Party/SubGHz_Phy/stm32_radio_driver/radio.c ****     case GENERIC_LORA:
2160:Middlewares/Third_Party/SubGHz_Phy/stm32_radio_driver/radio.c ****         SubgRf.ModulationParams.PacketType = PACKET_TYPE_LORA;
 3233              		.loc 1 2160 9 is_stmt 1 view .LVU878
 3234              		.loc 1 2160 44 is_stmt 0 view .LVU879
 3235 01dc 494B     		ldr	r3, .L255
 3236 01de 0122     		movs	r2, #1
 3237 01e0 83F83820 		strb	r2, [r3, #56]
2161:Middlewares/Third_Party/SubGHz_Phy/stm32_radio_driver/radio.c ****         SubgRf.ModulationParams.Params.LoRa.SpreadingFactor = ( RadioLoRaSpreadingFactors_t ) confi
 3238              		.loc 1 2161 9 is_stmt 1 view .LVU880
 3239              		.loc 1 2161 107 is_stmt 0 view .LVU881
 3240 01e4 2278     		ldrb	r2, [r4]	@ zero_extendqisi2
 3241              		.loc 1 2161 61 view .LVU882
 3242 01e6 83F85020 		strb	r2, [r3, #80]
2162:Middlewares/Third_Party/SubGHz_Phy/stm32_radio_driver/radio.c ****         SubgRf.ModulationParams.Params.LoRa.Bandwidth = ( RadioLoRaBandwidths_t ) config->lora.Band
 3243              		.loc 1 2162 9 is_stmt 1 view .LVU883
 3244              		.loc 1 2162 95 is_stmt 0 view .LVU884
 3245 01ea 6278     		ldrb	r2, [r4, #1]	@ zero_extendqisi2
 3246              		.loc 1 2162 55 view .LVU885
 3247 01ec 83F85120 		strb	r2, [r3, #81]
2163:Middlewares/Third_Party/SubGHz_Phy/stm32_radio_driver/radio.c ****         SubgRf.ModulationParams.Params.LoRa.CodingRate = ( RadioLoRaCodingRates_t ) config->lora.Co
 3248              		.loc 1 2163 9 is_stmt 1 view .LVU886
 3249              		.loc 1 2163 97 is_stmt 0 view .LVU887
 3250 01f0 A278     		ldrb	r2, [r4, #2]	@ zero_extendqisi2
 3251              		.loc 1 2163 56 view .LVU888
 3252 01f2 83F85220 		strb	r2, [r3, #82]
2164:Middlewares/Third_Party/SubGHz_Phy/stm32_radio_driver/radio.c ****         switch( config->lora.LowDatarateOptimize )
 3253              		.loc 1 2164 9 is_stmt 1 view .LVU889
 3254              		.loc 1 2164 29 is_stmt 0 view .LVU890
 3255 01f6 E378     		ldrb	r3, [r4, #3]	@ zero_extendqisi2
 3256 01f8 012B     		cmp	r3, #1
 3257 01fa 33D0     		beq	.L241
 3258 01fc 022B     		cmp	r3, #2
 3259 01fe 36D0     		beq	.L242
 3260 0200 5BB3     		cbz	r3, .L252
 3261              	.L243:
2165:Middlewares/Third_Party/SubGHz_Phy/stm32_radio_driver/radio.c ****         {
2166:Middlewares/Third_Party/SubGHz_Phy/stm32_radio_driver/radio.c ****           case RADIO_LORA_LOWDR_OPT_OFF:
2167:Middlewares/Third_Party/SubGHz_Phy/stm32_radio_driver/radio.c ****             SubgRf.ModulationParams.Params.LoRa.LowDatarateOptimize = 0;
2168:Middlewares/Third_Party/SubGHz_Phy/stm32_radio_driver/radio.c ****             break;
2169:Middlewares/Third_Party/SubGHz_Phy/stm32_radio_driver/radio.c ****           case RADIO_LORA_LOWDR_OPT_ON:
2170:Middlewares/Third_Party/SubGHz_Phy/stm32_radio_driver/radio.c ****             SubgRf.ModulationParams.Params.LoRa.LowDatarateOptimize = 1;
ARM GAS  /var/folders/9y/n02fl3g16gnf7ppy14xghdy80000gn/T//cc8eCeeT.s 			page 106


2171:Middlewares/Third_Party/SubGHz_Phy/stm32_radio_driver/radio.c ****             break;
2172:Middlewares/Third_Party/SubGHz_Phy/stm32_radio_driver/radio.c ****           case RADIO_LORA_LOWDR_OPT_AUTO:
2173:Middlewares/Third_Party/SubGHz_Phy/stm32_radio_driver/radio.c ****             if( ( config->lora.SpreadingFactor == RADIO_LORA_SF11 ) || ( config->lora.SpreadingFact
2174:Middlewares/Third_Party/SubGHz_Phy/stm32_radio_driver/radio.c ****             {
2175:Middlewares/Third_Party/SubGHz_Phy/stm32_radio_driver/radio.c ****               SubgRf.ModulationParams.Params.LoRa.LowDatarateOptimize = 1;
2176:Middlewares/Third_Party/SubGHz_Phy/stm32_radio_driver/radio.c ****             }
2177:Middlewares/Third_Party/SubGHz_Phy/stm32_radio_driver/radio.c ****             else
2178:Middlewares/Third_Party/SubGHz_Phy/stm32_radio_driver/radio.c ****             {
2179:Middlewares/Third_Party/SubGHz_Phy/stm32_radio_driver/radio.c ****               SubgRf.ModulationParams.Params.LoRa.LowDatarateOptimize = 0;
2180:Middlewares/Third_Party/SubGHz_Phy/stm32_radio_driver/radio.c ****             }
2181:Middlewares/Third_Party/SubGHz_Phy/stm32_radio_driver/radio.c ****             break;
2182:Middlewares/Third_Party/SubGHz_Phy/stm32_radio_driver/radio.c ****           default:
2183:Middlewares/Third_Party/SubGHz_Phy/stm32_radio_driver/radio.c ****             break;
2184:Middlewares/Third_Party/SubGHz_Phy/stm32_radio_driver/radio.c ****         }
2185:Middlewares/Third_Party/SubGHz_Phy/stm32_radio_driver/radio.c **** 
2186:Middlewares/Third_Party/SubGHz_Phy/stm32_radio_driver/radio.c ****         SubgRf.PacketParams.PacketType = PACKET_TYPE_LORA;
 3262              		.loc 1 2186 9 is_stmt 1 view .LVU891
 3263              		.loc 1 2186 40 is_stmt 0 view .LVU892
 3264 0202 404D     		ldr	r5, .L255
 3265 0204 4FF00108 		mov	r8, #1
 3266 0208 85F80E80 		strb	r8, [r5, #14]
2187:Middlewares/Third_Party/SubGHz_Phy/stm32_radio_driver/radio.c ****         SubgRf.PacketParams.Params.LoRa.PreambleLength = config->lora.PreambleLen;
 3267              		.loc 1 2187 9 is_stmt 1 view .LVU893
 3268              		.loc 1 2187 70 is_stmt 0 view .LVU894
 3269 020c A388     		ldrh	r3, [r4, #4]
 3270              		.loc 1 2187 56 view .LVU895
 3271 020e AB83     		strh	r3, [r5, #28]	@ movhi
2188:Middlewares/Third_Party/SubGHz_Phy/stm32_radio_driver/radio.c ****         SubgRf.PacketParams.Params.LoRa.HeaderType = ( RadioLoRaPacketLengthsMode_t ) config->lora.
 3272              		.loc 1 2188 9 is_stmt 1 view .LVU896
 3273              		.loc 1 2188 99 is_stmt 0 view .LVU897
 3274 0210 A379     		ldrb	r3, [r4, #6]	@ zero_extendqisi2
 3275              		.loc 1 2188 52 view .LVU898
 3276 0212 AB77     		strb	r3, [r5, #30]
2189:Middlewares/Third_Party/SubGHz_Phy/stm32_radio_driver/radio.c ****         SubgRf.PacketParams.Params.LoRa.CrcMode = ( RadioLoRaCrcModes_t ) config->lora.CrcMode;
 3277              		.loc 1 2189 9 is_stmt 1 view .LVU899
 3278              		.loc 1 2189 87 is_stmt 0 view .LVU900
 3279 0214 E379     		ldrb	r3, [r4, #7]	@ zero_extendqisi2
 3280              		.loc 1 2189 49 view .LVU901
 3281 0216 85F82030 		strb	r3, [r5, #32]
2190:Middlewares/Third_Party/SubGHz_Phy/stm32_radio_driver/radio.c ****         SubgRf.PacketParams.Params.LoRa.InvertIQ = ( RadioLoRaIQModes_t ) config->lora.IqInverted;
 3282              		.loc 1 2190 9 is_stmt 1 view .LVU902
 3283              		.loc 1 2190 87 is_stmt 0 view .LVU903
 3284 021a 237A     		ldrb	r3, [r4, #8]	@ zero_extendqisi2
 3285              		.loc 1 2190 50 view .LVU904
 3286 021c 85F82130 		strb	r3, [r5, #33]
2191:Middlewares/Third_Party/SubGHz_Phy/stm32_radio_driver/radio.c **** 
2192:Middlewares/Third_Party/SubGHz_Phy/stm32_radio_driver/radio.c ****         RadioStandby( );
 3287              		.loc 1 2192 9 is_stmt 1 view .LVU905
 3288 0220 FFF7FEFF 		bl	RadioStandby
 3289              	.LVL302:
2193:Middlewares/Third_Party/SubGHz_Phy/stm32_radio_driver/radio.c ****         RadioSetModem( MODEM_LORA );
 3290              		.loc 1 2193 9 view .LVU906
 3291 0224 4046     		mov	r0, r8
 3292 0226 FFF7FEFF 		bl	RadioSetModem
 3293              	.LVL303:
2194:Middlewares/Third_Party/SubGHz_Phy/stm32_radio_driver/radio.c ****         SUBGRF_SetModulationParams( &SubgRf.ModulationParams );
 3294              		.loc 1 2194 9 view .LVU907
ARM GAS  /var/folders/9y/n02fl3g16gnf7ppy14xghdy80000gn/T//cc8eCeeT.s 			page 107


 3295 022a 05F13800 		add	r0, r5, #56
 3296 022e FFF7FEFF 		bl	SUBGRF_SetModulationParams
 3297              	.LVL304:
2195:Middlewares/Third_Party/SubGHz_Phy/stm32_radio_driver/radio.c ****         SUBGRF_SetPacketParams( &SubgRf.PacketParams );
 3298              		.loc 1 2195 9 view .LVU908
 3299 0232 05F10E00 		add	r0, r5, #14
 3300 0236 FFF7FEFF 		bl	SUBGRF_SetPacketParams
 3301              	.LVL305:
2196:Middlewares/Third_Party/SubGHz_Phy/stm32_radio_driver/radio.c **** 
2197:Middlewares/Third_Party/SubGHz_Phy/stm32_radio_driver/radio.c ****         // WORKAROUND - Modulation Quality with 500 kHz LoRa Bandwidth, see STM32WL Erratasheet
2198:Middlewares/Third_Party/SubGHz_Phy/stm32_radio_driver/radio.c ****         if( SubgRf.ModulationParams.Params.LoRa.Bandwidth == LORA_BW_500 )
 3302              		.loc 1 2198 9 view .LVU909
 3303              		.loc 1 2198 48 is_stmt 0 view .LVU910
 3304 023a 95F85130 		ldrb	r3, [r5, #81]	@ zero_extendqisi2
 3305              		.loc 1 2198 11 view .LVU911
 3306 023e 062B     		cmp	r3, #6
 3307 0240 24D0     		beq	.L253
2199:Middlewares/Third_Party/SubGHz_Phy/stm32_radio_driver/radio.c ****         {
2200:Middlewares/Third_Party/SubGHz_Phy/stm32_radio_driver/radio.c ****             // RegTxModulation = @address 0x0889
2201:Middlewares/Third_Party/SubGHz_Phy/stm32_radio_driver/radio.c ****             SUBGRF_WriteRegister( SUBGHZ_SDCFG0R, SUBGRF_ReadRegister( SUBGHZ_SDCFG0R ) & ~( 1 << 2
2202:Middlewares/Third_Party/SubGHz_Phy/stm32_radio_driver/radio.c ****         }
2203:Middlewares/Third_Party/SubGHz_Phy/stm32_radio_driver/radio.c ****         else
2204:Middlewares/Third_Party/SubGHz_Phy/stm32_radio_driver/radio.c ****         {
2205:Middlewares/Third_Party/SubGHz_Phy/stm32_radio_driver/radio.c ****             // RegTxModulation = @address 0x0889
2206:Middlewares/Third_Party/SubGHz_Phy/stm32_radio_driver/radio.c ****             SUBGRF_WriteRegister( SUBGHZ_SDCFG0R, SUBGRF_ReadRegister( SUBGHZ_SDCFG0R ) | ( 1 << 2 
 3308              		.loc 1 2206 13 is_stmt 1 view .LVU912
 3309              		.loc 1 2206 51 is_stmt 0 view .LVU913
 3310 0242 40F68900 		movw	r0, #2185
 3311 0246 FFF7FEFF 		bl	SUBGRF_ReadRegister
 3312              	.LVL306:
 3313              		.loc 1 2206 13 view .LVU914
 3314 024a 40F00401 		orr	r1, r0, #4
 3315 024e C9B2     		uxtb	r1, r1
 3316 0250 40F68900 		movw	r0, #2185
 3317 0254 FFF7FEFF 		bl	SUBGRF_WriteRegister
 3318              	.LVL307:
 3319 0258 37E0     		b	.L222
 3320              	.L252:
2167:Middlewares/Third_Party/SubGHz_Phy/stm32_radio_driver/radio.c ****             break;
 3321              		.loc 1 2167 13 is_stmt 1 view .LVU915
2167:Middlewares/Third_Party/SubGHz_Phy/stm32_radio_driver/radio.c ****             break;
 3322              		.loc 1 2167 69 is_stmt 0 view .LVU916
 3323 025a 2A4B     		ldr	r3, .L255
 3324 025c 0022     		movs	r2, #0
 3325 025e 83F85320 		strb	r2, [r3, #83]
2168:Middlewares/Third_Party/SubGHz_Phy/stm32_radio_driver/radio.c ****           case RADIO_LORA_LOWDR_OPT_ON:
 3326              		.loc 1 2168 13 is_stmt 1 view .LVU917
 3327 0262 CEE7     		b	.L243
 3328              	.L241:
2170:Middlewares/Third_Party/SubGHz_Phy/stm32_radio_driver/radio.c ****             break;
 3329              		.loc 1 2170 13 view .LVU918
2170:Middlewares/Third_Party/SubGHz_Phy/stm32_radio_driver/radio.c ****             break;
 3330              		.loc 1 2170 69 is_stmt 0 view .LVU919
 3331 0264 274B     		ldr	r3, .L255
 3332 0266 0122     		movs	r2, #1
 3333 0268 83F85320 		strb	r2, [r3, #83]
2171:Middlewares/Third_Party/SubGHz_Phy/stm32_radio_driver/radio.c ****           case RADIO_LORA_LOWDR_OPT_AUTO:
ARM GAS  /var/folders/9y/n02fl3g16gnf7ppy14xghdy80000gn/T//cc8eCeeT.s 			page 108


 3334              		.loc 1 2171 13 is_stmt 1 view .LVU920
 3335 026c C9E7     		b	.L243
 3336              	.L242:
2173:Middlewares/Third_Party/SubGHz_Phy/stm32_radio_driver/radio.c ****             {
 3337              		.loc 1 2173 13 view .LVU921
2173:Middlewares/Third_Party/SubGHz_Phy/stm32_radio_driver/radio.c ****             {
 3338              		.loc 1 2173 31 is_stmt 0 view .LVU922
 3339 026e 2378     		ldrb	r3, [r4]	@ zero_extendqisi2
2173:Middlewares/Third_Party/SubGHz_Phy/stm32_radio_driver/radio.c ****             {
 3340              		.loc 1 2173 69 view .LVU923
 3341 0270 0B3B     		subs	r3, r3, #11
 3342 0272 DBB2     		uxtb	r3, r3
2173:Middlewares/Third_Party/SubGHz_Phy/stm32_radio_driver/radio.c ****             {
 3343              		.loc 1 2173 15 view .LVU924
 3344 0274 012B     		cmp	r3, #1
 3345 0276 04D9     		bls	.L254
2179:Middlewares/Third_Party/SubGHz_Phy/stm32_radio_driver/radio.c ****             }
 3346              		.loc 1 2179 15 is_stmt 1 view .LVU925
2179:Middlewares/Third_Party/SubGHz_Phy/stm32_radio_driver/radio.c ****             }
 3347              		.loc 1 2179 71 is_stmt 0 view .LVU926
 3348 0278 224B     		ldr	r3, .L255
 3349 027a 0022     		movs	r2, #0
 3350 027c 83F85320 		strb	r2, [r3, #83]
 3351 0280 BFE7     		b	.L243
 3352              	.L254:
2175:Middlewares/Third_Party/SubGHz_Phy/stm32_radio_driver/radio.c ****             }
 3353              		.loc 1 2175 15 is_stmt 1 view .LVU927
2175:Middlewares/Third_Party/SubGHz_Phy/stm32_radio_driver/radio.c ****             }
 3354              		.loc 1 2175 71 is_stmt 0 view .LVU928
 3355 0282 204B     		ldr	r3, .L255
 3356 0284 0122     		movs	r2, #1
 3357 0286 83F85320 		strb	r2, [r3, #83]
 3358 028a BAE7     		b	.L243
 3359              	.L253:
2201:Middlewares/Third_Party/SubGHz_Phy/stm32_radio_driver/radio.c ****         }
 3360              		.loc 1 2201 13 is_stmt 1 view .LVU929
2201:Middlewares/Third_Party/SubGHz_Phy/stm32_radio_driver/radio.c ****         }
 3361              		.loc 1 2201 51 is_stmt 0 view .LVU930
 3362 028c 40F68900 		movw	r0, #2185
 3363 0290 FFF7FEFF 		bl	SUBGRF_ReadRegister
 3364              	.LVL308:
2201:Middlewares/Third_Party/SubGHz_Phy/stm32_radio_driver/radio.c ****         }
 3365              		.loc 1 2201 13 view .LVU931
 3366 0294 00F0FB01 		and	r1, r0, #251
 3367 0298 40F68900 		movw	r0, #2185
 3368 029c FFF7FEFF 		bl	SUBGRF_WriteRegister
 3369              	.LVL309:
 3370 02a0 13E0     		b	.L222
 3371              	.L225:
2207:Middlewares/Third_Party/SubGHz_Phy/stm32_radio_driver/radio.c ****         }
2208:Middlewares/Third_Party/SubGHz_Phy/stm32_radio_driver/radio.c ****         // WORKAROUND END
2209:Middlewares/Third_Party/SubGHz_Phy/stm32_radio_driver/radio.c ****         break;
2210:Middlewares/Third_Party/SubGHz_Phy/stm32_radio_driver/radio.c ****     case GENERIC_BPSK:
2211:Middlewares/Third_Party/SubGHz_Phy/stm32_radio_driver/radio.c ****         if( ( config->bpsk.BitRate == 0 ) || ( config->bpsk.BitRate > 1000 ) )
 3372              		.loc 1 2211 9 is_stmt 1 view .LVU932
 3373              		.loc 1 2211 27 is_stmt 0 view .LVU933
 3374 02a2 2368     		ldr	r3, [r4]
ARM GAS  /var/folders/9y/n02fl3g16gnf7ppy14xghdy80000gn/T//cc8eCeeT.s 			page 109


 3375              		.loc 1 2211 43 view .LVU934
 3376 02a4 013B     		subs	r3, r3, #1
 3377              		.loc 1 2211 11 view .LVU935
 3378 02a6 B3F57A7F 		cmp	r3, #1000
 3379 02aa 27D2     		bcs	.L250
2212:Middlewares/Third_Party/SubGHz_Phy/stm32_radio_driver/radio.c ****         {
2213:Middlewares/Third_Party/SubGHz_Phy/stm32_radio_driver/radio.c ****             return -1;
2214:Middlewares/Third_Party/SubGHz_Phy/stm32_radio_driver/radio.c ****         }
2215:Middlewares/Third_Party/SubGHz_Phy/stm32_radio_driver/radio.c ****         RadioSetModem( MODEM_BPSK );
 3380              		.loc 1 2215 9 is_stmt 1 view .LVU936
 3381 02ac 0320     		movs	r0, #3
 3382 02ae FFF7FEFF 		bl	RadioSetModem
 3383              	.LVL310:
2216:Middlewares/Third_Party/SubGHz_Phy/stm32_radio_driver/radio.c ****         SubgRf.ModulationParams.PacketType = PACKET_TYPE_BPSK;
 3384              		.loc 1 2216 9 view .LVU937
 3385              		.loc 1 2216 44 is_stmt 0 view .LVU938
 3386 02b2 1448     		ldr	r0, .L255
 3387 02b4 0223     		movs	r3, #2
 3388 02b6 80F83830 		strb	r3, [r0, #56]
2217:Middlewares/Third_Party/SubGHz_Phy/stm32_radio_driver/radio.c ****         SubgRf.ModulationParams.Params.Bpsk.BitRate = config->bpsk.BitRate;
 3389              		.loc 1 2217 9 is_stmt 1 view .LVU939
 3390              		.loc 1 2217 67 is_stmt 0 view .LVU940
 3391 02ba 2368     		ldr	r3, [r4]
 3392              		.loc 1 2217 53 view .LVU941
 3393 02bc 8364     		str	r3, [r0, #72]
2218:Middlewares/Third_Party/SubGHz_Phy/stm32_radio_driver/radio.c ****         SubgRf.ModulationParams.Params.Bpsk.ModulationShaping = MOD_SHAPING_DBPSK;
 3394              		.loc 1 2218 9 is_stmt 1 view .LVU942
 3395              		.loc 1 2218 63 is_stmt 0 view .LVU943
 3396 02be 1623     		movs	r3, #22
 3397 02c0 80F84C30 		strb	r3, [r0, #76]
2219:Middlewares/Third_Party/SubGHz_Phy/stm32_radio_driver/radio.c ****         SUBGRF_SetModulationParams( &SubgRf.ModulationParams );
 3398              		.loc 1 2219 9 is_stmt 1 view .LVU944
 3399 02c4 3830     		adds	r0, r0, #56
 3400 02c6 FFF7FEFF 		bl	SUBGRF_SetModulationParams
 3401              	.LVL311:
2220:Middlewares/Third_Party/SubGHz_Phy/stm32_radio_driver/radio.c ****         break;
 3402              		.loc 1 2220 9 view .LVU945
 3403              	.L222:
2221:Middlewares/Third_Party/SubGHz_Phy/stm32_radio_driver/radio.c ****     default:
2222:Middlewares/Third_Party/SubGHz_Phy/stm32_radio_driver/radio.c ****         break;
2223:Middlewares/Third_Party/SubGHz_Phy/stm32_radio_driver/radio.c ****     }
2224:Middlewares/Third_Party/SubGHz_Phy/stm32_radio_driver/radio.c **** 
2225:Middlewares/Third_Party/SubGHz_Phy/stm32_radio_driver/radio.c ****     SubgRf.AntSwitchPaSelect = SUBGRF_SetRfTxPower( power );
 3404              		.loc 1 2225 5 view .LVU946
 3405              		.loc 1 2225 32 is_stmt 0 view .LVU947
 3406 02ca 3846     		mov	r0, r7
 3407 02cc FFF7FEFF 		bl	SUBGRF_SetRfTxPower
 3408              	.LVL312:
 3409              		.loc 1 2225 30 view .LVU948
 3410 02d0 0C4C     		ldr	r4, .L255
 3411              	.LVL313:
 3412              		.loc 1 2225 30 view .LVU949
 3413 02d2 84F85600 		strb	r0, [r4, #86]
2226:Middlewares/Third_Party/SubGHz_Phy/stm32_radio_driver/radio.c ****     RFW_SetAntSwitch( SubgRf.AntSwitchPaSelect );
 3414              		.loc 1 2226 5 is_stmt 1 view .LVU950
 3415 02d6 FFF7FEFF 		bl	RFW_SetAntSwitch
 3416              	.LVL314:
ARM GAS  /var/folders/9y/n02fl3g16gnf7ppy14xghdy80000gn/T//cc8eCeeT.s 			page 110


2227:Middlewares/Third_Party/SubGHz_Phy/stm32_radio_driver/radio.c ****     SubgRf.TxTimeout = timeout;
 3417              		.loc 1 2227 5 view .LVU951
 3418              		.loc 1 2227 22 is_stmt 0 view .LVU952
 3419 02da 6660     		str	r6, [r4, #4]
2228:Middlewares/Third_Party/SubGHz_Phy/stm32_radio_driver/radio.c ****     return 0;
 3420              		.loc 1 2228 5 is_stmt 1 view .LVU953
 3421              		.loc 1 2228 12 is_stmt 0 view .LVU954
 3422 02dc 0020     		movs	r0, #0
 3423              	.L221:
2229:Middlewares/Third_Party/SubGHz_Phy/stm32_radio_driver/radio.c **** #else /* RADIO_GENERIC_CONFIG_ENABLE == 1*/
2230:Middlewares/Third_Party/SubGHz_Phy/stm32_radio_driver/radio.c ****     return -1;
2231:Middlewares/Third_Party/SubGHz_Phy/stm32_radio_driver/radio.c **** #endif /* RADIO_GENERIC_CONFIG_ENABLE == 0*/
2232:Middlewares/Third_Party/SubGHz_Phy/stm32_radio_driver/radio.c **** }
 3424              		.loc 1 2232 1 view .LVU955
 3425 02de 06B0     		add	sp, sp, #24
 3426              		.cfi_remember_state
 3427              		.cfi_def_cfa_offset 24
 3428              		@ sp needed
 3429 02e0 BDE8F081 		pop	{r4, r5, r6, r7, r8, pc}
 3430              	.LVL315:
 3431              	.L246:
 3432              		.cfi_restore_state
2026:Middlewares/Third_Party/SubGHz_Phy/stm32_radio_driver/radio.c ****         }
 3433              		.loc 1 2026 20 view .LVU956
 3434 02e4 4FF0FF30 		mov	r0, #-1
 3435 02e8 F9E7     		b	.L221
 3436              	.L247:
2034:Middlewares/Third_Party/SubGHz_Phy/stm32_radio_driver/radio.c ****         }
 3437              		.loc 1 2034 20 view .LVU957
 3438 02ea 4FF0FF30 		mov	r0, #-1
 3439 02ee F6E7     		b	.L221
 3440              	.L248:
2102:Middlewares/Third_Party/SubGHz_Phy/stm32_radio_driver/radio.c ****         }
 3441              		.loc 1 2102 20 view .LVU958
 3442 02f0 4FF0FF30 		mov	r0, #-1
 3443 02f4 F3E7     		b	.L221
 3444              	.L249:
2106:Middlewares/Third_Party/SubGHz_Phy/stm32_radio_driver/radio.c ****         }
 3445              		.loc 1 2106 20 view .LVU959
 3446 02f6 4FF0FF30 		mov	r0, #-1
 3447 02fa F0E7     		b	.L221
 3448              	.L250:
2213:Middlewares/Third_Party/SubGHz_Phy/stm32_radio_driver/radio.c ****         }
 3449              		.loc 1 2213 20 view .LVU960
 3450 02fc 4FF0FF30 		mov	r0, #-1
 3451 0300 EDE7     		b	.L221
 3452              	.L256:
 3453 0302 00BF     		.align	2
 3454              	.L255:
 3455 0304 00000000 		.word	.LANCHOR3
 3456 0308 00000000 		.word	.LANCHOR5
 3457 030c 00000000 		.word	.LANCHOR1
 3458              		.cfi_endproc
 3459              	.LFE1202:
 3461              		.section	.text.RadioSetRxGenericConfig,"ax",%progbits
 3462              		.align	1
 3463              		.syntax unified
ARM GAS  /var/folders/9y/n02fl3g16gnf7ppy14xghdy80000gn/T//cc8eCeeT.s 			page 111


 3464              		.thumb
 3465              		.thumb_func
 3466              		.fpu softvfp
 3468              	RadioSetRxGenericConfig:
 3469              	.LVL316:
 3470              	.LFB1201:
1841:Middlewares/Third_Party/SubGHz_Phy/stm32_radio_driver/radio.c **** #if (RADIO_GENERIC_CONFIG_ENABLE == 1)
 3471              		.loc 1 1841 1 is_stmt 1 view -0
 3472              		.cfi_startproc
 3473              		@ args = 0, pretend = 0, frame = 24
 3474              		@ frame_needed = 0, uses_anonymous_args = 0
1841:Middlewares/Third_Party/SubGHz_Phy/stm32_radio_driver/radio.c **** #if (RADIO_GENERIC_CONFIG_ENABLE == 1)
 3475              		.loc 1 1841 1 is_stmt 0 view .LVU962
 3476 0000 2DE9F041 		push	{r4, r5, r6, r7, r8, lr}
 3477              		.cfi_def_cfa_offset 24
 3478              		.cfi_offset 4, -24
 3479              		.cfi_offset 5, -20
 3480              		.cfi_offset 6, -16
 3481              		.cfi_offset 7, -12
 3482              		.cfi_offset 8, -8
 3483              		.cfi_offset 14, -4
 3484 0004 86B0     		sub	sp, sp, #24
 3485              		.cfi_def_cfa_offset 48
 3486 0006 0646     		mov	r6, r0
 3487 0008 0C46     		mov	r4, r1
 3488 000a 1546     		mov	r5, r2
 3489 000c 1F46     		mov	r7, r3
1843:Middlewares/Third_Party/SubGHz_Phy/stm32_radio_driver/radio.c ****     uint8_t syncword[8] = {0};
 3490              		.loc 1 1843 5 is_stmt 1 view .LVU963
 3491              	.LVL317:
1844:Middlewares/Third_Party/SubGHz_Phy/stm32_radio_driver/radio.c ****     uint8_t MaxPayloadLength;
 3492              		.loc 1 1844 5 view .LVU964
1844:Middlewares/Third_Party/SubGHz_Phy/stm32_radio_driver/radio.c ****     uint8_t MaxPayloadLength;
 3493              		.loc 1 1844 13 is_stmt 0 view .LVU965
 3494 000e 0023     		movs	r3, #0
 3495              	.LVL318:
1844:Middlewares/Third_Party/SubGHz_Phy/stm32_radio_driver/radio.c ****     uint8_t MaxPayloadLength;
 3496              		.loc 1 1844 13 view .LVU966
 3497 0010 0493     		str	r3, [sp, #16]
 3498 0012 0593     		str	r3, [sp, #20]
1845:Middlewares/Third_Party/SubGHz_Phy/stm32_radio_driver/radio.c **** 
 3499              		.loc 1 1845 5 is_stmt 1 view .LVU967
1847:Middlewares/Third_Party/SubGHz_Phy/stm32_radio_driver/radio.c **** 
 3500              		.loc 1 1847 5 view .LVU968
 3501 0014 FFF7FEFF 		bl	RFW_DeInit
 3502              	.LVL319:
1849:Middlewares/Third_Party/SubGHz_Phy/stm32_radio_driver/radio.c ****     {
 3503              		.loc 1 1849 5 view .LVU969
1849:Middlewares/Third_Party/SubGHz_Phy/stm32_radio_driver/radio.c ****     {
 3504              		.loc 1 1849 7 is_stmt 0 view .LVU970
 3505 0018 05B1     		cbz	r5, .L258
1851:Middlewares/Third_Party/SubGHz_Phy/stm32_radio_driver/radio.c ****     }
 3506              		.loc 1 1851 21 view .LVU971
 3507 001a 0027     		movs	r7, #0
 3508              	.LVL320:
 3509              	.L258:
1853:Middlewares/Third_Party/SubGHz_Phy/stm32_radio_driver/radio.c **** 
ARM GAS  /var/folders/9y/n02fl3g16gnf7ppy14xghdy80000gn/T//cc8eCeeT.s 			page 112


 3510              		.loc 1 1853 5 is_stmt 1 view .LVU972
1853:Middlewares/Third_Party/SubGHz_Phy/stm32_radio_driver/radio.c **** 
 3511              		.loc 1 1853 57 is_stmt 0 view .LVU973
 3512 001c 003D     		subs	r5, r5, #0
1853:Middlewares/Third_Party/SubGHz_Phy/stm32_radio_driver/radio.c **** 
 3513              		.loc 1 1853 57 view .LVU974
 3514 001e 18BF     		it	ne
 3515 0020 0125     		movne	r5, #1
 3516              	.LVL321:
1853:Middlewares/Third_Party/SubGHz_Phy/stm32_radio_driver/radio.c **** 
 3517              		.loc 1 1853 25 view .LVU975
 3518 0022 934B     		ldr	r3, .L289
 3519 0024 5D70     		strb	r5, [r3, #1]
1855:Middlewares/Third_Party/SubGHz_Phy/stm32_radio_driver/radio.c ****     {
 3520              		.loc 1 1855 5 is_stmt 1 view .LVU976
 3521 0026 36B1     		cbz	r6, .L259
 3522 0028 012E     		cmp	r6, #1
 3523 002a 00F08F80 		beq	.L260
 3524 002e 0020     		movs	r0, #0
 3525              	.LVL322:
 3526              	.L257:
2013:Middlewares/Third_Party/SubGHz_Phy/stm32_radio_driver/radio.c **** 
 3527              		.loc 1 2013 1 is_stmt 0 view .LVU977
 3528 0030 06B0     		add	sp, sp, #24
 3529              		.cfi_remember_state
 3530              		.cfi_def_cfa_offset 24
 3531              		@ sp needed
 3532 0032 BDE8F081 		pop	{r4, r5, r6, r7, r8, pc}
 3533              	.LVL323:
 3534              	.L259:
 3535              		.cfi_restore_state
1858:Middlewares/Third_Party/SubGHz_Phy/stm32_radio_driver/radio.c ****         {
 3536              		.loc 1 1858 9 is_stmt 1 view .LVU978
1858:Middlewares/Third_Party/SubGHz_Phy/stm32_radio_driver/radio.c ****         {
 3537              		.loc 1 1858 26 is_stmt 0 view .LVU979
 3538 0036 A368     		ldr	r3, [r4, #8]
1858:Middlewares/Third_Party/SubGHz_Phy/stm32_radio_driver/radio.c ****         {
 3539              		.loc 1 1858 11 view .LVU980
 3540 0038 002B     		cmp	r3, #0
 3541 003a 00F00D81 		beq	.L278
1858:Middlewares/Third_Party/SubGHz_Phy/stm32_radio_driver/radio.c ****         {
 3542              		.loc 1 1858 58 discriminator 1 view .LVU981
 3543 003e E368     		ldr	r3, [r4, #12]
1858:Middlewares/Third_Party/SubGHz_Phy/stm32_radio_driver/radio.c ****         {
 3544              		.loc 1 1858 42 discriminator 1 view .LVU982
 3545 0040 002B     		cmp	r3, #0
 3546 0042 00F00C81 		beq	.L279
1862:Middlewares/Third_Party/SubGHz_Phy/stm32_radio_driver/radio.c ****         {
 3547              		.loc 1 1862 9 is_stmt 1 view .LVU983
1862:Middlewares/Third_Party/SubGHz_Phy/stm32_radio_driver/radio.c ****         {
 3548              		.loc 1 1862 24 is_stmt 0 view .LVU984
 3549 0046 A27F     		ldrb	r2, [r4, #30]	@ zero_extendqisi2
1862:Middlewares/Third_Party/SubGHz_Phy/stm32_radio_driver/radio.c ****         {
 3550              		.loc 1 1862 11 view .LVU985
 3551 0048 082A     		cmp	r2, #8
 3552 004a 00F20B81 		bhi	.L280
1868:Middlewares/Third_Party/SubGHz_Phy/stm32_radio_driver/radio.c ****         }
ARM GAS  /var/folders/9y/n02fl3g16gnf7ppy14xghdy80000gn/T//cc8eCeeT.s 			page 113


 3553              		.loc 1 1868 13 is_stmt 1 view .LVU986
 3554 004e 2169     		ldr	r1, [r4, #16]
 3555 0050 04A8     		add	r0, sp, #16
 3556 0052 FFF7FEFF 		bl	UTIL_MEM_cpy_8
 3557              	.LVL324:
1871:Middlewares/Third_Party/SubGHz_Phy/stm32_radio_driver/radio.c **** 
 3558              		.loc 1 1871 9 view .LVU987
1871:Middlewares/Third_Party/SubGHz_Phy/stm32_radio_driver/radio.c **** 
 3559              		.loc 1 1871 61 is_stmt 0 view .LVU988
 3560 0056 2068     		ldr	r0, [r4]
1871:Middlewares/Third_Party/SubGHz_Phy/stm32_radio_driver/radio.c **** 
 3561              		.loc 1 1871 9 view .LVU989
 3562 0058 0038     		subs	r0, r0, #0
 3563 005a 18BF     		it	ne
 3564 005c 0120     		movne	r0, #1
 3565 005e FFF7FEFF 		bl	SUBGRF_SetStopRxTimerOnPreambleDetect
 3566              	.LVL325:
1873:Middlewares/Third_Party/SubGHz_Phy/stm32_radio_driver/radio.c ****         SubgRf.ModulationParams.Params.Gfsk.BitRate = config->fsk.BitRate;
 3567              		.loc 1 1873 9 is_stmt 1 view .LVU990
1873:Middlewares/Third_Party/SubGHz_Phy/stm32_radio_driver/radio.c ****         SubgRf.ModulationParams.Params.Gfsk.BitRate = config->fsk.BitRate;
 3568              		.loc 1 1873 44 is_stmt 0 view .LVU991
 3569 0062 834D     		ldr	r5, .L289
 3570 0064 0026     		movs	r6, #0
 3571 0066 85F83860 		strb	r6, [r5, #56]
1874:Middlewares/Third_Party/SubGHz_Phy/stm32_radio_driver/radio.c ****         SubgRf.ModulationParams.Params.Gfsk.ModulationShaping = (RadioModShapings_t) config->fsk.Mo
 3572              		.loc 1 1874 9 is_stmt 1 view .LVU992
1874:Middlewares/Third_Party/SubGHz_Phy/stm32_radio_driver/radio.c ****         SubgRf.ModulationParams.Params.Gfsk.ModulationShaping = (RadioModShapings_t) config->fsk.Mo
 3573              		.loc 1 1874 66 is_stmt 0 view .LVU993
 3574 006a A368     		ldr	r3, [r4, #8]
1874:Middlewares/Third_Party/SubGHz_Phy/stm32_radio_driver/radio.c ****         SubgRf.ModulationParams.Params.Gfsk.ModulationShaping = (RadioModShapings_t) config->fsk.Mo
 3575              		.loc 1 1874 53 view .LVU994
 3576 006c EB63     		str	r3, [r5, #60]
1875:Middlewares/Third_Party/SubGHz_Phy/stm32_radio_driver/radio.c ****         SubgRf.ModulationParams.Params.Gfsk.Bandwidth = SUBGRF_GetFskBandwidthRegValue( config->fsk
 3577              		.loc 1 1875 9 is_stmt 1 view .LVU995
1875:Middlewares/Third_Party/SubGHz_Phy/stm32_radio_driver/radio.c ****         SubgRf.ModulationParams.Params.Gfsk.Bandwidth = SUBGRF_GetFskBandwidthRegValue( config->fsk
 3578              		.loc 1 1875 97 is_stmt 0 view .LVU996
 3579 006e 94F82030 		ldrb	r3, [r4, #32]	@ zero_extendqisi2
1875:Middlewares/Third_Party/SubGHz_Phy/stm32_radio_driver/radio.c ****         SubgRf.ModulationParams.Params.Gfsk.Bandwidth = SUBGRF_GetFskBandwidthRegValue( config->fsk
 3580              		.loc 1 1875 63 view .LVU997
 3581 0072 85F84430 		strb	r3, [r5, #68]
1876:Middlewares/Third_Party/SubGHz_Phy/stm32_radio_driver/radio.c **** 
 3582              		.loc 1 1876 9 is_stmt 1 view .LVU998
1876:Middlewares/Third_Party/SubGHz_Phy/stm32_radio_driver/radio.c **** 
 3583              		.loc 1 1876 57 is_stmt 0 view .LVU999
 3584 0076 6068     		ldr	r0, [r4, #4]
 3585 0078 FFF7FEFF 		bl	SUBGRF_GetFskBandwidthRegValue
 3586              	.LVL326:
1876:Middlewares/Third_Party/SubGHz_Phy/stm32_radio_driver/radio.c **** 
 3587              		.loc 1 1876 55 view .LVU1000
 3588 007c 85F84500 		strb	r0, [r5, #69]
1878:Middlewares/Third_Party/SubGHz_Phy/stm32_radio_driver/radio.c ****         SubgRf.PacketParams.Params.Gfsk.PreambleLength = ( config->fsk.PreambleLen ) << 3 ; // conv
 3589              		.loc 1 1878 9 is_stmt 1 view .LVU1001
1878:Middlewares/Third_Party/SubGHz_Phy/stm32_radio_driver/radio.c ****         SubgRf.PacketParams.Params.Gfsk.PreambleLength = ( config->fsk.PreambleLen ) << 3 ; // conv
 3590              		.loc 1 1878 40 is_stmt 0 view .LVU1002
 3591 0080 AE73     		strb	r6, [r5, #14]
1879:Middlewares/Third_Party/SubGHz_Phy/stm32_radio_driver/radio.c ****         SubgRf.PacketParams.Params.Gfsk.PreambleMinDetect = ( RadioPreambleDetection_t ) config->fs
 3592              		.loc 1 1879 9 is_stmt 1 view .LVU1003
ARM GAS  /var/folders/9y/n02fl3g16gnf7ppy14xghdy80000gn/T//cc8eCeeT.s 			page 114


1879:Middlewares/Third_Party/SubGHz_Phy/stm32_radio_driver/radio.c ****         SubgRf.PacketParams.Params.Gfsk.PreambleMinDetect = ( RadioPreambleDetection_t ) config->fs
 3593              		.loc 1 1879 71 is_stmt 0 view .LVU1004
 3594 0082 E368     		ldr	r3, [r4, #12]
1879:Middlewares/Third_Party/SubGHz_Phy/stm32_radio_driver/radio.c ****         SubgRf.PacketParams.Params.Gfsk.PreambleMinDetect = ( RadioPreambleDetection_t ) config->fs
 3595              		.loc 1 1879 86 view .LVU1005
 3596 0084 DB00     		lsls	r3, r3, #3
1879:Middlewares/Third_Party/SubGHz_Phy/stm32_radio_driver/radio.c ****         SubgRf.PacketParams.Params.Gfsk.PreambleMinDetect = ( RadioPreambleDetection_t ) config->fs
 3597              		.loc 1 1879 56 view .LVU1006
 3598 0086 2B82     		strh	r3, [r5, #16]	@ movhi
1880:Middlewares/Third_Party/SubGHz_Phy/stm32_radio_driver/radio.c ****         SubgRf.PacketParams.Params.Gfsk.SyncWordLength = ( config->fsk.SyncWordLength ) << 3; // co
 3599              		.loc 1 1880 9 is_stmt 1 view .LVU1007
1880:Middlewares/Third_Party/SubGHz_Phy/stm32_radio_driver/radio.c ****         SubgRf.PacketParams.Params.Gfsk.SyncWordLength = ( config->fsk.SyncWordLength ) << 3; // co
 3600              		.loc 1 1880 101 is_stmt 0 view .LVU1008
 3601 0088 E37F     		ldrb	r3, [r4, #31]	@ zero_extendqisi2
1880:Middlewares/Third_Party/SubGHz_Phy/stm32_radio_driver/radio.c ****         SubgRf.PacketParams.Params.Gfsk.SyncWordLength = ( config->fsk.SyncWordLength ) << 3; // co
 3602              		.loc 1 1880 59 view .LVU1009
 3603 008a AB74     		strb	r3, [r5, #18]
1881:Middlewares/Third_Party/SubGHz_Phy/stm32_radio_driver/radio.c ****         SubgRf.PacketParams.Params.Gfsk.AddrComp = ( RadioAddressComp_t ) config->fsk.AddrComp;
 3604              		.loc 1 1881 9 is_stmt 1 view .LVU1010
1881:Middlewares/Third_Party/SubGHz_Phy/stm32_radio_driver/radio.c ****         SubgRf.PacketParams.Params.Gfsk.AddrComp = ( RadioAddressComp_t ) config->fsk.AddrComp;
 3605              		.loc 1 1881 71 is_stmt 0 view .LVU1011
 3606 008c A37F     		ldrb	r3, [r4, #30]	@ zero_extendqisi2
1881:Middlewares/Third_Party/SubGHz_Phy/stm32_radio_driver/radio.c ****         SubgRf.PacketParams.Params.Gfsk.AddrComp = ( RadioAddressComp_t ) config->fsk.AddrComp;
 3607              		.loc 1 1881 89 view .LVU1012
 3608 008e DB00     		lsls	r3, r3, #3
1881:Middlewares/Third_Party/SubGHz_Phy/stm32_radio_driver/radio.c ****         SubgRf.PacketParams.Params.Gfsk.AddrComp = ( RadioAddressComp_t ) config->fsk.AddrComp;
 3609              		.loc 1 1881 56 view .LVU1013
 3610 0090 EB74     		strb	r3, [r5, #19]
1882:Middlewares/Third_Party/SubGHz_Phy/stm32_radio_driver/radio.c **** 
 3611              		.loc 1 1882 9 is_stmt 1 view .LVU1014
1882:Middlewares/Third_Party/SubGHz_Phy/stm32_radio_driver/radio.c **** 
 3612              		.loc 1 1882 86 is_stmt 0 view .LVU1015
 3613 0092 94F82130 		ldrb	r3, [r4, #33]	@ zero_extendqisi2
1882:Middlewares/Third_Party/SubGHz_Phy/stm32_radio_driver/radio.c **** 
 3614              		.loc 1 1882 50 view .LVU1016
 3615 0096 2B75     		strb	r3, [r5, #20]
1884:Middlewares/Third_Party/SubGHz_Phy/stm32_radio_driver/radio.c ****         {
 3616              		.loc 1 1884 9 is_stmt 1 view .LVU1017
1884:Middlewares/Third_Party/SubGHz_Phy/stm32_radio_driver/radio.c ****         {
 3617              		.loc 1 1884 24 is_stmt 0 view .LVU1018
 3618 0098 94F82230 		ldrb	r3, [r4, #34]	@ zero_extendqisi2
1884:Middlewares/Third_Party/SubGHz_Phy/stm32_radio_driver/radio.c ****         {
 3619              		.loc 1 1884 11 view .LVU1019
 3620 009c 73B9     		cbnz	r3, .L262
1886:Middlewares/Third_Party/SubGHz_Phy/stm32_radio_driver/radio.c ****         }
 3621              		.loc 1 1886 13 is_stmt 1 view .LVU1020
1886:Middlewares/Third_Party/SubGHz_Phy/stm32_radio_driver/radio.c ****         }
 3622              		.loc 1 1886 72 is_stmt 0 view .LVU1021
 3623 009e 6169     		ldr	r1, [r4, #20]
1886:Middlewares/Third_Party/SubGHz_Phy/stm32_radio_driver/radio.c ****         }
 3624              		.loc 1 1886 59 view .LVU1022
 3625 00a0 A975     		strb	r1, [r5, #22]
 3626              	.L263:
1899:Middlewares/Third_Party/SubGHz_Phy/stm32_radio_driver/radio.c ****         {
 3627              		.loc 1 1899 9 is_stmt 1 view .LVU1023
1899:Middlewares/Third_Party/SubGHz_Phy/stm32_radio_driver/radio.c ****         {
 3628              		.loc 1 1899 26 is_stmt 0 view .LVU1024
ARM GAS  /var/folders/9y/n02fl3g16gnf7ppy14xghdy80000gn/T//cc8eCeeT.s 			page 115


 3629 00a2 94F82420 		ldrb	r2, [r4, #36]	@ zero_extendqisi2
1899:Middlewares/Third_Party/SubGHz_Phy/stm32_radio_driver/radio.c ****         {
 3630              		.loc 1 1899 11 view .LVU1025
 3631 00a6 022A     		cmp	r2, #2
 3632 00a8 12D0     		beq	.L265
1899:Middlewares/Third_Party/SubGHz_Phy/stm32_radio_driver/radio.c ****         {
 3633              		.loc 1 1899 69 discriminator 1 view .LVU1026
 3634 00aa 022B     		cmp	r3, #2
 3635 00ac 10D0     		beq	.L265
1922:Middlewares/Third_Party/SubGHz_Phy/stm32_radio_driver/radio.c ****           SubgRf.PacketParams.Params.Gfsk.DcFree = ( RadioDcFree_t ) config->fsk.Whitening;
 3636              		.loc 1 1922 11 is_stmt 1 view .LVU1027
1922:Middlewares/Third_Party/SubGHz_Phy/stm32_radio_driver/radio.c ****           SubgRf.PacketParams.Params.Gfsk.DcFree = ( RadioDcFree_t ) config->fsk.Whitening;
 3637              		.loc 1 1922 86 is_stmt 0 view .LVU1028
 3638 00ae 94F82300 		ldrb	r0, [r4, #35]	@ zero_extendqisi2
1922:Middlewares/Third_Party/SubGHz_Phy/stm32_radio_driver/radio.c ****           SubgRf.PacketParams.Params.Gfsk.DcFree = ( RadioDcFree_t ) config->fsk.Whitening;
 3639              		.loc 1 1922 53 view .LVU1029
 3640 00b2 6F49     		ldr	r1, .L289
 3641 00b4 C875     		strb	r0, [r1, #23]
1923:Middlewares/Third_Party/SubGHz_Phy/stm32_radio_driver/radio.c ****           SubgRf.PacketParams.Params.Gfsk.HeaderType = ( RadioPacketLengthModes_t ) config->fsk.Len
 3642              		.loc 1 1923 11 is_stmt 1 view .LVU1030
1923:Middlewares/Third_Party/SubGHz_Phy/stm32_radio_driver/radio.c ****           SubgRf.PacketParams.Params.Gfsk.HeaderType = ( RadioPacketLengthModes_t ) config->fsk.Len
 3643              		.loc 1 1923 50 is_stmt 0 view .LVU1031
 3644 00b6 0A76     		strb	r2, [r1, #24]
1924:Middlewares/Third_Party/SubGHz_Phy/stm32_radio_driver/radio.c ****         }
 3645              		.loc 1 1924 11 is_stmt 1 view .LVU1032
1924:Middlewares/Third_Party/SubGHz_Phy/stm32_radio_driver/radio.c ****         }
 3646              		.loc 1 1924 54 is_stmt 0 view .LVU1033
 3647 00b8 4B75     		strb	r3, [r1, #21]
 3648 00ba 23E0     		b	.L269
 3649              	.L262:
1888:Middlewares/Third_Party/SubGHz_Phy/stm32_radio_driver/radio.c ****         {
 3650              		.loc 1 1888 14 is_stmt 1 view .LVU1034
1888:Middlewares/Third_Party/SubGHz_Phy/stm32_radio_driver/radio.c ****         {
 3651              		.loc 1 1888 16 is_stmt 0 view .LVU1035
 3652 00bc 022B     		cmp	r3, #2
 3653 00be 03D0     		beq	.L284
1896:Middlewares/Third_Party/SubGHz_Phy/stm32_radio_driver/radio.c ****         }
 3654              		.loc 1 1896 13 is_stmt 1 view .LVU1036
1896:Middlewares/Third_Party/SubGHz_Phy/stm32_radio_driver/radio.c ****         }
 3655              		.loc 1 1896 59 is_stmt 0 view .LVU1037
 3656 00c0 6B4A     		ldr	r2, .L289
 3657 00c2 FF21     		movs	r1, #255
 3658 00c4 9175     		strb	r1, [r2, #22]
 3659 00c6 ECE7     		b	.L263
 3660              	.L284:
1891:Middlewares/Third_Party/SubGHz_Phy/stm32_radio_driver/radio.c ****         }
 3661              		.loc 1 1891 13 is_stmt 1 view .LVU1038
1891:Middlewares/Third_Party/SubGHz_Phy/stm32_radio_driver/radio.c ****         }
 3662              		.loc 1 1891 59 is_stmt 0 view .LVU1039
 3663 00c8 694A     		ldr	r2, .L289
 3664 00ca FF21     		movs	r1, #255
 3665 00cc 9175     		strb	r1, [r2, #22]
 3666 00ce E8E7     		b	.L263
 3667              	.L265:
 3668              	.LBB8:
1902:Middlewares/Third_Party/SubGHz_Phy/stm32_radio_driver/radio.c ****           {
 3669              		.loc 1 1902 11 is_stmt 1 view .LVU1040
ARM GAS  /var/folders/9y/n02fl3g16gnf7ppy14xghdy80000gn/T//cc8eCeeT.s 			page 116


1902:Middlewares/Third_Party/SubGHz_Phy/stm32_radio_driver/radio.c ****           {
 3670              		.loc 1 1902 28 is_stmt 0 view .LVU1041
 3671 00d0 94F82320 		ldrb	r2, [r4, #35]	@ zero_extendqisi2
1902:Middlewares/Third_Party/SubGHz_Phy/stm32_radio_driver/radio.c ****           {
 3672              		.loc 1 1902 70 view .LVU1042
 3673 00d4 02F10F03 		add	r3, r2, #15
 3674 00d8 DBB2     		uxtb	r3, r3
1902:Middlewares/Third_Party/SubGHz_Phy/stm32_radio_driver/radio.c ****           {
 3675              		.loc 1 1902 13 view .LVU1043
 3676 00da 012B     		cmp	r3, #1
 3677 00dc 01D9     		bls	.L267
1902:Middlewares/Third_Party/SubGHz_Phy/stm32_radio_driver/radio.c ****           {
 3678              		.loc 1 1902 129 discriminator 1 view .LVU1044
 3679 00de 012A     		cmp	r2, #1
 3680 00e0 31D1     		bne	.L268
 3681              	.L267:
1906:Middlewares/Third_Party/SubGHz_Phy/stm32_radio_driver/radio.c ****           ConfigGeneric.rtx = CONFIG_RX;
 3682              		.loc 1 1906 11 is_stmt 1 view .LVU1045
1907:Middlewares/Third_Party/SubGHz_Phy/stm32_radio_driver/radio.c ****           ConfigGeneric.RxConfig = config;
 3683              		.loc 1 1907 11 view .LVU1046
1907:Middlewares/Third_Party/SubGHz_Phy/stm32_radio_driver/radio.c ****           ConfigGeneric.RxConfig = config;
 3684              		.loc 1 1907 29 is_stmt 0 view .LVU1047
 3685 00e2 0023     		movs	r3, #0
 3686 00e4 8DF80C30 		strb	r3, [sp, #12]
1908:Middlewares/Third_Party/SubGHz_Phy/stm32_radio_driver/radio.c ****           if( 0UL != RFW_Init( &ConfigGeneric, RadioEvents, &RxTimeoutTimer ) )
 3687              		.loc 1 1908 11 is_stmt 1 view .LVU1048
1908:Middlewares/Third_Party/SubGHz_Phy/stm32_radio_driver/radio.c ****           if( 0UL != RFW_Init( &ConfigGeneric, RadioEvents, &RxTimeoutTimer ) )
 3688              		.loc 1 1908 34 is_stmt 0 view .LVU1049
 3689 00e8 0294     		str	r4, [sp, #8]
1909:Middlewares/Third_Party/SubGHz_Phy/stm32_radio_driver/radio.c ****           {
 3690              		.loc 1 1909 11 is_stmt 1 view .LVU1050
1909:Middlewares/Third_Party/SubGHz_Phy/stm32_radio_driver/radio.c ****           {
 3691              		.loc 1 1909 22 is_stmt 0 view .LVU1051
 3692 00ea 624A     		ldr	r2, .L289+4
 3693 00ec 624B     		ldr	r3, .L289+8
 3694 00ee 1968     		ldr	r1, [r3]
 3695 00f0 01A8     		add	r0, sp, #4
 3696 00f2 FFF7FEFF 		bl	RFW_Init
 3697              	.LVL327:
1909:Middlewares/Third_Party/SubGHz_Phy/stm32_radio_driver/radio.c ****           {
 3698              		.loc 1 1909 13 view .LVU1052
 3699 00f6 30BB     		cbnz	r0, .L268
1914:Middlewares/Third_Party/SubGHz_Phy/stm32_radio_driver/radio.c ****           /* Crc off, Crc processed by FW, switch off built-in radio Crc*/
 3700              		.loc 1 1914 11 is_stmt 1 view .LVU1053
1914:Middlewares/Third_Party/SubGHz_Phy/stm32_radio_driver/radio.c ****           /* Crc off, Crc processed by FW, switch off built-in radio Crc*/
 3701              		.loc 1 1914 50 is_stmt 0 view .LVU1054
 3702 00f8 5D4B     		ldr	r3, .L289
 3703 00fa 0022     		movs	r2, #0
 3704 00fc 1A76     		strb	r2, [r3, #24]
1916:Middlewares/Third_Party/SubGHz_Phy/stm32_radio_driver/radio.c ****           /* Length contained in Tx, but will be processed by FW after de-whitening*/
 3705              		.loc 1 1916 11 is_stmt 1 view .LVU1055
1916:Middlewares/Third_Party/SubGHz_Phy/stm32_radio_driver/radio.c ****           /* Length contained in Tx, but will be processed by FW after de-whitening*/
 3706              		.loc 1 1916 53 is_stmt 0 view .LVU1056
 3707 00fe 0121     		movs	r1, #1
 3708 0100 D975     		strb	r1, [r3, #23]
1918:Middlewares/Third_Party/SubGHz_Phy/stm32_radio_driver/radio.c ****         }
 3709              		.loc 1 1918 11 is_stmt 1 view .LVU1057
ARM GAS  /var/folders/9y/n02fl3g16gnf7ppy14xghdy80000gn/T//cc8eCeeT.s 			page 117


1918:Middlewares/Third_Party/SubGHz_Phy/stm32_radio_driver/radio.c ****         }
 3710              		.loc 1 1918 54 is_stmt 0 view .LVU1058
 3711 0102 5A75     		strb	r2, [r3, #21]
 3712              	.L269:
1918:Middlewares/Third_Party/SubGHz_Phy/stm32_radio_driver/radio.c ****         }
 3713              		.loc 1 1918 54 view .LVU1059
 3714              	.LBE8:
1927:Middlewares/Third_Party/SubGHz_Phy/stm32_radio_driver/radio.c ****         RadioSetModem( MODEM_FSK );
 3715              		.loc 1 1927 9 is_stmt 1 view .LVU1060
 3716 0104 FFF7FEFF 		bl	RadioStandby
 3717              	.LVL328:
1928:Middlewares/Third_Party/SubGHz_Phy/stm32_radio_driver/radio.c ****         SUBGRF_SetModulationParams( &SubgRf.ModulationParams );
 3718              		.loc 1 1928 9 view .LVU1061
 3719 0108 0020     		movs	r0, #0
 3720 010a FFF7FEFF 		bl	RadioSetModem
 3721              	.LVL329:
1929:Middlewares/Third_Party/SubGHz_Phy/stm32_radio_driver/radio.c ****         SUBGRF_SetPacketParams( &SubgRf.PacketParams );
 3722              		.loc 1 1929 9 view .LVU1062
 3723 010e 584D     		ldr	r5, .L289
 3724 0110 05F13800 		add	r0, r5, #56
 3725 0114 FFF7FEFF 		bl	SUBGRF_SetModulationParams
 3726              	.LVL330:
1930:Middlewares/Third_Party/SubGHz_Phy/stm32_radio_driver/radio.c ****         SUBGRF_SetSyncWord( syncword );
 3727              		.loc 1 1930 9 view .LVU1063
 3728 0118 05F10E00 		add	r0, r5, #14
 3729 011c FFF7FEFF 		bl	SUBGRF_SetPacketParams
 3730              	.LVL331:
1931:Middlewares/Third_Party/SubGHz_Phy/stm32_radio_driver/radio.c ****         SUBGRF_SetWhiteningSeed( config->fsk.whiteSeed );
 3731              		.loc 1 1931 9 view .LVU1064
 3732 0120 04A8     		add	r0, sp, #16
 3733 0122 FFF7FEFF 		bl	SUBGRF_SetSyncWord
 3734              	.LVL332:
1932:Middlewares/Third_Party/SubGHz_Phy/stm32_radio_driver/radio.c ****         SUBGRF_SetCrcPolynomial( config->fsk.CrcPolynomial );
 3735              		.loc 1 1932 9 view .LVU1065
 3736 0126 A08B     		ldrh	r0, [r4, #28]
 3737 0128 FFF7FEFF 		bl	SUBGRF_SetWhiteningSeed
 3738              	.LVL333:
1933:Middlewares/Third_Party/SubGHz_Phy/stm32_radio_driver/radio.c ****         /* timeout unused when SubgRf.RxContinuous */
 3739              		.loc 1 1933 9 view .LVU1066
 3740 012c 208B     		ldrh	r0, [r4, #24]
 3741 012e FFF7FEFF 		bl	SUBGRF_SetCrcPolynomial
 3742              	.LVL334:
1935:Middlewares/Third_Party/SubGHz_Phy/stm32_radio_driver/radio.c ****         break;
 3743              		.loc 1 1935 9 view .LVU1067
1935:Middlewares/Third_Party/SubGHz_Phy/stm32_radio_driver/radio.c ****         break;
 3744              		.loc 1 1935 63 is_stmt 0 view .LVU1068
 3745 0132 4FF4FA53 		mov	r3, #8000
 3746 0136 03FB07F7 		mul	r7, r3, r7
 3747              	.LVL335:
1935:Middlewares/Third_Party/SubGHz_Phy/stm32_radio_driver/radio.c ****         break;
 3748              		.loc 1 1935 82 view .LVU1069
 3749 013a A368     		ldr	r3, [r4, #8]
1935:Middlewares/Third_Party/SubGHz_Phy/stm32_radio_driver/radio.c ****         break;
 3750              		.loc 1 1935 28 view .LVU1070
 3751 013c B7FBF3F7 		udiv	r7, r7, r3
1935:Middlewares/Third_Party/SubGHz_Phy/stm32_radio_driver/radio.c ****         break;
 3752              		.loc 1 1935 26 view .LVU1071
ARM GAS  /var/folders/9y/n02fl3g16gnf7ppy14xghdy80000gn/T//cc8eCeeT.s 			page 118


 3753 0140 AF60     		str	r7, [r5, #8]
1936:Middlewares/Third_Party/SubGHz_Phy/stm32_radio_driver/radio.c ****     case GENERIC_LORA:
 3754              		.loc 1 1936 9 is_stmt 1 view .LVU1072
2009:Middlewares/Third_Party/SubGHz_Phy/stm32_radio_driver/radio.c **** #else /* RADIO_GENERIC_CONFIG_ENABLE == 1*/
 3755              		.loc 1 2009 12 is_stmt 0 view .LVU1073
 3756 0142 0020     		movs	r0, #0
1936:Middlewares/Third_Party/SubGHz_Phy/stm32_radio_driver/radio.c ****     case GENERIC_LORA:
 3757              		.loc 1 1936 9 view .LVU1074
 3758 0144 74E7     		b	.L257
 3759              	.LVL336:
 3760              	.L268:
 3761              	.LBB9:
1904:Middlewares/Third_Party/SubGHz_Phy/stm32_radio_driver/radio.c ****           }
 3762              		.loc 1 1904 20 discriminator 1 view .LVU1075
 3763 0146 4FF0FF30 		mov	r0, #-1
 3764 014a 71E7     		b	.L257
 3765              	.L260:
1904:Middlewares/Third_Party/SubGHz_Phy/stm32_radio_driver/radio.c ****           }
 3766              		.loc 1 1904 20 discriminator 1 view .LVU1076
 3767              	.LBE9:
1938:Middlewares/Third_Party/SubGHz_Phy/stm32_radio_driver/radio.c ****         {
 3768              		.loc 1 1938 9 is_stmt 1 view .LVU1077
1938:Middlewares/Third_Party/SubGHz_Phy/stm32_radio_driver/radio.c ****         {
 3769              		.loc 1 1938 25 is_stmt 0 view .LVU1078
 3770 014c 238E     		ldrh	r3, [r4, #48]
1938:Middlewares/Third_Party/SubGHz_Phy/stm32_radio_driver/radio.c ****         {
 3771              		.loc 1 1938 11 view .LVU1079
 3772 014e 002B     		cmp	r3, #0
 3773 0150 00F08B80 		beq	.L281
1943:Middlewares/Third_Party/SubGHz_Phy/stm32_radio_driver/radio.c ****         {
 3774              		.loc 1 1943 9 is_stmt 1 view .LVU1080
1943:Middlewares/Third_Party/SubGHz_Phy/stm32_radio_driver/radio.c ****         {
 3775              		.loc 1 1943 25 is_stmt 0 view .LVU1081
 3776 0154 94F83230 		ldrb	r3, [r4, #50]	@ zero_extendqisi2
1943:Middlewares/Third_Party/SubGHz_Phy/stm32_radio_driver/radio.c ****         {
 3777              		.loc 1 1943 11 view .LVU1082
 3778 0158 012B     		cmp	r3, #1
 3779 015a 55D0     		beq	.L285
1949:Middlewares/Third_Party/SubGHz_Phy/stm32_radio_driver/radio.c ****         }
 3780              		.loc 1 1949 30 view .LVU1083
 3781 015c 4FF0FF08 		mov	r8, #255
 3782              	.L270:
 3783              	.LVL337:
1951:Middlewares/Third_Party/SubGHz_Phy/stm32_radio_driver/radio.c ****         SUBGRF_SetLoRaSymbNumTimeout( symbTimeout );
 3784              		.loc 1 1951 9 is_stmt 1 view .LVU1084
1951:Middlewares/Third_Party/SubGHz_Phy/stm32_radio_driver/radio.c ****         SUBGRF_SetLoRaSymbNumTimeout( symbTimeout );
 3785              		.loc 1 1951 62 is_stmt 0 view .LVU1085
 3786 0160 A06A     		ldr	r0, [r4, #40]
1951:Middlewares/Third_Party/SubGHz_Phy/stm32_radio_driver/radio.c ****         SUBGRF_SetLoRaSymbNumTimeout( symbTimeout );
 3787              		.loc 1 1951 9 view .LVU1086
 3788 0162 0038     		subs	r0, r0, #0
 3789 0164 18BF     		it	ne
 3790 0166 0120     		movne	r0, #1
 3791 0168 FFF7FEFF 		bl	SUBGRF_SetStopRxTimerOnPreambleDetect
 3792              	.LVL338:
1952:Middlewares/Third_Party/SubGHz_Phy/stm32_radio_driver/radio.c **** 
 3793              		.loc 1 1952 9 is_stmt 1 view .LVU1087
ARM GAS  /var/folders/9y/n02fl3g16gnf7ppy14xghdy80000gn/T//cc8eCeeT.s 			page 119


 3794 016c F8B2     		uxtb	r0, r7
 3795 016e FFF7FEFF 		bl	SUBGRF_SetLoRaSymbNumTimeout
 3796              	.LVL339:
1954:Middlewares/Third_Party/SubGHz_Phy/stm32_radio_driver/radio.c ****         SubgRf.ModulationParams.Params.LoRa.SpreadingFactor = ( RadioLoRaSpreadingFactors_t ) confi
 3797              		.loc 1 1954 9 view .LVU1088
1954:Middlewares/Third_Party/SubGHz_Phy/stm32_radio_driver/radio.c ****         SubgRf.ModulationParams.Params.LoRa.SpreadingFactor = ( RadioLoRaSpreadingFactors_t ) confi
 3798              		.loc 1 1954 44 is_stmt 0 view .LVU1089
 3799 0172 3F4B     		ldr	r3, .L289
 3800 0174 0122     		movs	r2, #1
 3801 0176 83F83820 		strb	r2, [r3, #56]
1955:Middlewares/Third_Party/SubGHz_Phy/stm32_radio_driver/radio.c ****         SubgRf.ModulationParams.Params.LoRa.Bandwidth = ( RadioLoRaBandwidths_t ) config->lora.Band
 3802              		.loc 1 1955 9 is_stmt 1 view .LVU1090
1955:Middlewares/Third_Party/SubGHz_Phy/stm32_radio_driver/radio.c ****         SubgRf.ModulationParams.Params.LoRa.Bandwidth = ( RadioLoRaBandwidths_t ) config->lora.Band
 3803              		.loc 1 1955 107 is_stmt 0 view .LVU1091
 3804 017a 94F82C20 		ldrb	r2, [r4, #44]	@ zero_extendqisi2
1955:Middlewares/Third_Party/SubGHz_Phy/stm32_radio_driver/radio.c ****         SubgRf.ModulationParams.Params.LoRa.Bandwidth = ( RadioLoRaBandwidths_t ) config->lora.Band
 3805              		.loc 1 1955 61 view .LVU1092
 3806 017e 83F85020 		strb	r2, [r3, #80]
1956:Middlewares/Third_Party/SubGHz_Phy/stm32_radio_driver/radio.c ****         SubgRf.ModulationParams.Params.LoRa.CodingRate = ( RadioLoRaCodingRates_t ) config->lora.Co
 3807              		.loc 1 1956 9 is_stmt 1 view .LVU1093
1956:Middlewares/Third_Party/SubGHz_Phy/stm32_radio_driver/radio.c ****         SubgRf.ModulationParams.Params.LoRa.CodingRate = ( RadioLoRaCodingRates_t ) config->lora.Co
 3808              		.loc 1 1956 95 is_stmt 0 view .LVU1094
 3809 0182 94F82D20 		ldrb	r2, [r4, #45]	@ zero_extendqisi2
1956:Middlewares/Third_Party/SubGHz_Phy/stm32_radio_driver/radio.c ****         SubgRf.ModulationParams.Params.LoRa.CodingRate = ( RadioLoRaCodingRates_t ) config->lora.Co
 3810              		.loc 1 1956 55 view .LVU1095
 3811 0186 83F85120 		strb	r2, [r3, #81]
1957:Middlewares/Third_Party/SubGHz_Phy/stm32_radio_driver/radio.c ****         switch( config->lora.LowDatarateOptimize )
 3812              		.loc 1 1957 9 is_stmt 1 view .LVU1096
1957:Middlewares/Third_Party/SubGHz_Phy/stm32_radio_driver/radio.c ****         switch( config->lora.LowDatarateOptimize )
 3813              		.loc 1 1957 97 is_stmt 0 view .LVU1097
 3814 018a 94F82E20 		ldrb	r2, [r4, #46]	@ zero_extendqisi2
1957:Middlewares/Third_Party/SubGHz_Phy/stm32_radio_driver/radio.c ****         switch( config->lora.LowDatarateOptimize )
 3815              		.loc 1 1957 56 view .LVU1098
 3816 018e 83F85220 		strb	r2, [r3, #82]
1958:Middlewares/Third_Party/SubGHz_Phy/stm32_radio_driver/radio.c ****         {
 3817              		.loc 1 1958 9 is_stmt 1 view .LVU1099
1958:Middlewares/Third_Party/SubGHz_Phy/stm32_radio_driver/radio.c ****         {
 3818              		.loc 1 1958 29 is_stmt 0 view .LVU1100
 3819 0192 94F82F30 		ldrb	r3, [r4, #47]	@ zero_extendqisi2
 3820 0196 012B     		cmp	r3, #1
 3821 0198 3ED0     		beq	.L271
 3822 019a 022B     		cmp	r3, #2
 3823 019c 41D0     		beq	.L272
 3824 019e B3B3     		cbz	r3, .L286
 3825              	.L273:
1980:Middlewares/Third_Party/SubGHz_Phy/stm32_radio_driver/radio.c ****         SubgRf.PacketParams.Params.LoRa.PreambleLength = config->lora.PreambleLen;
 3826              		.loc 1 1980 9 is_stmt 1 view .LVU1101
1980:Middlewares/Third_Party/SubGHz_Phy/stm32_radio_driver/radio.c ****         SubgRf.PacketParams.Params.LoRa.PreambleLength = config->lora.PreambleLen;
 3827              		.loc 1 1980 40 is_stmt 0 view .LVU1102
 3828 01a0 334D     		ldr	r5, .L289
 3829 01a2 0126     		movs	r6, #1
 3830 01a4 AE73     		strb	r6, [r5, #14]
1981:Middlewares/Third_Party/SubGHz_Phy/stm32_radio_driver/radio.c ****         SubgRf.PacketParams.Params.LoRa.HeaderType = ( RadioLoRaPacketLengthsMode_t ) config->lora.
 3831              		.loc 1 1981 9 is_stmt 1 view .LVU1103
1981:Middlewares/Third_Party/SubGHz_Phy/stm32_radio_driver/radio.c ****         SubgRf.PacketParams.Params.LoRa.HeaderType = ( RadioLoRaPacketLengthsMode_t ) config->lora.
 3832              		.loc 1 1981 70 is_stmt 0 view .LVU1104
 3833 01a6 238E     		ldrh	r3, [r4, #48]
ARM GAS  /var/folders/9y/n02fl3g16gnf7ppy14xghdy80000gn/T//cc8eCeeT.s 			page 120


1981:Middlewares/Third_Party/SubGHz_Phy/stm32_radio_driver/radio.c ****         SubgRf.PacketParams.Params.LoRa.HeaderType = ( RadioLoRaPacketLengthsMode_t ) config->lora.
 3834              		.loc 1 1981 56 view .LVU1105
 3835 01a8 AB83     		strh	r3, [r5, #28]	@ movhi
1982:Middlewares/Third_Party/SubGHz_Phy/stm32_radio_driver/radio.c ****         SubgRf.PacketParams.Params.LoRa.PayloadLength = MaxPayloadLength;
 3836              		.loc 1 1982 9 is_stmt 1 view .LVU1106
1982:Middlewares/Third_Party/SubGHz_Phy/stm32_radio_driver/radio.c ****         SubgRf.PacketParams.Params.LoRa.PayloadLength = MaxPayloadLength;
 3837              		.loc 1 1982 99 is_stmt 0 view .LVU1107
 3838 01aa 94F83230 		ldrb	r3, [r4, #50]	@ zero_extendqisi2
1982:Middlewares/Third_Party/SubGHz_Phy/stm32_radio_driver/radio.c ****         SubgRf.PacketParams.Params.LoRa.PayloadLength = MaxPayloadLength;
 3839              		.loc 1 1982 52 view .LVU1108
 3840 01ae AB77     		strb	r3, [r5, #30]
1983:Middlewares/Third_Party/SubGHz_Phy/stm32_radio_driver/radio.c ****         SubgRf.PacketParams.Params.LoRa.CrcMode = ( RadioLoRaCrcModes_t ) config->lora.CrcMode;
 3841              		.loc 1 1983 9 is_stmt 1 view .LVU1109
1983:Middlewares/Third_Party/SubGHz_Phy/stm32_radio_driver/radio.c ****         SubgRf.PacketParams.Params.LoRa.CrcMode = ( RadioLoRaCrcModes_t ) config->lora.CrcMode;
 3842              		.loc 1 1983 55 is_stmt 0 view .LVU1110
 3843 01b0 85F81F80 		strb	r8, [r5, #31]
1984:Middlewares/Third_Party/SubGHz_Phy/stm32_radio_driver/radio.c ****         SubgRf.PacketParams.Params.LoRa.InvertIQ = ( RadioLoRaIQModes_t ) config->lora.IqInverted;
 3844              		.loc 1 1984 9 is_stmt 1 view .LVU1111
1984:Middlewares/Third_Party/SubGHz_Phy/stm32_radio_driver/radio.c ****         SubgRf.PacketParams.Params.LoRa.InvertIQ = ( RadioLoRaIQModes_t ) config->lora.IqInverted;
 3845              		.loc 1 1984 87 is_stmt 0 view .LVU1112
 3846 01b4 94F83430 		ldrb	r3, [r4, #52]	@ zero_extendqisi2
1984:Middlewares/Third_Party/SubGHz_Phy/stm32_radio_driver/radio.c ****         SubgRf.PacketParams.Params.LoRa.InvertIQ = ( RadioLoRaIQModes_t ) config->lora.IqInverted;
 3847              		.loc 1 1984 49 view .LVU1113
 3848 01b8 85F82030 		strb	r3, [r5, #32]
1985:Middlewares/Third_Party/SubGHz_Phy/stm32_radio_driver/radio.c **** 
 3849              		.loc 1 1985 9 is_stmt 1 view .LVU1114
1985:Middlewares/Third_Party/SubGHz_Phy/stm32_radio_driver/radio.c **** 
 3850              		.loc 1 1985 87 is_stmt 0 view .LVU1115
 3851 01bc 94F83530 		ldrb	r3, [r4, #53]	@ zero_extendqisi2
1985:Middlewares/Third_Party/SubGHz_Phy/stm32_radio_driver/radio.c **** 
 3852              		.loc 1 1985 50 view .LVU1116
 3853 01c0 85F82130 		strb	r3, [r5, #33]
1987:Middlewares/Third_Party/SubGHz_Phy/stm32_radio_driver/radio.c ****         RadioSetModem( MODEM_LORA );
 3854              		.loc 1 1987 9 is_stmt 1 view .LVU1117
 3855 01c4 FFF7FEFF 		bl	RadioStandby
 3856              	.LVL340:
1988:Middlewares/Third_Party/SubGHz_Phy/stm32_radio_driver/radio.c ****         SUBGRF_SetModulationParams( &SubgRf.ModulationParams );
 3857              		.loc 1 1988 9 view .LVU1118
 3858 01c8 3046     		mov	r0, r6
 3859 01ca FFF7FEFF 		bl	RadioSetModem
 3860              	.LVL341:
1989:Middlewares/Third_Party/SubGHz_Phy/stm32_radio_driver/radio.c ****         SUBGRF_SetPacketParams( &SubgRf.PacketParams );
 3861              		.loc 1 1989 9 view .LVU1119
 3862 01ce 05F13800 		add	r0, r5, #56
 3863 01d2 FFF7FEFF 		bl	SUBGRF_SetModulationParams
 3864              	.LVL342:
1990:Middlewares/Third_Party/SubGHz_Phy/stm32_radio_driver/radio.c **** 
 3865              		.loc 1 1990 9 view .LVU1120
 3866 01d6 05F10E00 		add	r0, r5, #14
 3867 01da FFF7FEFF 		bl	SUBGRF_SetPacketParams
 3868              	.LVL343:
1993:Middlewares/Third_Party/SubGHz_Phy/stm32_radio_driver/radio.c ****         {
 3869              		.loc 1 1993 9 view .LVU1121
1993:Middlewares/Third_Party/SubGHz_Phy/stm32_radio_driver/radio.c ****         {
 3870              		.loc 1 1993 44 is_stmt 0 view .LVU1122
 3871 01de 95F82130 		ldrb	r3, [r5, #33]	@ zero_extendqisi2
1993:Middlewares/Third_Party/SubGHz_Phy/stm32_radio_driver/radio.c ****         {
ARM GAS  /var/folders/9y/n02fl3g16gnf7ppy14xghdy80000gn/T//cc8eCeeT.s 			page 121


 3872              		.loc 1 1993 11 view .LVU1123
 3873 01e2 B342     		cmp	r3, r6
 3874 01e4 2DD0     		beq	.L287
1999:Middlewares/Third_Party/SubGHz_Phy/stm32_radio_driver/radio.c ****         }
 3875              		.loc 1 1999 13 is_stmt 1 view .LVU1124
1999:Middlewares/Third_Party/SubGHz_Phy/stm32_radio_driver/radio.c ****         }
 3876              		.loc 1 1999 51 is_stmt 0 view .LVU1125
 3877 01e6 40F23670 		movw	r0, #1846
 3878 01ea FFF7FEFF 		bl	SUBGRF_ReadRegister
 3879              	.LVL344:
1999:Middlewares/Third_Party/SubGHz_Phy/stm32_radio_driver/radio.c ****         }
 3880              		.loc 1 1999 13 view .LVU1126
 3881 01ee 40F00401 		orr	r1, r0, #4
 3882 01f2 C9B2     		uxtb	r1, r1
 3883 01f4 40F23670 		movw	r0, #1846
 3884 01f8 FFF7FEFF 		bl	SUBGRF_WriteRegister
 3885              	.LVL345:
 3886              	.L276:
2004:Middlewares/Third_Party/SubGHz_Phy/stm32_radio_driver/radio.c ****         break;
 3887              		.loc 1 2004 9 is_stmt 1 view .LVU1127
2004:Middlewares/Third_Party/SubGHz_Phy/stm32_radio_driver/radio.c ****         break;
 3888              		.loc 1 2004 26 is_stmt 0 view .LVU1128
 3889 01fc 1C4B     		ldr	r3, .L289
 3890 01fe 4FF6FF72 		movw	r2, #65535
 3891 0202 9A60     		str	r2, [r3, #8]
2005:Middlewares/Third_Party/SubGHz_Phy/stm32_radio_driver/radio.c ****     default:
 3892              		.loc 1 2005 9 is_stmt 1 view .LVU1129
2009:Middlewares/Third_Party/SubGHz_Phy/stm32_radio_driver/radio.c **** #else /* RADIO_GENERIC_CONFIG_ENABLE == 1*/
 3893              		.loc 1 2009 12 is_stmt 0 view .LVU1130
 3894 0204 0020     		movs	r0, #0
2005:Middlewares/Third_Party/SubGHz_Phy/stm32_radio_driver/radio.c ****     default:
 3895              		.loc 1 2005 9 view .LVU1131
 3896 0206 13E7     		b	.L257
 3897              	.LVL346:
 3898              	.L285:
1945:Middlewares/Third_Party/SubGHz_Phy/stm32_radio_driver/radio.c ****         }
 3899              		.loc 1 1945 13 is_stmt 1 view .LVU1132
1945:Middlewares/Third_Party/SubGHz_Phy/stm32_radio_driver/radio.c ****         }
 3900              		.loc 1 1945 30 is_stmt 0 view .LVU1133
 3901 0208 94F81480 		ldrb	r8, [r4, #20]	@ zero_extendqisi2
 3902              	.LVL347:
1945:Middlewares/Third_Party/SubGHz_Phy/stm32_radio_driver/radio.c ****         }
 3903              		.loc 1 1945 30 view .LVU1134
 3904 020c A8E7     		b	.L270
 3905              	.L286:
1961:Middlewares/Third_Party/SubGHz_Phy/stm32_radio_driver/radio.c ****             break;
 3906              		.loc 1 1961 13 is_stmt 1 view .LVU1135
1961:Middlewares/Third_Party/SubGHz_Phy/stm32_radio_driver/radio.c ****             break;
 3907              		.loc 1 1961 69 is_stmt 0 view .LVU1136
 3908 020e 184B     		ldr	r3, .L289
 3909 0210 0022     		movs	r2, #0
 3910 0212 83F85320 		strb	r2, [r3, #83]
1962:Middlewares/Third_Party/SubGHz_Phy/stm32_radio_driver/radio.c ****         case RADIO_LORA_LOWDR_OPT_ON:
 3911              		.loc 1 1962 13 is_stmt 1 view .LVU1137
 3912 0216 C3E7     		b	.L273
 3913              	.L271:
1964:Middlewares/Third_Party/SubGHz_Phy/stm32_radio_driver/radio.c ****             break;
ARM GAS  /var/folders/9y/n02fl3g16gnf7ppy14xghdy80000gn/T//cc8eCeeT.s 			page 122


 3914              		.loc 1 1964 13 view .LVU1138
1964:Middlewares/Third_Party/SubGHz_Phy/stm32_radio_driver/radio.c ****             break;
 3915              		.loc 1 1964 69 is_stmt 0 view .LVU1139
 3916 0218 154B     		ldr	r3, .L289
 3917 021a 0122     		movs	r2, #1
 3918 021c 83F85320 		strb	r2, [r3, #83]
1965:Middlewares/Third_Party/SubGHz_Phy/stm32_radio_driver/radio.c ****         case RADIO_LORA_LOWDR_OPT_AUTO:
 3919              		.loc 1 1965 13 is_stmt 1 view .LVU1140
 3920 0220 BEE7     		b	.L273
 3921              	.L272:
1967:Middlewares/Third_Party/SubGHz_Phy/stm32_radio_driver/radio.c ****             {
 3922              		.loc 1 1967 13 view .LVU1141
1967:Middlewares/Third_Party/SubGHz_Phy/stm32_radio_driver/radio.c ****             {
 3923              		.loc 1 1967 31 is_stmt 0 view .LVU1142
 3924 0222 94F82C30 		ldrb	r3, [r4, #44]	@ zero_extendqisi2
1967:Middlewares/Third_Party/SubGHz_Phy/stm32_radio_driver/radio.c ****             {
 3925              		.loc 1 1967 69 view .LVU1143
 3926 0226 0B3B     		subs	r3, r3, #11
 3927 0228 DBB2     		uxtb	r3, r3
1967:Middlewares/Third_Party/SubGHz_Phy/stm32_radio_driver/radio.c ****             {
 3928              		.loc 1 1967 15 view .LVU1144
 3929 022a 012B     		cmp	r3, #1
 3930 022c 04D9     		bls	.L288
1973:Middlewares/Third_Party/SubGHz_Phy/stm32_radio_driver/radio.c ****             }
 3931              		.loc 1 1973 17 is_stmt 1 view .LVU1145
1973:Middlewares/Third_Party/SubGHz_Phy/stm32_radio_driver/radio.c ****             }
 3932              		.loc 1 1973 73 is_stmt 0 view .LVU1146
 3933 022e 104B     		ldr	r3, .L289
 3934 0230 0022     		movs	r2, #0
 3935 0232 83F85320 		strb	r2, [r3, #83]
 3936 0236 B3E7     		b	.L273
 3937              	.L288:
1969:Middlewares/Third_Party/SubGHz_Phy/stm32_radio_driver/radio.c ****             }
 3938              		.loc 1 1969 17 is_stmt 1 view .LVU1147
1969:Middlewares/Third_Party/SubGHz_Phy/stm32_radio_driver/radio.c ****             }
 3939              		.loc 1 1969 73 is_stmt 0 view .LVU1148
 3940 0238 0D4B     		ldr	r3, .L289
 3941 023a 0122     		movs	r2, #1
 3942 023c 83F85320 		strb	r2, [r3, #83]
 3943 0240 AEE7     		b	.L273
 3944              	.L287:
1995:Middlewares/Third_Party/SubGHz_Phy/stm32_radio_driver/radio.c ****         }
 3945              		.loc 1 1995 13 is_stmt 1 view .LVU1149
1995:Middlewares/Third_Party/SubGHz_Phy/stm32_radio_driver/radio.c ****         }
 3946              		.loc 1 1995 51 is_stmt 0 view .LVU1150
 3947 0242 40F23670 		movw	r0, #1846
 3948 0246 FFF7FEFF 		bl	SUBGRF_ReadRegister
 3949              	.LVL348:
1995:Middlewares/Third_Party/SubGHz_Phy/stm32_radio_driver/radio.c ****         }
 3950              		.loc 1 1995 13 view .LVU1151
 3951 024a 00F0FB01 		and	r1, r0, #251
 3952 024e 40F23670 		movw	r0, #1846
 3953 0252 FFF7FEFF 		bl	SUBGRF_WriteRegister
 3954              	.LVL349:
 3955 0256 D1E7     		b	.L276
 3956              	.LVL350:
 3957              	.L278:
ARM GAS  /var/folders/9y/n02fl3g16gnf7ppy14xghdy80000gn/T//cc8eCeeT.s 			page 123


1860:Middlewares/Third_Party/SubGHz_Phy/stm32_radio_driver/radio.c ****         }
 3958              		.loc 1 1860 20 view .LVU1152
 3959 0258 4FF0FF30 		mov	r0, #-1
 3960 025c E8E6     		b	.L257
 3961              	.L279:
 3962 025e 4FF0FF30 		mov	r0, #-1
 3963 0262 E5E6     		b	.L257
 3964              	.L280:
1864:Middlewares/Third_Party/SubGHz_Phy/stm32_radio_driver/radio.c ****         }
 3965              		.loc 1 1864 20 view .LVU1153
 3966 0264 4FF0FF30 		mov	r0, #-1
 3967 0268 E2E6     		b	.L257
 3968              	.L281:
1940:Middlewares/Third_Party/SubGHz_Phy/stm32_radio_driver/radio.c ****         }
 3969              		.loc 1 1940 20 view .LVU1154
 3970 026a 4FF0FF30 		mov	r0, #-1
 3971 026e DFE6     		b	.L257
 3972              	.L290:
 3973              		.align	2
 3974              	.L289:
 3975 0270 00000000 		.word	.LANCHOR3
 3976 0274 00000000 		.word	.LANCHOR4
 3977 0278 00000000 		.word	.LANCHOR1
 3978              		.cfi_endproc
 3979              	.LFE1201:
 3981              		.section	.text.RadioSetPublicNetwork,"ax",%progbits
 3982              		.align	1
 3983              		.syntax unified
 3984              		.thumb
 3985              		.thumb_func
 3986              		.fpu softvfp
 3988              	RadioSetPublicNetwork:
 3989              	.LVL351:
 3990              	.LFB1190:
1550:Middlewares/Third_Party/SubGHz_Phy/stm32_radio_driver/radio.c ****     SubgRf.PublicNetwork.Current = SubgRf.PublicNetwork.Previous = enable;
 3991              		.loc 1 1550 1 is_stmt 1 view -0
 3992              		.cfi_startproc
 3993              		@ args = 0, pretend = 0, frame = 0
 3994              		@ frame_needed = 0, uses_anonymous_args = 0
1550:Middlewares/Third_Party/SubGHz_Phy/stm32_radio_driver/radio.c ****     SubgRf.PublicNetwork.Current = SubgRf.PublicNetwork.Previous = enable;
 3995              		.loc 1 1550 1 is_stmt 0 view .LVU1156
 3996 0000 10B5     		push	{r4, lr}
 3997              		.cfi_def_cfa_offset 8
 3998              		.cfi_offset 4, -8
 3999              		.cfi_offset 14, -4
 4000 0002 0446     		mov	r4, r0
1551:Middlewares/Third_Party/SubGHz_Phy/stm32_radio_driver/radio.c **** 
 4001              		.loc 1 1551 5 is_stmt 1 view .LVU1157
1551:Middlewares/Third_Party/SubGHz_Phy/stm32_radio_driver/radio.c **** 
 4002              		.loc 1 1551 66 is_stmt 0 view .LVU1158
 4003 0004 0E4B     		ldr	r3, .L295
 4004 0006 1873     		strb	r0, [r3, #12]
1551:Middlewares/Third_Party/SubGHz_Phy/stm32_radio_driver/radio.c **** 
 4005              		.loc 1 1551 34 view .LVU1159
 4006 0008 5873     		strb	r0, [r3, #13]
1553:Middlewares/Third_Party/SubGHz_Phy/stm32_radio_driver/radio.c ****     if( enable == true )
 4007              		.loc 1 1553 5 is_stmt 1 view .LVU1160
ARM GAS  /var/folders/9y/n02fl3g16gnf7ppy14xghdy80000gn/T//cc8eCeeT.s 			page 124


 4008 000a 0120     		movs	r0, #1
 4009              	.LVL352:
1553:Middlewares/Third_Party/SubGHz_Phy/stm32_radio_driver/radio.c ****     if( enable == true )
 4010              		.loc 1 1553 5 is_stmt 0 view .LVU1161
 4011 000c FFF7FEFF 		bl	RadioSetModem
 4012              	.LVL353:
1554:Middlewares/Third_Party/SubGHz_Phy/stm32_radio_driver/radio.c ****     {
 4013              		.loc 1 1554 5 is_stmt 1 view .LVU1162
1554:Middlewares/Third_Party/SubGHz_Phy/stm32_radio_driver/radio.c ****     {
 4014              		.loc 1 1554 7 is_stmt 0 view .LVU1163
 4015 0010 54B1     		cbz	r4, .L292
1557:Middlewares/Third_Party/SubGHz_Phy/stm32_radio_driver/radio.c ****         SUBGRF_WriteRegister( REG_LR_SYNCWORD + 1, LORA_MAC_PUBLIC_SYNCWORD & 0xFF );
 4016              		.loc 1 1557 9 is_stmt 1 view .LVU1164
 4017 0012 3421     		movs	r1, #52
 4018 0014 4FF4E860 		mov	r0, #1856
 4019 0018 FFF7FEFF 		bl	SUBGRF_WriteRegister
 4020              	.LVL354:
1558:Middlewares/Third_Party/SubGHz_Phy/stm32_radio_driver/radio.c ****     }
 4021              		.loc 1 1558 9 view .LVU1165
 4022 001c 4421     		movs	r1, #68
 4023 001e 40F24170 		movw	r0, #1857
 4024 0022 FFF7FEFF 		bl	SUBGRF_WriteRegister
 4025              	.LVL355:
 4026              	.L291:
1566:Middlewares/Third_Party/SubGHz_Phy/stm32_radio_driver/radio.c **** 
 4027              		.loc 1 1566 1 is_stmt 0 view .LVU1166
 4028 0026 10BD     		pop	{r4, pc}
 4029              	.L292:
1563:Middlewares/Third_Party/SubGHz_Phy/stm32_radio_driver/radio.c ****         SUBGRF_WriteRegister( REG_LR_SYNCWORD + 1, LORA_MAC_PRIVATE_SYNCWORD & 0xFF );
 4030              		.loc 1 1563 9 is_stmt 1 view .LVU1167
 4031 0028 1421     		movs	r1, #20
 4032 002a 4FF4E860 		mov	r0, #1856
 4033 002e FFF7FEFF 		bl	SUBGRF_WriteRegister
 4034              	.LVL356:
1564:Middlewares/Third_Party/SubGHz_Phy/stm32_radio_driver/radio.c ****     }
 4035              		.loc 1 1564 9 view .LVU1168
 4036 0032 2421     		movs	r1, #36
 4037 0034 40F24170 		movw	r0, #1857
 4038 0038 FFF7FEFF 		bl	SUBGRF_WriteRegister
 4039              	.LVL357:
1566:Middlewares/Third_Party/SubGHz_Phy/stm32_radio_driver/radio.c **** 
 4040              		.loc 1 1566 1 is_stmt 0 view .LVU1169
 4041 003c F3E7     		b	.L291
 4042              	.L296:
 4043 003e 00BF     		.align	2
 4044              	.L295:
 4045 0040 00000000 		.word	.LANCHOR3
 4046              		.cfi_endproc
 4047              	.LFE1190:
 4049              		.section	.text.RadioSetTxConfig,"ax",%progbits
 4050              		.align	1
 4051              		.syntax unified
 4052              		.thumb
 4053              		.thumb_func
 4054              		.fpu softvfp
 4056              	RadioSetTxConfig:
 4057              	.LVL358:
ARM GAS  /var/folders/9y/n02fl3g16gnf7ppy14xghdy80000gn/T//cc8eCeeT.s 			page 125


 4058              	.LFB1170:
1013:Middlewares/Third_Party/SubGHz_Phy/stm32_radio_driver/radio.c ****     RFW_DeInit(); /* ST_WORKAROUND: Switch Off FwPacketDecoding by default */
 4059              		.loc 1 1013 1 is_stmt 1 view -0
 4060              		.cfi_startproc
 4061              		@ args = 36, pretend = 0, frame = 8
 4062              		@ frame_needed = 0, uses_anonymous_args = 0
1013:Middlewares/Third_Party/SubGHz_Phy/stm32_radio_driver/radio.c ****     RFW_DeInit(); /* ST_WORKAROUND: Switch Off FwPacketDecoding by default */
 4063              		.loc 1 1013 1 is_stmt 0 view .LVU1171
 4064 0000 2DE9F04F 		push	{r4, r5, r6, r7, r8, r9, r10, fp, lr}
 4065              		.cfi_def_cfa_offset 36
 4066              		.cfi_offset 4, -36
 4067              		.cfi_offset 5, -32
 4068              		.cfi_offset 6, -28
 4069              		.cfi_offset 7, -24
 4070              		.cfi_offset 8, -20
 4071              		.cfi_offset 9, -16
 4072              		.cfi_offset 10, -12
 4073              		.cfi_offset 11, -8
 4074              		.cfi_offset 14, -4
 4075 0004 83B0     		sub	sp, sp, #12
 4076              		.cfi_def_cfa_offset 48
 4077 0006 0446     		mov	r4, r0
 4078 0008 0D46     		mov	r5, r1
 4079 000a 9146     		mov	r9, r2
 4080 000c 1F46     		mov	r7, r3
 4081 000e BDF83860 		ldrh	r6, [sp, #56]
 4082 0012 9DF83C80 		ldrb	r8, [sp, #60]	@ zero_extendqisi2
 4083 0016 9DF840A0 		ldrb	r10, [sp, #64]	@ zero_extendqisi2
1014:Middlewares/Third_Party/SubGHz_Phy/stm32_radio_driver/radio.c ****     switch( modem )
 4084              		.loc 1 1014 5 is_stmt 1 view .LVU1172
 4085 001a FFF7FEFF 		bl	RFW_DeInit
 4086              	.LVL359:
1015:Middlewares/Third_Party/SubGHz_Phy/stm32_radio_driver/radio.c ****     {
 4087              		.loc 1 1015 5 view .LVU1173
 4088 001e 012C     		cmp	r4, #1
 4089 0020 56D0     		beq	.L298
 4090 0022 042C     		cmp	r4, #4
 4091 0024 00F0A380 		beq	.L299
 4092 0028 64B1     		cbz	r4, .L311
 4093              	.L300:
1107:Middlewares/Third_Party/SubGHz_Phy/stm32_radio_driver/radio.c ****     RFW_SetAntSwitch( SubgRf.AntSwitchPaSelect ); /* ST_WORKAROUND: ?????? */
 4094              		.loc 1 1107 5 view .LVU1174
1107:Middlewares/Third_Party/SubGHz_Phy/stm32_radio_driver/radio.c ****     RFW_SetAntSwitch( SubgRf.AntSwitchPaSelect ); /* ST_WORKAROUND: ?????? */
 4095              		.loc 1 1107 32 is_stmt 0 view .LVU1175
 4096 002a 2846     		mov	r0, r5
 4097 002c FFF7FEFF 		bl	SUBGRF_SetRfTxPower
 4098              	.LVL360:
1107:Middlewares/Third_Party/SubGHz_Phy/stm32_radio_driver/radio.c ****     RFW_SetAntSwitch( SubgRf.AntSwitchPaSelect ); /* ST_WORKAROUND: ?????? */
 4099              		.loc 1 1107 30 view .LVU1176
 4100 0030 574C     		ldr	r4, .L314
 4101 0032 84F85600 		strb	r0, [r4, #86]
1108:Middlewares/Third_Party/SubGHz_Phy/stm32_radio_driver/radio.c ****     SubgRf.TxTimeout = timeout;
 4102              		.loc 1 1108 5 is_stmt 1 view .LVU1177
 4103 0036 FFF7FEFF 		bl	RFW_SetAntSwitch
 4104              	.LVL361:
1109:Middlewares/Third_Party/SubGHz_Phy/stm32_radio_driver/radio.c **** }
 4105              		.loc 1 1109 5 view .LVU1178
ARM GAS  /var/folders/9y/n02fl3g16gnf7ppy14xghdy80000gn/T//cc8eCeeT.s 			page 126


1109:Middlewares/Third_Party/SubGHz_Phy/stm32_radio_driver/radio.c **** }
 4106              		.loc 1 1109 22 is_stmt 0 view .LVU1179
 4107 003a 149B     		ldr	r3, [sp, #80]
 4108 003c 6360     		str	r3, [r4, #4]
1110:Middlewares/Third_Party/SubGHz_Phy/stm32_radio_driver/radio.c **** 
 4109              		.loc 1 1110 1 view .LVU1180
 4110 003e 03B0     		add	sp, sp, #12
 4111              		.cfi_remember_state
 4112              		.cfi_def_cfa_offset 36
 4113              		@ sp needed
 4114 0040 BDE8F08F 		pop	{r4, r5, r6, r7, r8, r9, r10, fp, pc}
 4115              	.LVL362:
 4116              	.L311:
 4117              		.cfi_restore_state
 4118              	.LBB10:
1018:Middlewares/Third_Party/SubGHz_Phy/stm32_radio_driver/radio.c ****             SubgRf.ModulationParams.Params.Gfsk.BitRate = datarate;
 4119              		.loc 1 1018 13 is_stmt 1 view .LVU1181
1018:Middlewares/Third_Party/SubGHz_Phy/stm32_radio_driver/radio.c ****             SubgRf.ModulationParams.Params.Gfsk.BitRate = datarate;
 4120              		.loc 1 1018 48 is_stmt 0 view .LVU1182
 4121 0044 524C     		ldr	r4, .L314
 4122 0046 4FF0000B 		mov	fp, #0
 4123 004a 84F838B0 		strb	fp, [r4, #56]
1019:Middlewares/Third_Party/SubGHz_Phy/stm32_radio_driver/radio.c **** 
 4124              		.loc 1 1019 13 is_stmt 1 view .LVU1183
1019:Middlewares/Third_Party/SubGHz_Phy/stm32_radio_driver/radio.c **** 
 4125              		.loc 1 1019 57 is_stmt 0 view .LVU1184
 4126 004e 0C9B     		ldr	r3, [sp, #48]
 4127 0050 E363     		str	r3, [r4, #60]
1021:Middlewares/Third_Party/SubGHz_Phy/stm32_radio_driver/radio.c ****             SubgRf.ModulationParams.Params.Gfsk.Bandwidth = SUBGRF_GetFskBandwidthRegValue( bandwid
 4128              		.loc 1 1021 13 is_stmt 1 view .LVU1185
1021:Middlewares/Third_Party/SubGHz_Phy/stm32_radio_driver/radio.c ****             SubgRf.ModulationParams.Params.Gfsk.Bandwidth = SUBGRF_GetFskBandwidthRegValue( bandwid
 4129              		.loc 1 1021 67 is_stmt 0 view .LVU1186
 4130 0052 0B23     		movs	r3, #11
 4131 0054 84F84430 		strb	r3, [r4, #68]
1022:Middlewares/Third_Party/SubGHz_Phy/stm32_radio_driver/radio.c ****             SubgRf.ModulationParams.Params.Gfsk.Fdev = fdev;
 4132              		.loc 1 1022 13 is_stmt 1 view .LVU1187
1022:Middlewares/Third_Party/SubGHz_Phy/stm32_radio_driver/radio.c ****             SubgRf.ModulationParams.Params.Gfsk.Fdev = fdev;
 4133              		.loc 1 1022 61 is_stmt 0 view .LVU1188
 4134 0058 3846     		mov	r0, r7
 4135 005a FFF7FEFF 		bl	SUBGRF_GetFskBandwidthRegValue
 4136              	.LVL363:
1022:Middlewares/Third_Party/SubGHz_Phy/stm32_radio_driver/radio.c ****             SubgRf.ModulationParams.Params.Gfsk.Fdev = fdev;
 4137              		.loc 1 1022 59 view .LVU1189
 4138 005e 84F84500 		strb	r0, [r4, #69]
1023:Middlewares/Third_Party/SubGHz_Phy/stm32_radio_driver/radio.c **** 
 4139              		.loc 1 1023 13 is_stmt 1 view .LVU1190
1023:Middlewares/Third_Party/SubGHz_Phy/stm32_radio_driver/radio.c **** 
 4140              		.loc 1 1023 54 is_stmt 0 view .LVU1191
 4141 0062 C4F84090 		str	r9, [r4, #64]
1025:Middlewares/Third_Party/SubGHz_Phy/stm32_radio_driver/radio.c ****             SubgRf.PacketParams.Params.Gfsk.PreambleLength = ( preambleLen << 3 ); // convert byte 
 4142              		.loc 1 1025 13 is_stmt 1 view .LVU1192
1025:Middlewares/Third_Party/SubGHz_Phy/stm32_radio_driver/radio.c ****             SubgRf.PacketParams.Params.Gfsk.PreambleLength = ( preambleLen << 3 ); // convert byte 
 4143              		.loc 1 1025 44 is_stmt 0 view .LVU1193
 4144 0066 84F80EB0 		strb	fp, [r4, #14]
1026:Middlewares/Third_Party/SubGHz_Phy/stm32_radio_driver/radio.c ****             SubgRf.PacketParams.Params.Gfsk.PreambleMinDetect = RADIO_PREAMBLE_DETECTOR_08_BITS;
 4145              		.loc 1 1026 13 is_stmt 1 view .LVU1194
1026:Middlewares/Third_Party/SubGHz_Phy/stm32_radio_driver/radio.c ****             SubgRf.PacketParams.Params.Gfsk.PreambleMinDetect = RADIO_PREAMBLE_DETECTOR_08_BITS;
ARM GAS  /var/folders/9y/n02fl3g16gnf7ppy14xghdy80000gn/T//cc8eCeeT.s 			page 127


 4146              		.loc 1 1026 76 is_stmt 0 view .LVU1195
 4147 006a F600     		lsls	r6, r6, #3
1026:Middlewares/Third_Party/SubGHz_Phy/stm32_radio_driver/radio.c ****             SubgRf.PacketParams.Params.Gfsk.PreambleMinDetect = RADIO_PREAMBLE_DETECTOR_08_BITS;
 4148              		.loc 1 1026 60 view .LVU1196
 4149 006c 2682     		strh	r6, [r4, #16]	@ movhi
1027:Middlewares/Third_Party/SubGHz_Phy/stm32_radio_driver/radio.c ****             SubgRf.PacketParams.Params.Gfsk.SyncWordLength = 3 << 3 ; // convert byte into bit
 4150              		.loc 1 1027 13 is_stmt 1 view .LVU1197
1027:Middlewares/Third_Party/SubGHz_Phy/stm32_radio_driver/radio.c ****             SubgRf.PacketParams.Params.Gfsk.SyncWordLength = 3 << 3 ; // convert byte into bit
 4151              		.loc 1 1027 63 is_stmt 0 view .LVU1198
 4152 006e 0423     		movs	r3, #4
 4153 0070 A374     		strb	r3, [r4, #18]
1028:Middlewares/Third_Party/SubGHz_Phy/stm32_radio_driver/radio.c ****             SubgRf.PacketParams.Params.Gfsk.AddrComp = RADIO_ADDRESSCOMP_FILT_OFF;
 4154              		.loc 1 1028 13 is_stmt 1 view .LVU1199
1028:Middlewares/Third_Party/SubGHz_Phy/stm32_radio_driver/radio.c ****             SubgRf.PacketParams.Params.Gfsk.AddrComp = RADIO_ADDRESSCOMP_FILT_OFF;
 4155              		.loc 1 1028 60 is_stmt 0 view .LVU1200
 4156 0072 1823     		movs	r3, #24
 4157 0074 E374     		strb	r3, [r4, #19]
1029:Middlewares/Third_Party/SubGHz_Phy/stm32_radio_driver/radio.c ****             SubgRf.PacketParams.Params.Gfsk.HeaderType = ( fixLen == true ) ? RADIO_PACKET_FIXED_LE
 4158              		.loc 1 1029 13 is_stmt 1 view .LVU1201
1029:Middlewares/Third_Party/SubGHz_Phy/stm32_radio_driver/radio.c ****             SubgRf.PacketParams.Params.Gfsk.HeaderType = ( fixLen == true ) ? RADIO_PACKET_FIXED_LE
 4159              		.loc 1 1029 54 is_stmt 0 view .LVU1202
 4160 0076 84F814B0 		strb	fp, [r4, #20]
1030:Middlewares/Third_Party/SubGHz_Phy/stm32_radio_driver/radio.c **** 
 4161              		.loc 1 1030 13 is_stmt 1 view .LVU1203
1030:Middlewares/Third_Party/SubGHz_Phy/stm32_radio_driver/radio.c **** 
 4162              		.loc 1 1030 105 is_stmt 0 view .LVU1204
 4163 007a 88F00108 		eor	r8, r8, #1
1030:Middlewares/Third_Party/SubGHz_Phy/stm32_radio_driver/radio.c **** 
 4164              		.loc 1 1030 56 view .LVU1205
 4165 007e 84F81580 		strb	r8, [r4, #21]
1032:Middlewares/Third_Party/SubGHz_Phy/stm32_radio_driver/radio.c ****             {
 4166              		.loc 1 1032 13 is_stmt 1 view .LVU1206
1032:Middlewares/Third_Party/SubGHz_Phy/stm32_radio_driver/radio.c ****             {
 4167              		.loc 1 1032 15 is_stmt 0 view .LVU1207
 4168 0082 BAF1000F 		cmp	r10, #0
 4169 0086 1FD0     		beq	.L301
1034:Middlewares/Third_Party/SubGHz_Phy/stm32_radio_driver/radio.c ****             }
 4170              		.loc 1 1034 17 is_stmt 1 view .LVU1208
1034:Middlewares/Third_Party/SubGHz_Phy/stm32_radio_driver/radio.c ****             }
 4171              		.loc 1 1034 59 is_stmt 0 view .LVU1209
 4172 0088 F222     		movs	r2, #242
 4173 008a E275     		strb	r2, [r4, #23]
 4174              	.L302:
1040:Middlewares/Third_Party/SubGHz_Phy/stm32_radio_driver/radio.c **** 
 4175              		.loc 1 1040 13 is_stmt 1 view .LVU1210
1040:Middlewares/Third_Party/SubGHz_Phy/stm32_radio_driver/radio.c **** 
 4176              		.loc 1 1040 52 is_stmt 0 view .LVU1211
 4177 008c 404C     		ldr	r4, .L314
 4178 008e 0123     		movs	r3, #1
 4179 0090 2376     		strb	r3, [r4, #24]
1042:Middlewares/Third_Party/SubGHz_Phy/stm32_radio_driver/radio.c ****             RadioSetModem(  MODEM_FSK  );
 4180              		.loc 1 1042 13 is_stmt 1 view .LVU1212
 4181 0092 FFF7FEFF 		bl	RadioStandby
 4182              	.LVL364:
1043:Middlewares/Third_Party/SubGHz_Phy/stm32_radio_driver/radio.c ****             SUBGRF_SetModulationParams( &SubgRf.ModulationParams );
 4183              		.loc 1 1043 13 view .LVU1213
 4184 0096 0020     		movs	r0, #0
ARM GAS  /var/folders/9y/n02fl3g16gnf7ppy14xghdy80000gn/T//cc8eCeeT.s 			page 128


 4185 0098 FFF7FEFF 		bl	RadioSetModem
 4186              	.LVL365:
1044:Middlewares/Third_Party/SubGHz_Phy/stm32_radio_driver/radio.c ****             SUBGRF_SetPacketParams( &SubgRf.PacketParams );
 4187              		.loc 1 1044 13 view .LVU1214
 4188 009c 04F13800 		add	r0, r4, #56
 4189 00a0 FFF7FEFF 		bl	SUBGRF_SetModulationParams
 4190              	.LVL366:
1045:Middlewares/Third_Party/SubGHz_Phy/stm32_radio_driver/radio.c ****             SUBGRF_SetSyncWord( ( uint8_t[] ){ 0xC1, 0x94, 0xC1, 0x00, 0x00, 0x00, 0x00, 0x00 } );
 4191              		.loc 1 1045 13 view .LVU1215
 4192 00a4 04F10E00 		add	r0, r4, #14
 4193 00a8 FFF7FEFF 		bl	SUBGRF_SetPacketParams
 4194              	.LVL367:
1046:Middlewares/Third_Party/SubGHz_Phy/stm32_radio_driver/radio.c ****             SUBGRF_SetWhiteningSeed( 0x01FF );
 4195              		.loc 1 1046 13 view .LVU1216
1046:Middlewares/Third_Party/SubGHz_Phy/stm32_radio_driver/radio.c ****             SUBGRF_SetWhiteningSeed( 0x01FF );
 4196              		.loc 1 1046 46 is_stmt 0 view .LVU1217
 4197 00ac 394A     		ldr	r2, .L314+4
 4198 00ae 6B46     		mov	r3, sp
 4199 00b0 92E80300 		ldm	r2, {r0, r1}
 4200 00b4 83E80300 		stm	r3, {r0, r1}
1046:Middlewares/Third_Party/SubGHz_Phy/stm32_radio_driver/radio.c ****             SUBGRF_SetWhiteningSeed( 0x01FF );
 4201              		.loc 1 1046 13 view .LVU1218
 4202 00b8 1846     		mov	r0, r3
 4203 00ba FFF7FEFF 		bl	SUBGRF_SetSyncWord
 4204              	.LVL368:
1047:Middlewares/Third_Party/SubGHz_Phy/stm32_radio_driver/radio.c ****             break;
 4205              		.loc 1 1047 13 is_stmt 1 view .LVU1219
 4206 00be 40F2FF10 		movw	r0, #511
 4207 00c2 FFF7FEFF 		bl	SUBGRF_SetWhiteningSeed
 4208              	.LVL369:
1048:Middlewares/Third_Party/SubGHz_Phy/stm32_radio_driver/radio.c **** 
 4209              		.loc 1 1048 13 view .LVU1220
 4210 00c6 B0E7     		b	.L300
 4211              	.L301:
1038:Middlewares/Third_Party/SubGHz_Phy/stm32_radio_driver/radio.c ****             }
 4212              		.loc 1 1038 17 view .LVU1221
1038:Middlewares/Third_Party/SubGHz_Phy/stm32_radio_driver/radio.c ****             }
 4213              		.loc 1 1038 59 is_stmt 0 view .LVU1222
 4214 00c8 314B     		ldr	r3, .L314
 4215 00ca 0122     		movs	r2, #1
 4216 00cc DA75     		strb	r2, [r3, #23]
 4217 00ce DDE7     		b	.L302
 4218              	.L298:
1051:Middlewares/Third_Party/SubGHz_Phy/stm32_radio_driver/radio.c ****             SubgRf.ModulationParams.Params.LoRa.SpreadingFactor = ( RadioLoRaSpreadingFactors_t ) d
 4219              		.loc 1 1051 13 is_stmt 1 view .LVU1223
1051:Middlewares/Third_Party/SubGHz_Phy/stm32_radio_driver/radio.c ****             SubgRf.ModulationParams.Params.LoRa.SpreadingFactor = ( RadioLoRaSpreadingFactors_t ) d
 4220              		.loc 1 1051 48 is_stmt 0 view .LVU1224
 4221 00d0 2F4A     		ldr	r2, .L314
 4222 00d2 0123     		movs	r3, #1
 4223 00d4 82F83830 		strb	r3, [r2, #56]
1052:Middlewares/Third_Party/SubGHz_Phy/stm32_radio_driver/radio.c ****             SubgRf.ModulationParams.Params.LoRa.Bandwidth =  Bandwidths[bandwidth];
 4224              		.loc 1 1052 13 is_stmt 1 view .LVU1225
1052:Middlewares/Third_Party/SubGHz_Phy/stm32_radio_driver/radio.c ****             SubgRf.ModulationParams.Params.LoRa.Bandwidth =  Bandwidths[bandwidth];
 4225              		.loc 1 1052 67 is_stmt 0 view .LVU1226
 4226 00d8 0C9B     		ldr	r3, [sp, #48]
 4227 00da DBB2     		uxtb	r3, r3
1052:Middlewares/Third_Party/SubGHz_Phy/stm32_radio_driver/radio.c ****             SubgRf.ModulationParams.Params.LoRa.Bandwidth =  Bandwidths[bandwidth];
ARM GAS  /var/folders/9y/n02fl3g16gnf7ppy14xghdy80000gn/T//cc8eCeeT.s 			page 129


 4228              		.loc 1 1052 65 view .LVU1227
 4229 00dc 82F85030 		strb	r3, [r2, #80]
1053:Middlewares/Third_Party/SubGHz_Phy/stm32_radio_driver/radio.c ****             SubgRf.ModulationParams.Params.LoRa.CodingRate= ( RadioLoRaCodingRates_t )coderate;
 4230              		.loc 1 1053 13 is_stmt 1 view .LVU1228
1053:Middlewares/Third_Party/SubGHz_Phy/stm32_radio_driver/radio.c ****             SubgRf.ModulationParams.Params.LoRa.CodingRate= ( RadioLoRaCodingRates_t )coderate;
 4231              		.loc 1 1053 72 is_stmt 0 view .LVU1229
 4232 00e0 2D49     		ldr	r1, .L314+8
 4233 00e2 C95D     		ldrb	r1, [r1, r7]	@ zero_extendqisi2
1053:Middlewares/Third_Party/SubGHz_Phy/stm32_radio_driver/radio.c ****             SubgRf.ModulationParams.Params.LoRa.CodingRate= ( RadioLoRaCodingRates_t )coderate;
 4234              		.loc 1 1053 59 view .LVU1230
 4235 00e4 82F85110 		strb	r1, [r2, #81]
1054:Middlewares/Third_Party/SubGHz_Phy/stm32_radio_driver/radio.c **** 
 4236              		.loc 1 1054 13 is_stmt 1 view .LVU1231
1054:Middlewares/Third_Party/SubGHz_Phy/stm32_radio_driver/radio.c **** 
 4237              		.loc 1 1054 59 is_stmt 0 view .LVU1232
 4238 00e8 9DF83410 		ldrb	r1, [sp, #52]	@ zero_extendqisi2
 4239 00ec 82F85210 		strb	r1, [r2, #82]
1056:Middlewares/Third_Party/SubGHz_Phy/stm32_radio_driver/radio.c ****                 ( ( bandwidth == 1 ) && ( datarate == 12 ) ) )
 4240              		.loc 1 1056 13 is_stmt 1 view .LVU1233
1056:Middlewares/Third_Party/SubGHz_Phy/stm32_radio_driver/radio.c ****                 ( ( bandwidth == 1 ) && ( datarate == 12 ) ) )
 4241              		.loc 1 1056 15 is_stmt 0 view .LVU1234
 4242 00f0 1FB9     		cbnz	r7, .L303
1056:Middlewares/Third_Party/SubGHz_Phy/stm32_radio_driver/radio.c ****                 ( ( bandwidth == 1 ) && ( datarate == 12 ) ) )
 4243              		.loc 1 1056 62 discriminator 1 view .LVU1235
 4244 00f2 0C9A     		ldr	r2, [sp, #48]
 4245 00f4 0B3A     		subs	r2, r2, #11
1056:Middlewares/Third_Party/SubGHz_Phy/stm32_radio_driver/radio.c ****                 ( ( bandwidth == 1 ) && ( datarate == 12 ) ) )
 4246              		.loc 1 1056 38 discriminator 1 view .LVU1236
 4247 00f6 012A     		cmp	r2, #1
 4248 00f8 2BD9     		bls	.L304
 4249              	.L303:
1056:Middlewares/Third_Party/SubGHz_Phy/stm32_radio_driver/radio.c ****                 ( ( bandwidth == 1 ) && ( datarate == 12 ) ) )
 4250              		.loc 1 1056 88 discriminator 3 view .LVU1237
 4251 00fa 012F     		cmp	r7, #1
 4252 00fc 26D0     		beq	.L312
 4253              	.L305:
1063:Middlewares/Third_Party/SubGHz_Phy/stm32_radio_driver/radio.c ****             }
 4254              		.loc 1 1063 17 is_stmt 1 view .LVU1238
1063:Middlewares/Third_Party/SubGHz_Phy/stm32_radio_driver/radio.c ****             }
 4255              		.loc 1 1063 73 is_stmt 0 view .LVU1239
 4256 00fe 244A     		ldr	r2, .L314
 4257 0100 0021     		movs	r1, #0
 4258 0102 82F85310 		strb	r1, [r2, #83]
 4259              	.L306:
1066:Middlewares/Third_Party/SubGHz_Phy/stm32_radio_driver/radio.c **** 
 4260              		.loc 1 1066 13 is_stmt 1 view .LVU1240
1066:Middlewares/Third_Party/SubGHz_Phy/stm32_radio_driver/radio.c **** 
 4261              		.loc 1 1066 44 is_stmt 0 view .LVU1241
 4262 0106 224A     		ldr	r2, .L314
 4263 0108 0121     		movs	r1, #1
 4264 010a 9173     		strb	r1, [r2, #14]
1068:Middlewares/Third_Party/SubGHz_Phy/stm32_radio_driver/radio.c ****                 ( SubgRf.ModulationParams.Params.LoRa.SpreadingFactor == LORA_SF6 ) )
 4265              		.loc 1 1068 13 is_stmt 1 view .LVU1242
1068:Middlewares/Third_Party/SubGHz_Phy/stm32_radio_driver/radio.c ****                 ( SubgRf.ModulationParams.Params.LoRa.SpreadingFactor == LORA_SF6 ) )
 4266              		.loc 1 1068 85 is_stmt 0 view .LVU1243
 4267 010c 053B     		subs	r3, r3, #5
 4268 010e DBB2     		uxtb	r3, r3
ARM GAS  /var/folders/9y/n02fl3g16gnf7ppy14xghdy80000gn/T//cc8eCeeT.s 			page 130


1068:Middlewares/Third_Party/SubGHz_Phy/stm32_radio_driver/radio.c ****                 ( SubgRf.ModulationParams.Params.LoRa.SpreadingFactor == LORA_SF6 ) )
 4269              		.loc 1 1068 15 view .LVU1244
 4270 0110 8B42     		cmp	r3, r1
 4271 0112 23D9     		bls	.L313
1082:Middlewares/Third_Party/SubGHz_Phy/stm32_radio_driver/radio.c ****             }
 4272              		.loc 1 1082 17 is_stmt 1 view .LVU1245
1082:Middlewares/Third_Party/SubGHz_Phy/stm32_radio_driver/radio.c ****             }
 4273              		.loc 1 1082 64 is_stmt 0 view .LVU1246
 4274 0114 1E4B     		ldr	r3, .L314
 4275 0116 9E83     		strh	r6, [r3, #28]	@ movhi
 4276              	.L309:
1084:Middlewares/Third_Party/SubGHz_Phy/stm32_radio_driver/radio.c ****             SubgRf.PacketParams.Params.LoRa.PayloadLength = MaxPayloadLength;
 4277              		.loc 1 1084 13 is_stmt 1 view .LVU1247
1084:Middlewares/Third_Party/SubGHz_Phy/stm32_radio_driver/radio.c ****             SubgRf.PacketParams.Params.LoRa.PayloadLength = MaxPayloadLength;
 4278              		.loc 1 1084 56 is_stmt 0 view .LVU1248
 4279 0118 1D4C     		ldr	r4, .L314
 4280 011a 84F81E80 		strb	r8, [r4, #30]
1085:Middlewares/Third_Party/SubGHz_Phy/stm32_radio_driver/radio.c ****             SubgRf.PacketParams.Params.LoRa.CrcMode = ( RadioLoRaCrcModes_t )crcOn;
 4281              		.loc 1 1085 13 is_stmt 1 view .LVU1249
1085:Middlewares/Third_Party/SubGHz_Phy/stm32_radio_driver/radio.c ****             SubgRf.PacketParams.Params.LoRa.CrcMode = ( RadioLoRaCrcModes_t )crcOn;
 4282              		.loc 1 1085 59 is_stmt 0 view .LVU1250
 4283 011e 1F4B     		ldr	r3, .L314+12
 4284 0120 1B78     		ldrb	r3, [r3]	@ zero_extendqisi2
 4285 0122 E377     		strb	r3, [r4, #31]
1086:Middlewares/Third_Party/SubGHz_Phy/stm32_radio_driver/radio.c ****             SubgRf.PacketParams.Params.LoRa.InvertIQ = ( RadioLoRaIQModes_t )iqInverted;
 4286              		.loc 1 1086 13 is_stmt 1 view .LVU1251
1086:Middlewares/Third_Party/SubGHz_Phy/stm32_radio_driver/radio.c ****             SubgRf.PacketParams.Params.LoRa.InvertIQ = ( RadioLoRaIQModes_t )iqInverted;
 4287              		.loc 1 1086 53 is_stmt 0 view .LVU1252
 4288 0124 84F820A0 		strb	r10, [r4, #32]
1087:Middlewares/Third_Party/SubGHz_Phy/stm32_radio_driver/radio.c **** 
 4289              		.loc 1 1087 13 is_stmt 1 view .LVU1253
1087:Middlewares/Third_Party/SubGHz_Phy/stm32_radio_driver/radio.c **** 
 4290              		.loc 1 1087 54 is_stmt 0 view .LVU1254
 4291 0128 9DF84C30 		ldrb	r3, [sp, #76]	@ zero_extendqisi2
 4292 012c 84F82130 		strb	r3, [r4, #33]
1089:Middlewares/Third_Party/SubGHz_Phy/stm32_radio_driver/radio.c ****             RadioSetModem( MODEM_LORA );
 4293              		.loc 1 1089 13 is_stmt 1 view .LVU1255
 4294 0130 FFF7FEFF 		bl	RadioStandby
 4295              	.LVL370:
1090:Middlewares/Third_Party/SubGHz_Phy/stm32_radio_driver/radio.c ****             SUBGRF_SetModulationParams( &SubgRf.ModulationParams );
 4296              		.loc 1 1090 13 view .LVU1256
 4297 0134 0120     		movs	r0, #1
 4298 0136 FFF7FEFF 		bl	RadioSetModem
 4299              	.LVL371:
1091:Middlewares/Third_Party/SubGHz_Phy/stm32_radio_driver/radio.c ****             SUBGRF_SetPacketParams( &SubgRf.PacketParams );
 4300              		.loc 1 1091 13 view .LVU1257
 4301 013a 04F13800 		add	r0, r4, #56
 4302 013e FFF7FEFF 		bl	SUBGRF_SetModulationParams
 4303              	.LVL372:
1092:Middlewares/Third_Party/SubGHz_Phy/stm32_radio_driver/radio.c ****             break;
 4304              		.loc 1 1092 13 view .LVU1258
 4305 0142 04F10E00 		add	r0, r4, #14
 4306 0146 FFF7FEFF 		bl	SUBGRF_SetPacketParams
 4307              	.LVL373:
1093:Middlewares/Third_Party/SubGHz_Phy/stm32_radio_driver/radio.c **** #if (RADIO_SIGFOX_ENABLE == 1)
 4308              		.loc 1 1093 13 view .LVU1259
 4309 014a 6EE7     		b	.L300
ARM GAS  /var/folders/9y/n02fl3g16gnf7ppy14xghdy80000gn/T//cc8eCeeT.s 			page 131


 4310              	.L312:
1057:Middlewares/Third_Party/SubGHz_Phy/stm32_radio_driver/radio.c ****             {
 4311              		.loc 1 1057 38 is_stmt 0 view .LVU1260
 4312 014c 0C9A     		ldr	r2, [sp, #48]
 4313 014e 0C2A     		cmp	r2, #12
 4314 0150 D5D1     		bne	.L305
 4315              	.L304:
1059:Middlewares/Third_Party/SubGHz_Phy/stm32_radio_driver/radio.c ****             }
 4316              		.loc 1 1059 17 is_stmt 1 view .LVU1261
1059:Middlewares/Third_Party/SubGHz_Phy/stm32_radio_driver/radio.c ****             }
 4317              		.loc 1 1059 73 is_stmt 0 view .LVU1262
 4318 0152 0F4A     		ldr	r2, .L314
 4319 0154 0121     		movs	r1, #1
 4320 0156 82F85310 		strb	r1, [r2, #83]
 4321 015a D4E7     		b	.L306
 4322              	.L313:
1071:Middlewares/Third_Party/SubGHz_Phy/stm32_radio_driver/radio.c ****                 {
 4323              		.loc 1 1071 17 is_stmt 1 view .LVU1263
1071:Middlewares/Third_Party/SubGHz_Phy/stm32_radio_driver/radio.c ****                 {
 4324              		.loc 1 1071 19 is_stmt 0 view .LVU1264
 4325 015c 0B2E     		cmp	r6, #11
 4326 015e 03D8     		bhi	.L308
1073:Middlewares/Third_Party/SubGHz_Phy/stm32_radio_driver/radio.c ****                 }
 4327              		.loc 1 1073 21 is_stmt 1 view .LVU1265
1073:Middlewares/Third_Party/SubGHz_Phy/stm32_radio_driver/radio.c ****                 }
 4328              		.loc 1 1073 68 is_stmt 0 view .LVU1266
 4329 0160 1346     		mov	r3, r2
 4330 0162 0C22     		movs	r2, #12
 4331 0164 9A83     		strh	r2, [r3, #28]	@ movhi
 4332 0166 D7E7     		b	.L309
 4333              	.L308:
1077:Middlewares/Third_Party/SubGHz_Phy/stm32_radio_driver/radio.c ****                 }
 4334              		.loc 1 1077 21 is_stmt 1 view .LVU1267
1077:Middlewares/Third_Party/SubGHz_Phy/stm32_radio_driver/radio.c ****                 }
 4335              		.loc 1 1077 68 is_stmt 0 view .LVU1268
 4336 0168 094B     		ldr	r3, .L314
 4337 016a 9E83     		strh	r6, [r3, #28]	@ movhi
 4338 016c D4E7     		b	.L309
 4339              	.L299:
1096:Middlewares/Third_Party/SubGHz_Phy/stm32_radio_driver/radio.c ****             SubgRf.ModulationParams.PacketType = PACKET_TYPE_BPSK;
 4340              		.loc 1 1096 13 is_stmt 1 view .LVU1269
 4341 016e 0420     		movs	r0, #4
 4342 0170 FFF7FEFF 		bl	RadioSetModem
 4343              	.LVL374:
1097:Middlewares/Third_Party/SubGHz_Phy/stm32_radio_driver/radio.c ****             SubgRf.ModulationParams.Params.Bpsk.BitRate           = datarate;
 4344              		.loc 1 1097 13 view .LVU1270
1097:Middlewares/Third_Party/SubGHz_Phy/stm32_radio_driver/radio.c ****             SubgRf.ModulationParams.Params.Bpsk.BitRate           = datarate;
 4345              		.loc 1 1097 48 is_stmt 0 view .LVU1271
 4346 0174 0648     		ldr	r0, .L314
 4347 0176 0223     		movs	r3, #2
 4348 0178 80F83830 		strb	r3, [r0, #56]
1098:Middlewares/Third_Party/SubGHz_Phy/stm32_radio_driver/radio.c ****             SubgRf.ModulationParams.Params.Bpsk.ModulationShaping = MOD_SHAPING_DBPSK;
 4349              		.loc 1 1098 13 is_stmt 1 view .LVU1272
1098:Middlewares/Third_Party/SubGHz_Phy/stm32_radio_driver/radio.c ****             SubgRf.ModulationParams.Params.Bpsk.ModulationShaping = MOD_SHAPING_DBPSK;
 4350              		.loc 1 1098 67 is_stmt 0 view .LVU1273
 4351 017c 0C9B     		ldr	r3, [sp, #48]
 4352 017e 8364     		str	r3, [r0, #72]
ARM GAS  /var/folders/9y/n02fl3g16gnf7ppy14xghdy80000gn/T//cc8eCeeT.s 			page 132


1099:Middlewares/Third_Party/SubGHz_Phy/stm32_radio_driver/radio.c ****             SUBGRF_SetModulationParams( &SubgRf.ModulationParams );
 4353              		.loc 1 1099 13 is_stmt 1 view .LVU1274
1099:Middlewares/Third_Party/SubGHz_Phy/stm32_radio_driver/radio.c ****             SUBGRF_SetModulationParams( &SubgRf.ModulationParams );
 4354              		.loc 1 1099 67 is_stmt 0 view .LVU1275
 4355 0180 1623     		movs	r3, #22
 4356 0182 80F84C30 		strb	r3, [r0, #76]
1100:Middlewares/Third_Party/SubGHz_Phy/stm32_radio_driver/radio.c ****             break;
 4357              		.loc 1 1100 13 is_stmt 1 view .LVU1276
 4358 0186 3830     		adds	r0, r0, #56
 4359 0188 FFF7FEFF 		bl	SUBGRF_SetModulationParams
 4360              	.LVL375:
1101:Middlewares/Third_Party/SubGHz_Phy/stm32_radio_driver/radio.c **** #endif /*RADIO_SIGFOX_ENABLE == 1*/
 4361              		.loc 1 1101 13 view .LVU1277
 4362 018c 4DE7     		b	.L300
 4363              	.L315:
 4364 018e 00BF     		.align	2
 4365              	.L314:
 4366 0190 00000000 		.word	.LANCHOR3
 4367 0194 00000000 		.word	.LANCHOR7
 4368 0198 00000000 		.word	.LANCHOR0
 4369 019c 00000000 		.word	.LANCHOR2
 4370              	.LBE10:
 4371              		.cfi_endproc
 4372              	.LFE1170:
 4374              		.section	.text.RadioSetRxConfig,"ax",%progbits
 4375              		.align	1
 4376              		.syntax unified
 4377              		.thumb
 4378              		.thumb_func
 4379              		.fpu softvfp
 4381              	RadioSetRxConfig:
 4382              	.LVL376:
 4383              	.LFB1169:
 829:Middlewares/Third_Party/SubGHz_Phy/stm32_radio_driver/radio.c **** #if (RADIO_SIGFOX_ENABLE == 1)
 4384              		.loc 1 829 1 view -0
 4385              		.cfi_startproc
 4386              		@ args = 40, pretend = 0, frame = 24
 4387              		@ frame_needed = 0, uses_anonymous_args = 0
 829:Middlewares/Third_Party/SubGHz_Phy/stm32_radio_driver/radio.c **** #if (RADIO_SIGFOX_ENABLE == 1)
 4388              		.loc 1 829 1 is_stmt 0 view .LVU1279
 4389 0000 2DE9F04F 		push	{r4, r5, r6, r7, r8, r9, r10, fp, lr}
 4390              		.cfi_def_cfa_offset 36
 4391              		.cfi_offset 4, -36
 4392              		.cfi_offset 5, -32
 4393              		.cfi_offset 6, -28
 4394              		.cfi_offset 7, -24
 4395              		.cfi_offset 8, -20
 4396              		.cfi_offset 9, -16
 4397              		.cfi_offset 10, -12
 4398              		.cfi_offset 11, -8
 4399              		.cfi_offset 14, -4
 4400 0004 87B0     		sub	sp, sp, #28
 4401              		.cfi_def_cfa_offset 64
 4402 0006 0446     		mov	r4, r0
 4403 0008 0E46     		mov	r6, r1
 4404 000a 1546     		mov	r5, r2
 4405 000c 0193     		str	r3, [sp, #4]
ARM GAS  /var/folders/9y/n02fl3g16gnf7ppy14xghdy80000gn/T//cc8eCeeT.s 			page 133


 4406 000e BDF84490 		ldrh	r9, [sp, #68]
 4407 0012 BDF848A0 		ldrh	r10, [sp, #72]
 4408 0016 9DF84C70 		ldrb	r7, [sp, #76]	@ zero_extendqisi2
 4409 001a 9DF854B0 		ldrb	fp, [sp, #84]	@ zero_extendqisi2
 4410 001e 9DF86480 		ldrb	r8, [sp, #100]	@ zero_extendqisi2
 831:Middlewares/Third_Party/SubGHz_Phy/stm32_radio_driver/radio.c **** #endif
 4411              		.loc 1 831 5 is_stmt 1 view .LVU1280
 833:Middlewares/Third_Party/SubGHz_Phy/stm32_radio_driver/radio.c ****     RFW_DeInit(); /* ST_WORKAROUND: Switch Off FwPacketDecoding by default */
 4412              		.loc 1 833 5 view .LVU1281
 833:Middlewares/Third_Party/SubGHz_Phy/stm32_radio_driver/radio.c ****     RFW_DeInit(); /* ST_WORKAROUND: Switch Off FwPacketDecoding by default */
 4413              		.loc 1 833 25 is_stmt 0 view .LVU1282
 4414 0022 AB4B     		ldr	r3, .L341
 4415              	.LVL377:
 833:Middlewares/Third_Party/SubGHz_Phy/stm32_radio_driver/radio.c ****     RFW_DeInit(); /* ST_WORKAROUND: Switch Off FwPacketDecoding by default */
 4416              		.loc 1 833 25 view .LVU1283
 4417 0024 83F80180 		strb	r8, [r3, #1]
 834:Middlewares/Third_Party/SubGHz_Phy/stm32_radio_driver/radio.c ****     if( rxContinuous == true )
 4418              		.loc 1 834 5 is_stmt 1 view .LVU1284
 4419 0028 FFF7FEFF 		bl	RFW_DeInit
 4420              	.LVL378:
 835:Middlewares/Third_Party/SubGHz_Phy/stm32_radio_driver/radio.c ****     {
 4421              		.loc 1 835 5 view .LVU1285
 835:Middlewares/Third_Party/SubGHz_Phy/stm32_radio_driver/radio.c ****     {
 4422              		.loc 1 835 7 is_stmt 0 view .LVU1286
 4423 002c B8F1000F 		cmp	r8, #0
 4424 0030 01D0     		beq	.L317
 837:Middlewares/Third_Party/SubGHz_Phy/stm32_radio_driver/radio.c ****     }
 4425              		.loc 1 837 21 view .LVU1287
 4426 0032 4FF0000A 		mov	r10, #0
 4427              	.L317:
 4428              	.LVL379:
 839:Middlewares/Third_Party/SubGHz_Phy/stm32_radio_driver/radio.c ****     {
 4429              		.loc 1 839 5 is_stmt 1 view .LVU1288
 839:Middlewares/Third_Party/SubGHz_Phy/stm32_radio_driver/radio.c ****     {
 4430              		.loc 1 839 7 is_stmt 0 view .LVU1289
 4431 0036 6FB1     		cbz	r7, .L318
 841:Middlewares/Third_Party/SubGHz_Phy/stm32_radio_driver/radio.c ****     }
 4432              		.loc 1 841 9 is_stmt 1 view .LVU1290
 841:Middlewares/Third_Party/SubGHz_Phy/stm32_radio_driver/radio.c ****     }
 4433              		.loc 1 841 26 is_stmt 0 view .LVU1291
 4434 0038 9DF85020 		ldrb	r2, [sp, #80]	@ zero_extendqisi2
 4435 003c A54B     		ldr	r3, .L341+4
 4436 003e 1A70     		strb	r2, [r3]
 4437              	.L319:
 848:Middlewares/Third_Party/SubGHz_Phy/stm32_radio_driver/radio.c ****     {
 4438              		.loc 1 848 5 is_stmt 1 view .LVU1292
 4439 0040 012C     		cmp	r4, #1
 4440 0042 00F0D280 		beq	.L320
 4441 0046 052C     		cmp	r4, #5
 4442 0048 08D0     		beq	.L321
 4443 004a 002C     		cmp	r4, #0
 4444 004c 7CD0     		beq	.L337
 4445              	.LVL380:
 4446              	.L316:
1006:Middlewares/Third_Party/SubGHz_Phy/stm32_radio_driver/radio.c **** 
 4447              		.loc 1 1006 1 is_stmt 0 view .LVU1293
 4448 004e 07B0     		add	sp, sp, #28
ARM GAS  /var/folders/9y/n02fl3g16gnf7ppy14xghdy80000gn/T//cc8eCeeT.s 			page 134


 4449              		.cfi_remember_state
 4450              		.cfi_def_cfa_offset 36
 4451              		@ sp needed
 4452 0050 BDE8F08F 		pop	{r4, r5, r6, r7, r8, r9, r10, fp, pc}
 4453              	.LVL381:
 4454              	.L318:
 4455              		.cfi_restore_state
 845:Middlewares/Third_Party/SubGHz_Phy/stm32_radio_driver/radio.c ****     }
 4456              		.loc 1 845 9 is_stmt 1 view .LVU1294
 845:Middlewares/Third_Party/SubGHz_Phy/stm32_radio_driver/radio.c ****     }
 4457              		.loc 1 845 26 is_stmt 0 view .LVU1295
 4458 0054 9F4B     		ldr	r3, .L341+4
 4459 0056 FF22     		movs	r2, #255
 4460 0058 1A70     		strb	r2, [r3]
 4461 005a F1E7     		b	.L319
 4462              	.L321:
 4463              	.LBB11:
 852:Middlewares/Third_Party/SubGHz_Phy/stm32_radio_driver/radio.c ****             SubgRf.ModulationParams.PacketType = PACKET_TYPE_GFSK;
 4464              		.loc 1 852 13 is_stmt 1 view .LVU1296
 4465 005c 0120     		movs	r0, #1
 4466 005e FFF7FEFF 		bl	SUBGRF_SetStopRxTimerOnPreambleDetect
 4467              	.LVL382:
 853:Middlewares/Third_Party/SubGHz_Phy/stm32_radio_driver/radio.c **** 
 4468              		.loc 1 853 13 view .LVU1297
 853:Middlewares/Third_Party/SubGHz_Phy/stm32_radio_driver/radio.c **** 
 4469              		.loc 1 853 48 is_stmt 0 view .LVU1298
 4470 0062 9B4C     		ldr	r4, .L341
 4471 0064 0027     		movs	r7, #0
 4472 0066 84F83870 		strb	r7, [r4, #56]
 855:Middlewares/Third_Party/SubGHz_Phy/stm32_radio_driver/radio.c ****             SubgRf.ModulationParams.Params.Gfsk.ModulationShaping = MOD_SHAPING_G_BT_05;
 4473              		.loc 1 855 13 is_stmt 1 view .LVU1299
 855:Middlewares/Third_Party/SubGHz_Phy/stm32_radio_driver/radio.c ****             SubgRf.ModulationParams.Params.Gfsk.ModulationShaping = MOD_SHAPING_G_BT_05;
 4474              		.loc 1 855 57 is_stmt 0 view .LVU1300
 4475 006a E563     		str	r5, [r4, #60]
 856:Middlewares/Third_Party/SubGHz_Phy/stm32_radio_driver/radio.c ****             SubgRf.ModulationParams.Params.Gfsk.Fdev = 800;
 4476              		.loc 1 856 13 is_stmt 1 view .LVU1301
 856:Middlewares/Third_Party/SubGHz_Phy/stm32_radio_driver/radio.c ****             SubgRf.ModulationParams.Params.Gfsk.Fdev = 800;
 4477              		.loc 1 856 67 is_stmt 0 view .LVU1302
 4478 006c 0923     		movs	r3, #9
 4479 006e 84F84430 		strb	r3, [r4, #68]
 857:Middlewares/Third_Party/SubGHz_Phy/stm32_radio_driver/radio.c ****             SubgRf.ModulationParams.Params.Gfsk.Bandwidth = SUBGRF_GetFskBandwidthRegValue( bandwid
 4480              		.loc 1 857 13 is_stmt 1 view .LVU1303
 857:Middlewares/Third_Party/SubGHz_Phy/stm32_radio_driver/radio.c ****             SubgRf.ModulationParams.Params.Gfsk.Bandwidth = SUBGRF_GetFskBandwidthRegValue( bandwid
 4481              		.loc 1 857 54 is_stmt 0 view .LVU1304
 4482 0072 4FF44873 		mov	r3, #800
 4483 0076 2364     		str	r3, [r4, #64]
 858:Middlewares/Third_Party/SubGHz_Phy/stm32_radio_driver/radio.c **** 
 4484              		.loc 1 858 13 is_stmt 1 view .LVU1305
 858:Middlewares/Third_Party/SubGHz_Phy/stm32_radio_driver/radio.c **** 
 4485              		.loc 1 858 61 is_stmt 0 view .LVU1306
 4486 0078 3046     		mov	r0, r6
 4487 007a FFF7FEFF 		bl	SUBGRF_GetFskBandwidthRegValue
 4488              	.LVL383:
 858:Middlewares/Third_Party/SubGHz_Phy/stm32_radio_driver/radio.c **** 
 4489              		.loc 1 858 59 view .LVU1307
 4490 007e 84F84500 		strb	r0, [r4, #69]
 860:Middlewares/Third_Party/SubGHz_Phy/stm32_radio_driver/radio.c ****             SubgRf.PacketParams.Params.Gfsk.PreambleLength = ( preambleLen << 3 ); // convert byte 
ARM GAS  /var/folders/9y/n02fl3g16gnf7ppy14xghdy80000gn/T//cc8eCeeT.s 			page 135


 4491              		.loc 1 860 13 is_stmt 1 view .LVU1308
 860:Middlewares/Third_Party/SubGHz_Phy/stm32_radio_driver/radio.c ****             SubgRf.PacketParams.Params.Gfsk.PreambleLength = ( preambleLen << 3 ); // convert byte 
 4492              		.loc 1 860 44 is_stmt 0 view .LVU1309
 4493 0082 A773     		strb	r7, [r4, #14]
 861:Middlewares/Third_Party/SubGHz_Phy/stm32_radio_driver/radio.c ****             SubgRf.PacketParams.Params.Gfsk.PreambleMinDetect = RADIO_PREAMBLE_DETECTOR_OFF;
 4494              		.loc 1 861 13 is_stmt 1 view .LVU1310
 861:Middlewares/Third_Party/SubGHz_Phy/stm32_radio_driver/radio.c ****             SubgRf.PacketParams.Params.Gfsk.PreambleMinDetect = RADIO_PREAMBLE_DETECTOR_OFF;
 4495              		.loc 1 861 76 is_stmt 0 view .LVU1311
 4496 0084 4FEAC909 		lsl	r9, r9, #3
 861:Middlewares/Third_Party/SubGHz_Phy/stm32_radio_driver/radio.c ****             SubgRf.PacketParams.Params.Gfsk.PreambleMinDetect = RADIO_PREAMBLE_DETECTOR_OFF;
 4497              		.loc 1 861 60 view .LVU1312
 4498 0088 A4F81090 		strh	r9, [r4, #16]	@ movhi
 862:Middlewares/Third_Party/SubGHz_Phy/stm32_radio_driver/radio.c ****             SubgRf.PacketParams.Params.Gfsk.SyncWordLength = 2 << 3; // convert byte into bit
 4499              		.loc 1 862 13 is_stmt 1 view .LVU1313
 862:Middlewares/Third_Party/SubGHz_Phy/stm32_radio_driver/radio.c ****             SubgRf.PacketParams.Params.Gfsk.SyncWordLength = 2 << 3; // convert byte into bit
 4500              		.loc 1 862 63 is_stmt 0 view .LVU1314
 4501 008c A774     		strb	r7, [r4, #18]
 863:Middlewares/Third_Party/SubGHz_Phy/stm32_radio_driver/radio.c ****             SubgRf.PacketParams.Params.Gfsk.AddrComp = RADIO_ADDRESSCOMP_FILT_OFF;
 4502              		.loc 1 863 13 is_stmt 1 view .LVU1315
 863:Middlewares/Third_Party/SubGHz_Phy/stm32_radio_driver/radio.c ****             SubgRf.PacketParams.Params.Gfsk.AddrComp = RADIO_ADDRESSCOMP_FILT_OFF;
 4503              		.loc 1 863 60 is_stmt 0 view .LVU1316
 4504 008e 1023     		movs	r3, #16
 4505 0090 E374     		strb	r3, [r4, #19]
 864:Middlewares/Third_Party/SubGHz_Phy/stm32_radio_driver/radio.c ****             SubgRf.PacketParams.Params.Gfsk.HeaderType = RADIO_PACKET_FIXED_LENGTH;
 4506              		.loc 1 864 13 is_stmt 1 view .LVU1317
 864:Middlewares/Third_Party/SubGHz_Phy/stm32_radio_driver/radio.c ****             SubgRf.PacketParams.Params.Gfsk.HeaderType = RADIO_PACKET_FIXED_LENGTH;
 4507              		.loc 1 864 54 is_stmt 0 view .LVU1318
 4508 0092 2775     		strb	r7, [r4, #20]
 865:Middlewares/Third_Party/SubGHz_Phy/stm32_radio_driver/radio.c ****             SubgRf.PacketParams.Params.Gfsk.PayloadLength = MaxPayloadLength;
 4509              		.loc 1 865 13 is_stmt 1 view .LVU1319
 865:Middlewares/Third_Party/SubGHz_Phy/stm32_radio_driver/radio.c ****             SubgRf.PacketParams.Params.Gfsk.PayloadLength = MaxPayloadLength;
 4510              		.loc 1 865 56 is_stmt 0 view .LVU1320
 4511 0094 6775     		strb	r7, [r4, #21]
 866:Middlewares/Third_Party/SubGHz_Phy/stm32_radio_driver/radio.c ****             SubgRf.PacketParams.Params.Gfsk.CrcLength = RADIO_CRC_OFF;
 4512              		.loc 1 866 13 is_stmt 1 view .LVU1321
 866:Middlewares/Third_Party/SubGHz_Phy/stm32_radio_driver/radio.c ****             SubgRf.PacketParams.Params.Gfsk.CrcLength = RADIO_CRC_OFF;
 4513              		.loc 1 866 59 is_stmt 0 view .LVU1322
 4514 0096 8F4B     		ldr	r3, .L341+4
 4515 0098 1B78     		ldrb	r3, [r3]	@ zero_extendqisi2
 4516 009a A375     		strb	r3, [r4, #22]
 867:Middlewares/Third_Party/SubGHz_Phy/stm32_radio_driver/radio.c **** 
 4517              		.loc 1 867 13 is_stmt 1 view .LVU1323
 867:Middlewares/Third_Party/SubGHz_Phy/stm32_radio_driver/radio.c **** 
 4518              		.loc 1 867 55 is_stmt 0 view .LVU1324
 4519 009c 0123     		movs	r3, #1
 4520 009e E375     		strb	r3, [r4, #23]
 869:Middlewares/Third_Party/SubGHz_Phy/stm32_radio_driver/radio.c **** 
 4521              		.loc 1 869 13 is_stmt 1 view .LVU1325
 869:Middlewares/Third_Party/SubGHz_Phy/stm32_radio_driver/radio.c **** 
 4522              		.loc 1 869 52 is_stmt 0 view .LVU1326
 4523 00a0 2776     		strb	r7, [r4, #24]
 871:Middlewares/Third_Party/SubGHz_Phy/stm32_radio_driver/radio.c ****             SUBGRF_SetModulationParams( &SubgRf.ModulationParams );
 4524              		.loc 1 871 13 is_stmt 1 view .LVU1327
 4525 00a2 0520     		movs	r0, #5
 4526 00a4 FFF7FEFF 		bl	RadioSetModem
 4527              	.LVL384:
 872:Middlewares/Third_Party/SubGHz_Phy/stm32_radio_driver/radio.c ****             SUBGRF_SetPacketParams( &SubgRf.PacketParams );
ARM GAS  /var/folders/9y/n02fl3g16gnf7ppy14xghdy80000gn/T//cc8eCeeT.s 			page 136


 4528              		.loc 1 872 13 view .LVU1328
 4529 00a8 04F13800 		add	r0, r4, #56
 4530 00ac FFF7FEFF 		bl	SUBGRF_SetModulationParams
 4531              	.LVL385:
 873:Middlewares/Third_Party/SubGHz_Phy/stm32_radio_driver/radio.c ****             SUBGRF_SetSyncWord( ( uint8_t[] ){0xB2, 0x27, 0x00, 0x00, 0x00, 0x00, 0x00, 0x00 } );
 4532              		.loc 1 873 13 view .LVU1329
 4533 00b0 04F10E00 		add	r0, r4, #14
 4534 00b4 FFF7FEFF 		bl	SUBGRF_SetPacketParams
 4535              	.LVL386:
 874:Middlewares/Third_Party/SubGHz_Phy/stm32_radio_driver/radio.c ****             SUBGRF_SetWhiteningSeed( 0x01FF );
 4536              		.loc 1 874 13 view .LVU1330
 874:Middlewares/Third_Party/SubGHz_Phy/stm32_radio_driver/radio.c ****             SUBGRF_SetWhiteningSeed( 0x01FF );
 4537              		.loc 1 874 46 is_stmt 0 view .LVU1331
 4538 00b8 02AB     		add	r3, sp, #8
 4539 00ba 874A     		ldr	r2, .L341+8
 4540 00bc 92E80300 		ldm	r2, {r0, r1}
 4541 00c0 83E80300 		stm	r3, {r0, r1}
 874:Middlewares/Third_Party/SubGHz_Phy/stm32_radio_driver/radio.c ****             SUBGRF_SetWhiteningSeed( 0x01FF );
 4542              		.loc 1 874 13 view .LVU1332
 4543 00c4 1846     		mov	r0, r3
 4544 00c6 FFF7FEFF 		bl	SUBGRF_SetSyncWord
 4545              	.LVL387:
 875:Middlewares/Third_Party/SubGHz_Phy/stm32_radio_driver/radio.c **** 
 4546              		.loc 1 875 13 is_stmt 1 view .LVU1333
 4547 00ca 40F2FF10 		movw	r0, #511
 4548 00ce FFF7FEFF 		bl	SUBGRF_SetWhiteningSeed
 4549              	.LVL388:
 878:Middlewares/Third_Party/SubGHz_Phy/stm32_radio_driver/radio.c ****             modReg&=RADIO_BIT_MASK(4);
 4550              		.loc 1 878 13 view .LVU1334
 878:Middlewares/Third_Party/SubGHz_Phy/stm32_radio_driver/radio.c ****             modReg&=RADIO_BIT_MASK(4);
 4551              		.loc 1 878 21 is_stmt 0 view .LVU1335
 4552 00d2 40F6B800 		movw	r0, #2232
 4553 00d6 FFF7FEFF 		bl	RadioRead
 4554              	.LVL389:
 879:Middlewares/Third_Party/SubGHz_Phy/stm32_radio_driver/radio.c ****             RadioWrite(SUBGHZ_AGCGFORSTCFGR, modReg);
 4555              		.loc 1 879 13 is_stmt 1 view .LVU1336
 880:Middlewares/Third_Party/SubGHz_Phy/stm32_radio_driver/radio.c ****             /* Lower the threshold of cfo_reset */
 4556              		.loc 1 880 13 view .LVU1337
 4557 00da 00F0EF01 		and	r1, r0, #239
 4558 00de 40F6B800 		movw	r0, #2232
 4559              	.LVL390:
 880:Middlewares/Third_Party/SubGHz_Phy/stm32_radio_driver/radio.c ****             /* Lower the threshold of cfo_reset */
 4560              		.loc 1 880 13 is_stmt 0 view .LVU1338
 4561 00e2 FFF7FEFF 		bl	RadioWrite
 4562              	.LVL391:
 882:Middlewares/Third_Party/SubGHz_Phy/stm32_radio_driver/radio.c **** 
 4563              		.loc 1 882 13 is_stmt 1 view .LVU1339
 4564 00e6 0421     		movs	r1, #4
 4565 00e8 40F6B900 		movw	r0, #2233
 4566 00ec FFF7FEFF 		bl	RadioWrite
 4567              	.LVL392:
 885:Middlewares/Third_Party/SubGHz_Phy/stm32_radio_driver/radio.c ****             modReg&=( RADIO_BIT_MASK(2) & RADIO_BIT_MASK(3) & RADIO_BIT_MASK(4) );
 4568              		.loc 1 885 13 view .LVU1340
 885:Middlewares/Third_Party/SubGHz_Phy/stm32_radio_driver/radio.c ****             modReg&=( RADIO_BIT_MASK(2) & RADIO_BIT_MASK(3) & RADIO_BIT_MASK(4) );
 4569              		.loc 1 885 21 is_stmt 0 view .LVU1341
 4570 00f0 40F69B00 		movw	r0, #2203
 4571 00f4 FFF7FEFF 		bl	RadioRead
ARM GAS  /var/folders/9y/n02fl3g16gnf7ppy14xghdy80000gn/T//cc8eCeeT.s 			page 137


 4572              	.LVL393:
 886:Middlewares/Third_Party/SubGHz_Phy/stm32_radio_driver/radio.c ****             RadioWrite(SUBGHZ_AGCRSSICTL0R, (modReg| (0x1<<3) ) );
 4573              		.loc 1 886 13 is_stmt 1 view .LVU1342
 886:Middlewares/Third_Party/SubGHz_Phy/stm32_radio_driver/radio.c ****             RadioWrite(SUBGHZ_AGCRSSICTL0R, (modReg| (0x1<<3) ) );
 4574              		.loc 1 886 19 is_stmt 0 view .LVU1343
 4575 00f8 00F0E301 		and	r1, r0, #227
 4576              	.LVL394:
 887:Middlewares/Third_Party/SubGHz_Phy/stm32_radio_driver/radio.c **** 
 4577              		.loc 1 887 13 is_stmt 1 view .LVU1344
 4578 00fc 41F00801 		orr	r1, r1, #8
 4579              	.LVL395:
 887:Middlewares/Third_Party/SubGHz_Phy/stm32_radio_driver/radio.c **** 
 4580              		.loc 1 887 13 is_stmt 0 view .LVU1345
 4581 0100 40F69B00 		movw	r0, #2203
 4582              	.LVL396:
 887:Middlewares/Third_Party/SubGHz_Phy/stm32_radio_driver/radio.c **** 
 4583              		.loc 1 887 13 view .LVU1346
 4584 0104 FFF7FEFF 		bl	RadioWrite
 4585              	.LVL397:
 890:Middlewares/Third_Party/SubGHz_Phy/stm32_radio_driver/radio.c ****             modReg&=( RADIO_BIT_MASK(3) & RADIO_BIT_MASK(4) );
 4586              		.loc 1 890 13 is_stmt 1 view .LVU1347
 890:Middlewares/Third_Party/SubGHz_Phy/stm32_radio_driver/radio.c ****             modReg&=( RADIO_BIT_MASK(3) & RADIO_BIT_MASK(4) );
 4587              		.loc 1 890 21 is_stmt 0 view .LVU1348
 4588 0108 40F2D160 		movw	r0, #1745
 4589 010c FFF7FEFF 		bl	RadioRead
 4590              	.LVL398:
 891:Middlewares/Third_Party/SubGHz_Phy/stm32_radio_driver/radio.c ****             RadioWrite(SUBGHZ_GAFCR, (modReg| (0x3<<3) ));
 4591              		.loc 1 891 13 is_stmt 1 view .LVU1349
 891:Middlewares/Third_Party/SubGHz_Phy/stm32_radio_driver/radio.c ****             RadioWrite(SUBGHZ_GAFCR, (modReg| (0x3<<3) ));
 4592              		.loc 1 891 19 is_stmt 0 view .LVU1350
 4593 0110 00F0E701 		and	r1, r0, #231
 4594              	.LVL399:
 892:Middlewares/Third_Party/SubGHz_Phy/stm32_radio_driver/radio.c **** 
 4595              		.loc 1 892 13 is_stmt 1 view .LVU1351
 4596 0114 41F01801 		orr	r1, r1, #24
 4597              	.LVL400:
 892:Middlewares/Third_Party/SubGHz_Phy/stm32_radio_driver/radio.c **** 
 4598              		.loc 1 892 13 is_stmt 0 view .LVU1352
 4599 0118 40F2D160 		movw	r0, #1745
 4600              	.LVL401:
 892:Middlewares/Third_Party/SubGHz_Phy/stm32_radio_driver/radio.c **** 
 4601              		.loc 1 892 13 view .LVU1353
 4602 011c FFF7FEFF 		bl	RadioWrite
 4603              	.LVL402:
 895:Middlewares/Third_Party/SubGHz_Phy/stm32_radio_driver/radio.c ****             modReg&=( RADIO_BIT_MASK(4) & RADIO_BIT_MASK(5) & RADIO_BIT_MASK(6) );
 4604              		.loc 1 895 13 is_stmt 1 view .LVU1354
 895:Middlewares/Third_Party/SubGHz_Phy/stm32_radio_driver/radio.c ****             modReg&=( RADIO_BIT_MASK(4) & RADIO_BIT_MASK(5) & RADIO_BIT_MASK(6) );
 4605              		.loc 1 895 21 is_stmt 0 view .LVU1355
 4606 0120 40F2AC60 		movw	r0, #1708
 4607 0124 FFF7FEFF 		bl	RadioRead
 4608              	.LVL403:
 896:Middlewares/Third_Party/SubGHz_Phy/stm32_radio_driver/radio.c ****             RadioWrite(SUBGHZ_GBSYNCR, (modReg| (0x5<<4) ));
 4609              		.loc 1 896 13 is_stmt 1 view .LVU1356
 896:Middlewares/Third_Party/SubGHz_Phy/stm32_radio_driver/radio.c ****             RadioWrite(SUBGHZ_GBSYNCR, (modReg| (0x5<<4) ));
 4610              		.loc 1 896 19 is_stmt 0 view .LVU1357
 4611 0128 00F08F01 		and	r1, r0, #143
 4612              	.LVL404:
ARM GAS  /var/folders/9y/n02fl3g16gnf7ppy14xghdy80000gn/T//cc8eCeeT.s 			page 138


 897:Middlewares/Third_Party/SubGHz_Phy/stm32_radio_driver/radio.c ****             /*timeout unused when SubgRf.RxContinuous*/
 4613              		.loc 1 897 13 is_stmt 1 view .LVU1358
 4614 012c 41F05001 		orr	r1, r1, #80
 4615              	.LVL405:
 897:Middlewares/Third_Party/SubGHz_Phy/stm32_radio_driver/radio.c ****             /*timeout unused when SubgRf.RxContinuous*/
 4616              		.loc 1 897 13 is_stmt 0 view .LVU1359
 4617 0130 40F2AC60 		movw	r0, #1708
 4618              	.LVL406:
 897:Middlewares/Third_Party/SubGHz_Phy/stm32_radio_driver/radio.c ****             /*timeout unused when SubgRf.RxContinuous*/
 4619              		.loc 1 897 13 view .LVU1360
 4620 0134 FFF7FEFF 		bl	RadioWrite
 4621              	.LVL407:
 899:Middlewares/Third_Party/SubGHz_Phy/stm32_radio_driver/radio.c ****             break;
 4622              		.loc 1 899 13 is_stmt 1 view .LVU1361
 899:Middlewares/Third_Party/SubGHz_Phy/stm32_radio_driver/radio.c ****             break;
 4623              		.loc 1 899 63 is_stmt 0 view .LVU1362
 4624 0138 4FF4FA53 		mov	r3, #8000
 4625 013c 03FB0AFA 		mul	r10, r3, r10
 4626              	.LVL408:
 899:Middlewares/Third_Party/SubGHz_Phy/stm32_radio_driver/radio.c ****             break;
 4627              		.loc 1 899 32 view .LVU1363
 4628 0140 BAFBF5F5 		udiv	r5, r10, r5
 4629              	.LVL409:
 899:Middlewares/Third_Party/SubGHz_Phy/stm32_radio_driver/radio.c ****             break;
 4630              		.loc 1 899 30 view .LVU1364
 4631 0144 A560     		str	r5, [r4, #8]
 900:Middlewares/Third_Party/SubGHz_Phy/stm32_radio_driver/radio.c **** #endif /*RADIO_SIGFOX_ENABLE == 1*/
 4632              		.loc 1 900 13 is_stmt 1 view .LVU1365
 4633 0146 82E7     		b	.L316
 4634              	.LVL410:
 4635              	.L337:
 903:Middlewares/Third_Party/SubGHz_Phy/stm32_radio_driver/radio.c ****             SubgRf.ModulationParams.PacketType = PACKET_TYPE_GFSK;
 4636              		.loc 1 903 13 view .LVU1366
 4637 0148 0020     		movs	r0, #0
 4638 014a FFF7FEFF 		bl	SUBGRF_SetStopRxTimerOnPreambleDetect
 4639              	.LVL411:
 904:Middlewares/Third_Party/SubGHz_Phy/stm32_radio_driver/radio.c **** 
 4640              		.loc 1 904 13 view .LVU1367
 904:Middlewares/Third_Party/SubGHz_Phy/stm32_radio_driver/radio.c **** 
 4641              		.loc 1 904 48 is_stmt 0 view .LVU1368
 4642 014e 604C     		ldr	r4, .L341
 4643 0150 4FF00008 		mov	r8, #0
 4644 0154 84F83880 		strb	r8, [r4, #56]
 906:Middlewares/Third_Party/SubGHz_Phy/stm32_radio_driver/radio.c ****             SubgRf.ModulationParams.Params.Gfsk.ModulationShaping = MOD_SHAPING_G_BT_1;
 4645              		.loc 1 906 13 is_stmt 1 view .LVU1369
 906:Middlewares/Third_Party/SubGHz_Phy/stm32_radio_driver/radio.c ****             SubgRf.ModulationParams.Params.Gfsk.ModulationShaping = MOD_SHAPING_G_BT_1;
 4646              		.loc 1 906 57 is_stmt 0 view .LVU1370
 4647 0158 E563     		str	r5, [r4, #60]
 907:Middlewares/Third_Party/SubGHz_Phy/stm32_radio_driver/radio.c ****             SubgRf.ModulationParams.Params.Gfsk.Bandwidth = SUBGRF_GetFskBandwidthRegValue( bandwid
 4648              		.loc 1 907 13 is_stmt 1 view .LVU1371
 907:Middlewares/Third_Party/SubGHz_Phy/stm32_radio_driver/radio.c ****             SubgRf.ModulationParams.Params.Gfsk.Bandwidth = SUBGRF_GetFskBandwidthRegValue( bandwid
 4649              		.loc 1 907 67 is_stmt 0 view .LVU1372
 4650 015a 0B23     		movs	r3, #11
 4651 015c 84F84430 		strb	r3, [r4, #68]
 908:Middlewares/Third_Party/SubGHz_Phy/stm32_radio_driver/radio.c **** 
 4652              		.loc 1 908 13 is_stmt 1 view .LVU1373
 908:Middlewares/Third_Party/SubGHz_Phy/stm32_radio_driver/radio.c **** 
ARM GAS  /var/folders/9y/n02fl3g16gnf7ppy14xghdy80000gn/T//cc8eCeeT.s 			page 139


 4653              		.loc 1 908 61 is_stmt 0 view .LVU1374
 4654 0160 3046     		mov	r0, r6
 4655 0162 FFF7FEFF 		bl	SUBGRF_GetFskBandwidthRegValue
 4656              	.LVL412:
 908:Middlewares/Third_Party/SubGHz_Phy/stm32_radio_driver/radio.c **** 
 4657              		.loc 1 908 59 view .LVU1375
 4658 0166 84F84500 		strb	r0, [r4, #69]
 910:Middlewares/Third_Party/SubGHz_Phy/stm32_radio_driver/radio.c ****             SubgRf.PacketParams.Params.Gfsk.PreambleLength = ( preambleLen << 3 ); // convert byte 
 4659              		.loc 1 910 13 is_stmt 1 view .LVU1376
 910:Middlewares/Third_Party/SubGHz_Phy/stm32_radio_driver/radio.c ****             SubgRf.PacketParams.Params.Gfsk.PreambleLength = ( preambleLen << 3 ); // convert byte 
 4660              		.loc 1 910 44 is_stmt 0 view .LVU1377
 4661 016a 84F80E80 		strb	r8, [r4, #14]
 911:Middlewares/Third_Party/SubGHz_Phy/stm32_radio_driver/radio.c ****             SubgRf.PacketParams.Params.Gfsk.PreambleMinDetect = RADIO_PREAMBLE_DETECTOR_08_BITS;
 4662              		.loc 1 911 13 is_stmt 1 view .LVU1378
 911:Middlewares/Third_Party/SubGHz_Phy/stm32_radio_driver/radio.c ****             SubgRf.PacketParams.Params.Gfsk.PreambleMinDetect = RADIO_PREAMBLE_DETECTOR_08_BITS;
 4663              		.loc 1 911 76 is_stmt 0 view .LVU1379
 4664 016e 4FEAC909 		lsl	r9, r9, #3
 911:Middlewares/Third_Party/SubGHz_Phy/stm32_radio_driver/radio.c ****             SubgRf.PacketParams.Params.Gfsk.PreambleMinDetect = RADIO_PREAMBLE_DETECTOR_08_BITS;
 4665              		.loc 1 911 60 view .LVU1380
 4666 0172 A4F81090 		strh	r9, [r4, #16]	@ movhi
 912:Middlewares/Third_Party/SubGHz_Phy/stm32_radio_driver/radio.c ****             SubgRf.PacketParams.Params.Gfsk.SyncWordLength = 3 << 3; // convert byte into bit
 4667              		.loc 1 912 13 is_stmt 1 view .LVU1381
 912:Middlewares/Third_Party/SubGHz_Phy/stm32_radio_driver/radio.c ****             SubgRf.PacketParams.Params.Gfsk.SyncWordLength = 3 << 3; // convert byte into bit
 4668              		.loc 1 912 63 is_stmt 0 view .LVU1382
 4669 0176 0423     		movs	r3, #4
 4670 0178 A374     		strb	r3, [r4, #18]
 913:Middlewares/Third_Party/SubGHz_Phy/stm32_radio_driver/radio.c ****             SubgRf.PacketParams.Params.Gfsk.AddrComp = RADIO_ADDRESSCOMP_FILT_OFF;
 4671              		.loc 1 913 13 is_stmt 1 view .LVU1383
 913:Middlewares/Third_Party/SubGHz_Phy/stm32_radio_driver/radio.c ****             SubgRf.PacketParams.Params.Gfsk.AddrComp = RADIO_ADDRESSCOMP_FILT_OFF;
 4672              		.loc 1 913 60 is_stmt 0 view .LVU1384
 4673 017a 1823     		movs	r3, #24
 4674 017c E374     		strb	r3, [r4, #19]
 914:Middlewares/Third_Party/SubGHz_Phy/stm32_radio_driver/radio.c ****             SubgRf.PacketParams.Params.Gfsk.HeaderType = ( fixLen == true ) ? RADIO_PACKET_FIXED_LE
 4675              		.loc 1 914 13 is_stmt 1 view .LVU1385
 914:Middlewares/Third_Party/SubGHz_Phy/stm32_radio_driver/radio.c ****             SubgRf.PacketParams.Params.Gfsk.HeaderType = ( fixLen == true ) ? RADIO_PACKET_FIXED_LE
 4676              		.loc 1 914 54 is_stmt 0 view .LVU1386
 4677 017e 84F81480 		strb	r8, [r4, #20]
 915:Middlewares/Third_Party/SubGHz_Phy/stm32_radio_driver/radio.c ****             SubgRf.PacketParams.Params.Gfsk.PayloadLength = MaxPayloadLength;
 4678              		.loc 1 915 13 is_stmt 1 view .LVU1387
 915:Middlewares/Third_Party/SubGHz_Phy/stm32_radio_driver/radio.c ****             SubgRf.PacketParams.Params.Gfsk.PayloadLength = MaxPayloadLength;
 4679              		.loc 1 915 105 is_stmt 0 view .LVU1388
 4680 0182 87F00107 		eor	r7, r7, #1
 915:Middlewares/Third_Party/SubGHz_Phy/stm32_radio_driver/radio.c ****             SubgRf.PacketParams.Params.Gfsk.PayloadLength = MaxPayloadLength;
 4681              		.loc 1 915 56 view .LVU1389
 4682 0186 6775     		strb	r7, [r4, #21]
 916:Middlewares/Third_Party/SubGHz_Phy/stm32_radio_driver/radio.c ****             if( crcOn == true )
 4683              		.loc 1 916 13 is_stmt 1 view .LVU1390
 916:Middlewares/Third_Party/SubGHz_Phy/stm32_radio_driver/radio.c ****             if( crcOn == true )
 4684              		.loc 1 916 59 is_stmt 0 view .LVU1391
 4685 0188 524B     		ldr	r3, .L341+4
 4686 018a 1B78     		ldrb	r3, [r3]	@ zero_extendqisi2
 4687 018c A375     		strb	r3, [r4, #22]
 917:Middlewares/Third_Party/SubGHz_Phy/stm32_radio_driver/radio.c ****             {
 4688              		.loc 1 917 13 is_stmt 1 view .LVU1392
 917:Middlewares/Third_Party/SubGHz_Phy/stm32_radio_driver/radio.c ****             {
 4689              		.loc 1 917 15 is_stmt 0 view .LVU1393
 4690 018e BBF1000F 		cmp	fp, #0
ARM GAS  /var/folders/9y/n02fl3g16gnf7ppy14xghdy80000gn/T//cc8eCeeT.s 			page 140


 4691 0192 26D0     		beq	.L324
 919:Middlewares/Third_Party/SubGHz_Phy/stm32_radio_driver/radio.c ****             }
 4692              		.loc 1 919 17 is_stmt 1 view .LVU1394
 919:Middlewares/Third_Party/SubGHz_Phy/stm32_radio_driver/radio.c ****             }
 4693              		.loc 1 919 59 is_stmt 0 view .LVU1395
 4694 0194 F222     		movs	r2, #242
 4695 0196 E275     		strb	r2, [r4, #23]
 4696              	.L325:
 925:Middlewares/Third_Party/SubGHz_Phy/stm32_radio_driver/radio.c **** 
 4697              		.loc 1 925 13 is_stmt 1 view .LVU1396
 925:Middlewares/Third_Party/SubGHz_Phy/stm32_radio_driver/radio.c **** 
 4698              		.loc 1 925 52 is_stmt 0 view .LVU1397
 4699 0198 4D4C     		ldr	r4, .L341
 4700 019a 0123     		movs	r3, #1
 4701 019c 2376     		strb	r3, [r4, #24]
 927:Middlewares/Third_Party/SubGHz_Phy/stm32_radio_driver/radio.c ****             RadioSetModem( MODEM_FSK );
 4702              		.loc 1 927 13 is_stmt 1 view .LVU1398
 4703 019e FFF7FEFF 		bl	RadioStandby
 4704              	.LVL413:
 928:Middlewares/Third_Party/SubGHz_Phy/stm32_radio_driver/radio.c ****             SUBGRF_SetModulationParams( &SubgRf.ModulationParams );
 4705              		.loc 1 928 13 view .LVU1399
 4706 01a2 0020     		movs	r0, #0
 4707 01a4 FFF7FEFF 		bl	RadioSetModem
 4708              	.LVL414:
 929:Middlewares/Third_Party/SubGHz_Phy/stm32_radio_driver/radio.c ****             SUBGRF_SetPacketParams( &SubgRf.PacketParams );
 4709              		.loc 1 929 13 view .LVU1400
 4710 01a8 04F13800 		add	r0, r4, #56
 4711 01ac FFF7FEFF 		bl	SUBGRF_SetModulationParams
 4712              	.LVL415:
 930:Middlewares/Third_Party/SubGHz_Phy/stm32_radio_driver/radio.c ****             SUBGRF_SetSyncWord( ( uint8_t[] ){ 0xC1, 0x94, 0xC1, 0x00, 0x00, 0x00, 0x00, 0x00 } );
 4713              		.loc 1 930 13 view .LVU1401
 4714 01b0 04F10E00 		add	r0, r4, #14
 4715 01b4 FFF7FEFF 		bl	SUBGRF_SetPacketParams
 4716              	.LVL416:
 931:Middlewares/Third_Party/SubGHz_Phy/stm32_radio_driver/radio.c ****             SUBGRF_SetWhiteningSeed( 0x01FF );
 4717              		.loc 1 931 13 view .LVU1402
 931:Middlewares/Third_Party/SubGHz_Phy/stm32_radio_driver/radio.c ****             SUBGRF_SetWhiteningSeed( 0x01FF );
 4718              		.loc 1 931 46 is_stmt 0 view .LVU1403
 4719 01b8 484A     		ldr	r2, .L341+12
 4720 01ba 04AB     		add	r3, sp, #16
 4721 01bc 92E80300 		ldm	r2, {r0, r1}
 4722 01c0 83E80300 		stm	r3, {r0, r1}
 931:Middlewares/Third_Party/SubGHz_Phy/stm32_radio_driver/radio.c ****             SUBGRF_SetWhiteningSeed( 0x01FF );
 4723              		.loc 1 931 13 view .LVU1404
 4724 01c4 1846     		mov	r0, r3
 4725 01c6 FFF7FEFF 		bl	SUBGRF_SetSyncWord
 4726              	.LVL417:
 932:Middlewares/Third_Party/SubGHz_Phy/stm32_radio_driver/radio.c **** 
 4727              		.loc 1 932 13 is_stmt 1 view .LVU1405
 4728 01ca 40F2FF10 		movw	r0, #511
 4729 01ce FFF7FEFF 		bl	SUBGRF_SetWhiteningSeed
 4730              	.LVL418:
 935:Middlewares/Third_Party/SubGHz_Phy/stm32_radio_driver/radio.c ****             break;
 4731              		.loc 1 935 13 view .LVU1406
 935:Middlewares/Third_Party/SubGHz_Phy/stm32_radio_driver/radio.c ****             break;
 4732              		.loc 1 935 63 is_stmt 0 view .LVU1407
 4733 01d2 4FF4FA53 		mov	r3, #8000
ARM GAS  /var/folders/9y/n02fl3g16gnf7ppy14xghdy80000gn/T//cc8eCeeT.s 			page 141


 4734 01d6 03FB0AFA 		mul	r10, r3, r10
 4735              	.LVL419:
 935:Middlewares/Third_Party/SubGHz_Phy/stm32_radio_driver/radio.c ****             break;
 4736              		.loc 1 935 32 view .LVU1408
 4737 01da BAFBF5F5 		udiv	r5, r10, r5
 4738              	.LVL420:
 935:Middlewares/Third_Party/SubGHz_Phy/stm32_radio_driver/radio.c ****             break;
 4739              		.loc 1 935 30 view .LVU1409
 4740 01de A560     		str	r5, [r4, #8]
 936:Middlewares/Third_Party/SubGHz_Phy/stm32_radio_driver/radio.c **** 
 4741              		.loc 1 936 13 is_stmt 1 view .LVU1410
 4742 01e0 35E7     		b	.L316
 4743              	.LVL421:
 4744              	.L324:
 923:Middlewares/Third_Party/SubGHz_Phy/stm32_radio_driver/radio.c ****             }
 4745              		.loc 1 923 17 view .LVU1411
 923:Middlewares/Third_Party/SubGHz_Phy/stm32_radio_driver/radio.c ****             }
 4746              		.loc 1 923 59 is_stmt 0 view .LVU1412
 4747 01e2 3B4B     		ldr	r3, .L341
 4748 01e4 0122     		movs	r2, #1
 4749 01e6 DA75     		strb	r2, [r3, #23]
 4750 01e8 D6E7     		b	.L325
 4751              	.L320:
 939:Middlewares/Third_Party/SubGHz_Phy/stm32_radio_driver/radio.c ****             SubgRf.ModulationParams.PacketType = PACKET_TYPE_LORA;
 4752              		.loc 1 939 13 is_stmt 1 view .LVU1413
 4753 01ea 0020     		movs	r0, #0
 4754 01ec FFF7FEFF 		bl	SUBGRF_SetStopRxTimerOnPreambleDetect
 4755              	.LVL422:
 940:Middlewares/Third_Party/SubGHz_Phy/stm32_radio_driver/radio.c ****             SubgRf.ModulationParams.Params.LoRa.SpreadingFactor = ( RadioLoRaSpreadingFactors_t )da
 4756              		.loc 1 940 13 view .LVU1414
 940:Middlewares/Third_Party/SubGHz_Phy/stm32_radio_driver/radio.c ****             SubgRf.ModulationParams.Params.LoRa.SpreadingFactor = ( RadioLoRaSpreadingFactors_t )da
 4757              		.loc 1 940 48 is_stmt 0 view .LVU1415
 4758 01f0 374A     		ldr	r2, .L341
 4759 01f2 0123     		movs	r3, #1
 4760 01f4 82F83830 		strb	r3, [r2, #56]
 941:Middlewares/Third_Party/SubGHz_Phy/stm32_radio_driver/radio.c ****             SubgRf.ModulationParams.Params.LoRa.Bandwidth = Bandwidths[bandwidth];
 4761              		.loc 1 941 13 is_stmt 1 view .LVU1416
 941:Middlewares/Third_Party/SubGHz_Phy/stm32_radio_driver/radio.c ****             SubgRf.ModulationParams.Params.LoRa.Bandwidth = Bandwidths[bandwidth];
 4762              		.loc 1 941 67 is_stmt 0 view .LVU1417
 4763 01f8 EBB2     		uxtb	r3, r5
 941:Middlewares/Third_Party/SubGHz_Phy/stm32_radio_driver/radio.c ****             SubgRf.ModulationParams.Params.LoRa.Bandwidth = Bandwidths[bandwidth];
 4764              		.loc 1 941 65 view .LVU1418
 4765 01fa 82F85030 		strb	r3, [r2, #80]
 942:Middlewares/Third_Party/SubGHz_Phy/stm32_radio_driver/radio.c ****             SubgRf.ModulationParams.Params.LoRa.CodingRate = ( RadioLoRaCodingRates_t )coderate;
 4766              		.loc 1 942 13 is_stmt 1 view .LVU1419
 942:Middlewares/Third_Party/SubGHz_Phy/stm32_radio_driver/radio.c ****             SubgRf.ModulationParams.Params.LoRa.CodingRate = ( RadioLoRaCodingRates_t )coderate;
 4767              		.loc 1 942 71 is_stmt 0 view .LVU1420
 4768 01fe 3849     		ldr	r1, .L341+16
 4769 0200 895D     		ldrb	r1, [r1, r6]	@ zero_extendqisi2
 942:Middlewares/Third_Party/SubGHz_Phy/stm32_radio_driver/radio.c ****             SubgRf.ModulationParams.Params.LoRa.CodingRate = ( RadioLoRaCodingRates_t )coderate;
 4770              		.loc 1 942 59 view .LVU1421
 4771 0202 82F85110 		strb	r1, [r2, #81]
 943:Middlewares/Third_Party/SubGHz_Phy/stm32_radio_driver/radio.c **** 
 4772              		.loc 1 943 13 is_stmt 1 view .LVU1422
 943:Middlewares/Third_Party/SubGHz_Phy/stm32_radio_driver/radio.c **** 
 4773              		.loc 1 943 60 is_stmt 0 view .LVU1423
 4774 0206 0199     		ldr	r1, [sp, #4]
ARM GAS  /var/folders/9y/n02fl3g16gnf7ppy14xghdy80000gn/T//cc8eCeeT.s 			page 142


 4775 0208 82F85210 		strb	r1, [r2, #82]
 945:Middlewares/Third_Party/SubGHz_Phy/stm32_radio_driver/radio.c ****                 ( ( bandwidth == 1 ) && ( datarate == 12 ) ) )
 4776              		.loc 1 945 13 is_stmt 1 view .LVU1424
 945:Middlewares/Third_Party/SubGHz_Phy/stm32_radio_driver/radio.c ****                 ( ( bandwidth == 1 ) && ( datarate == 12 ) ) )
 4777              		.loc 1 945 15 is_stmt 0 view .LVU1425
 4778 020c 1EB9     		cbnz	r6, .L326
 945:Middlewares/Third_Party/SubGHz_Phy/stm32_radio_driver/radio.c ****                 ( ( bandwidth == 1 ) && ( datarate == 12 ) ) )
 4779              		.loc 1 945 62 discriminator 1 view .LVU1426
 4780 020e A5F10B02 		sub	r2, r5, #11
 945:Middlewares/Third_Party/SubGHz_Phy/stm32_radio_driver/radio.c ****                 ( ( bandwidth == 1 ) && ( datarate == 12 ) ) )
 4781              		.loc 1 945 38 discriminator 1 view .LVU1427
 4782 0212 012A     		cmp	r2, #1
 4783 0214 41D9     		bls	.L327
 4784              	.L326:
 945:Middlewares/Third_Party/SubGHz_Phy/stm32_radio_driver/radio.c ****                 ( ( bandwidth == 1 ) && ( datarate == 12 ) ) )
 4785              		.loc 1 945 88 discriminator 3 view .LVU1428
 4786 0216 012E     		cmp	r6, #1
 4787 0218 3DD0     		beq	.L338
 4788              	.L328:
 952:Middlewares/Third_Party/SubGHz_Phy/stm32_radio_driver/radio.c ****             }
 4789              		.loc 1 952 17 is_stmt 1 view .LVU1429
 952:Middlewares/Third_Party/SubGHz_Phy/stm32_radio_driver/radio.c ****             }
 4790              		.loc 1 952 73 is_stmt 0 view .LVU1430
 4791 021a 2D4A     		ldr	r2, .L341
 4792 021c 0021     		movs	r1, #0
 4793 021e 82F85310 		strb	r1, [r2, #83]
 4794              	.L329:
 955:Middlewares/Third_Party/SubGHz_Phy/stm32_radio_driver/radio.c **** 
 4795              		.loc 1 955 13 is_stmt 1 view .LVU1431
 955:Middlewares/Third_Party/SubGHz_Phy/stm32_radio_driver/radio.c **** 
 4796              		.loc 1 955 44 is_stmt 0 view .LVU1432
 4797 0222 2B4A     		ldr	r2, .L341
 4798 0224 0121     		movs	r1, #1
 4799 0226 9173     		strb	r1, [r2, #14]
 957:Middlewares/Third_Party/SubGHz_Phy/stm32_radio_driver/radio.c ****                 ( SubgRf.ModulationParams.Params.LoRa.SpreadingFactor == LORA_SF6 ) )
 4800              		.loc 1 957 13 is_stmt 1 view .LVU1433
 957:Middlewares/Third_Party/SubGHz_Phy/stm32_radio_driver/radio.c ****                 ( SubgRf.ModulationParams.Params.LoRa.SpreadingFactor == LORA_SF6 ) )
 4801              		.loc 1 957 85 is_stmt 0 view .LVU1434
 4802 0228 053B     		subs	r3, r3, #5
 4803 022a DBB2     		uxtb	r3, r3
 957:Middlewares/Third_Party/SubGHz_Phy/stm32_radio_driver/radio.c ****                 ( SubgRf.ModulationParams.Params.LoRa.SpreadingFactor == LORA_SF6 ) )
 4804              		.loc 1 957 15 view .LVU1435
 4805 022c 8B42     		cmp	r3, r1
 4806 022e 39D9     		bls	.L339
 971:Middlewares/Third_Party/SubGHz_Phy/stm32_radio_driver/radio.c ****             }
 4807              		.loc 1 971 17 is_stmt 1 view .LVU1436
 971:Middlewares/Third_Party/SubGHz_Phy/stm32_radio_driver/radio.c ****             }
 4808              		.loc 1 971 64 is_stmt 0 view .LVU1437
 4809 0230 274B     		ldr	r3, .L341
 4810 0232 A3F81C90 		strh	r9, [r3, #28]	@ movhi
 4811              	.L332:
 974:Middlewares/Third_Party/SubGHz_Phy/stm32_radio_driver/radio.c **** 
 4812              		.loc 1 974 13 is_stmt 1 view .LVU1438
 974:Middlewares/Third_Party/SubGHz_Phy/stm32_radio_driver/radio.c **** 
 4813              		.loc 1 974 56 is_stmt 0 view .LVU1439
 4814 0236 264C     		ldr	r4, .L341
 4815 0238 A777     		strb	r7, [r4, #30]
ARM GAS  /var/folders/9y/n02fl3g16gnf7ppy14xghdy80000gn/T//cc8eCeeT.s 			page 143


 976:Middlewares/Third_Party/SubGHz_Phy/stm32_radio_driver/radio.c ****             SubgRf.PacketParams.Params.LoRa.CrcMode = ( RadioLoRaCrcModes_t )crcOn;
 4816              		.loc 1 976 13 is_stmt 1 view .LVU1440
 976:Middlewares/Third_Party/SubGHz_Phy/stm32_radio_driver/radio.c ****             SubgRf.PacketParams.Params.LoRa.CrcMode = ( RadioLoRaCrcModes_t )crcOn;
 4817              		.loc 1 976 59 is_stmt 0 view .LVU1441
 4818 023a 264B     		ldr	r3, .L341+4
 4819 023c 1B78     		ldrb	r3, [r3]	@ zero_extendqisi2
 4820 023e E377     		strb	r3, [r4, #31]
 977:Middlewares/Third_Party/SubGHz_Phy/stm32_radio_driver/radio.c ****             SubgRf.PacketParams.Params.LoRa.InvertIQ = ( RadioLoRaIQModes_t )iqInverted;
 4821              		.loc 1 977 13 is_stmt 1 view .LVU1442
 977:Middlewares/Third_Party/SubGHz_Phy/stm32_radio_driver/radio.c ****             SubgRf.PacketParams.Params.LoRa.InvertIQ = ( RadioLoRaIQModes_t )iqInverted;
 4822              		.loc 1 977 53 is_stmt 0 view .LVU1443
 4823 0240 84F820B0 		strb	fp, [r4, #32]
 978:Middlewares/Third_Party/SubGHz_Phy/stm32_radio_driver/radio.c **** 
 4824              		.loc 1 978 13 is_stmt 1 view .LVU1444
 978:Middlewares/Third_Party/SubGHz_Phy/stm32_radio_driver/radio.c **** 
 4825              		.loc 1 978 54 is_stmt 0 view .LVU1445
 4826 0244 9DF86030 		ldrb	r3, [sp, #96]	@ zero_extendqisi2
 4827 0248 84F82130 		strb	r3, [r4, #33]
 980:Middlewares/Third_Party/SubGHz_Phy/stm32_radio_driver/radio.c ****             RadioSetModem( MODEM_LORA );
 4828              		.loc 1 980 13 is_stmt 1 view .LVU1446
 4829 024c FFF7FEFF 		bl	RadioStandby
 4830              	.LVL423:
 981:Middlewares/Third_Party/SubGHz_Phy/stm32_radio_driver/radio.c ****             SUBGRF_SetModulationParams( &SubgRf.ModulationParams );
 4831              		.loc 1 981 13 view .LVU1447
 4832 0250 0120     		movs	r0, #1
 4833 0252 FFF7FEFF 		bl	RadioSetModem
 4834              	.LVL424:
 982:Middlewares/Third_Party/SubGHz_Phy/stm32_radio_driver/radio.c ****             SUBGRF_SetPacketParams( &SubgRf.PacketParams );
 4835              		.loc 1 982 13 view .LVU1448
 4836 0256 04F13800 		add	r0, r4, #56
 4837 025a FFF7FEFF 		bl	SUBGRF_SetModulationParams
 4838              	.LVL425:
 983:Middlewares/Third_Party/SubGHz_Phy/stm32_radio_driver/radio.c ****             SUBGRF_SetLoRaSymbNumTimeout( symbTimeout );
 4839              		.loc 1 983 13 view .LVU1449
 4840 025e 04F10E00 		add	r0, r4, #14
 4841 0262 FFF7FEFF 		bl	SUBGRF_SetPacketParams
 4842              	.LVL426:
 984:Middlewares/Third_Party/SubGHz_Phy/stm32_radio_driver/radio.c **** 
 4843              		.loc 1 984 13 view .LVU1450
 4844 0266 5FFA8AF0 		uxtb	r0, r10
 4845 026a FFF7FEFF 		bl	SUBGRF_SetLoRaSymbNumTimeout
 4846              	.LVL427:
 987:Middlewares/Third_Party/SubGHz_Phy/stm32_radio_driver/radio.c ****             {
 4847              		.loc 1 987 13 view .LVU1451
 987:Middlewares/Third_Party/SubGHz_Phy/stm32_radio_driver/radio.c ****             {
 4848              		.loc 1 987 48 is_stmt 0 view .LVU1452
 4849 026e 94F82130 		ldrb	r3, [r4, #33]	@ zero_extendqisi2
 987:Middlewares/Third_Party/SubGHz_Phy/stm32_radio_driver/radio.c ****             {
 4850              		.loc 1 987 15 view .LVU1453
 4851 0272 012B     		cmp	r3, #1
 4852 0274 21D0     		beq	.L340
 995:Middlewares/Third_Party/SubGHz_Phy/stm32_radio_driver/radio.c ****             }
 4853              		.loc 1 995 17 is_stmt 1 view .LVU1454
 995:Middlewares/Third_Party/SubGHz_Phy/stm32_radio_driver/radio.c ****             }
 4854              		.loc 1 995 55 is_stmt 0 view .LVU1455
 4855 0276 40F23670 		movw	r0, #1846
 4856 027a FFF7FEFF 		bl	SUBGRF_ReadRegister
ARM GAS  /var/folders/9y/n02fl3g16gnf7ppy14xghdy80000gn/T//cc8eCeeT.s 			page 144


 4857              	.LVL428:
 995:Middlewares/Third_Party/SubGHz_Phy/stm32_radio_driver/radio.c ****             }
 4858              		.loc 1 995 17 view .LVU1456
 4859 027e 40F00401 		orr	r1, r0, #4
 4860 0282 C9B2     		uxtb	r1, r1
 4861 0284 40F23670 		movw	r0, #1846
 4862 0288 FFF7FEFF 		bl	SUBGRF_WriteRegister
 4863              	.LVL429:
 4864              	.L334:
1000:Middlewares/Third_Party/SubGHz_Phy/stm32_radio_driver/radio.c **** 
 4865              		.loc 1 1000 13 is_stmt 1 view .LVU1457
1000:Middlewares/Third_Party/SubGHz_Phy/stm32_radio_driver/radio.c **** 
 4866              		.loc 1 1000 30 is_stmt 0 view .LVU1458
 4867 028c 104B     		ldr	r3, .L341
 4868 028e 4FF6FF72 		movw	r2, #65535
 4869 0292 9A60     		str	r2, [r3, #8]
1002:Middlewares/Third_Party/SubGHz_Phy/stm32_radio_driver/radio.c ****         default:
 4870              		.loc 1 1002 13 is_stmt 1 view .LVU1459
 4871              	.LBE11:
1006:Middlewares/Third_Party/SubGHz_Phy/stm32_radio_driver/radio.c **** 
 4872              		.loc 1 1006 1 is_stmt 0 view .LVU1460
 4873 0294 DBE6     		b	.L316
 4874              	.L338:
 4875              	.LBB12:
 946:Middlewares/Third_Party/SubGHz_Phy/stm32_radio_driver/radio.c ****             {
 4876              		.loc 1 946 38 view .LVU1461
 4877 0296 0C2D     		cmp	r5, #12
 4878 0298 BFD1     		bne	.L328
 4879              	.L327:
 948:Middlewares/Third_Party/SubGHz_Phy/stm32_radio_driver/radio.c ****             }
 4880              		.loc 1 948 17 is_stmt 1 view .LVU1462
 948:Middlewares/Third_Party/SubGHz_Phy/stm32_radio_driver/radio.c ****             }
 4881              		.loc 1 948 73 is_stmt 0 view .LVU1463
 4882 029a 0D4A     		ldr	r2, .L341
 4883 029c 0121     		movs	r1, #1
 4884 029e 82F85310 		strb	r1, [r2, #83]
 4885 02a2 BEE7     		b	.L329
 4886              	.L339:
 960:Middlewares/Third_Party/SubGHz_Phy/stm32_radio_driver/radio.c ****                 {
 4887              		.loc 1 960 17 is_stmt 1 view .LVU1464
 960:Middlewares/Third_Party/SubGHz_Phy/stm32_radio_driver/radio.c ****                 {
 4888              		.loc 1 960 19 is_stmt 0 view .LVU1465
 4889 02a4 B9F10B0F 		cmp	r9, #11
 4890 02a8 03D8     		bhi	.L331
 962:Middlewares/Third_Party/SubGHz_Phy/stm32_radio_driver/radio.c ****                 }
 4891              		.loc 1 962 21 is_stmt 1 view .LVU1466
 962:Middlewares/Third_Party/SubGHz_Phy/stm32_radio_driver/radio.c ****                 }
 4892              		.loc 1 962 68 is_stmt 0 view .LVU1467
 4893 02aa 1346     		mov	r3, r2
 4894 02ac 0C22     		movs	r2, #12
 4895 02ae 9A83     		strh	r2, [r3, #28]	@ movhi
 4896 02b0 C1E7     		b	.L332
 4897              	.L331:
 966:Middlewares/Third_Party/SubGHz_Phy/stm32_radio_driver/radio.c ****                 }
 4898              		.loc 1 966 21 is_stmt 1 view .LVU1468
 966:Middlewares/Third_Party/SubGHz_Phy/stm32_radio_driver/radio.c ****                 }
 4899              		.loc 1 966 68 is_stmt 0 view .LVU1469
ARM GAS  /var/folders/9y/n02fl3g16gnf7ppy14xghdy80000gn/T//cc8eCeeT.s 			page 145


 4900 02b2 074B     		ldr	r3, .L341
 4901 02b4 A3F81C90 		strh	r9, [r3, #28]	@ movhi
 4902 02b8 BDE7     		b	.L332
 4903              	.L340:
 990:Middlewares/Third_Party/SubGHz_Phy/stm32_radio_driver/radio.c ****             }
 4904              		.loc 1 990 17 is_stmt 1 view .LVU1470
 990:Middlewares/Third_Party/SubGHz_Phy/stm32_radio_driver/radio.c ****             }
 4905              		.loc 1 990 55 is_stmt 0 view .LVU1471
 4906 02ba 40F23670 		movw	r0, #1846
 4907 02be FFF7FEFF 		bl	SUBGRF_ReadRegister
 4908              	.LVL430:
 990:Middlewares/Third_Party/SubGHz_Phy/stm32_radio_driver/radio.c ****             }
 4909              		.loc 1 990 17 view .LVU1472
 4910 02c2 00F0FB01 		and	r1, r0, #251
 4911 02c6 40F23670 		movw	r0, #1846
 4912 02ca FFF7FEFF 		bl	SUBGRF_WriteRegister
 4913              	.LVL431:
 4914 02ce DDE7     		b	.L334
 4915              	.L342:
 4916              		.align	2
 4917              	.L341:
 4918 02d0 00000000 		.word	.LANCHOR3
 4919 02d4 00000000 		.word	.LANCHOR2
 4920 02d8 08000000 		.word	.LANCHOR7+8
 4921 02dc 00000000 		.word	.LANCHOR7
 4922 02e0 00000000 		.word	.LANCHOR0
 4923              	.LBE12:
 4924              		.cfi_endproc
 4925              	.LFE1169:
 4927              		.section	.text.RadioIsChannelFree,"ax",%progbits
 4928              		.align	1
 4929              		.syntax unified
 4930              		.thumb
 4931              		.thumb_func
 4932              		.fpu softvfp
 4934              	RadioIsChannelFree:
 4935              	.LVL432:
 4936              	.LFB1167:
 771:Middlewares/Third_Party/SubGHz_Phy/stm32_radio_driver/radio.c ****     bool status = true;
 4937              		.loc 1 771 1 is_stmt 1 view -0
 4938              		.cfi_startproc
 4939              		@ args = 0, pretend = 0, frame = 0
 4940              		@ frame_needed = 0, uses_anonymous_args = 0
 771:Middlewares/Third_Party/SubGHz_Phy/stm32_radio_driver/radio.c ****     bool status = true;
 4941              		.loc 1 771 1 is_stmt 0 view .LVU1474
 4942 0000 F0B5     		push	{r4, r5, r6, r7, lr}
 4943              		.cfi_def_cfa_offset 20
 4944              		.cfi_offset 4, -20
 4945              		.cfi_offset 5, -16
 4946              		.cfi_offset 6, -12
 4947              		.cfi_offset 7, -8
 4948              		.cfi_offset 14, -4
 4949 0002 8BB0     		sub	sp, sp, #44
 4950              		.cfi_def_cfa_offset 64
 4951 0004 0446     		mov	r4, r0
 4952 0006 0F46     		mov	r7, r1
 4953 0008 1646     		mov	r6, r2
ARM GAS  /var/folders/9y/n02fl3g16gnf7ppy14xghdy80000gn/T//cc8eCeeT.s 			page 146


 4954 000a 1D46     		mov	r5, r3
 772:Middlewares/Third_Party/SubGHz_Phy/stm32_radio_driver/radio.c ****     int16_t rssi = 0;
 4955              		.loc 1 772 5 is_stmt 1 view .LVU1475
 4956              	.LVL433:
 773:Middlewares/Third_Party/SubGHz_Phy/stm32_radio_driver/radio.c ****     uint32_t carrierSenseTime = 0;
 4957              		.loc 1 773 5 view .LVU1476
 774:Middlewares/Third_Party/SubGHz_Phy/stm32_radio_driver/radio.c **** 
 4958              		.loc 1 774 5 view .LVU1477
 776:Middlewares/Third_Party/SubGHz_Phy/stm32_radio_driver/radio.c **** 
 4959              		.loc 1 776 5 view .LVU1478
 4960 000c FFF7FEFF 		bl	RadioStandby
 4961              	.LVL434:
 778:Middlewares/Third_Party/SubGHz_Phy/stm32_radio_driver/radio.c **** 
 4962              		.loc 1 778 5 view .LVU1479
 4963 0010 0020     		movs	r0, #0
 4964 0012 FFF7FEFF 		bl	RadioSetModem
 4965              	.LVL435:
 780:Middlewares/Third_Party/SubGHz_Phy/stm32_radio_driver/radio.c **** 
 4966              		.loc 1 780 5 view .LVU1480
 4967 0016 2046     		mov	r0, r4
 4968 0018 FFF7FEFF 		bl	RadioSetChannel
 4969              	.LVL436:
 783:Middlewares/Third_Party/SubGHz_Phy/stm32_radio_driver/radio.c ****                       0, false, 0, 0, false, true );
 4970              		.loc 1 783 5 view .LVU1481
 4971 001c 0123     		movs	r3, #1
 4972 001e 0993     		str	r3, [sp, #36]
 4973 0020 0024     		movs	r4, #0
 4974              	.LVL437:
 783:Middlewares/Third_Party/SubGHz_Phy/stm32_radio_driver/radio.c ****                       0, false, 0, 0, false, true );
 4975              		.loc 1 783 5 is_stmt 0 view .LVU1482
 4976 0022 0894     		str	r4, [sp, #32]
 4977 0024 0794     		str	r4, [sp, #28]
 4978 0026 0694     		str	r4, [sp, #24]
 4979 0028 0594     		str	r4, [sp, #20]
 4980 002a 0494     		str	r4, [sp, #16]
 4981 002c 0394     		str	r4, [sp, #12]
 4982 002e 0294     		str	r4, [sp, #8]
 4983 0030 0323     		movs	r3, #3
 4984 0032 0193     		str	r3, [sp, #4]
 4985 0034 0097     		str	r7, [sp]
 4986 0036 2346     		mov	r3, r4
 4987 0038 4FF41672 		mov	r2, #600
 4988 003c 3946     		mov	r1, r7
 4989 003e 2046     		mov	r0, r4
 4990 0040 FFF7FEFF 		bl	RadioSetRxConfig
 4991              	.LVL438:
 785:Middlewares/Third_Party/SubGHz_Phy/stm32_radio_driver/radio.c **** 
 4992              		.loc 1 785 5 is_stmt 1 view .LVU1483
 4993 0044 2046     		mov	r0, r4
 4994 0046 FFF7FEFF 		bl	RadioRx
 4995              	.LVL439:
 787:Middlewares/Third_Party/SubGHz_Phy/stm32_radio_driver/radio.c **** 
 4996              		.loc 1 787 5 view .LVU1484
 4997 004a FFF7FEFF 		bl	RadioGetWakeupTime
 4998              	.LVL440:
 4999 004e FFF7FEFF 		bl	HAL_Delay
 5000              	.LVL441:
ARM GAS  /var/folders/9y/n02fl3g16gnf7ppy14xghdy80000gn/T//cc8eCeeT.s 			page 147


 789:Middlewares/Third_Party/SubGHz_Phy/stm32_radio_driver/radio.c **** 
 5001              		.loc 1 789 5 view .LVU1485
 789:Middlewares/Third_Party/SubGHz_Phy/stm32_radio_driver/radio.c **** 
 5002              		.loc 1 789 24 is_stmt 0 view .LVU1486
 5003 0052 FFF7FEFF 		bl	UTIL_TIMER_GetCurrentTime
 5004              	.LVL442:
 5005 0056 0446     		mov	r4, r0
 5006              	.LVL443:
 792:Middlewares/Third_Party/SubGHz_Phy/stm32_radio_driver/radio.c ****     {
 5007              		.loc 1 792 5 is_stmt 1 view .LVU1487
 5008              	.L344:
 792:Middlewares/Third_Party/SubGHz_Phy/stm32_radio_driver/radio.c ****     {
 5009              		.loc 1 792 10 view .LVU1488
 792:Middlewares/Third_Party/SubGHz_Phy/stm32_radio_driver/radio.c ****     {
 5010              		.loc 1 792 12 is_stmt 0 view .LVU1489
 5011 0058 2046     		mov	r0, r4
 5012 005a FFF7FEFF 		bl	UTIL_TIMER_GetElapsedTime
 5013              	.LVL444:
 792:Middlewares/Third_Party/SubGHz_Phy/stm32_radio_driver/radio.c ****     {
 5014              		.loc 1 792 10 view .LVU1490
 5015 005e A842     		cmp	r0, r5
 5016 0060 06D2     		bcs	.L349
 794:Middlewares/Third_Party/SubGHz_Phy/stm32_radio_driver/radio.c **** 
 5017              		.loc 1 794 9 is_stmt 1 view .LVU1491
 794:Middlewares/Third_Party/SubGHz_Phy/stm32_radio_driver/radio.c **** 
 5018              		.loc 1 794 16 is_stmt 0 view .LVU1492
 5019 0062 0020     		movs	r0, #0
 5020 0064 FFF7FEFF 		bl	RadioRssi
 5021              	.LVL445:
 796:Middlewares/Third_Party/SubGHz_Phy/stm32_radio_driver/radio.c ****         {
 5022              		.loc 1 796 9 is_stmt 1 view .LVU1493
 796:Middlewares/Third_Party/SubGHz_Phy/stm32_radio_driver/radio.c ****         {
 5023              		.loc 1 796 11 is_stmt 0 view .LVU1494
 5024 0068 B042     		cmp	r0, r6
 5025 006a F5DD     		ble	.L344
 798:Middlewares/Third_Party/SubGHz_Phy/stm32_radio_driver/radio.c ****             break;
 5026              		.loc 1 798 20 view .LVU1495
 5027 006c 0024     		movs	r4, #0
 5028              	.LVL446:
 798:Middlewares/Third_Party/SubGHz_Phy/stm32_radio_driver/radio.c ****             break;
 5029              		.loc 1 798 20 view .LVU1496
 5030 006e 00E0     		b	.L345
 5031              	.LVL447:
 5032              	.L349:
 772:Middlewares/Third_Party/SubGHz_Phy/stm32_radio_driver/radio.c ****     int16_t rssi = 0;
 5033              		.loc 1 772 10 view .LVU1497
 5034 0070 0124     		movs	r4, #1
 5035              	.LVL448:
 5036              	.L345:
 802:Middlewares/Third_Party/SubGHz_Phy/stm32_radio_driver/radio.c **** 
 5037              		.loc 1 802 5 is_stmt 1 view .LVU1498
 5038 0072 FFF7FEFF 		bl	RadioStandby
 5039              	.LVL449:
 804:Middlewares/Third_Party/SubGHz_Phy/stm32_radio_driver/radio.c **** }
 5040              		.loc 1 804 5 view .LVU1499
 805:Middlewares/Third_Party/SubGHz_Phy/stm32_radio_driver/radio.c **** 
 5041              		.loc 1 805 1 is_stmt 0 view .LVU1500
ARM GAS  /var/folders/9y/n02fl3g16gnf7ppy14xghdy80000gn/T//cc8eCeeT.s 			page 148


 5042 0076 2046     		mov	r0, r4
 5043 0078 0BB0     		add	sp, sp, #44
 5044              		.cfi_def_cfa_offset 20
 5045              		@ sp needed
 5046 007a F0BD     		pop	{r4, r5, r6, r7, pc}
 805:Middlewares/Third_Party/SubGHz_Phy/stm32_radio_driver/radio.c **** 
 5047              		.loc 1 805 1 view .LVU1501
 5048              		.cfi_endproc
 5049              	.LFE1167:
 5051              		.section	.text.RadioInit,"ax",%progbits
 5052              		.align	1
 5053              		.syntax unified
 5054              		.thumb
 5055              		.thumb_func
 5056              		.fpu softvfp
 5058              	RadioInit:
 5059              	.LVL450:
 5060              	.LFB1163:
 667:Middlewares/Third_Party/SubGHz_Phy/stm32_radio_driver/radio.c ****     RadioEvents = events;
 5061              		.loc 1 667 1 is_stmt 1 view -0
 5062              		.cfi_startproc
 5063              		@ args = 0, pretend = 0, frame = 0
 5064              		@ frame_needed = 0, uses_anonymous_args = 0
 667:Middlewares/Third_Party/SubGHz_Phy/stm32_radio_driver/radio.c ****     RadioEvents = events;
 5065              		.loc 1 667 1 is_stmt 0 view .LVU1503
 5066 0000 70B5     		push	{r4, r5, r6, lr}
 5067              		.cfi_def_cfa_offset 16
 5068              		.cfi_offset 4, -16
 5069              		.cfi_offset 5, -12
 5070              		.cfi_offset 6, -8
 5071              		.cfi_offset 14, -4
 5072 0002 82B0     		sub	sp, sp, #8
 5073              		.cfi_def_cfa_offset 24
 668:Middlewares/Third_Party/SubGHz_Phy/stm32_radio_driver/radio.c **** 
 5074              		.loc 1 668 5 is_stmt 1 view .LVU1504
 668:Middlewares/Third_Party/SubGHz_Phy/stm32_radio_driver/radio.c **** 
 5075              		.loc 1 668 17 is_stmt 0 view .LVU1505
 5076 0004 1D4B     		ldr	r3, .L352
 5077 0006 1860     		str	r0, [r3]
 670:Middlewares/Third_Party/SubGHz_Phy/stm32_radio_driver/radio.c ****     SubgRf.TxTimeout = 0;
 5078              		.loc 1 670 5 is_stmt 1 view .LVU1506
 670:Middlewares/Third_Party/SubGHz_Phy/stm32_radio_driver/radio.c ****     SubgRf.TxTimeout = 0;
 5079              		.loc 1 670 25 is_stmt 0 view .LVU1507
 5080 0008 1D4D     		ldr	r5, .L352+4
 5081 000a 0024     		movs	r4, #0
 5082 000c 6C70     		strb	r4, [r5, #1]
 671:Middlewares/Third_Party/SubGHz_Phy/stm32_radio_driver/radio.c ****     SubgRf.RxTimeout = 0;
 5083              		.loc 1 671 5 is_stmt 1 view .LVU1508
 671:Middlewares/Third_Party/SubGHz_Phy/stm32_radio_driver/radio.c ****     SubgRf.RxTimeout = 0;
 5084              		.loc 1 671 22 is_stmt 0 view .LVU1509
 5085 000e 6C60     		str	r4, [r5, #4]
 672:Middlewares/Third_Party/SubGHz_Phy/stm32_radio_driver/radio.c ****     /*See STM32WL Errata: RadioSetRxDutyCycle*/
 5086              		.loc 1 672 5 is_stmt 1 view .LVU1510
 672:Middlewares/Third_Party/SubGHz_Phy/stm32_radio_driver/radio.c ****     /*See STM32WL Errata: RadioSetRxDutyCycle*/
 5087              		.loc 1 672 22 is_stmt 0 view .LVU1511
 5088 0010 AC60     		str	r4, [r5, #8]
 674:Middlewares/Third_Party/SubGHz_Phy/stm32_radio_driver/radio.c **** 
ARM GAS  /var/folders/9y/n02fl3g16gnf7ppy14xghdy80000gn/T//cc8eCeeT.s 			page 149


 5089              		.loc 1 674 5 is_stmt 1 view .LVU1512
 674:Middlewares/Third_Party/SubGHz_Phy/stm32_radio_driver/radio.c **** 
 5090              		.loc 1 674 38 is_stmt 0 view .LVU1513
 5091 0012 AC65     		str	r4, [r5, #88]
 676:Middlewares/Third_Party/SubGHz_Phy/stm32_radio_driver/radio.c ****     /*SubgRf.publicNetwork set to false*/
 5092              		.loc 1 676 5 is_stmt 1 view .LVU1514
 5093 0014 1B48     		ldr	r0, .L352+8
 5094              	.LVL451:
 676:Middlewares/Third_Party/SubGHz_Phy/stm32_radio_driver/radio.c ****     /*SubgRf.publicNetwork set to false*/
 5095              		.loc 1 676 5 is_stmt 0 view .LVU1515
 5096 0016 FFF7FEFF 		bl	SUBGRF_Init
 5097              	.LVL452:
 678:Middlewares/Third_Party/SubGHz_Phy/stm32_radio_driver/radio.c ****     SubgRf.PublicNetwork.Previous = false;
 5098              		.loc 1 678 5 is_stmt 1 view .LVU1516
 678:Middlewares/Third_Party/SubGHz_Phy/stm32_radio_driver/radio.c ****     SubgRf.PublicNetwork.Previous = false;
 5099              		.loc 1 678 34 is_stmt 0 view .LVU1517
 5100 001a 6C73     		strb	r4, [r5, #13]
 679:Middlewares/Third_Party/SubGHz_Phy/stm32_radio_driver/radio.c **** 
 5101              		.loc 1 679 5 is_stmt 1 view .LVU1518
 679:Middlewares/Third_Party/SubGHz_Phy/stm32_radio_driver/radio.c **** 
 5102              		.loc 1 679 35 is_stmt 0 view .LVU1519
 5103 001c 2C73     		strb	r4, [r5, #12]
 681:Middlewares/Third_Party/SubGHz_Phy/stm32_radio_driver/radio.c **** 
 5104              		.loc 1 681 29 is_stmt 1 view .LVU1520
 683:Middlewares/Third_Party/SubGHz_Phy/stm32_radio_driver/radio.c **** 
 5105              		.loc 1 683 5 view .LVU1521
 5106 001e FFF7FEFF 		bl	SUBGRF_SetRegulatorMode
 5107              	.LVL453:
 685:Middlewares/Third_Party/SubGHz_Phy/stm32_radio_driver/radio.c ****     SUBGRF_SetTxParams( RFO_LP, 0, RADIO_RAMP_200_US );
 5108              		.loc 1 685 5 view .LVU1522
 5109 0022 2146     		mov	r1, r4
 5110 0024 2046     		mov	r0, r4
 5111 0026 FFF7FEFF 		bl	SUBGRF_SetBufferBaseAddress
 5112              	.LVL454:
 686:Middlewares/Third_Party/SubGHz_Phy/stm32_radio_driver/radio.c ****     SUBGRF_SetDioIrqParams( IRQ_RADIO_ALL, IRQ_RADIO_ALL, IRQ_RADIO_NONE, IRQ_RADIO_NONE );
 5113              		.loc 1 686 5 view .LVU1523
 5114 002a 0422     		movs	r2, #4
 5115 002c 2146     		mov	r1, r4
 5116 002e 0120     		movs	r0, #1
 5117 0030 FFF7FEFF 		bl	SUBGRF_SetTxParams
 5118              	.LVL455:
 687:Middlewares/Third_Party/SubGHz_Phy/stm32_radio_driver/radio.c **** 
 5119              		.loc 1 687 5 view .LVU1524
 5120 0034 2346     		mov	r3, r4
 5121 0036 2246     		mov	r2, r4
 5122 0038 4FF6FF71 		movw	r1, #65535
 5123 003c 0846     		mov	r0, r1
 5124 003e FFF7FEFF 		bl	SUBGRF_SetDioIrqParams
 5125              	.LVL456:
 690:Middlewares/Third_Party/SubGHz_Phy/stm32_radio_driver/radio.c ****     /* ST_WORKAROUND_END */
 5126              		.loc 1 690 5 view .LVU1525
 5127 0042 FFF7FEFF 		bl	RadioSleep
 5128              	.LVL457:
 693:Middlewares/Third_Party/SubGHz_Phy/stm32_radio_driver/radio.c ****     TimerInit( &RxTimeoutTimer, RadioOnRxTimeoutIrq );
 5129              		.loc 1 693 5 view .LVU1526
 693:Middlewares/Third_Party/SubGHz_Phy/stm32_radio_driver/radio.c ****     TimerInit( &RxTimeoutTimer, RadioOnRxTimeoutIrq );
 5130              		.loc 1 693 5 view .LVU1527
ARM GAS  /var/folders/9y/n02fl3g16gnf7ppy14xghdy80000gn/T//cc8eCeeT.s 			page 150


 5131 0046 104E     		ldr	r6, .L352+12
 5132 0048 0094     		str	r4, [sp]
 5133 004a 104B     		ldr	r3, .L352+16
 5134 004c 2246     		mov	r2, r4
 5135 004e 4FF0FF31 		mov	r1, #-1
 5136 0052 3046     		mov	r0, r6
 5137 0054 FFF7FEFF 		bl	UTIL_TIMER_Create
 5138              	.LVL458:
 693:Middlewares/Third_Party/SubGHz_Phy/stm32_radio_driver/radio.c ****     TimerInit( &RxTimeoutTimer, RadioOnRxTimeoutIrq );
 5139              		.loc 1 693 5 view .LVU1528
 694:Middlewares/Third_Party/SubGHz_Phy/stm32_radio_driver/radio.c ****     TimerStop( &TxTimeoutTimer );
 5140              		.loc 1 694 5 view .LVU1529
 694:Middlewares/Third_Party/SubGHz_Phy/stm32_radio_driver/radio.c ****     TimerStop( &TxTimeoutTimer );
 5141              		.loc 1 694 5 view .LVU1530
 5142 0058 0D4D     		ldr	r5, .L352+20
 5143 005a 0094     		str	r4, [sp]
 5144 005c 0D4B     		ldr	r3, .L352+24
 5145 005e 2246     		mov	r2, r4
 5146 0060 4FF0FF31 		mov	r1, #-1
 5147 0064 2846     		mov	r0, r5
 5148 0066 FFF7FEFF 		bl	UTIL_TIMER_Create
 5149              	.LVL459:
 694:Middlewares/Third_Party/SubGHz_Phy/stm32_radio_driver/radio.c ****     TimerStop( &TxTimeoutTimer );
 5150              		.loc 1 694 5 view .LVU1531
 695:Middlewares/Third_Party/SubGHz_Phy/stm32_radio_driver/radio.c ****     TimerStop( &RxTimeoutTimer );
 5151              		.loc 1 695 5 view .LVU1532
 695:Middlewares/Third_Party/SubGHz_Phy/stm32_radio_driver/radio.c ****     TimerStop( &RxTimeoutTimer );
 5152              		.loc 1 695 5 view .LVU1533
 5153 006a 3046     		mov	r0, r6
 5154 006c FFF7FEFF 		bl	UTIL_TIMER_Stop
 5155              	.LVL460:
 695:Middlewares/Third_Party/SubGHz_Phy/stm32_radio_driver/radio.c ****     TimerStop( &RxTimeoutTimer );
 5156              		.loc 1 695 5 view .LVU1534
 696:Middlewares/Third_Party/SubGHz_Phy/stm32_radio_driver/radio.c **** }
 5157              		.loc 1 696 5 view .LVU1535
 696:Middlewares/Third_Party/SubGHz_Phy/stm32_radio_driver/radio.c **** }
 5158              		.loc 1 696 5 view .LVU1536
 5159 0070 2846     		mov	r0, r5
 5160 0072 FFF7FEFF 		bl	UTIL_TIMER_Stop
 5161              	.LVL461:
 696:Middlewares/Third_Party/SubGHz_Phy/stm32_radio_driver/radio.c **** }
 5162              		.loc 1 696 5 view .LVU1537
 697:Middlewares/Third_Party/SubGHz_Phy/stm32_radio_driver/radio.c **** 
 5163              		.loc 1 697 1 is_stmt 0 view .LVU1538
 5164 0076 02B0     		add	sp, sp, #8
 5165              		.cfi_def_cfa_offset 16
 5166              		@ sp needed
 5167 0078 70BD     		pop	{r4, r5, r6, pc}
 5168              	.L353:
 5169 007a 00BF     		.align	2
 5170              	.L352:
 5171 007c 00000000 		.word	.LANCHOR1
 5172 0080 00000000 		.word	.LANCHOR3
 5173 0084 00000000 		.word	RadioOnDioIrq
 5174 0088 00000000 		.word	.LANCHOR5
 5175 008c 00000000 		.word	RadioOnTxTimeoutIrq
 5176 0090 00000000 		.word	.LANCHOR4
ARM GAS  /var/folders/9y/n02fl3g16gnf7ppy14xghdy80000gn/T//cc8eCeeT.s 			page 151


 5177 0094 00000000 		.word	RadioOnRxTimeoutIrq
 5178              		.cfi_endproc
 5179              	.LFE1163:
 5181              		.global	RxTimeoutTimer
 5182              		.global	TxTimeoutTimer
 5183              		.global	SubgRf
 5184              		.global	Bandwidths
 5185              		.global	Radio
 5186              		.section	.rodata
 5187              		.align	2
 5188              		.set	.LANCHOR7,. + 0
 5189              	.LC0:
 5190 0000 C1       		.byte	-63
 5191 0001 94       		.byte	-108
 5192 0002 C1       		.byte	-63
 5193 0003 00       		.byte	0
 5194 0004 00       		.byte	0
 5195 0005 00       		.byte	0
 5196 0006 00       		.byte	0
 5197 0007 00       		.byte	0
 5198              	.LC1:
 5199 0008 B2       		.byte	-78
 5200 0009 27       		.byte	39
 5201 000a 00       		.byte	0
 5202 000b 00       		.byte	0
 5203 000c 00       		.byte	0
 5204 000d 00       		.byte	0
 5205 000e 00       		.byte	0
 5206 000f 00       		.byte	0
 5207              		.section	.bss.RadioBuffer,"aw",%nobits
 5208              		.align	2
 5209              		.set	.LANCHOR6,. + 0
 5212              	RadioBuffer:
 5213 0000 00000000 		.space	255
 5213      00000000 
 5213      00000000 
 5213      00000000 
 5213      00000000 
 5214              		.section	.bss.RadioEvents,"aw",%nobits
 5215              		.align	2
 5216              		.set	.LANCHOR1,. + 0
 5219              	RadioEvents:
 5220 0000 00000000 		.space	4
 5221              		.section	.bss.RxTimeoutTimer,"aw",%nobits
 5222              		.align	2
 5223              		.set	.LANCHOR4,. + 0
 5226              	RxTimeoutTimer:
 5227 0000 00000000 		.space	24
 5227      00000000 
 5227      00000000 
 5227      00000000 
 5227      00000000 
 5228              		.section	.bss.SubgRf,"aw",%nobits
 5229              		.align	2
 5230              		.set	.LANCHOR3,. + 0
 5233              	SubgRf:
 5234 0000 00000000 		.space	92
ARM GAS  /var/folders/9y/n02fl3g16gnf7ppy14xghdy80000gn/T//cc8eCeeT.s 			page 152


 5234      00000000 
 5234      00000000 
 5234      00000000 
 5234      00000000 
 5235              		.section	.bss.TxTimeoutTimer,"aw",%nobits
 5236              		.align	2
 5237              		.set	.LANCHOR5,. + 0
 5240              	TxTimeoutTimer:
 5241 0000 00000000 		.space	24
 5241      00000000 
 5241      00000000 
 5241      00000000 
 5241      00000000 
 5242              		.section	.data.MaxPayloadLength,"aw"
 5243              		.set	.LANCHOR2,. + 0
 5246              	MaxPayloadLength:
 5247 0000 FF       		.byte	-1
 5248              		.section	.rodata.Bandwidths,"a"
 5249              		.align	2
 5250              		.set	.LANCHOR0,. + 0
 5253              	Bandwidths:
 5254 0000 04       		.byte	4
 5255 0001 05       		.byte	5
 5256 0002 06       		.byte	6
 5257              		.section	.rodata.Radio,"a"
 5258              		.align	2
 5261              	Radio:
 5262 0000 00000000 		.word	RadioInit
 5263 0004 00000000 		.word	RadioGetStatus
 5264 0008 00000000 		.word	RadioSetModem
 5265 000c 00000000 		.word	RadioSetChannel
 5266 0010 00000000 		.word	RadioIsChannelFree
 5267 0014 00000000 		.word	RadioRandom
 5268 0018 00000000 		.word	RadioSetRxConfig
 5269 001c 00000000 		.word	RadioSetTxConfig
 5270 0020 00000000 		.word	RadioCheckRfFrequency
 5271 0024 00000000 		.word	RadioTimeOnAir
 5272 0028 00000000 		.word	RadioSend
 5273 002c 00000000 		.word	RadioSleep
 5274 0030 00000000 		.word	RadioStandby
 5275 0034 00000000 		.word	RadioRx
 5276 0038 00000000 		.word	RadioStartCad
 5277 003c 00000000 		.word	RadioSetTxContinuousWave
 5278 0040 00000000 		.word	RadioRssi
 5279 0044 00000000 		.word	RadioWrite
 5280 0048 00000000 		.word	RadioRead
 5281 004c 00000000 		.word	RadioWriteRegisters
 5282 0050 00000000 		.word	RadioReadRegisters
 5283 0054 00000000 		.word	RadioSetMaxPayloadLength
 5284 0058 00000000 		.word	RadioSetPublicNetwork
 5285 005c 00000000 		.word	RadioGetWakeupTime
 5286 0060 00000000 		.word	RadioIrqProcess
 5287 0064 00000000 		.word	RadioRxBoosted
 5288 0068 00000000 		.word	RadioSetRxDutyCycle
 5289 006c 00000000 		.word	RadioTxPrbs
 5290 0070 00000000 		.word	RadioTxCw
 5291 0074 00000000 		.word	RadioSetRxGenericConfig
ARM GAS  /var/folders/9y/n02fl3g16gnf7ppy14xghdy80000gn/T//cc8eCeeT.s 			page 153


 5292 0078 00000000 		.word	RadioSetTxGenericConfig
 5293 007c 00000000 		.word	RFW_TransmitLongPacket
 5294 0080 00000000 		.word	RFW_ReceiveLongPacket
 5295              		.text
 5296              	.Letext0:
 5297              		.file 2 "/opt/homebrew/Cellar/arm-none-eabi-gcc/10.3-2021.07/gcc/arm-none-eabi/include/machine/_de
 5298              		.file 3 "/opt/homebrew/Cellar/arm-none-eabi-gcc/10.3-2021.07/gcc/arm-none-eabi/include/sys/_stdint
 5299              		.file 4 "Utilities/timer/stm32_timer.h"
 5300              		.file 5 "Middlewares/Third_Party/SubGHz_Phy/radio.h"
 5301              		.file 6 "Middlewares/Third_Party/SubGHz_Phy/radio_ex.h"
 5302              		.file 7 "Middlewares/Third_Party/SubGHz_Phy/stm32_radio_driver/radio_fw.h"
 5303              		.file 8 "Middlewares/Third_Party/SubGHz_Phy/stm32_radio_driver/radio_driver.h"
 5304              		.file 9 "Drivers/STM32WLxx_HAL_Driver/Inc/stm32wlxx_ll_dma.h"
 5305              		.file 10 "Utilities/misc/stm32_mem.h"
 5306              		.file 11 "Utilities/trace/adv_trace/stm32_adv_trace.h"
 5307              		.file 12 "Drivers/STM32WLxx_HAL_Driver/Inc/stm32wlxx_hal.h"
ARM GAS  /var/folders/9y/n02fl3g16gnf7ppy14xghdy80000gn/T//cc8eCeeT.s 			page 154


DEFINED SYMBOLS
                            *ABS*:0000000000000000 radio.c
/var/folders/9y/n02fl3g16gnf7ppy14xghdy80000gn/T//cc8eCeeT.s:16     .text.RadioCheckRfFrequency:0000000000000000 $t
/var/folders/9y/n02fl3g16gnf7ppy14xghdy80000gn/T//cc8eCeeT.s:23     .text.RadioCheckRfFrequency:0000000000000000 RadioCheckRfFrequency
/var/folders/9y/n02fl3g16gnf7ppy14xghdy80000gn/T//cc8eCeeT.s:42     .text.RadioGetLoRaBandwidthInHz:0000000000000000 $t
/var/folders/9y/n02fl3g16gnf7ppy14xghdy80000gn/T//cc8eCeeT.s:48     .text.RadioGetLoRaBandwidthInHz:0000000000000000 RadioGetLoRaBandwidthInHz
/var/folders/9y/n02fl3g16gnf7ppy14xghdy80000gn/T//cc8eCeeT.s:62     .text.RadioGetLoRaBandwidthInHz:0000000000000008 $d
/var/folders/9y/n02fl3g16gnf7ppy14xghdy80000gn/T//cc8eCeeT.s:171    .text.RadioGetLoRaBandwidthInHz:0000000000000050 $d
/var/folders/9y/n02fl3g16gnf7ppy14xghdy80000gn/T//cc8eCeeT.s:178    .text.RadioGetGfskTimeOnAirNumerator:0000000000000000 $t
/var/folders/9y/n02fl3g16gnf7ppy14xghdy80000gn/T//cc8eCeeT.s:184    .text.RadioGetGfskTimeOnAirNumerator:0000000000000000 RadioGetGfskTimeOnAirNumerator
/var/folders/9y/n02fl3g16gnf7ppy14xghdy80000gn/T//cc8eCeeT.s:236    .text.RadioGetLoRaTimeOnAirNumerator:0000000000000000 $t
/var/folders/9y/n02fl3g16gnf7ppy14xghdy80000gn/T//cc8eCeeT.s:242    .text.RadioGetLoRaTimeOnAirNumerator:0000000000000000 RadioGetLoRaTimeOnAirNumerator
/var/folders/9y/n02fl3g16gnf7ppy14xghdy80000gn/T//cc8eCeeT.s:417    .text.RadioTimeOnAir:0000000000000000 $t
/var/folders/9y/n02fl3g16gnf7ppy14xghdy80000gn/T//cc8eCeeT.s:423    .text.RadioTimeOnAir:0000000000000000 RadioTimeOnAir
/var/folders/9y/n02fl3g16gnf7ppy14xghdy80000gn/T//cc8eCeeT.s:530    .text.RadioTimeOnAir:0000000000000070 $d
/var/folders/9y/n02fl3g16gnf7ppy14xghdy80000gn/T//cc8eCeeT.s:535    .text.RadioOnTxTimeoutProcess:0000000000000000 $t
/var/folders/9y/n02fl3g16gnf7ppy14xghdy80000gn/T//cc8eCeeT.s:541    .text.RadioOnTxTimeoutProcess:0000000000000000 RadioOnTxTimeoutProcess
/var/folders/9y/n02fl3g16gnf7ppy14xghdy80000gn/T//cc8eCeeT.s:571    .text.RadioOnTxTimeoutProcess:0000000000000010 $d
/var/folders/9y/n02fl3g16gnf7ppy14xghdy80000gn/T//cc8eCeeT.s:576    .text.RadioOnTxTimeoutIrq:0000000000000000 $t
/var/folders/9y/n02fl3g16gnf7ppy14xghdy80000gn/T//cc8eCeeT.s:582    .text.RadioOnTxTimeoutIrq:0000000000000000 RadioOnTxTimeoutIrq
/var/folders/9y/n02fl3g16gnf7ppy14xghdy80000gn/T//cc8eCeeT.s:603    .text.RadioOnRxTimeoutProcess:0000000000000000 $t
/var/folders/9y/n02fl3g16gnf7ppy14xghdy80000gn/T//cc8eCeeT.s:609    .text.RadioOnRxTimeoutProcess:0000000000000000 RadioOnRxTimeoutProcess
/var/folders/9y/n02fl3g16gnf7ppy14xghdy80000gn/T//cc8eCeeT.s:639    .text.RadioOnRxTimeoutProcess:0000000000000010 $d
/var/folders/9y/n02fl3g16gnf7ppy14xghdy80000gn/T//cc8eCeeT.s:644    .text.RadioOnRxTimeoutIrq:0000000000000000 $t
/var/folders/9y/n02fl3g16gnf7ppy14xghdy80000gn/T//cc8eCeeT.s:650    .text.RadioOnRxTimeoutIrq:0000000000000000 RadioOnRxTimeoutIrq
/var/folders/9y/n02fl3g16gnf7ppy14xghdy80000gn/T//cc8eCeeT.s:671    .text.payload_integration:0000000000000000 $t
/var/folders/9y/n02fl3g16gnf7ppy14xghdy80000gn/T//cc8eCeeT.s:677    .text.payload_integration:0000000000000000 payload_integration
/var/folders/9y/n02fl3g16gnf7ppy14xghdy80000gn/T//cc8eCeeT.s:849    .text.RadioSetMaxPayloadLength:0000000000000000 $t
/var/folders/9y/n02fl3g16gnf7ppy14xghdy80000gn/T//cc8eCeeT.s:855    .text.RadioSetMaxPayloadLength:0000000000000000 RadioSetMaxPayloadLength
/var/folders/9y/n02fl3g16gnf7ppy14xghdy80000gn/T//cc8eCeeT.s:919    .text.RadioSetMaxPayloadLength:0000000000000030 $d
/var/folders/9y/n02fl3g16gnf7ppy14xghdy80000gn/T//cc8eCeeT.s:925    .text.RadioRead:0000000000000000 $t
/var/folders/9y/n02fl3g16gnf7ppy14xghdy80000gn/T//cc8eCeeT.s:931    .text.RadioRead:0000000000000000 RadioRead
/var/folders/9y/n02fl3g16gnf7ppy14xghdy80000gn/T//cc8eCeeT.s:953    .text.RadioWrite:0000000000000000 $t
/var/folders/9y/n02fl3g16gnf7ppy14xghdy80000gn/T//cc8eCeeT.s:959    .text.RadioWrite:0000000000000000 RadioWrite
/var/folders/9y/n02fl3g16gnf7ppy14xghdy80000gn/T//cc8eCeeT.s:980    .text.RadioTxCw:0000000000000000 $t
/var/folders/9y/n02fl3g16gnf7ppy14xghdy80000gn/T//cc8eCeeT.s:986    .text.RadioTxCw:0000000000000000 RadioTxCw
/var/folders/9y/n02fl3g16gnf7ppy14xghdy80000gn/T//cc8eCeeT.s:1015   .text.RadioTxPrbs:0000000000000000 $t
/var/folders/9y/n02fl3g16gnf7ppy14xghdy80000gn/T//cc8eCeeT.s:1021   .text.RadioTxPrbs:0000000000000000 RadioTxPrbs
/var/folders/9y/n02fl3g16gnf7ppy14xghdy80000gn/T//cc8eCeeT.s:1054   .text.RadioTxPrbs:0000000000000024 $d
/var/folders/9y/n02fl3g16gnf7ppy14xghdy80000gn/T//cc8eCeeT.s:1060   .text.RadioSetRxDutyCycle:0000000000000000 $t
/var/folders/9y/n02fl3g16gnf7ppy14xghdy80000gn/T//cc8eCeeT.s:1066   .text.RadioSetRxDutyCycle:0000000000000000 RadioSetRxDutyCycle
/var/folders/9y/n02fl3g16gnf7ppy14xghdy80000gn/T//cc8eCeeT.s:1116   .text.RadioSetRxDutyCycle:0000000000000030 $d
/var/folders/9y/n02fl3g16gnf7ppy14xghdy80000gn/T//cc8eCeeT.s:1121   .text.RadioRxBoosted:0000000000000000 $t
/var/folders/9y/n02fl3g16gnf7ppy14xghdy80000gn/T//cc8eCeeT.s:1127   .text.RadioRxBoosted:0000000000000000 RadioRxBoosted
/var/folders/9y/n02fl3g16gnf7ppy14xghdy80000gn/T//cc8eCeeT.s:1222   .text.RadioRxBoosted:000000000000005c $d
/var/folders/9y/n02fl3g16gnf7ppy14xghdy80000gn/T//cc8eCeeT.s:1228   .text.RadioStandby:0000000000000000 $t
/var/folders/9y/n02fl3g16gnf7ppy14xghdy80000gn/T//cc8eCeeT.s:1234   .text.RadioStandby:0000000000000000 RadioStandby
/var/folders/9y/n02fl3g16gnf7ppy14xghdy80000gn/T//cc8eCeeT.s:1254   .text.RadioGetStatus:0000000000000000 $t
/var/folders/9y/n02fl3g16gnf7ppy14xghdy80000gn/T//cc8eCeeT.s:1260   .text.RadioGetStatus:0000000000000000 RadioGetStatus
/var/folders/9y/n02fl3g16gnf7ppy14xghdy80000gn/T//cc8eCeeT.s:1302   .rodata.RadioIrqProcess.str1.4:0000000000000000 $d
/var/folders/9y/n02fl3g16gnf7ppy14xghdy80000gn/T//cc8eCeeT.s:1321   .text.RadioIrqProcess:0000000000000000 $t
/var/folders/9y/n02fl3g16gnf7ppy14xghdy80000gn/T//cc8eCeeT.s:1327   .text.RadioIrqProcess:0000000000000000 RadioIrqProcess
/var/folders/9y/n02fl3g16gnf7ppy14xghdy80000gn/T//cc8eCeeT.s:1362   .text.RadioIrqProcess:000000000000002a $d
/var/folders/9y/n02fl3g16gnf7ppy14xghdy80000gn/T//cc8eCeeT.s:1394   .text.RadioIrqProcess:000000000000006a $t
/var/folders/9y/n02fl3g16gnf7ppy14xghdy80000gn/T//cc8eCeeT.s:1817   .text.RadioIrqProcess:00000000000002b4 $d
/var/folders/9y/n02fl3g16gnf7ppy14xghdy80000gn/T//cc8eCeeT.s:1832   .text.RadioIrqProcess:00000000000002e4 $t
/var/folders/9y/n02fl3g16gnf7ppy14xghdy80000gn/T//cc8eCeeT.s:1872   .text.RadioIrqProcess:0000000000000310 $d
ARM GAS  /var/folders/9y/n02fl3g16gnf7ppy14xghdy80000gn/T//cc8eCeeT.s 			page 155


/var/folders/9y/n02fl3g16gnf7ppy14xghdy80000gn/T//cc8eCeeT.s:1879   .text.RadioOnDioIrq:0000000000000000 $t
/var/folders/9y/n02fl3g16gnf7ppy14xghdy80000gn/T//cc8eCeeT.s:1885   .text.RadioOnDioIrq:0000000000000000 RadioOnDioIrq
/var/folders/9y/n02fl3g16gnf7ppy14xghdy80000gn/T//cc8eCeeT.s:1909   .text.RadioOnDioIrq:0000000000000010 $d
/var/folders/9y/n02fl3g16gnf7ppy14xghdy80000gn/T//cc8eCeeT.s:1914   .text.RadioGetWakeupTime:0000000000000000 $t
/var/folders/9y/n02fl3g16gnf7ppy14xghdy80000gn/T//cc8eCeeT.s:1920   .text.RadioGetWakeupTime:0000000000000000 RadioGetWakeupTime
/var/folders/9y/n02fl3g16gnf7ppy14xghdy80000gn/T//cc8eCeeT.s:1941   .text.RadioReadRegisters:0000000000000000 $t
/var/folders/9y/n02fl3g16gnf7ppy14xghdy80000gn/T//cc8eCeeT.s:1947   .text.RadioReadRegisters:0000000000000000 RadioReadRegisters
/var/folders/9y/n02fl3g16gnf7ppy14xghdy80000gn/T//cc8eCeeT.s:1968   .text.RadioWriteRegisters:0000000000000000 $t
/var/folders/9y/n02fl3g16gnf7ppy14xghdy80000gn/T//cc8eCeeT.s:1974   .text.RadioWriteRegisters:0000000000000000 RadioWriteRegisters
/var/folders/9y/n02fl3g16gnf7ppy14xghdy80000gn/T//cc8eCeeT.s:1995   .text.RadioRssi:0000000000000000 $t
/var/folders/9y/n02fl3g16gnf7ppy14xghdy80000gn/T//cc8eCeeT.s:2001   .text.RadioRssi:0000000000000000 RadioRssi
/var/folders/9y/n02fl3g16gnf7ppy14xghdy80000gn/T//cc8eCeeT.s:2024   .text.RadioSetTxContinuousWave:0000000000000000 $t
/var/folders/9y/n02fl3g16gnf7ppy14xghdy80000gn/T//cc8eCeeT.s:2030   .text.RadioSetTxContinuousWave:0000000000000000 RadioSetTxContinuousWave
/var/folders/9y/n02fl3g16gnf7ppy14xghdy80000gn/T//cc8eCeeT.s:2087   .text.RadioSetTxContinuousWave:0000000000000034 $d
/var/folders/9y/n02fl3g16gnf7ppy14xghdy80000gn/T//cc8eCeeT.s:2092   .text.RadioSetChannel:0000000000000000 $t
/var/folders/9y/n02fl3g16gnf7ppy14xghdy80000gn/T//cc8eCeeT.s:2098   .text.RadioSetChannel:0000000000000000 RadioSetChannel
/var/folders/9y/n02fl3g16gnf7ppy14xghdy80000gn/T//cc8eCeeT.s:2119   .text.RadioStartCad:0000000000000000 $t
/var/folders/9y/n02fl3g16gnf7ppy14xghdy80000gn/T//cc8eCeeT.s:2125   .text.RadioStartCad:0000000000000000 RadioStartCad
/var/folders/9y/n02fl3g16gnf7ppy14xghdy80000gn/T//cc8eCeeT.s:2156   .text.RadioStartCad:0000000000000024 $d
/var/folders/9y/n02fl3g16gnf7ppy14xghdy80000gn/T//cc8eCeeT.s:2161   .text.RadioRx:0000000000000000 $t
/var/folders/9y/n02fl3g16gnf7ppy14xghdy80000gn/T//cc8eCeeT.s:2167   .text.RadioRx:0000000000000000 RadioRx
/var/folders/9y/n02fl3g16gnf7ppy14xghdy80000gn/T//cc8eCeeT.s:2262   .text.RadioRx:000000000000005c $d
/var/folders/9y/n02fl3g16gnf7ppy14xghdy80000gn/T//cc8eCeeT.s:2268   .text.RadioSleep:0000000000000000 $t
/var/folders/9y/n02fl3g16gnf7ppy14xghdy80000gn/T//cc8eCeeT.s:2274   .text.RadioSleep:0000000000000000 RadioSleep
/var/folders/9y/n02fl3g16gnf7ppy14xghdy80000gn/T//cc8eCeeT.s:2300   .rodata.RadioSend.str1.4:0000000000000000 $d
/var/folders/9y/n02fl3g16gnf7ppy14xghdy80000gn/T//cc8eCeeT.s:2304   .text.RadioSend:0000000000000000 $t
/var/folders/9y/n02fl3g16gnf7ppy14xghdy80000gn/T//cc8eCeeT.s:2310   .text.RadioSend:0000000000000000 RadioSend
/var/folders/9y/n02fl3g16gnf7ppy14xghdy80000gn/T//cc8eCeeT.s:2379   .text.RadioSend:0000000000000052 $d
/var/folders/9y/n02fl3g16gnf7ppy14xghdy80000gn/T//cc8eCeeT.s:2616   .text.RadioSend:0000000000000184 $d
/var/folders/9y/n02fl3g16gnf7ppy14xghdy80000gn/T//cc8eCeeT.s:2625   .text.RadioRandom:0000000000000000 $t
/var/folders/9y/n02fl3g16gnf7ppy14xghdy80000gn/T//cc8eCeeT.s:2631   .text.RadioRandom:0000000000000000 RadioRandom
/var/folders/9y/n02fl3g16gnf7ppy14xghdy80000gn/T//cc8eCeeT.s:2661   .text.RadioSetModem:0000000000000000 $t
/var/folders/9y/n02fl3g16gnf7ppy14xghdy80000gn/T//cc8eCeeT.s:2667   .text.RadioSetModem:0000000000000000 RadioSetModem
/var/folders/9y/n02fl3g16gnf7ppy14xghdy80000gn/T//cc8eCeeT.s:2692   .text.RadioSetModem:0000000000000014 $d
/var/folders/9y/n02fl3g16gnf7ppy14xghdy80000gn/T//cc8eCeeT.s:2698   .text.RadioSetModem:000000000000001a $t
/var/folders/9y/n02fl3g16gnf7ppy14xghdy80000gn/T//cc8eCeeT.s:3988   .text.RadioSetPublicNetwork:0000000000000000 RadioSetPublicNetwork
/var/folders/9y/n02fl3g16gnf7ppy14xghdy80000gn/T//cc8eCeeT.s:2786   .text.RadioSetModem:0000000000000078 $d
/var/folders/9y/n02fl3g16gnf7ppy14xghdy80000gn/T//cc8eCeeT.s:2791   .text.RadioSetTxGenericConfig:0000000000000000 $t
/var/folders/9y/n02fl3g16gnf7ppy14xghdy80000gn/T//cc8eCeeT.s:2797   .text.RadioSetTxGenericConfig:0000000000000000 RadioSetTxGenericConfig
/var/folders/9y/n02fl3g16gnf7ppy14xghdy80000gn/T//cc8eCeeT.s:2835   .text.RadioSetTxGenericConfig:0000000000000022 $d
/var/folders/9y/n02fl3g16gnf7ppy14xghdy80000gn/T//cc8eCeeT.s:2839   .text.RadioSetTxGenericConfig:000000000000002a $t
/var/folders/9y/n02fl3g16gnf7ppy14xghdy80000gn/T//cc8eCeeT.s:3455   .text.RadioSetTxGenericConfig:0000000000000304 $d
/var/folders/9y/n02fl3g16gnf7ppy14xghdy80000gn/T//cc8eCeeT.s:3462   .text.RadioSetRxGenericConfig:0000000000000000 $t
/var/folders/9y/n02fl3g16gnf7ppy14xghdy80000gn/T//cc8eCeeT.s:3468   .text.RadioSetRxGenericConfig:0000000000000000 RadioSetRxGenericConfig
/var/folders/9y/n02fl3g16gnf7ppy14xghdy80000gn/T//cc8eCeeT.s:3975   .text.RadioSetRxGenericConfig:0000000000000270 $d
/var/folders/9y/n02fl3g16gnf7ppy14xghdy80000gn/T//cc8eCeeT.s:3982   .text.RadioSetPublicNetwork:0000000000000000 $t
/var/folders/9y/n02fl3g16gnf7ppy14xghdy80000gn/T//cc8eCeeT.s:4045   .text.RadioSetPublicNetwork:0000000000000040 $d
/var/folders/9y/n02fl3g16gnf7ppy14xghdy80000gn/T//cc8eCeeT.s:4050   .text.RadioSetTxConfig:0000000000000000 $t
/var/folders/9y/n02fl3g16gnf7ppy14xghdy80000gn/T//cc8eCeeT.s:4056   .text.RadioSetTxConfig:0000000000000000 RadioSetTxConfig
/var/folders/9y/n02fl3g16gnf7ppy14xghdy80000gn/T//cc8eCeeT.s:4366   .text.RadioSetTxConfig:0000000000000190 $d
/var/folders/9y/n02fl3g16gnf7ppy14xghdy80000gn/T//cc8eCeeT.s:4375   .text.RadioSetRxConfig:0000000000000000 $t
/var/folders/9y/n02fl3g16gnf7ppy14xghdy80000gn/T//cc8eCeeT.s:4381   .text.RadioSetRxConfig:0000000000000000 RadioSetRxConfig
/var/folders/9y/n02fl3g16gnf7ppy14xghdy80000gn/T//cc8eCeeT.s:4918   .text.RadioSetRxConfig:00000000000002d0 $d
/var/folders/9y/n02fl3g16gnf7ppy14xghdy80000gn/T//cc8eCeeT.s:4928   .text.RadioIsChannelFree:0000000000000000 $t
/var/folders/9y/n02fl3g16gnf7ppy14xghdy80000gn/T//cc8eCeeT.s:4934   .text.RadioIsChannelFree:0000000000000000 RadioIsChannelFree
/var/folders/9y/n02fl3g16gnf7ppy14xghdy80000gn/T//cc8eCeeT.s:5052   .text.RadioInit:0000000000000000 $t
/var/folders/9y/n02fl3g16gnf7ppy14xghdy80000gn/T//cc8eCeeT.s:5058   .text.RadioInit:0000000000000000 RadioInit
ARM GAS  /var/folders/9y/n02fl3g16gnf7ppy14xghdy80000gn/T//cc8eCeeT.s 			page 156


/var/folders/9y/n02fl3g16gnf7ppy14xghdy80000gn/T//cc8eCeeT.s:5171   .text.RadioInit:000000000000007c $d
/var/folders/9y/n02fl3g16gnf7ppy14xghdy80000gn/T//cc8eCeeT.s:5226   .bss.RxTimeoutTimer:0000000000000000 RxTimeoutTimer
/var/folders/9y/n02fl3g16gnf7ppy14xghdy80000gn/T//cc8eCeeT.s:5240   .bss.TxTimeoutTimer:0000000000000000 TxTimeoutTimer
/var/folders/9y/n02fl3g16gnf7ppy14xghdy80000gn/T//cc8eCeeT.s:5233   .bss.SubgRf:0000000000000000 SubgRf
/var/folders/9y/n02fl3g16gnf7ppy14xghdy80000gn/T//cc8eCeeT.s:5253   .rodata.Bandwidths:0000000000000000 Bandwidths
/var/folders/9y/n02fl3g16gnf7ppy14xghdy80000gn/T//cc8eCeeT.s:5261   .rodata.Radio:0000000000000000 Radio
/var/folders/9y/n02fl3g16gnf7ppy14xghdy80000gn/T//cc8eCeeT.s:5187   .rodata:0000000000000000 $d
/var/folders/9y/n02fl3g16gnf7ppy14xghdy80000gn/T//cc8eCeeT.s:5208   .bss.RadioBuffer:0000000000000000 $d
/var/folders/9y/n02fl3g16gnf7ppy14xghdy80000gn/T//cc8eCeeT.s:5212   .bss.RadioBuffer:0000000000000000 RadioBuffer
/var/folders/9y/n02fl3g16gnf7ppy14xghdy80000gn/T//cc8eCeeT.s:5215   .bss.RadioEvents:0000000000000000 $d
/var/folders/9y/n02fl3g16gnf7ppy14xghdy80000gn/T//cc8eCeeT.s:5219   .bss.RadioEvents:0000000000000000 RadioEvents
/var/folders/9y/n02fl3g16gnf7ppy14xghdy80000gn/T//cc8eCeeT.s:5222   .bss.RxTimeoutTimer:0000000000000000 $d
/var/folders/9y/n02fl3g16gnf7ppy14xghdy80000gn/T//cc8eCeeT.s:5229   .bss.SubgRf:0000000000000000 $d
/var/folders/9y/n02fl3g16gnf7ppy14xghdy80000gn/T//cc8eCeeT.s:5236   .bss.TxTimeoutTimer:0000000000000000 $d
/var/folders/9y/n02fl3g16gnf7ppy14xghdy80000gn/T//cc8eCeeT.s:5246   .data.MaxPayloadLength:0000000000000000 MaxPayloadLength
/var/folders/9y/n02fl3g16gnf7ppy14xghdy80000gn/T//cc8eCeeT.s:5249   .rodata.Bandwidths:0000000000000000 $d
/var/folders/9y/n02fl3g16gnf7ppy14xghdy80000gn/T//cc8eCeeT.s:5258   .rodata.Radio:0000000000000000 $d
/var/folders/9y/n02fl3g16gnf7ppy14xghdy80000gn/T//cc8eCeeT.s:73     .text.RadioGetLoRaBandwidthInHz:0000000000000013 $d
/var/folders/9y/n02fl3g16gnf7ppy14xghdy80000gn/T//cc8eCeeT.s:73     .text.RadioGetLoRaBandwidthInHz:0000000000000014 $t
/var/folders/9y/n02fl3g16gnf7ppy14xghdy80000gn/T//cc8eCeeT.s:2384   .text.RadioSend:0000000000000057 $d
/var/folders/9y/n02fl3g16gnf7ppy14xghdy80000gn/T//cc8eCeeT.s:2384   .text.RadioSend:0000000000000058 $t

UNDEFINED SYMBOLS
SUBGRF_SetPacketParams
SUBGRF_ReadRegister
SUBGRF_WriteRegister
SUBGRF_SetRfTxPower
SUBGRF_SetSwitch
SUBGRF_SetTxContinuousWave
SUBGRF_SetTxInfinitePreamble
SUBGRF_SetTx
SUBGRF_SetDioIrqParams
SUBGRF_SetRxDutyCycle
RFW_Is_Init
SUBGRF_SetRxBoosted
RFW_ReceiveInit
UTIL_TIMER_SetPeriod
UTIL_TIMER_Start
SUBGRF_SetStandby
SUBGRF_GetOperatingMode
UTIL_ADV_TRACE_COND_FSend
UTIL_TIMER_Stop
RFW_Is_LongPacketModeEnabled
RFW_DeInit_TxLongPacket
SUBGRF_GetPayload
SUBGRF_GetPacketStatus
SUBGRF_GetCFO
RFW_ReceivePayload
SUBGRF_GetRadioWakeUpTime
SUBGRF_ReadRegisters
SUBGRF_WriteRegisters
SUBGRF_GetRssiInst
SUBGRF_SetRfFrequency
SUBGRF_SetCad
SUBGRF_SetRx
SUBGRF_SetSleep
HAL_Delay
ARM GAS  /var/folders/9y/n02fl3g16gnf7ppy14xghdy80000gn/T//cc8eCeeT.s 			page 157


SUBGRF_SendPayload
RFW_TransmitInit
SUBGRF_GetRandom
RFW_SetRadioModem
SUBGRF_SetPacketType
RFW_DeInit
UTIL_MEM_cpy_8
RFW_Init
SUBGRF_SetModulationParams
SUBGRF_SetSyncWord
SUBGRF_SetWhiteningSeed
SUBGRF_SetCrcPolynomial
RFW_SetAntSwitch
SUBGRF_SetStopRxTimerOnPreambleDetect
SUBGRF_GetFskBandwidthRegValue
SUBGRF_SetLoRaSymbNumTimeout
UTIL_TIMER_GetCurrentTime
UTIL_TIMER_GetElapsedTime
SUBGRF_Init
SUBGRF_SetRegulatorMode
SUBGRF_SetBufferBaseAddress
SUBGRF_SetTxParams
UTIL_TIMER_Create
RFW_TransmitLongPacket
RFW_ReceiveLongPacket
