ARM GAS  /var/folders/9y/n02fl3g16gnf7ppy14xghdy80000gn/T//ccRSWXWQ.s 			page 1


   1              		.cpu cortex-m4
   2              		.eabi_attribute 20, 1
   3              		.eabi_attribute 21, 1
   4              		.eabi_attribute 23, 3
   5              		.eabi_attribute 24, 1
   6              		.eabi_attribute 25, 1
   7              		.eabi_attribute 26, 1
   8              		.eabi_attribute 30, 1
   9              		.eabi_attribute 34, 1
  10              		.eabi_attribute 18, 4
  11              		.file	"stm32wlxx_hal.c"
  12              		.text
  13              	.Ltext0:
  14              		.cfi_sections	.debug_frame
  15              		.section	.text.HAL_MspInit,"ax",%progbits
  16              		.align	1
  17              		.weak	HAL_MspInit
  18              		.arch armv7e-m
  19              		.syntax unified
  20              		.thumb
  21              		.thumb_func
  22              		.fpu softvfp
  24              	HAL_MspInit:
  25              	.LFB846:
  26              		.file 1 "Drivers/STM32WLxx_HAL_Driver/Src/stm32wlxx_hal.c"
   1:Drivers/STM32WLxx_HAL_Driver/Src/stm32wlxx_hal.c **** /**
   2:Drivers/STM32WLxx_HAL_Driver/Src/stm32wlxx_hal.c ****   ******************************************************************************
   3:Drivers/STM32WLxx_HAL_Driver/Src/stm32wlxx_hal.c ****   * @file    stm32wlxx_hal.c
   4:Drivers/STM32WLxx_HAL_Driver/Src/stm32wlxx_hal.c ****   * @author  MCD Application Team
   5:Drivers/STM32WLxx_HAL_Driver/Src/stm32wlxx_hal.c ****   * @brief   HAL module driver.
   6:Drivers/STM32WLxx_HAL_Driver/Src/stm32wlxx_hal.c ****   *          This is the common part of the HAL initialization
   7:Drivers/STM32WLxx_HAL_Driver/Src/stm32wlxx_hal.c ****   *
   8:Drivers/STM32WLxx_HAL_Driver/Src/stm32wlxx_hal.c ****   ******************************************************************************
   9:Drivers/STM32WLxx_HAL_Driver/Src/stm32wlxx_hal.c ****   * @attention
  10:Drivers/STM32WLxx_HAL_Driver/Src/stm32wlxx_hal.c ****   *
  11:Drivers/STM32WLxx_HAL_Driver/Src/stm32wlxx_hal.c ****   * Copyright (c) 2020 STMicroelectronics.
  12:Drivers/STM32WLxx_HAL_Driver/Src/stm32wlxx_hal.c ****   * All rights reserved.
  13:Drivers/STM32WLxx_HAL_Driver/Src/stm32wlxx_hal.c ****   *
  14:Drivers/STM32WLxx_HAL_Driver/Src/stm32wlxx_hal.c ****   * This software is licensed under terms that can be found in the LICENSE file
  15:Drivers/STM32WLxx_HAL_Driver/Src/stm32wlxx_hal.c ****   * in the root directory of this software component.
  16:Drivers/STM32WLxx_HAL_Driver/Src/stm32wlxx_hal.c ****   * If no LICENSE file comes with this software, it is provided AS-IS.
  17:Drivers/STM32WLxx_HAL_Driver/Src/stm32wlxx_hal.c ****   *
  18:Drivers/STM32WLxx_HAL_Driver/Src/stm32wlxx_hal.c ****   ******************************************************************************
  19:Drivers/STM32WLxx_HAL_Driver/Src/stm32wlxx_hal.c ****   @verbatim
  20:Drivers/STM32WLxx_HAL_Driver/Src/stm32wlxx_hal.c ****   ==============================================================================
  21:Drivers/STM32WLxx_HAL_Driver/Src/stm32wlxx_hal.c ****                      ##### How to use this driver #####
  22:Drivers/STM32WLxx_HAL_Driver/Src/stm32wlxx_hal.c ****   ==============================================================================
  23:Drivers/STM32WLxx_HAL_Driver/Src/stm32wlxx_hal.c ****     [..]
  24:Drivers/STM32WLxx_HAL_Driver/Src/stm32wlxx_hal.c ****     The common HAL driver contains a set of generic and common APIs that can be
  25:Drivers/STM32WLxx_HAL_Driver/Src/stm32wlxx_hal.c ****     used by the PPP peripheral drivers and the user to start using the HAL.
  26:Drivers/STM32WLxx_HAL_Driver/Src/stm32wlxx_hal.c ****     [..]
  27:Drivers/STM32WLxx_HAL_Driver/Src/stm32wlxx_hal.c ****     The HAL contains two APIs' categories:
  28:Drivers/STM32WLxx_HAL_Driver/Src/stm32wlxx_hal.c ****          (+) Common HAL APIs
  29:Drivers/STM32WLxx_HAL_Driver/Src/stm32wlxx_hal.c ****          (+) Services HAL APIs
  30:Drivers/STM32WLxx_HAL_Driver/Src/stm32wlxx_hal.c **** 
  31:Drivers/STM32WLxx_HAL_Driver/Src/stm32wlxx_hal.c ****   @endverbatim
  32:Drivers/STM32WLxx_HAL_Driver/Src/stm32wlxx_hal.c ****   ******************************************************************************
ARM GAS  /var/folders/9y/n02fl3g16gnf7ppy14xghdy80000gn/T//ccRSWXWQ.s 			page 2


  33:Drivers/STM32WLxx_HAL_Driver/Src/stm32wlxx_hal.c ****   */
  34:Drivers/STM32WLxx_HAL_Driver/Src/stm32wlxx_hal.c **** 
  35:Drivers/STM32WLxx_HAL_Driver/Src/stm32wlxx_hal.c **** /* Includes ------------------------------------------------------------------*/
  36:Drivers/STM32WLxx_HAL_Driver/Src/stm32wlxx_hal.c **** #include "stm32wlxx_hal.h"
  37:Drivers/STM32WLxx_HAL_Driver/Src/stm32wlxx_hal.c **** 
  38:Drivers/STM32WLxx_HAL_Driver/Src/stm32wlxx_hal.c **** /** @addtogroup STM32WLxx_HAL_Driver
  39:Drivers/STM32WLxx_HAL_Driver/Src/stm32wlxx_hal.c ****   * @{
  40:Drivers/STM32WLxx_HAL_Driver/Src/stm32wlxx_hal.c ****   */
  41:Drivers/STM32WLxx_HAL_Driver/Src/stm32wlxx_hal.c **** 
  42:Drivers/STM32WLxx_HAL_Driver/Src/stm32wlxx_hal.c **** /** @addtogroup HAL
  43:Drivers/STM32WLxx_HAL_Driver/Src/stm32wlxx_hal.c ****   * @brief HAL module driver
  44:Drivers/STM32WLxx_HAL_Driver/Src/stm32wlxx_hal.c ****   * @{
  45:Drivers/STM32WLxx_HAL_Driver/Src/stm32wlxx_hal.c ****   */
  46:Drivers/STM32WLxx_HAL_Driver/Src/stm32wlxx_hal.c **** 
  47:Drivers/STM32WLxx_HAL_Driver/Src/stm32wlxx_hal.c **** #ifdef HAL_MODULE_ENABLED
  48:Drivers/STM32WLxx_HAL_Driver/Src/stm32wlxx_hal.c **** 
  49:Drivers/STM32WLxx_HAL_Driver/Src/stm32wlxx_hal.c **** /* Private typedef -----------------------------------------------------------*/
  50:Drivers/STM32WLxx_HAL_Driver/Src/stm32wlxx_hal.c **** /* Private define ------------------------------------------------------------*/
  51:Drivers/STM32WLxx_HAL_Driver/Src/stm32wlxx_hal.c **** 
  52:Drivers/STM32WLxx_HAL_Driver/Src/stm32wlxx_hal.c **** /** @defgroup HAL_Private_Constants HAL Private Constants
  53:Drivers/STM32WLxx_HAL_Driver/Src/stm32wlxx_hal.c ****   * @{
  54:Drivers/STM32WLxx_HAL_Driver/Src/stm32wlxx_hal.c ****   */
  55:Drivers/STM32WLxx_HAL_Driver/Src/stm32wlxx_hal.c **** /**
  56:Drivers/STM32WLxx_HAL_Driver/Src/stm32wlxx_hal.c ****  * @brief STM32WLxx HAL Driver version number
  57:Drivers/STM32WLxx_HAL_Driver/Src/stm32wlxx_hal.c ****    */
  58:Drivers/STM32WLxx_HAL_Driver/Src/stm32wlxx_hal.c **** #define __STM32WLxx_HAL_VERSION_MAIN   (0x01U) /*!< [31:24] main version */
  59:Drivers/STM32WLxx_HAL_Driver/Src/stm32wlxx_hal.c **** #define __STM32WLxx_HAL_VERSION_SUB1   (0x02U) /*!< [23:16] sub1 version */
  60:Drivers/STM32WLxx_HAL_Driver/Src/stm32wlxx_hal.c **** #define __STM32WLxx_HAL_VERSION_SUB2   (0x00U) /*!< [15:8]  sub2 version */
  61:Drivers/STM32WLxx_HAL_Driver/Src/stm32wlxx_hal.c **** #define __STM32WLxx_HAL_VERSION_RC     (0x00U) /*!< [7:0]  release candidate */
  62:Drivers/STM32WLxx_HAL_Driver/Src/stm32wlxx_hal.c **** #define __STM32WLxx_HAL_VERSION         ((__STM32WLxx_HAL_VERSION_MAIN << 24U)\
  63:Drivers/STM32WLxx_HAL_Driver/Src/stm32wlxx_hal.c ****                                         |(__STM32WLxx_HAL_VERSION_SUB1 << 16U)\
  64:Drivers/STM32WLxx_HAL_Driver/Src/stm32wlxx_hal.c ****                                         |(__STM32WLxx_HAL_VERSION_SUB2 << 8U )\
  65:Drivers/STM32WLxx_HAL_Driver/Src/stm32wlxx_hal.c ****                                         |(__STM32WLxx_HAL_VERSION_RC))
  66:Drivers/STM32WLxx_HAL_Driver/Src/stm32wlxx_hal.c **** 
  67:Drivers/STM32WLxx_HAL_Driver/Src/stm32wlxx_hal.c **** #define VREFBUF_TIMEOUT_VALUE     10U   /* 10 ms */
  68:Drivers/STM32WLxx_HAL_Driver/Src/stm32wlxx_hal.c **** 
  69:Drivers/STM32WLxx_HAL_Driver/Src/stm32wlxx_hal.c **** /**
  70:Drivers/STM32WLxx_HAL_Driver/Src/stm32wlxx_hal.c ****   * @}
  71:Drivers/STM32WLxx_HAL_Driver/Src/stm32wlxx_hal.c ****   */
  72:Drivers/STM32WLxx_HAL_Driver/Src/stm32wlxx_hal.c **** 
  73:Drivers/STM32WLxx_HAL_Driver/Src/stm32wlxx_hal.c **** /* Private macro -------------------------------------------------------------*/
  74:Drivers/STM32WLxx_HAL_Driver/Src/stm32wlxx_hal.c **** /* Exported variables ---------------------------------------------------------*/
  75:Drivers/STM32WLxx_HAL_Driver/Src/stm32wlxx_hal.c **** /** @defgroup HAL_Exported_Variables HAL Exported Variables
  76:Drivers/STM32WLxx_HAL_Driver/Src/stm32wlxx_hal.c ****   * @{
  77:Drivers/STM32WLxx_HAL_Driver/Src/stm32wlxx_hal.c ****   */
  78:Drivers/STM32WLxx_HAL_Driver/Src/stm32wlxx_hal.c **** __IO uint32_t uwTick;
  79:Drivers/STM32WLxx_HAL_Driver/Src/stm32wlxx_hal.c **** uint32_t uwTickPrio   = (1UL << __NVIC_PRIO_BITS); /* Invalid PRIO */
  80:Drivers/STM32WLxx_HAL_Driver/Src/stm32wlxx_hal.c **** HAL_TickFreqTypeDef uwTickFreq = HAL_TICK_FREQ_DEFAULT;  /* 1KHz */
  81:Drivers/STM32WLxx_HAL_Driver/Src/stm32wlxx_hal.c **** /**
  82:Drivers/STM32WLxx_HAL_Driver/Src/stm32wlxx_hal.c ****   * @}
  83:Drivers/STM32WLxx_HAL_Driver/Src/stm32wlxx_hal.c ****   */
  84:Drivers/STM32WLxx_HAL_Driver/Src/stm32wlxx_hal.c **** 
  85:Drivers/STM32WLxx_HAL_Driver/Src/stm32wlxx_hal.c **** /* Private function prototypes -----------------------------------------------*/
  86:Drivers/STM32WLxx_HAL_Driver/Src/stm32wlxx_hal.c **** /* Exported functions --------------------------------------------------------*/
  87:Drivers/STM32WLxx_HAL_Driver/Src/stm32wlxx_hal.c **** 
  88:Drivers/STM32WLxx_HAL_Driver/Src/stm32wlxx_hal.c **** /** @addtogroup HAL_Exported_Functions
  89:Drivers/STM32WLxx_HAL_Driver/Src/stm32wlxx_hal.c ****   * @{
ARM GAS  /var/folders/9y/n02fl3g16gnf7ppy14xghdy80000gn/T//ccRSWXWQ.s 			page 3


  90:Drivers/STM32WLxx_HAL_Driver/Src/stm32wlxx_hal.c ****   */
  91:Drivers/STM32WLxx_HAL_Driver/Src/stm32wlxx_hal.c **** 
  92:Drivers/STM32WLxx_HAL_Driver/Src/stm32wlxx_hal.c **** /** @addtogroup HAL_Exported_Functions_Group1
  93:Drivers/STM32WLxx_HAL_Driver/Src/stm32wlxx_hal.c ****  *  @brief    HAL Initialization and Configuration functions
  94:Drivers/STM32WLxx_HAL_Driver/Src/stm32wlxx_hal.c ****  *
  95:Drivers/STM32WLxx_HAL_Driver/Src/stm32wlxx_hal.c **** @verbatim
  96:Drivers/STM32WLxx_HAL_Driver/Src/stm32wlxx_hal.c ****  ===============================================================================
  97:Drivers/STM32WLxx_HAL_Driver/Src/stm32wlxx_hal.c ****            ##### HAL Initialization and Configuration functions #####
  98:Drivers/STM32WLxx_HAL_Driver/Src/stm32wlxx_hal.c ****  ===============================================================================
  99:Drivers/STM32WLxx_HAL_Driver/Src/stm32wlxx_hal.c ****     [..]  This section provides functions allowing to:
 100:Drivers/STM32WLxx_HAL_Driver/Src/stm32wlxx_hal.c ****       (+) Initialize the Flash interface the NVIC allocation and initial time base
 101:Drivers/STM32WLxx_HAL_Driver/Src/stm32wlxx_hal.c ****           clock configuration.
 102:Drivers/STM32WLxx_HAL_Driver/Src/stm32wlxx_hal.c ****       (+) De-initialize common part of the HAL.
 103:Drivers/STM32WLxx_HAL_Driver/Src/stm32wlxx_hal.c ****       (+) Configure the time base source to have 1ms time base with a dedicated
 104:Drivers/STM32WLxx_HAL_Driver/Src/stm32wlxx_hal.c ****           Tick interrupt priority.
 105:Drivers/STM32WLxx_HAL_Driver/Src/stm32wlxx_hal.c ****         (++) SysTick timer is used by default as source of time base, but user
 106:Drivers/STM32WLxx_HAL_Driver/Src/stm32wlxx_hal.c ****              can eventually implement his proper time base source (a general purpose
 107:Drivers/STM32WLxx_HAL_Driver/Src/stm32wlxx_hal.c ****              timer for example or other time source), keeping in mind that Time base
 108:Drivers/STM32WLxx_HAL_Driver/Src/stm32wlxx_hal.c ****              duration should be kept 1ms since PPP_TIMEOUT_VALUEs are defined and
 109:Drivers/STM32WLxx_HAL_Driver/Src/stm32wlxx_hal.c ****              handled in milliseconds basis.
 110:Drivers/STM32WLxx_HAL_Driver/Src/stm32wlxx_hal.c ****         (++) Time base configuration function (HAL_InitTick ()) is called automatically
 111:Drivers/STM32WLxx_HAL_Driver/Src/stm32wlxx_hal.c ****              at the beginning of the program after reset by HAL_Init() or at any time
 112:Drivers/STM32WLxx_HAL_Driver/Src/stm32wlxx_hal.c ****              when clock is configured, by HAL_RCC_ClockConfig().
 113:Drivers/STM32WLxx_HAL_Driver/Src/stm32wlxx_hal.c ****         (++) Source of time base is configured  to generate interrupts at regular
 114:Drivers/STM32WLxx_HAL_Driver/Src/stm32wlxx_hal.c ****              time intervals. Care must be taken if HAL_Delay() is called from a
 115:Drivers/STM32WLxx_HAL_Driver/Src/stm32wlxx_hal.c ****              peripheral ISR process, the Tick interrupt line must have higher priority
 116:Drivers/STM32WLxx_HAL_Driver/Src/stm32wlxx_hal.c ****             (numerically lower) than the peripheral interrupt. Otherwise the caller
 117:Drivers/STM32WLxx_HAL_Driver/Src/stm32wlxx_hal.c ****             ISR process will be blocked.
 118:Drivers/STM32WLxx_HAL_Driver/Src/stm32wlxx_hal.c ****        (++) functions affecting time base configurations are declared as __weak
 119:Drivers/STM32WLxx_HAL_Driver/Src/stm32wlxx_hal.c ****              to make  override possible  in case of other  implementations in user file.
 120:Drivers/STM32WLxx_HAL_Driver/Src/stm32wlxx_hal.c **** @endverbatim
 121:Drivers/STM32WLxx_HAL_Driver/Src/stm32wlxx_hal.c ****   * @{
 122:Drivers/STM32WLxx_HAL_Driver/Src/stm32wlxx_hal.c ****   */
 123:Drivers/STM32WLxx_HAL_Driver/Src/stm32wlxx_hal.c **** 
 124:Drivers/STM32WLxx_HAL_Driver/Src/stm32wlxx_hal.c **** /**
 125:Drivers/STM32WLxx_HAL_Driver/Src/stm32wlxx_hal.c ****   * @brief  This function is used to initialize the HAL Library; it must be the first
 126:Drivers/STM32WLxx_HAL_Driver/Src/stm32wlxx_hal.c ****   *         instruction to be executed in the main program (before to call any other
 127:Drivers/STM32WLxx_HAL_Driver/Src/stm32wlxx_hal.c ****   *         HAL function), it performs the following:
 128:Drivers/STM32WLxx_HAL_Driver/Src/stm32wlxx_hal.c ****   *           Configure the Flash prefetch, instruction and Data caches.
 129:Drivers/STM32WLxx_HAL_Driver/Src/stm32wlxx_hal.c ****   *           Configures the SysTick to generate an interrupt each 1 millisecond,
 130:Drivers/STM32WLxx_HAL_Driver/Src/stm32wlxx_hal.c ****   *           which is clocked by the MSI (at this stage, the clock is not yet
 131:Drivers/STM32WLxx_HAL_Driver/Src/stm32wlxx_hal.c ****   *           configured and thus the system is running from the internal MSI at 4 MHz).
 132:Drivers/STM32WLxx_HAL_Driver/Src/stm32wlxx_hal.c ****   *           Set NVIC Group Priority to 4.
 133:Drivers/STM32WLxx_HAL_Driver/Src/stm32wlxx_hal.c ****   *           Calls the HAL_MspInit() callback function defined in user file
 134:Drivers/STM32WLxx_HAL_Driver/Src/stm32wlxx_hal.c ****   *           "stm32wlxx_hal_msp.c" to do the global low level hardware initialization
 135:Drivers/STM32WLxx_HAL_Driver/Src/stm32wlxx_hal.c ****   *
 136:Drivers/STM32WLxx_HAL_Driver/Src/stm32wlxx_hal.c ****   * @note   SysTick is used as time base for the HAL_Delay() function, the application
 137:Drivers/STM32WLxx_HAL_Driver/Src/stm32wlxx_hal.c ****   *         need to ensure that the SysTick time base is always set to 1 millisecond
 138:Drivers/STM32WLxx_HAL_Driver/Src/stm32wlxx_hal.c ****   *         to have correct HAL operation.
 139:Drivers/STM32WLxx_HAL_Driver/Src/stm32wlxx_hal.c ****   * @retval HAL status
 140:Drivers/STM32WLxx_HAL_Driver/Src/stm32wlxx_hal.c ****   */
 141:Drivers/STM32WLxx_HAL_Driver/Src/stm32wlxx_hal.c **** HAL_StatusTypeDef HAL_Init(void)
 142:Drivers/STM32WLxx_HAL_Driver/Src/stm32wlxx_hal.c **** {
 143:Drivers/STM32WLxx_HAL_Driver/Src/stm32wlxx_hal.c ****   HAL_StatusTypeDef  status = HAL_OK;
 144:Drivers/STM32WLxx_HAL_Driver/Src/stm32wlxx_hal.c ****   /* Configure Flash prefetch, Instruction cache, Data cache */
 145:Drivers/STM32WLxx_HAL_Driver/Src/stm32wlxx_hal.c ****   /* Default configuration at reset is:                      */
 146:Drivers/STM32WLxx_HAL_Driver/Src/stm32wlxx_hal.c ****   /* - Prefetch disabled                                     */
ARM GAS  /var/folders/9y/n02fl3g16gnf7ppy14xghdy80000gn/T//ccRSWXWQ.s 			page 4


 147:Drivers/STM32WLxx_HAL_Driver/Src/stm32wlxx_hal.c ****   /* - Instruction cache enabled                             */
 148:Drivers/STM32WLxx_HAL_Driver/Src/stm32wlxx_hal.c ****   /* - Data cache enabled                                    */
 149:Drivers/STM32WLxx_HAL_Driver/Src/stm32wlxx_hal.c **** #if (INSTRUCTION_CACHE_ENABLE == 0U)
 150:Drivers/STM32WLxx_HAL_Driver/Src/stm32wlxx_hal.c ****   __HAL_FLASH_INSTRUCTION_CACHE_DISABLE();
 151:Drivers/STM32WLxx_HAL_Driver/Src/stm32wlxx_hal.c **** #endif /* INSTRUCTION_CACHE_ENABLE */
 152:Drivers/STM32WLxx_HAL_Driver/Src/stm32wlxx_hal.c **** 
 153:Drivers/STM32WLxx_HAL_Driver/Src/stm32wlxx_hal.c **** #ifdef CORE_CM0PLUS
 154:Drivers/STM32WLxx_HAL_Driver/Src/stm32wlxx_hal.c **** #else
 155:Drivers/STM32WLxx_HAL_Driver/Src/stm32wlxx_hal.c **** #if (DATA_CACHE_ENABLE == 0U)
 156:Drivers/STM32WLxx_HAL_Driver/Src/stm32wlxx_hal.c ****   __HAL_FLASH_DATA_CACHE_DISABLE();
 157:Drivers/STM32WLxx_HAL_Driver/Src/stm32wlxx_hal.c **** #endif /* DATA_CACHE_ENABLE */
 158:Drivers/STM32WLxx_HAL_Driver/Src/stm32wlxx_hal.c **** #endif
 159:Drivers/STM32WLxx_HAL_Driver/Src/stm32wlxx_hal.c **** 
 160:Drivers/STM32WLxx_HAL_Driver/Src/stm32wlxx_hal.c **** #if (PREFETCH_ENABLE != 0U)
 161:Drivers/STM32WLxx_HAL_Driver/Src/stm32wlxx_hal.c ****   __HAL_FLASH_PREFETCH_BUFFER_ENABLE();
 162:Drivers/STM32WLxx_HAL_Driver/Src/stm32wlxx_hal.c **** #endif /* PREFETCH_ENABLE */
 163:Drivers/STM32WLxx_HAL_Driver/Src/stm32wlxx_hal.c **** 
 164:Drivers/STM32WLxx_HAL_Driver/Src/stm32wlxx_hal.c **** #ifdef CORE_CM0PLUS
 165:Drivers/STM32WLxx_HAL_Driver/Src/stm32wlxx_hal.c **** #else
 166:Drivers/STM32WLxx_HAL_Driver/Src/stm32wlxx_hal.c ****   /* Set Interrupt Group Priority */
 167:Drivers/STM32WLxx_HAL_Driver/Src/stm32wlxx_hal.c ****   HAL_NVIC_SetPriorityGrouping(NVIC_PRIORITYGROUP_4);
 168:Drivers/STM32WLxx_HAL_Driver/Src/stm32wlxx_hal.c **** #endif
 169:Drivers/STM32WLxx_HAL_Driver/Src/stm32wlxx_hal.c **** 
 170:Drivers/STM32WLxx_HAL_Driver/Src/stm32wlxx_hal.c ****   /* Update the SystemCoreClock global variable */
 171:Drivers/STM32WLxx_HAL_Driver/Src/stm32wlxx_hal.c **** #if defined(DUAL_CORE) && defined(CORE_CM0PLUS)
 172:Drivers/STM32WLxx_HAL_Driver/Src/stm32wlxx_hal.c ****   SystemCoreClock = HAL_RCC_GetHCLK2Freq();
 173:Drivers/STM32WLxx_HAL_Driver/Src/stm32wlxx_hal.c **** #else
 174:Drivers/STM32WLxx_HAL_Driver/Src/stm32wlxx_hal.c ****   SystemCoreClock = HAL_RCC_GetHCLKFreq();
 175:Drivers/STM32WLxx_HAL_Driver/Src/stm32wlxx_hal.c **** #endif
 176:Drivers/STM32WLxx_HAL_Driver/Src/stm32wlxx_hal.c **** 
 177:Drivers/STM32WLxx_HAL_Driver/Src/stm32wlxx_hal.c ****   /* Use SysTick as time base source and configure 1ms tick (default clock after Reset is MSI) */
 178:Drivers/STM32WLxx_HAL_Driver/Src/stm32wlxx_hal.c ****   if (HAL_InitTick(TICK_INT_PRIORITY) != HAL_OK)
 179:Drivers/STM32WLxx_HAL_Driver/Src/stm32wlxx_hal.c ****   {
 180:Drivers/STM32WLxx_HAL_Driver/Src/stm32wlxx_hal.c ****     status = HAL_ERROR;
 181:Drivers/STM32WLxx_HAL_Driver/Src/stm32wlxx_hal.c ****   }
 182:Drivers/STM32WLxx_HAL_Driver/Src/stm32wlxx_hal.c ****   else
 183:Drivers/STM32WLxx_HAL_Driver/Src/stm32wlxx_hal.c ****   {
 184:Drivers/STM32WLxx_HAL_Driver/Src/stm32wlxx_hal.c ****     /* Init the low level hardware */
 185:Drivers/STM32WLxx_HAL_Driver/Src/stm32wlxx_hal.c ****     HAL_MspInit();
 186:Drivers/STM32WLxx_HAL_Driver/Src/stm32wlxx_hal.c ****   }
 187:Drivers/STM32WLxx_HAL_Driver/Src/stm32wlxx_hal.c **** 
 188:Drivers/STM32WLxx_HAL_Driver/Src/stm32wlxx_hal.c ****   /* Return function status */
 189:Drivers/STM32WLxx_HAL_Driver/Src/stm32wlxx_hal.c ****   return status;
 190:Drivers/STM32WLxx_HAL_Driver/Src/stm32wlxx_hal.c **** }
 191:Drivers/STM32WLxx_HAL_Driver/Src/stm32wlxx_hal.c **** 
 192:Drivers/STM32WLxx_HAL_Driver/Src/stm32wlxx_hal.c **** /**
 193:Drivers/STM32WLxx_HAL_Driver/Src/stm32wlxx_hal.c ****   * @brief  This function de-Initializes common part of the HAL and stops the source of time base.
 194:Drivers/STM32WLxx_HAL_Driver/Src/stm32wlxx_hal.c ****   * @note   This function is optional.
 195:Drivers/STM32WLxx_HAL_Driver/Src/stm32wlxx_hal.c ****   * @retval HAL status
 196:Drivers/STM32WLxx_HAL_Driver/Src/stm32wlxx_hal.c ****   */
 197:Drivers/STM32WLxx_HAL_Driver/Src/stm32wlxx_hal.c **** HAL_StatusTypeDef HAL_DeInit(void)
 198:Drivers/STM32WLxx_HAL_Driver/Src/stm32wlxx_hal.c **** {
 199:Drivers/STM32WLxx_HAL_Driver/Src/stm32wlxx_hal.c ****   /* Reset of all peripherals */
 200:Drivers/STM32WLxx_HAL_Driver/Src/stm32wlxx_hal.c ****   __HAL_RCC_APB1_FORCE_RESET();
 201:Drivers/STM32WLxx_HAL_Driver/Src/stm32wlxx_hal.c ****   __HAL_RCC_APB1_RELEASE_RESET();
 202:Drivers/STM32WLxx_HAL_Driver/Src/stm32wlxx_hal.c **** 
 203:Drivers/STM32WLxx_HAL_Driver/Src/stm32wlxx_hal.c ****   __HAL_RCC_APB2_FORCE_RESET();
ARM GAS  /var/folders/9y/n02fl3g16gnf7ppy14xghdy80000gn/T//ccRSWXWQ.s 			page 5


 204:Drivers/STM32WLxx_HAL_Driver/Src/stm32wlxx_hal.c ****   __HAL_RCC_APB2_RELEASE_RESET();
 205:Drivers/STM32WLxx_HAL_Driver/Src/stm32wlxx_hal.c **** 
 206:Drivers/STM32WLxx_HAL_Driver/Src/stm32wlxx_hal.c ****   __HAL_RCC_APB3_FORCE_RESET();
 207:Drivers/STM32WLxx_HAL_Driver/Src/stm32wlxx_hal.c ****   __HAL_RCC_APB3_RELEASE_RESET();
 208:Drivers/STM32WLxx_HAL_Driver/Src/stm32wlxx_hal.c **** 
 209:Drivers/STM32WLxx_HAL_Driver/Src/stm32wlxx_hal.c ****   __HAL_RCC_AHB1_FORCE_RESET();
 210:Drivers/STM32WLxx_HAL_Driver/Src/stm32wlxx_hal.c ****   __HAL_RCC_AHB1_RELEASE_RESET();
 211:Drivers/STM32WLxx_HAL_Driver/Src/stm32wlxx_hal.c **** 
 212:Drivers/STM32WLxx_HAL_Driver/Src/stm32wlxx_hal.c ****   __HAL_RCC_AHB2_FORCE_RESET();
 213:Drivers/STM32WLxx_HAL_Driver/Src/stm32wlxx_hal.c ****   __HAL_RCC_AHB2_RELEASE_RESET();
 214:Drivers/STM32WLxx_HAL_Driver/Src/stm32wlxx_hal.c **** 
 215:Drivers/STM32WLxx_HAL_Driver/Src/stm32wlxx_hal.c ****   __HAL_RCC_AHB3_FORCE_RESET();
 216:Drivers/STM32WLxx_HAL_Driver/Src/stm32wlxx_hal.c ****   __HAL_RCC_AHB3_RELEASE_RESET();
 217:Drivers/STM32WLxx_HAL_Driver/Src/stm32wlxx_hal.c **** 
 218:Drivers/STM32WLxx_HAL_Driver/Src/stm32wlxx_hal.c ****   /* De-Init the low level hardware */
 219:Drivers/STM32WLxx_HAL_Driver/Src/stm32wlxx_hal.c ****   HAL_MspDeInit();
 220:Drivers/STM32WLxx_HAL_Driver/Src/stm32wlxx_hal.c **** 
 221:Drivers/STM32WLxx_HAL_Driver/Src/stm32wlxx_hal.c ****   /* Return function status */
 222:Drivers/STM32WLxx_HAL_Driver/Src/stm32wlxx_hal.c ****   return HAL_OK;
 223:Drivers/STM32WLxx_HAL_Driver/Src/stm32wlxx_hal.c **** }
 224:Drivers/STM32WLxx_HAL_Driver/Src/stm32wlxx_hal.c **** 
 225:Drivers/STM32WLxx_HAL_Driver/Src/stm32wlxx_hal.c **** /**
 226:Drivers/STM32WLxx_HAL_Driver/Src/stm32wlxx_hal.c ****   * @brief  Initialize the MSP.
 227:Drivers/STM32WLxx_HAL_Driver/Src/stm32wlxx_hal.c ****   * @retval None
 228:Drivers/STM32WLxx_HAL_Driver/Src/stm32wlxx_hal.c ****   */
 229:Drivers/STM32WLxx_HAL_Driver/Src/stm32wlxx_hal.c **** __weak void HAL_MspInit(void)
 230:Drivers/STM32WLxx_HAL_Driver/Src/stm32wlxx_hal.c **** {
  27              		.loc 1 230 1 view -0
  28              		.cfi_startproc
  29              		@ args = 0, pretend = 0, frame = 0
  30              		@ frame_needed = 0, uses_anonymous_args = 0
  31              		@ link register save eliminated.
 231:Drivers/STM32WLxx_HAL_Driver/Src/stm32wlxx_hal.c ****   /* NOTE : This function should not be modified, when the callback is needed,
 232:Drivers/STM32WLxx_HAL_Driver/Src/stm32wlxx_hal.c ****             the HAL_MspInit could be implemented in the user file
 233:Drivers/STM32WLxx_HAL_Driver/Src/stm32wlxx_hal.c ****    */
 234:Drivers/STM32WLxx_HAL_Driver/Src/stm32wlxx_hal.c **** }
  32              		.loc 1 234 1 view .LVU1
  33 0000 7047     		bx	lr
  34              		.cfi_endproc
  35              	.LFE846:
  37              		.section	.text.HAL_MspDeInit,"ax",%progbits
  38              		.align	1
  39              		.weak	HAL_MspDeInit
  40              		.syntax unified
  41              		.thumb
  42              		.thumb_func
  43              		.fpu softvfp
  45              	HAL_MspDeInit:
  46              	.LFB847:
 235:Drivers/STM32WLxx_HAL_Driver/Src/stm32wlxx_hal.c **** 
 236:Drivers/STM32WLxx_HAL_Driver/Src/stm32wlxx_hal.c **** /**
 237:Drivers/STM32WLxx_HAL_Driver/Src/stm32wlxx_hal.c ****   * @brief  DeInitializes the MSP.
 238:Drivers/STM32WLxx_HAL_Driver/Src/stm32wlxx_hal.c ****   * @retval None
 239:Drivers/STM32WLxx_HAL_Driver/Src/stm32wlxx_hal.c ****   */
 240:Drivers/STM32WLxx_HAL_Driver/Src/stm32wlxx_hal.c **** __weak void HAL_MspDeInit(void)
 241:Drivers/STM32WLxx_HAL_Driver/Src/stm32wlxx_hal.c **** {
  47              		.loc 1 241 1 view -0
ARM GAS  /var/folders/9y/n02fl3g16gnf7ppy14xghdy80000gn/T//ccRSWXWQ.s 			page 6


  48              		.cfi_startproc
  49              		@ args = 0, pretend = 0, frame = 0
  50              		@ frame_needed = 0, uses_anonymous_args = 0
  51              		@ link register save eliminated.
 242:Drivers/STM32WLxx_HAL_Driver/Src/stm32wlxx_hal.c ****   /* NOTE : This function should not be modified, when the callback is needed,
 243:Drivers/STM32WLxx_HAL_Driver/Src/stm32wlxx_hal.c ****             the HAL_MspDeInit could be implemented in the user file
 244:Drivers/STM32WLxx_HAL_Driver/Src/stm32wlxx_hal.c ****    */
 245:Drivers/STM32WLxx_HAL_Driver/Src/stm32wlxx_hal.c **** }
  52              		.loc 1 245 1 view .LVU3
  53 0000 7047     		bx	lr
  54              		.cfi_endproc
  55              	.LFE847:
  57              		.section	.text.HAL_DeInit,"ax",%progbits
  58              		.align	1
  59              		.global	HAL_DeInit
  60              		.syntax unified
  61              		.thumb
  62              		.thumb_func
  63              		.fpu softvfp
  65              	HAL_DeInit:
  66              	.LFB845:
 198:Drivers/STM32WLxx_HAL_Driver/Src/stm32wlxx_hal.c ****   /* Reset of all peripherals */
  67              		.loc 1 198 1 view -0
  68              		.cfi_startproc
  69              		@ args = 0, pretend = 0, frame = 0
  70              		@ frame_needed = 0, uses_anonymous_args = 0
  71 0000 10B5     		push	{r4, lr}
  72              		.cfi_def_cfa_offset 8
  73              		.cfi_offset 4, -8
  74              		.cfi_offset 14, -4
 200:Drivers/STM32WLxx_HAL_Driver/Src/stm32wlxx_hal.c ****   __HAL_RCC_APB1_RELEASE_RESET();
  75              		.loc 1 200 3 view .LVU5
 200:Drivers/STM32WLxx_HAL_Driver/Src/stm32wlxx_hal.c ****   __HAL_RCC_APB1_RELEASE_RESET();
  76              		.loc 1 200 3 view .LVU6
  77              	.LVL0:
  78              	.LBB62:
  79              	.LBI62:
  80              		.file 2 "Drivers/STM32WLxx_HAL_Driver/Inc/stm32wlxx_ll_bus.h"
   1:Drivers/STM32WLxx_HAL_Driver/Inc/stm32wlxx_ll_bus.h **** /**
   2:Drivers/STM32WLxx_HAL_Driver/Inc/stm32wlxx_ll_bus.h ****   ******************************************************************************
   3:Drivers/STM32WLxx_HAL_Driver/Inc/stm32wlxx_ll_bus.h ****   * @file    stm32wlxx_ll_bus.h
   4:Drivers/STM32WLxx_HAL_Driver/Inc/stm32wlxx_ll_bus.h ****   * @author  MCD Application Team
   5:Drivers/STM32WLxx_HAL_Driver/Inc/stm32wlxx_ll_bus.h ****   * @brief   Header file of BUS LL module.
   6:Drivers/STM32WLxx_HAL_Driver/Inc/stm32wlxx_ll_bus.h ****   ******************************************************************************
   7:Drivers/STM32WLxx_HAL_Driver/Inc/stm32wlxx_ll_bus.h ****   * @attention
   8:Drivers/STM32WLxx_HAL_Driver/Inc/stm32wlxx_ll_bus.h ****   *
   9:Drivers/STM32WLxx_HAL_Driver/Inc/stm32wlxx_ll_bus.h ****   * Copyright (c) 2020 STMicroelectronics.
  10:Drivers/STM32WLxx_HAL_Driver/Inc/stm32wlxx_ll_bus.h ****   * All rights reserved.
  11:Drivers/STM32WLxx_HAL_Driver/Inc/stm32wlxx_ll_bus.h ****   *
  12:Drivers/STM32WLxx_HAL_Driver/Inc/stm32wlxx_ll_bus.h ****   * This software is licensed under terms that can be found in the LICENSE file
  13:Drivers/STM32WLxx_HAL_Driver/Inc/stm32wlxx_ll_bus.h ****   * in the root directory of this software component.
  14:Drivers/STM32WLxx_HAL_Driver/Inc/stm32wlxx_ll_bus.h ****   * If no LICENSE file comes with this software, it is provided AS-IS.
  15:Drivers/STM32WLxx_HAL_Driver/Inc/stm32wlxx_ll_bus.h ****   *
  16:Drivers/STM32WLxx_HAL_Driver/Inc/stm32wlxx_ll_bus.h ****   ******************************************************************************
  17:Drivers/STM32WLxx_HAL_Driver/Inc/stm32wlxx_ll_bus.h ****   @verbatim
  18:Drivers/STM32WLxx_HAL_Driver/Inc/stm32wlxx_ll_bus.h ****                       ##### RCC Limitations #####
  19:Drivers/STM32WLxx_HAL_Driver/Inc/stm32wlxx_ll_bus.h ****   ==============================================================================
ARM GAS  /var/folders/9y/n02fl3g16gnf7ppy14xghdy80000gn/T//ccRSWXWQ.s 			page 7


  20:Drivers/STM32WLxx_HAL_Driver/Inc/stm32wlxx_ll_bus.h ****     [..]
  21:Drivers/STM32WLxx_HAL_Driver/Inc/stm32wlxx_ll_bus.h ****       A delay between an RCC peripheral clock enable and the effective peripheral
  22:Drivers/STM32WLxx_HAL_Driver/Inc/stm32wlxx_ll_bus.h ****       enabling should be taken into account in order to manage the peripheral read/write
  23:Drivers/STM32WLxx_HAL_Driver/Inc/stm32wlxx_ll_bus.h ****       from/to registers.w<
  24:Drivers/STM32WLxx_HAL_Driver/Inc/stm32wlxx_ll_bus.h ****       (+) This delay depends on the peripheral mapping.
  25:Drivers/STM32WLxx_HAL_Driver/Inc/stm32wlxx_ll_bus.h ****         (++) AHB & APB peripherals, 1 dummy read is necessary
  26:Drivers/STM32WLxx_HAL_Driver/Inc/stm32wlxx_ll_bus.h **** 
  27:Drivers/STM32WLxx_HAL_Driver/Inc/stm32wlxx_ll_bus.h ****     [..]
  28:Drivers/STM32WLxx_HAL_Driver/Inc/stm32wlxx_ll_bus.h ****       Workarounds:
  29:Drivers/STM32WLxx_HAL_Driver/Inc/stm32wlxx_ll_bus.h ****       (#) For AHB & APB peripherals, a dummy read to the peripheral register has been
  30:Drivers/STM32WLxx_HAL_Driver/Inc/stm32wlxx_ll_bus.h ****           inserted in each LL_{BUS}_GRP{x}_EnableClock() function.
  31:Drivers/STM32WLxx_HAL_Driver/Inc/stm32wlxx_ll_bus.h **** 
  32:Drivers/STM32WLxx_HAL_Driver/Inc/stm32wlxx_ll_bus.h ****   @endverbatim
  33:Drivers/STM32WLxx_HAL_Driver/Inc/stm32wlxx_ll_bus.h ****   ******************************************************************************
  34:Drivers/STM32WLxx_HAL_Driver/Inc/stm32wlxx_ll_bus.h ****   */
  35:Drivers/STM32WLxx_HAL_Driver/Inc/stm32wlxx_ll_bus.h **** 
  36:Drivers/STM32WLxx_HAL_Driver/Inc/stm32wlxx_ll_bus.h **** /* Define to prevent recursive inclusion -------------------------------------*/
  37:Drivers/STM32WLxx_HAL_Driver/Inc/stm32wlxx_ll_bus.h **** #ifndef __STM32WLxx_LL_BUS_H
  38:Drivers/STM32WLxx_HAL_Driver/Inc/stm32wlxx_ll_bus.h **** #define __STM32WLxx_LL_BUS_H
  39:Drivers/STM32WLxx_HAL_Driver/Inc/stm32wlxx_ll_bus.h **** 
  40:Drivers/STM32WLxx_HAL_Driver/Inc/stm32wlxx_ll_bus.h **** #ifdef __cplusplus
  41:Drivers/STM32WLxx_HAL_Driver/Inc/stm32wlxx_ll_bus.h **** extern "C" {
  42:Drivers/STM32WLxx_HAL_Driver/Inc/stm32wlxx_ll_bus.h **** #endif
  43:Drivers/STM32WLxx_HAL_Driver/Inc/stm32wlxx_ll_bus.h **** 
  44:Drivers/STM32WLxx_HAL_Driver/Inc/stm32wlxx_ll_bus.h **** /* Includes ------------------------------------------------------------------*/
  45:Drivers/STM32WLxx_HAL_Driver/Inc/stm32wlxx_ll_bus.h **** #include "stm32wlxx.h"
  46:Drivers/STM32WLxx_HAL_Driver/Inc/stm32wlxx_ll_bus.h **** 
  47:Drivers/STM32WLxx_HAL_Driver/Inc/stm32wlxx_ll_bus.h **** /** @addtogroup STM32WLxx_LL_Driver
  48:Drivers/STM32WLxx_HAL_Driver/Inc/stm32wlxx_ll_bus.h ****   * @{
  49:Drivers/STM32WLxx_HAL_Driver/Inc/stm32wlxx_ll_bus.h ****   */
  50:Drivers/STM32WLxx_HAL_Driver/Inc/stm32wlxx_ll_bus.h **** 
  51:Drivers/STM32WLxx_HAL_Driver/Inc/stm32wlxx_ll_bus.h **** #if defined(RCC)
  52:Drivers/STM32WLxx_HAL_Driver/Inc/stm32wlxx_ll_bus.h **** 
  53:Drivers/STM32WLxx_HAL_Driver/Inc/stm32wlxx_ll_bus.h **** /** @defgroup BUS_LL BUS
  54:Drivers/STM32WLxx_HAL_Driver/Inc/stm32wlxx_ll_bus.h ****   * @{
  55:Drivers/STM32WLxx_HAL_Driver/Inc/stm32wlxx_ll_bus.h ****   */
  56:Drivers/STM32WLxx_HAL_Driver/Inc/stm32wlxx_ll_bus.h **** 
  57:Drivers/STM32WLxx_HAL_Driver/Inc/stm32wlxx_ll_bus.h **** /* Private types -------------------------------------------------------------*/
  58:Drivers/STM32WLxx_HAL_Driver/Inc/stm32wlxx_ll_bus.h **** /* Private variables ---------------------------------------------------------*/
  59:Drivers/STM32WLxx_HAL_Driver/Inc/stm32wlxx_ll_bus.h **** 
  60:Drivers/STM32WLxx_HAL_Driver/Inc/stm32wlxx_ll_bus.h **** /* Private constants ---------------------------------------------------------*/
  61:Drivers/STM32WLxx_HAL_Driver/Inc/stm32wlxx_ll_bus.h **** 
  62:Drivers/STM32WLxx_HAL_Driver/Inc/stm32wlxx_ll_bus.h **** /* Private macros ------------------------------------------------------------*/
  63:Drivers/STM32WLxx_HAL_Driver/Inc/stm32wlxx_ll_bus.h **** 
  64:Drivers/STM32WLxx_HAL_Driver/Inc/stm32wlxx_ll_bus.h **** /* Exported types ------------------------------------------------------------*/
  65:Drivers/STM32WLxx_HAL_Driver/Inc/stm32wlxx_ll_bus.h **** 
  66:Drivers/STM32WLxx_HAL_Driver/Inc/stm32wlxx_ll_bus.h **** /* Exported constants --------------------------------------------------------*/
  67:Drivers/STM32WLxx_HAL_Driver/Inc/stm32wlxx_ll_bus.h **** /** @defgroup BUS_LL_Exported_Constants BUS Exported Constants
  68:Drivers/STM32WLxx_HAL_Driver/Inc/stm32wlxx_ll_bus.h ****   * @{
  69:Drivers/STM32WLxx_HAL_Driver/Inc/stm32wlxx_ll_bus.h ****   */
  70:Drivers/STM32WLxx_HAL_Driver/Inc/stm32wlxx_ll_bus.h **** 
  71:Drivers/STM32WLxx_HAL_Driver/Inc/stm32wlxx_ll_bus.h **** /** @defgroup BUS_LL_EC_AHB1_GRP1_PERIPH  AHB1 GRP1 PERIPH
  72:Drivers/STM32WLxx_HAL_Driver/Inc/stm32wlxx_ll_bus.h ****   * @{
  73:Drivers/STM32WLxx_HAL_Driver/Inc/stm32wlxx_ll_bus.h ****   */
  74:Drivers/STM32WLxx_HAL_Driver/Inc/stm32wlxx_ll_bus.h **** #define LL_AHB1_GRP1_PERIPH_ALL            (0xFFFFFFFFU)
  75:Drivers/STM32WLxx_HAL_Driver/Inc/stm32wlxx_ll_bus.h **** #define LL_AHB1_GRP1_PERIPH_DMA1           RCC_AHB1ENR_DMA1EN
  76:Drivers/STM32WLxx_HAL_Driver/Inc/stm32wlxx_ll_bus.h **** #define LL_AHB1_GRP1_PERIPH_DMA2           RCC_AHB1ENR_DMA2EN
ARM GAS  /var/folders/9y/n02fl3g16gnf7ppy14xghdy80000gn/T//ccRSWXWQ.s 			page 8


  77:Drivers/STM32WLxx_HAL_Driver/Inc/stm32wlxx_ll_bus.h **** #define LL_AHB1_GRP1_PERIPH_DMAMUX1        RCC_AHB1ENR_DMAMUX1EN
  78:Drivers/STM32WLxx_HAL_Driver/Inc/stm32wlxx_ll_bus.h **** #define LL_AHB1_GRP1_PERIPH_CRC            RCC_AHB1ENR_CRCEN
  79:Drivers/STM32WLxx_HAL_Driver/Inc/stm32wlxx_ll_bus.h **** /**
  80:Drivers/STM32WLxx_HAL_Driver/Inc/stm32wlxx_ll_bus.h ****   * @}
  81:Drivers/STM32WLxx_HAL_Driver/Inc/stm32wlxx_ll_bus.h ****   */
  82:Drivers/STM32WLxx_HAL_Driver/Inc/stm32wlxx_ll_bus.h **** 
  83:Drivers/STM32WLxx_HAL_Driver/Inc/stm32wlxx_ll_bus.h **** /** @defgroup BUS_LL_EC_AHB2_GRP1_PERIPH  AHB2 GRP1 PERIPH
  84:Drivers/STM32WLxx_HAL_Driver/Inc/stm32wlxx_ll_bus.h ****   * @{
  85:Drivers/STM32WLxx_HAL_Driver/Inc/stm32wlxx_ll_bus.h ****   */
  86:Drivers/STM32WLxx_HAL_Driver/Inc/stm32wlxx_ll_bus.h **** #define LL_AHB2_GRP1_PERIPH_ALL            (0xFFFFFFFFU)
  87:Drivers/STM32WLxx_HAL_Driver/Inc/stm32wlxx_ll_bus.h **** #define LL_AHB2_GRP1_PERIPH_GPIOA          RCC_AHB2ENR_GPIOAEN
  88:Drivers/STM32WLxx_HAL_Driver/Inc/stm32wlxx_ll_bus.h **** #define LL_AHB2_GRP1_PERIPH_GPIOB          RCC_AHB2ENR_GPIOBEN
  89:Drivers/STM32WLxx_HAL_Driver/Inc/stm32wlxx_ll_bus.h **** #define LL_AHB2_GRP1_PERIPH_GPIOC          RCC_AHB2ENR_GPIOCEN
  90:Drivers/STM32WLxx_HAL_Driver/Inc/stm32wlxx_ll_bus.h **** #define LL_AHB2_GRP1_PERIPH_GPIOH          RCC_AHB2ENR_GPIOHEN
  91:Drivers/STM32WLxx_HAL_Driver/Inc/stm32wlxx_ll_bus.h **** /**
  92:Drivers/STM32WLxx_HAL_Driver/Inc/stm32wlxx_ll_bus.h ****   * @}
  93:Drivers/STM32WLxx_HAL_Driver/Inc/stm32wlxx_ll_bus.h ****   */
  94:Drivers/STM32WLxx_HAL_Driver/Inc/stm32wlxx_ll_bus.h **** 
  95:Drivers/STM32WLxx_HAL_Driver/Inc/stm32wlxx_ll_bus.h **** /** @defgroup BUS_LL_EC_AHB3_GRP1_PERIPH  AHB3 GRP1 PERIPH
  96:Drivers/STM32WLxx_HAL_Driver/Inc/stm32wlxx_ll_bus.h ****   * @{
  97:Drivers/STM32WLxx_HAL_Driver/Inc/stm32wlxx_ll_bus.h ****   */
  98:Drivers/STM32WLxx_HAL_Driver/Inc/stm32wlxx_ll_bus.h **** #define LL_AHB3_GRP1_PERIPH_ALL            (0xFFFFFFFFU)
  99:Drivers/STM32WLxx_HAL_Driver/Inc/stm32wlxx_ll_bus.h **** #define LL_AHB3_GRP1_PERIPH_PKA            RCC_AHB3ENR_PKAEN
 100:Drivers/STM32WLxx_HAL_Driver/Inc/stm32wlxx_ll_bus.h **** #define LL_AHB3_GRP1_PERIPH_AES            RCC_AHB3ENR_AESEN
 101:Drivers/STM32WLxx_HAL_Driver/Inc/stm32wlxx_ll_bus.h **** #define LL_AHB3_GRP1_PERIPH_RNG            RCC_AHB3ENR_RNGEN
 102:Drivers/STM32WLxx_HAL_Driver/Inc/stm32wlxx_ll_bus.h **** #define LL_AHB3_GRP1_PERIPH_HSEM           RCC_AHB3ENR_HSEMEN
 103:Drivers/STM32WLxx_HAL_Driver/Inc/stm32wlxx_ll_bus.h **** #if defined(DUAL_CORE)
 104:Drivers/STM32WLxx_HAL_Driver/Inc/stm32wlxx_ll_bus.h **** #define LL_AHB3_GRP1_PERIPH_IPCC           RCC_AHB3ENR_IPCCEN
 105:Drivers/STM32WLxx_HAL_Driver/Inc/stm32wlxx_ll_bus.h **** #endif /* DUAL_CORE */
 106:Drivers/STM32WLxx_HAL_Driver/Inc/stm32wlxx_ll_bus.h **** #define LL_AHB3_GRP1_PERIPH_SRAM1          RCC_AHB3SMENR_SRAM1SMEN
 107:Drivers/STM32WLxx_HAL_Driver/Inc/stm32wlxx_ll_bus.h **** #define LL_AHB3_GRP1_PERIPH_SRAM2          RCC_AHB3SMENR_SRAM2SMEN
 108:Drivers/STM32WLxx_HAL_Driver/Inc/stm32wlxx_ll_bus.h **** #define LL_AHB3_GRP1_PERIPH_FLASH          RCC_AHB3ENR_FLASHEN
 109:Drivers/STM32WLxx_HAL_Driver/Inc/stm32wlxx_ll_bus.h **** /**
 110:Drivers/STM32WLxx_HAL_Driver/Inc/stm32wlxx_ll_bus.h ****   * @}
 111:Drivers/STM32WLxx_HAL_Driver/Inc/stm32wlxx_ll_bus.h ****   */
 112:Drivers/STM32WLxx_HAL_Driver/Inc/stm32wlxx_ll_bus.h **** 
 113:Drivers/STM32WLxx_HAL_Driver/Inc/stm32wlxx_ll_bus.h **** /** @defgroup BUS_LL_EC_APB1_GRP1_PERIPH  APB1 GRP1 PERIPH
 114:Drivers/STM32WLxx_HAL_Driver/Inc/stm32wlxx_ll_bus.h ****   * @{
 115:Drivers/STM32WLxx_HAL_Driver/Inc/stm32wlxx_ll_bus.h ****   */
 116:Drivers/STM32WLxx_HAL_Driver/Inc/stm32wlxx_ll_bus.h **** #define LL_APB1_GRP1_PERIPH_ALL            (0xFFFFFFFFU)
 117:Drivers/STM32WLxx_HAL_Driver/Inc/stm32wlxx_ll_bus.h **** #define LL_APB1_GRP1_PERIPH_TIM2           RCC_APB1ENR1_TIM2EN
 118:Drivers/STM32WLxx_HAL_Driver/Inc/stm32wlxx_ll_bus.h **** #define LL_APB1_GRP1_PERIPH_RTCAPB         RCC_APB1ENR1_RTCAPBEN
 119:Drivers/STM32WLxx_HAL_Driver/Inc/stm32wlxx_ll_bus.h **** #define LL_APB1_GRP1_PERIPH_WWDG           RCC_APB1ENR1_WWDGEN
 120:Drivers/STM32WLxx_HAL_Driver/Inc/stm32wlxx_ll_bus.h **** #define LL_APB1_GRP1_PERIPH_SPI2           RCC_APB1ENR1_SPI2EN
 121:Drivers/STM32WLxx_HAL_Driver/Inc/stm32wlxx_ll_bus.h **** #define LL_APB1_GRP1_PERIPH_USART2         RCC_APB1ENR1_USART2EN
 122:Drivers/STM32WLxx_HAL_Driver/Inc/stm32wlxx_ll_bus.h **** #define LL_APB1_GRP1_PERIPH_I2C1           RCC_APB1ENR1_I2C1EN
 123:Drivers/STM32WLxx_HAL_Driver/Inc/stm32wlxx_ll_bus.h **** #define LL_APB1_GRP1_PERIPH_I2C2           RCC_APB1ENR1_I2C2EN
 124:Drivers/STM32WLxx_HAL_Driver/Inc/stm32wlxx_ll_bus.h **** #define LL_APB1_GRP1_PERIPH_I2C3           RCC_APB1ENR1_I2C3EN
 125:Drivers/STM32WLxx_HAL_Driver/Inc/stm32wlxx_ll_bus.h **** #define LL_APB1_GRP1_PERIPH_DAC            RCC_APB1ENR1_DACEN
 126:Drivers/STM32WLxx_HAL_Driver/Inc/stm32wlxx_ll_bus.h **** #define LL_APB1_GRP1_PERIPH_LPTIM1         RCC_APB1ENR1_LPTIM1EN
 127:Drivers/STM32WLxx_HAL_Driver/Inc/stm32wlxx_ll_bus.h **** /**
 128:Drivers/STM32WLxx_HAL_Driver/Inc/stm32wlxx_ll_bus.h ****   * @}
 129:Drivers/STM32WLxx_HAL_Driver/Inc/stm32wlxx_ll_bus.h ****   */
 130:Drivers/STM32WLxx_HAL_Driver/Inc/stm32wlxx_ll_bus.h **** 
 131:Drivers/STM32WLxx_HAL_Driver/Inc/stm32wlxx_ll_bus.h **** 
 132:Drivers/STM32WLxx_HAL_Driver/Inc/stm32wlxx_ll_bus.h **** /** @defgroup BUS_LL_EC_APB1_GRP2_PERIPH  APB1 GRP2 PERIPH
 133:Drivers/STM32WLxx_HAL_Driver/Inc/stm32wlxx_ll_bus.h ****   * @{
ARM GAS  /var/folders/9y/n02fl3g16gnf7ppy14xghdy80000gn/T//ccRSWXWQ.s 			page 9


 134:Drivers/STM32WLxx_HAL_Driver/Inc/stm32wlxx_ll_bus.h ****   */
 135:Drivers/STM32WLxx_HAL_Driver/Inc/stm32wlxx_ll_bus.h **** #define LL_APB1_GRP2_PERIPH_ALL            (0xFFFFFFFFU)
 136:Drivers/STM32WLxx_HAL_Driver/Inc/stm32wlxx_ll_bus.h **** #define LL_APB1_GRP2_PERIPH_LPUART1        RCC_APB1ENR2_LPUART1EN
 137:Drivers/STM32WLxx_HAL_Driver/Inc/stm32wlxx_ll_bus.h **** #define LL_APB1_GRP2_PERIPH_LPTIM2         RCC_APB1ENR2_LPTIM2EN
 138:Drivers/STM32WLxx_HAL_Driver/Inc/stm32wlxx_ll_bus.h **** #define LL_APB1_GRP2_PERIPH_LPTIM3         RCC_APB1ENR2_LPTIM3EN
 139:Drivers/STM32WLxx_HAL_Driver/Inc/stm32wlxx_ll_bus.h **** /**
 140:Drivers/STM32WLxx_HAL_Driver/Inc/stm32wlxx_ll_bus.h ****   * @}
 141:Drivers/STM32WLxx_HAL_Driver/Inc/stm32wlxx_ll_bus.h ****   */
 142:Drivers/STM32WLxx_HAL_Driver/Inc/stm32wlxx_ll_bus.h **** 
 143:Drivers/STM32WLxx_HAL_Driver/Inc/stm32wlxx_ll_bus.h **** /** @defgroup BUS_LL_EC_APB2_GRP1_PERIPH  APB2 GRP1 PERIPH
 144:Drivers/STM32WLxx_HAL_Driver/Inc/stm32wlxx_ll_bus.h ****   * @{
 145:Drivers/STM32WLxx_HAL_Driver/Inc/stm32wlxx_ll_bus.h ****   */
 146:Drivers/STM32WLxx_HAL_Driver/Inc/stm32wlxx_ll_bus.h **** #define LL_APB2_GRP1_PERIPH_ALL            (0xFFFFFFFFU)
 147:Drivers/STM32WLxx_HAL_Driver/Inc/stm32wlxx_ll_bus.h **** #define LL_APB2_GRP1_PERIPH_ADC            RCC_APB2ENR_ADCEN
 148:Drivers/STM32WLxx_HAL_Driver/Inc/stm32wlxx_ll_bus.h **** #define LL_APB2_GRP1_PERIPH_TIM1           RCC_APB2ENR_TIM1EN
 149:Drivers/STM32WLxx_HAL_Driver/Inc/stm32wlxx_ll_bus.h **** #define LL_APB2_GRP1_PERIPH_SPI1           RCC_APB2ENR_SPI1EN
 150:Drivers/STM32WLxx_HAL_Driver/Inc/stm32wlxx_ll_bus.h **** #define LL_APB2_GRP1_PERIPH_USART1         RCC_APB2ENR_USART1EN
 151:Drivers/STM32WLxx_HAL_Driver/Inc/stm32wlxx_ll_bus.h **** #define LL_APB2_GRP1_PERIPH_TIM16          RCC_APB2ENR_TIM16EN
 152:Drivers/STM32WLxx_HAL_Driver/Inc/stm32wlxx_ll_bus.h **** #define LL_APB2_GRP1_PERIPH_TIM17          RCC_APB2ENR_TIM17EN
 153:Drivers/STM32WLxx_HAL_Driver/Inc/stm32wlxx_ll_bus.h **** /**
 154:Drivers/STM32WLxx_HAL_Driver/Inc/stm32wlxx_ll_bus.h ****   * @}
 155:Drivers/STM32WLxx_HAL_Driver/Inc/stm32wlxx_ll_bus.h ****   */
 156:Drivers/STM32WLxx_HAL_Driver/Inc/stm32wlxx_ll_bus.h **** 
 157:Drivers/STM32WLxx_HAL_Driver/Inc/stm32wlxx_ll_bus.h **** /** @defgroup BUS_LL_EC_APB3_GRP1_PERIPH  APB3 GRP1 PERIPH
 158:Drivers/STM32WLxx_HAL_Driver/Inc/stm32wlxx_ll_bus.h ****   * @{
 159:Drivers/STM32WLxx_HAL_Driver/Inc/stm32wlxx_ll_bus.h ****   */
 160:Drivers/STM32WLxx_HAL_Driver/Inc/stm32wlxx_ll_bus.h **** #define LL_APB3_GRP1_PERIPH_ALL            (0xFFFFFFFFU)
 161:Drivers/STM32WLxx_HAL_Driver/Inc/stm32wlxx_ll_bus.h **** #define LL_APB3_GRP1_PERIPH_SUBGHZSPI      RCC_APB3ENR_SUBGHZSPIEN
 162:Drivers/STM32WLxx_HAL_Driver/Inc/stm32wlxx_ll_bus.h **** /**
 163:Drivers/STM32WLxx_HAL_Driver/Inc/stm32wlxx_ll_bus.h ****   * @}
 164:Drivers/STM32WLxx_HAL_Driver/Inc/stm32wlxx_ll_bus.h ****   */
 165:Drivers/STM32WLxx_HAL_Driver/Inc/stm32wlxx_ll_bus.h **** 
 166:Drivers/STM32WLxx_HAL_Driver/Inc/stm32wlxx_ll_bus.h **** #if defined(DUAL_CORE)
 167:Drivers/STM32WLxx_HAL_Driver/Inc/stm32wlxx_ll_bus.h **** /** @defgroup BUS_LL_EC_C2_AHB1_GRP1_PERIPH  C2 AHB1 GRP1 PERIPH
 168:Drivers/STM32WLxx_HAL_Driver/Inc/stm32wlxx_ll_bus.h ****   * @{
 169:Drivers/STM32WLxx_HAL_Driver/Inc/stm32wlxx_ll_bus.h ****   */
 170:Drivers/STM32WLxx_HAL_Driver/Inc/stm32wlxx_ll_bus.h **** #define LL_C2_AHB1_GRP1_PERIPH_DMA1         RCC_C2AHB1ENR_DMA1EN
 171:Drivers/STM32WLxx_HAL_Driver/Inc/stm32wlxx_ll_bus.h **** #define LL_C2_AHB1_GRP1_PERIPH_DMA2         RCC_C2AHB1ENR_DMA2EN
 172:Drivers/STM32WLxx_HAL_Driver/Inc/stm32wlxx_ll_bus.h **** #define LL_C2_AHB1_GRP1_PERIPH_DMAMUX1      RCC_C2AHB1ENR_DMAMUX1EN
 173:Drivers/STM32WLxx_HAL_Driver/Inc/stm32wlxx_ll_bus.h **** #define LL_C2_AHB1_GRP1_PERIPH_CRC          RCC_C2AHB1ENR_CRCEN
 174:Drivers/STM32WLxx_HAL_Driver/Inc/stm32wlxx_ll_bus.h **** /**
 175:Drivers/STM32WLxx_HAL_Driver/Inc/stm32wlxx_ll_bus.h ****   * @}
 176:Drivers/STM32WLxx_HAL_Driver/Inc/stm32wlxx_ll_bus.h ****   */
 177:Drivers/STM32WLxx_HAL_Driver/Inc/stm32wlxx_ll_bus.h **** 
 178:Drivers/STM32WLxx_HAL_Driver/Inc/stm32wlxx_ll_bus.h **** 
 179:Drivers/STM32WLxx_HAL_Driver/Inc/stm32wlxx_ll_bus.h **** /** @defgroup BUS_LL_EC_C2_AHB2_GRP1_PERIPH  C2 AHB2 GRP1 PERIPH
 180:Drivers/STM32WLxx_HAL_Driver/Inc/stm32wlxx_ll_bus.h ****   * @{
 181:Drivers/STM32WLxx_HAL_Driver/Inc/stm32wlxx_ll_bus.h ****   */
 182:Drivers/STM32WLxx_HAL_Driver/Inc/stm32wlxx_ll_bus.h **** #define LL_C2_AHB2_GRP1_PERIPH_GPIOA        RCC_C2AHB2ENR_GPIOAEN
 183:Drivers/STM32WLxx_HAL_Driver/Inc/stm32wlxx_ll_bus.h **** #define LL_C2_AHB2_GRP1_PERIPH_GPIOB        RCC_C2AHB2ENR_GPIOBEN
 184:Drivers/STM32WLxx_HAL_Driver/Inc/stm32wlxx_ll_bus.h **** #define LL_C2_AHB2_GRP1_PERIPH_GPIOC        RCC_C2AHB2ENR_GPIOCEN
 185:Drivers/STM32WLxx_HAL_Driver/Inc/stm32wlxx_ll_bus.h **** #define LL_C2_AHB2_GRP1_PERIPH_GPIOH        RCC_C2AHB2ENR_GPIOHEN
 186:Drivers/STM32WLxx_HAL_Driver/Inc/stm32wlxx_ll_bus.h **** /**
 187:Drivers/STM32WLxx_HAL_Driver/Inc/stm32wlxx_ll_bus.h ****   * @}
 188:Drivers/STM32WLxx_HAL_Driver/Inc/stm32wlxx_ll_bus.h ****   */
 189:Drivers/STM32WLxx_HAL_Driver/Inc/stm32wlxx_ll_bus.h **** 
 190:Drivers/STM32WLxx_HAL_Driver/Inc/stm32wlxx_ll_bus.h **** 
ARM GAS  /var/folders/9y/n02fl3g16gnf7ppy14xghdy80000gn/T//ccRSWXWQ.s 			page 10


 191:Drivers/STM32WLxx_HAL_Driver/Inc/stm32wlxx_ll_bus.h **** /** @defgroup BUS_LL_EC_C2_AHB3_GRP1_PERIPH  C2 AHB3 GRP1 PERIPH
 192:Drivers/STM32WLxx_HAL_Driver/Inc/stm32wlxx_ll_bus.h ****   * @{
 193:Drivers/STM32WLxx_HAL_Driver/Inc/stm32wlxx_ll_bus.h ****   */
 194:Drivers/STM32WLxx_HAL_Driver/Inc/stm32wlxx_ll_bus.h **** #define LL_C2_AHB3_GRP1_PERIPH_PKA          RCC_C2AHB3ENR_PKAEN
 195:Drivers/STM32WLxx_HAL_Driver/Inc/stm32wlxx_ll_bus.h **** #define LL_C2_AHB3_GRP1_PERIPH_AES          RCC_C2AHB3ENR_AESEN
 196:Drivers/STM32WLxx_HAL_Driver/Inc/stm32wlxx_ll_bus.h **** #define LL_C2_AHB3_GRP1_PERIPH_RNG          RCC_C2AHB3ENR_RNGEN
 197:Drivers/STM32WLxx_HAL_Driver/Inc/stm32wlxx_ll_bus.h **** #define LL_C2_AHB3_GRP1_PERIPH_HSEM         RCC_C2AHB3ENR_HSEMEN
 198:Drivers/STM32WLxx_HAL_Driver/Inc/stm32wlxx_ll_bus.h **** #define LL_C2_AHB3_GRP1_PERIPH_IPCC         RCC_C2AHB3ENR_IPCCEN
 199:Drivers/STM32WLxx_HAL_Driver/Inc/stm32wlxx_ll_bus.h **** #define LL_C2_AHB3_GRP1_PERIPH_FLASH        RCC_C2AHB3ENR_FLASHEN
 200:Drivers/STM32WLxx_HAL_Driver/Inc/stm32wlxx_ll_bus.h **** #define LL_C2_AHB3_GRP1_PERIPH_SRAM1        RCC_C2AHB3SMENR_SRAM1SMEN
 201:Drivers/STM32WLxx_HAL_Driver/Inc/stm32wlxx_ll_bus.h **** #define LL_C2_AHB3_GRP1_PERIPH_SRAM2        RCC_C2AHB3SMENR_SRAM2SMEN
 202:Drivers/STM32WLxx_HAL_Driver/Inc/stm32wlxx_ll_bus.h **** /**
 203:Drivers/STM32WLxx_HAL_Driver/Inc/stm32wlxx_ll_bus.h ****   * @}
 204:Drivers/STM32WLxx_HAL_Driver/Inc/stm32wlxx_ll_bus.h ****   */
 205:Drivers/STM32WLxx_HAL_Driver/Inc/stm32wlxx_ll_bus.h **** 
 206:Drivers/STM32WLxx_HAL_Driver/Inc/stm32wlxx_ll_bus.h **** 
 207:Drivers/STM32WLxx_HAL_Driver/Inc/stm32wlxx_ll_bus.h **** /** @defgroup BUS_LL_EC_C2_APB1_GRP1_PERIPH  C2 APB1 GRP1 PERIPH
 208:Drivers/STM32WLxx_HAL_Driver/Inc/stm32wlxx_ll_bus.h ****   * @{
 209:Drivers/STM32WLxx_HAL_Driver/Inc/stm32wlxx_ll_bus.h ****   */
 210:Drivers/STM32WLxx_HAL_Driver/Inc/stm32wlxx_ll_bus.h **** #define LL_C2_APB1_GRP1_PERIPH_TIM2         RCC_C2APB1ENR1_TIM2EN
 211:Drivers/STM32WLxx_HAL_Driver/Inc/stm32wlxx_ll_bus.h **** #define LL_C2_APB1_GRP1_PERIPH_RTCAPB       RCC_C2APB1ENR1_RTCAPBEN
 212:Drivers/STM32WLxx_HAL_Driver/Inc/stm32wlxx_ll_bus.h **** #define LL_C2_APB1_GRP1_PERIPH_SPI2         RCC_C2APB1ENR1_SPI2EN
 213:Drivers/STM32WLxx_HAL_Driver/Inc/stm32wlxx_ll_bus.h **** #define LL_C2_APB1_GRP1_PERIPH_USART2       RCC_C2APB1ENR1_USART2EN
 214:Drivers/STM32WLxx_HAL_Driver/Inc/stm32wlxx_ll_bus.h **** #define LL_C2_APB1_GRP1_PERIPH_I2C1         RCC_C2APB1ENR1_I2C1EN
 215:Drivers/STM32WLxx_HAL_Driver/Inc/stm32wlxx_ll_bus.h **** #define LL_C2_APB1_GRP1_PERIPH_I2C2         RCC_C2APB1ENR1_I2C2EN
 216:Drivers/STM32WLxx_HAL_Driver/Inc/stm32wlxx_ll_bus.h **** #define LL_C2_APB1_GRP1_PERIPH_I2C3         RCC_C2APB1ENR1_I2C3EN
 217:Drivers/STM32WLxx_HAL_Driver/Inc/stm32wlxx_ll_bus.h **** #define LL_C2_APB1_GRP1_PERIPH_DAC          RCC_C2APB1ENR1_DACEN
 218:Drivers/STM32WLxx_HAL_Driver/Inc/stm32wlxx_ll_bus.h **** #define LL_C2_APB1_GRP1_PERIPH_LPTIM1       RCC_C2APB1ENR1_LPTIM1EN
 219:Drivers/STM32WLxx_HAL_Driver/Inc/stm32wlxx_ll_bus.h **** /**
 220:Drivers/STM32WLxx_HAL_Driver/Inc/stm32wlxx_ll_bus.h ****   * @}
 221:Drivers/STM32WLxx_HAL_Driver/Inc/stm32wlxx_ll_bus.h ****   */
 222:Drivers/STM32WLxx_HAL_Driver/Inc/stm32wlxx_ll_bus.h **** 
 223:Drivers/STM32WLxx_HAL_Driver/Inc/stm32wlxx_ll_bus.h **** 
 224:Drivers/STM32WLxx_HAL_Driver/Inc/stm32wlxx_ll_bus.h **** /** @defgroup BUS_LL_EC_C2_APB1_GRP2_PERIPH  C2 APB1 GRP2 PERIPH
 225:Drivers/STM32WLxx_HAL_Driver/Inc/stm32wlxx_ll_bus.h ****   * @{
 226:Drivers/STM32WLxx_HAL_Driver/Inc/stm32wlxx_ll_bus.h ****   */
 227:Drivers/STM32WLxx_HAL_Driver/Inc/stm32wlxx_ll_bus.h **** #define LL_C2_APB1_GRP2_PERIPH_LPUART1      RCC_C2APB1ENR2_LPUART1EN
 228:Drivers/STM32WLxx_HAL_Driver/Inc/stm32wlxx_ll_bus.h **** #define LL_C2_APB1_GRP2_PERIPH_LPTIM2       RCC_C2APB1ENR2_LPTIM2EN
 229:Drivers/STM32WLxx_HAL_Driver/Inc/stm32wlxx_ll_bus.h **** #define LL_C2_APB1_GRP2_PERIPH_LPTIM3       RCC_C2APB1ENR2_LPTIM3EN
 230:Drivers/STM32WLxx_HAL_Driver/Inc/stm32wlxx_ll_bus.h **** /**
 231:Drivers/STM32WLxx_HAL_Driver/Inc/stm32wlxx_ll_bus.h ****   * @}
 232:Drivers/STM32WLxx_HAL_Driver/Inc/stm32wlxx_ll_bus.h ****   */
 233:Drivers/STM32WLxx_HAL_Driver/Inc/stm32wlxx_ll_bus.h **** 
 234:Drivers/STM32WLxx_HAL_Driver/Inc/stm32wlxx_ll_bus.h **** 
 235:Drivers/STM32WLxx_HAL_Driver/Inc/stm32wlxx_ll_bus.h **** /** @defgroup BUS_LL_EC_C2_APB2_GRP1_PERIPH  C2 APB2 GRP1 PERIPH
 236:Drivers/STM32WLxx_HAL_Driver/Inc/stm32wlxx_ll_bus.h ****   * @{
 237:Drivers/STM32WLxx_HAL_Driver/Inc/stm32wlxx_ll_bus.h ****   */
 238:Drivers/STM32WLxx_HAL_Driver/Inc/stm32wlxx_ll_bus.h **** #define LL_C2_APB2_GRP1_PERIPH_ADC          RCC_C2APB2ENR_ADCEN
 239:Drivers/STM32WLxx_HAL_Driver/Inc/stm32wlxx_ll_bus.h **** #define LL_C2_APB2_GRP1_PERIPH_TIM1         RCC_C2APB2ENR_TIM1EN
 240:Drivers/STM32WLxx_HAL_Driver/Inc/stm32wlxx_ll_bus.h **** #define LL_C2_APB2_GRP1_PERIPH_SPI1         RCC_C2APB2ENR_SPI1EN
 241:Drivers/STM32WLxx_HAL_Driver/Inc/stm32wlxx_ll_bus.h **** #define LL_C2_APB2_GRP1_PERIPH_USART1       RCC_C2APB2ENR_USART1EN
 242:Drivers/STM32WLxx_HAL_Driver/Inc/stm32wlxx_ll_bus.h **** #define LL_C2_APB2_GRP1_PERIPH_TIM16        RCC_C2APB2ENR_TIM16EN
 243:Drivers/STM32WLxx_HAL_Driver/Inc/stm32wlxx_ll_bus.h **** #define LL_C2_APB2_GRP1_PERIPH_TIM17        RCC_C2APB2ENR_TIM17EN
 244:Drivers/STM32WLxx_HAL_Driver/Inc/stm32wlxx_ll_bus.h **** /**
 245:Drivers/STM32WLxx_HAL_Driver/Inc/stm32wlxx_ll_bus.h ****   * @}
 246:Drivers/STM32WLxx_HAL_Driver/Inc/stm32wlxx_ll_bus.h ****   */
 247:Drivers/STM32WLxx_HAL_Driver/Inc/stm32wlxx_ll_bus.h **** 
ARM GAS  /var/folders/9y/n02fl3g16gnf7ppy14xghdy80000gn/T//ccRSWXWQ.s 			page 11


 248:Drivers/STM32WLxx_HAL_Driver/Inc/stm32wlxx_ll_bus.h **** 
 249:Drivers/STM32WLxx_HAL_Driver/Inc/stm32wlxx_ll_bus.h **** /** @defgroup BUS_LL_EC_C2_APB3_GRP1_PERIPH  C2 APB3 GRP1 PERIPH
 250:Drivers/STM32WLxx_HAL_Driver/Inc/stm32wlxx_ll_bus.h ****   * @{
 251:Drivers/STM32WLxx_HAL_Driver/Inc/stm32wlxx_ll_bus.h ****   */
 252:Drivers/STM32WLxx_HAL_Driver/Inc/stm32wlxx_ll_bus.h **** #define LL_C2_APB3_GRP1_PERIPH_SUBGHZSPI    RCC_C2APB3ENR_SUBGHZSPIEN
 253:Drivers/STM32WLxx_HAL_Driver/Inc/stm32wlxx_ll_bus.h **** /**
 254:Drivers/STM32WLxx_HAL_Driver/Inc/stm32wlxx_ll_bus.h ****   * @}
 255:Drivers/STM32WLxx_HAL_Driver/Inc/stm32wlxx_ll_bus.h ****   */
 256:Drivers/STM32WLxx_HAL_Driver/Inc/stm32wlxx_ll_bus.h **** #endif /* DUAL_CORE */
 257:Drivers/STM32WLxx_HAL_Driver/Inc/stm32wlxx_ll_bus.h **** 
 258:Drivers/STM32WLxx_HAL_Driver/Inc/stm32wlxx_ll_bus.h **** /**
 259:Drivers/STM32WLxx_HAL_Driver/Inc/stm32wlxx_ll_bus.h ****   * @}
 260:Drivers/STM32WLxx_HAL_Driver/Inc/stm32wlxx_ll_bus.h ****   */
 261:Drivers/STM32WLxx_HAL_Driver/Inc/stm32wlxx_ll_bus.h **** 
 262:Drivers/STM32WLxx_HAL_Driver/Inc/stm32wlxx_ll_bus.h **** /* Exported macro ------------------------------------------------------------*/
 263:Drivers/STM32WLxx_HAL_Driver/Inc/stm32wlxx_ll_bus.h **** 
 264:Drivers/STM32WLxx_HAL_Driver/Inc/stm32wlxx_ll_bus.h **** /* Exported functions --------------------------------------------------------*/
 265:Drivers/STM32WLxx_HAL_Driver/Inc/stm32wlxx_ll_bus.h **** 
 266:Drivers/STM32WLxx_HAL_Driver/Inc/stm32wlxx_ll_bus.h **** /** @defgroup BUS_LL_Exported_Functions BUS Exported Functions
 267:Drivers/STM32WLxx_HAL_Driver/Inc/stm32wlxx_ll_bus.h ****   * @{
 268:Drivers/STM32WLxx_HAL_Driver/Inc/stm32wlxx_ll_bus.h ****   */
 269:Drivers/STM32WLxx_HAL_Driver/Inc/stm32wlxx_ll_bus.h **** 
 270:Drivers/STM32WLxx_HAL_Driver/Inc/stm32wlxx_ll_bus.h **** /** @defgroup BUS_LL_EF_AHB1 AHB1
 271:Drivers/STM32WLxx_HAL_Driver/Inc/stm32wlxx_ll_bus.h ****   * @{
 272:Drivers/STM32WLxx_HAL_Driver/Inc/stm32wlxx_ll_bus.h ****   */
 273:Drivers/STM32WLxx_HAL_Driver/Inc/stm32wlxx_ll_bus.h **** 
 274:Drivers/STM32WLxx_HAL_Driver/Inc/stm32wlxx_ll_bus.h **** /**
 275:Drivers/STM32WLxx_HAL_Driver/Inc/stm32wlxx_ll_bus.h ****   * @brief  Enable AHB1 peripherals clock.
 276:Drivers/STM32WLxx_HAL_Driver/Inc/stm32wlxx_ll_bus.h ****   * @rmtoll AHB1ENR      DMA1EN        LL_AHB1_GRP1_EnableClock\n
 277:Drivers/STM32WLxx_HAL_Driver/Inc/stm32wlxx_ll_bus.h ****   *         AHB1ENR      DMA2EN        LL_AHB1_GRP1_EnableClock\n
 278:Drivers/STM32WLxx_HAL_Driver/Inc/stm32wlxx_ll_bus.h ****   *         AHB1ENR      DMAMUX1EN     LL_AHB1_GRP1_EnableClock\n
 279:Drivers/STM32WLxx_HAL_Driver/Inc/stm32wlxx_ll_bus.h ****   *         AHB1ENR      CRCEN         LL_AHB1_GRP1_EnableClock\n
 280:Drivers/STM32WLxx_HAL_Driver/Inc/stm32wlxx_ll_bus.h ****   * @param  Periphs This parameter can be a combination of the following values:
 281:Drivers/STM32WLxx_HAL_Driver/Inc/stm32wlxx_ll_bus.h ****   *         @arg @ref LL_AHB1_GRP1_PERIPH_DMA1
 282:Drivers/STM32WLxx_HAL_Driver/Inc/stm32wlxx_ll_bus.h ****   *         @arg @ref LL_AHB1_GRP1_PERIPH_DMA2
 283:Drivers/STM32WLxx_HAL_Driver/Inc/stm32wlxx_ll_bus.h ****   *         @arg @ref LL_AHB1_GRP1_PERIPH_DMAMUX1
 284:Drivers/STM32WLxx_HAL_Driver/Inc/stm32wlxx_ll_bus.h ****   *         @arg @ref LL_AHB1_GRP1_PERIPH_CRC
 285:Drivers/STM32WLxx_HAL_Driver/Inc/stm32wlxx_ll_bus.h ****   * @retval None
 286:Drivers/STM32WLxx_HAL_Driver/Inc/stm32wlxx_ll_bus.h ****   */
 287:Drivers/STM32WLxx_HAL_Driver/Inc/stm32wlxx_ll_bus.h **** __STATIC_INLINE void LL_AHB1_GRP1_EnableClock(uint32_t Periphs)
 288:Drivers/STM32WLxx_HAL_Driver/Inc/stm32wlxx_ll_bus.h **** {
 289:Drivers/STM32WLxx_HAL_Driver/Inc/stm32wlxx_ll_bus.h ****   __IO uint32_t tmpreg;
 290:Drivers/STM32WLxx_HAL_Driver/Inc/stm32wlxx_ll_bus.h ****   SET_BIT(RCC->AHB1ENR, Periphs);
 291:Drivers/STM32WLxx_HAL_Driver/Inc/stm32wlxx_ll_bus.h ****   /* Delay after an RCC peripheral clock enabling */
 292:Drivers/STM32WLxx_HAL_Driver/Inc/stm32wlxx_ll_bus.h ****   tmpreg = READ_BIT(RCC->AHB1ENR, Periphs);
 293:Drivers/STM32WLxx_HAL_Driver/Inc/stm32wlxx_ll_bus.h ****   (void)tmpreg;
 294:Drivers/STM32WLxx_HAL_Driver/Inc/stm32wlxx_ll_bus.h **** }
 295:Drivers/STM32WLxx_HAL_Driver/Inc/stm32wlxx_ll_bus.h **** 
 296:Drivers/STM32WLxx_HAL_Driver/Inc/stm32wlxx_ll_bus.h **** /**
 297:Drivers/STM32WLxx_HAL_Driver/Inc/stm32wlxx_ll_bus.h ****   * @brief  Check if AHB1 peripheral clock is enabled or not
 298:Drivers/STM32WLxx_HAL_Driver/Inc/stm32wlxx_ll_bus.h ****   * @rmtoll AHB1ENR      DMA1EN        LL_AHB1_GRP1_IsEnabledClock\n
 299:Drivers/STM32WLxx_HAL_Driver/Inc/stm32wlxx_ll_bus.h ****   *         AHB1ENR      DMA2EN        LL_AHB1_GRP1_IsEnabledClock\n
 300:Drivers/STM32WLxx_HAL_Driver/Inc/stm32wlxx_ll_bus.h ****   *         AHB1ENR      DMAMUX1EN     LL_AHB1_GRP1_IsEnabledClock\n
 301:Drivers/STM32WLxx_HAL_Driver/Inc/stm32wlxx_ll_bus.h ****   *         AHB1ENR      CRCEN         LL_AHB1_GRP1_IsEnabledClock\n
 302:Drivers/STM32WLxx_HAL_Driver/Inc/stm32wlxx_ll_bus.h ****   * @param  Periphs This parameter can be a combination of the following values:
 303:Drivers/STM32WLxx_HAL_Driver/Inc/stm32wlxx_ll_bus.h ****   *         @arg @ref LL_AHB1_GRP1_PERIPH_DMA1
 304:Drivers/STM32WLxx_HAL_Driver/Inc/stm32wlxx_ll_bus.h ****   *         @arg @ref LL_AHB1_GRP1_PERIPH_DMA2
ARM GAS  /var/folders/9y/n02fl3g16gnf7ppy14xghdy80000gn/T//ccRSWXWQ.s 			page 12


 305:Drivers/STM32WLxx_HAL_Driver/Inc/stm32wlxx_ll_bus.h ****   *         @arg @ref LL_AHB1_GRP1_PERIPH_DMAMUX1
 306:Drivers/STM32WLxx_HAL_Driver/Inc/stm32wlxx_ll_bus.h ****   *         @arg @ref LL_AHB1_GRP1_PERIPH_CRC
 307:Drivers/STM32WLxx_HAL_Driver/Inc/stm32wlxx_ll_bus.h ****   * @retval uint32_t
 308:Drivers/STM32WLxx_HAL_Driver/Inc/stm32wlxx_ll_bus.h ****   */
 309:Drivers/STM32WLxx_HAL_Driver/Inc/stm32wlxx_ll_bus.h **** __STATIC_INLINE uint32_t LL_AHB1_GRP1_IsEnabledClock(uint32_t Periphs)
 310:Drivers/STM32WLxx_HAL_Driver/Inc/stm32wlxx_ll_bus.h **** {
 311:Drivers/STM32WLxx_HAL_Driver/Inc/stm32wlxx_ll_bus.h ****   return ((READ_BIT(RCC->AHB1ENR, Periphs) == (Periphs)) ? 1UL : 0UL);
 312:Drivers/STM32WLxx_HAL_Driver/Inc/stm32wlxx_ll_bus.h **** }
 313:Drivers/STM32WLxx_HAL_Driver/Inc/stm32wlxx_ll_bus.h **** 
 314:Drivers/STM32WLxx_HAL_Driver/Inc/stm32wlxx_ll_bus.h **** /**
 315:Drivers/STM32WLxx_HAL_Driver/Inc/stm32wlxx_ll_bus.h ****   * @brief  Disable AHB1 peripherals clock.
 316:Drivers/STM32WLxx_HAL_Driver/Inc/stm32wlxx_ll_bus.h ****   * @rmtoll AHB1ENR      DMA1EN        LL_AHB1_GRP1_DisableClock\n
 317:Drivers/STM32WLxx_HAL_Driver/Inc/stm32wlxx_ll_bus.h ****   *         AHB1ENR      DMA2EN        LL_AHB1_GRP1_DisableClock\n
 318:Drivers/STM32WLxx_HAL_Driver/Inc/stm32wlxx_ll_bus.h ****   *         AHB1ENR      DMAMUX1EN     LL_AHB1_GRP1_DisableClock\n
 319:Drivers/STM32WLxx_HAL_Driver/Inc/stm32wlxx_ll_bus.h ****   *         AHB1ENR      CRCEN         LL_AHB1_GRP1_DisableClock\n
 320:Drivers/STM32WLxx_HAL_Driver/Inc/stm32wlxx_ll_bus.h ****   * @param  Periphs This parameter can be a combination of the following values:
 321:Drivers/STM32WLxx_HAL_Driver/Inc/stm32wlxx_ll_bus.h ****   *         @arg @ref LL_AHB1_GRP1_PERIPH_DMA1
 322:Drivers/STM32WLxx_HAL_Driver/Inc/stm32wlxx_ll_bus.h ****   *         @arg @ref LL_AHB1_GRP1_PERIPH_DMA2
 323:Drivers/STM32WLxx_HAL_Driver/Inc/stm32wlxx_ll_bus.h ****   *         @arg @ref LL_AHB1_GRP1_PERIPH_DMAMUX1
 324:Drivers/STM32WLxx_HAL_Driver/Inc/stm32wlxx_ll_bus.h ****   *         @arg @ref LL_AHB1_GRP1_PERIPH_CRC
 325:Drivers/STM32WLxx_HAL_Driver/Inc/stm32wlxx_ll_bus.h ****   * @retval None
 326:Drivers/STM32WLxx_HAL_Driver/Inc/stm32wlxx_ll_bus.h ****   */
 327:Drivers/STM32WLxx_HAL_Driver/Inc/stm32wlxx_ll_bus.h **** __STATIC_INLINE void LL_AHB1_GRP1_DisableClock(uint32_t Periphs)
 328:Drivers/STM32WLxx_HAL_Driver/Inc/stm32wlxx_ll_bus.h **** {
 329:Drivers/STM32WLxx_HAL_Driver/Inc/stm32wlxx_ll_bus.h ****   CLEAR_BIT(RCC->AHB1ENR, Periphs);
 330:Drivers/STM32WLxx_HAL_Driver/Inc/stm32wlxx_ll_bus.h **** }
 331:Drivers/STM32WLxx_HAL_Driver/Inc/stm32wlxx_ll_bus.h **** 
 332:Drivers/STM32WLxx_HAL_Driver/Inc/stm32wlxx_ll_bus.h **** /**
 333:Drivers/STM32WLxx_HAL_Driver/Inc/stm32wlxx_ll_bus.h ****   * @brief  Force AHB1 peripherals reset.
 334:Drivers/STM32WLxx_HAL_Driver/Inc/stm32wlxx_ll_bus.h ****   * @rmtoll AHB1RSTR     DMA1RST       LL_AHB1_GRP1_ForceReset\n
 335:Drivers/STM32WLxx_HAL_Driver/Inc/stm32wlxx_ll_bus.h ****   *         AHB1RSTR     DMA2RST       LL_AHB1_GRP1_ForceReset\n
 336:Drivers/STM32WLxx_HAL_Driver/Inc/stm32wlxx_ll_bus.h ****   *         AHB1RSTR     DMAMUX1RST    LL_AHB1_GRP1_ForceReset\n
 337:Drivers/STM32WLxx_HAL_Driver/Inc/stm32wlxx_ll_bus.h ****   *         AHB1RSTR     CRCRST        LL_AHB1_GRP1_ForceReset\n
 338:Drivers/STM32WLxx_HAL_Driver/Inc/stm32wlxx_ll_bus.h ****   * @param  Periphs This parameter can be a combination of the following values:
 339:Drivers/STM32WLxx_HAL_Driver/Inc/stm32wlxx_ll_bus.h ****   *         @arg @ref LL_AHB1_GRP1_PERIPH_ALL
 340:Drivers/STM32WLxx_HAL_Driver/Inc/stm32wlxx_ll_bus.h ****   *         @arg @ref LL_AHB1_GRP1_PERIPH_DMA1
 341:Drivers/STM32WLxx_HAL_Driver/Inc/stm32wlxx_ll_bus.h ****   *         @arg @ref LL_AHB1_GRP1_PERIPH_DMA2
 342:Drivers/STM32WLxx_HAL_Driver/Inc/stm32wlxx_ll_bus.h ****   *         @arg @ref LL_AHB1_GRP1_PERIPH_DMAMUX1
 343:Drivers/STM32WLxx_HAL_Driver/Inc/stm32wlxx_ll_bus.h ****   *         @arg @ref LL_AHB1_GRP1_PERIPH_CRC
 344:Drivers/STM32WLxx_HAL_Driver/Inc/stm32wlxx_ll_bus.h ****   * @retval None
 345:Drivers/STM32WLxx_HAL_Driver/Inc/stm32wlxx_ll_bus.h ****   */
 346:Drivers/STM32WLxx_HAL_Driver/Inc/stm32wlxx_ll_bus.h **** __STATIC_INLINE void LL_AHB1_GRP1_ForceReset(uint32_t Periphs)
 347:Drivers/STM32WLxx_HAL_Driver/Inc/stm32wlxx_ll_bus.h **** {
 348:Drivers/STM32WLxx_HAL_Driver/Inc/stm32wlxx_ll_bus.h ****   SET_BIT(RCC->AHB1RSTR, Periphs);
 349:Drivers/STM32WLxx_HAL_Driver/Inc/stm32wlxx_ll_bus.h **** }
 350:Drivers/STM32WLxx_HAL_Driver/Inc/stm32wlxx_ll_bus.h **** 
 351:Drivers/STM32WLxx_HAL_Driver/Inc/stm32wlxx_ll_bus.h **** /**
 352:Drivers/STM32WLxx_HAL_Driver/Inc/stm32wlxx_ll_bus.h ****   * @brief  Release AHB1 peripherals reset.
 353:Drivers/STM32WLxx_HAL_Driver/Inc/stm32wlxx_ll_bus.h ****   * @rmtoll AHB1RSTR     DMA1RST       LL_AHB1_GRP1_ReleaseReset\n
 354:Drivers/STM32WLxx_HAL_Driver/Inc/stm32wlxx_ll_bus.h ****   *         AHB1RSTR     DMA2RST       LL_AHB1_GRP1_ReleaseReset\n
 355:Drivers/STM32WLxx_HAL_Driver/Inc/stm32wlxx_ll_bus.h ****   *         AHB1RSTR     DMAMUX1RST     LL_AHB1_GRP1_ReleaseReset\n
 356:Drivers/STM32WLxx_HAL_Driver/Inc/stm32wlxx_ll_bus.h ****   *         AHB1RSTR     CRCRST        LL_AHB1_GRP1_ReleaseReset\n
 357:Drivers/STM32WLxx_HAL_Driver/Inc/stm32wlxx_ll_bus.h ****   * @param  Periphs This parameter can be a combination of the following values:
 358:Drivers/STM32WLxx_HAL_Driver/Inc/stm32wlxx_ll_bus.h ****   *         @arg @ref LL_AHB1_GRP1_PERIPH_ALL
 359:Drivers/STM32WLxx_HAL_Driver/Inc/stm32wlxx_ll_bus.h ****   *         @arg @ref LL_AHB1_GRP1_PERIPH_DMA1
 360:Drivers/STM32WLxx_HAL_Driver/Inc/stm32wlxx_ll_bus.h ****   *         @arg @ref LL_AHB1_GRP1_PERIPH_DMA2
 361:Drivers/STM32WLxx_HAL_Driver/Inc/stm32wlxx_ll_bus.h ****   *         @arg @ref LL_AHB1_GRP1_PERIPH_DMAMUX1
ARM GAS  /var/folders/9y/n02fl3g16gnf7ppy14xghdy80000gn/T//ccRSWXWQ.s 			page 13


 362:Drivers/STM32WLxx_HAL_Driver/Inc/stm32wlxx_ll_bus.h ****   *         @arg @ref LL_AHB1_GRP1_PERIPH_CRC
 363:Drivers/STM32WLxx_HAL_Driver/Inc/stm32wlxx_ll_bus.h ****   * @retval None
 364:Drivers/STM32WLxx_HAL_Driver/Inc/stm32wlxx_ll_bus.h ****   */
 365:Drivers/STM32WLxx_HAL_Driver/Inc/stm32wlxx_ll_bus.h **** __STATIC_INLINE void LL_AHB1_GRP1_ReleaseReset(uint32_t Periphs)
 366:Drivers/STM32WLxx_HAL_Driver/Inc/stm32wlxx_ll_bus.h **** {
 367:Drivers/STM32WLxx_HAL_Driver/Inc/stm32wlxx_ll_bus.h ****   CLEAR_BIT(RCC->AHB1RSTR, Periphs);
 368:Drivers/STM32WLxx_HAL_Driver/Inc/stm32wlxx_ll_bus.h **** }
 369:Drivers/STM32WLxx_HAL_Driver/Inc/stm32wlxx_ll_bus.h **** 
 370:Drivers/STM32WLxx_HAL_Driver/Inc/stm32wlxx_ll_bus.h **** /**
 371:Drivers/STM32WLxx_HAL_Driver/Inc/stm32wlxx_ll_bus.h ****   * @brief  Enable AHB1 peripherals clock during Low Power (Sleep) mode.
 372:Drivers/STM32WLxx_HAL_Driver/Inc/stm32wlxx_ll_bus.h ****   * @rmtoll AHB1SMENR    DMA1SMEN      LL_AHB1_GRP1_EnableClockSleep\n
 373:Drivers/STM32WLxx_HAL_Driver/Inc/stm32wlxx_ll_bus.h ****   *         AHB1SMENR    DMA2SMEN      LL_AHB1_GRP1_EnableClockSleep\n
 374:Drivers/STM32WLxx_HAL_Driver/Inc/stm32wlxx_ll_bus.h ****   *         AHB1SMENR    DMAMUX1SMEN   LL_AHB1_GRP1_EnableClockSleep\n
 375:Drivers/STM32WLxx_HAL_Driver/Inc/stm32wlxx_ll_bus.h ****   *         AHB1SMENR    CRCSMEN       LL_AHB1_GRP1_EnableClockSleep\n
 376:Drivers/STM32WLxx_HAL_Driver/Inc/stm32wlxx_ll_bus.h ****   * @param  Periphs This parameter can be a combination of the following values:
 377:Drivers/STM32WLxx_HAL_Driver/Inc/stm32wlxx_ll_bus.h ****   *         @arg @ref LL_AHB1_GRP1_PERIPH_DMA1
 378:Drivers/STM32WLxx_HAL_Driver/Inc/stm32wlxx_ll_bus.h ****   *         @arg @ref LL_AHB1_GRP1_PERIPH_DMA2
 379:Drivers/STM32WLxx_HAL_Driver/Inc/stm32wlxx_ll_bus.h ****   *         @arg @ref LL_AHB1_GRP1_PERIPH_DMAMUX1
 380:Drivers/STM32WLxx_HAL_Driver/Inc/stm32wlxx_ll_bus.h ****   *         @arg @ref LL_AHB1_GRP1_PERIPH_CRC
 381:Drivers/STM32WLxx_HAL_Driver/Inc/stm32wlxx_ll_bus.h ****   * @retval None
 382:Drivers/STM32WLxx_HAL_Driver/Inc/stm32wlxx_ll_bus.h ****   */
 383:Drivers/STM32WLxx_HAL_Driver/Inc/stm32wlxx_ll_bus.h **** __STATIC_INLINE void LL_AHB1_GRP1_EnableClockSleep(uint32_t Periphs)
 384:Drivers/STM32WLxx_HAL_Driver/Inc/stm32wlxx_ll_bus.h **** {
 385:Drivers/STM32WLxx_HAL_Driver/Inc/stm32wlxx_ll_bus.h ****   __IO uint32_t tmpreg;
 386:Drivers/STM32WLxx_HAL_Driver/Inc/stm32wlxx_ll_bus.h ****   SET_BIT(RCC->AHB1SMENR, Periphs);
 387:Drivers/STM32WLxx_HAL_Driver/Inc/stm32wlxx_ll_bus.h ****   /* Delay after an RCC peripheral clock enabling */
 388:Drivers/STM32WLxx_HAL_Driver/Inc/stm32wlxx_ll_bus.h ****   tmpreg = READ_BIT(RCC->AHB1SMENR, Periphs);
 389:Drivers/STM32WLxx_HAL_Driver/Inc/stm32wlxx_ll_bus.h ****   (void)tmpreg;
 390:Drivers/STM32WLxx_HAL_Driver/Inc/stm32wlxx_ll_bus.h **** }
 391:Drivers/STM32WLxx_HAL_Driver/Inc/stm32wlxx_ll_bus.h **** 
 392:Drivers/STM32WLxx_HAL_Driver/Inc/stm32wlxx_ll_bus.h **** /**
 393:Drivers/STM32WLxx_HAL_Driver/Inc/stm32wlxx_ll_bus.h ****   * @brief  Check if AHB1 peripheral clock is enabled by the clock gating during CPU1 CSleep mode
 394:Drivers/STM32WLxx_HAL_Driver/Inc/stm32wlxx_ll_bus.h ****   * @rmtoll AHB1SMENR    DMA1SMEN      LL_AHB1_GRP1_IsEnabledClockSleep\n
 395:Drivers/STM32WLxx_HAL_Driver/Inc/stm32wlxx_ll_bus.h ****   *         AHB1SMENR    DMA2SMEN      LL_AHB1_GRP1_IsEnabledClockSleep\n
 396:Drivers/STM32WLxx_HAL_Driver/Inc/stm32wlxx_ll_bus.h ****   *         AHB1SMENR    DMAMUX1SMEN   LL_AHB1_GRP1_IsEnabledClockSleep\n
 397:Drivers/STM32WLxx_HAL_Driver/Inc/stm32wlxx_ll_bus.h ****   *         AHB1SMENR    CRCSMEN       LL_AHB1_GRP1_IsEnabledClockSleep
 398:Drivers/STM32WLxx_HAL_Driver/Inc/stm32wlxx_ll_bus.h ****   * @param  Periphs This parameter can be a combination of the following values:
 399:Drivers/STM32WLxx_HAL_Driver/Inc/stm32wlxx_ll_bus.h ****   *         @arg @ref LL_AHB1_GRP1_PERIPH_DMA1
 400:Drivers/STM32WLxx_HAL_Driver/Inc/stm32wlxx_ll_bus.h ****   *         @arg @ref LL_AHB1_GRP1_PERIPH_DMA2
 401:Drivers/STM32WLxx_HAL_Driver/Inc/stm32wlxx_ll_bus.h ****   *         @arg @ref LL_AHB1_GRP1_PERIPH_DMAMUX1
 402:Drivers/STM32WLxx_HAL_Driver/Inc/stm32wlxx_ll_bus.h ****   *         @arg @ref LL_AHB1_GRP1_PERIPH_CRC
 403:Drivers/STM32WLxx_HAL_Driver/Inc/stm32wlxx_ll_bus.h ****   * @retval uint32_t
 404:Drivers/STM32WLxx_HAL_Driver/Inc/stm32wlxx_ll_bus.h ****   */
 405:Drivers/STM32WLxx_HAL_Driver/Inc/stm32wlxx_ll_bus.h **** __STATIC_INLINE uint32_t LL_AHB1_GRP1_IsEnabledClockSleep(uint32_t Periphs)
 406:Drivers/STM32WLxx_HAL_Driver/Inc/stm32wlxx_ll_bus.h **** {
 407:Drivers/STM32WLxx_HAL_Driver/Inc/stm32wlxx_ll_bus.h ****   return ((READ_BIT(RCC->AHB1SMENR, Periphs) == (Periphs)) ? 1UL : 0UL);
 408:Drivers/STM32WLxx_HAL_Driver/Inc/stm32wlxx_ll_bus.h **** }
 409:Drivers/STM32WLxx_HAL_Driver/Inc/stm32wlxx_ll_bus.h **** 
 410:Drivers/STM32WLxx_HAL_Driver/Inc/stm32wlxx_ll_bus.h **** /**
 411:Drivers/STM32WLxx_HAL_Driver/Inc/stm32wlxx_ll_bus.h ****   * @brief  Disable AHB1 peripherals clock during Low Power (Sleep) mode.
 412:Drivers/STM32WLxx_HAL_Driver/Inc/stm32wlxx_ll_bus.h ****   * @rmtoll AHB1SMENR    DMA1SMEN      LL_AHB1_GRP1_DisableClockSleep\n
 413:Drivers/STM32WLxx_HAL_Driver/Inc/stm32wlxx_ll_bus.h ****   *         AHB1SMENR    DMA2SMEN      LL_AHB1_GRP1_DisableClockSleep\n
 414:Drivers/STM32WLxx_HAL_Driver/Inc/stm32wlxx_ll_bus.h ****   *         AHB1SMENR    DMAMUX1SMEN   LL_AHB1_GRP1_DisableClockSleep\n
 415:Drivers/STM32WLxx_HAL_Driver/Inc/stm32wlxx_ll_bus.h ****   *         AHB1SMENR    CRCSMEN       LL_AHB1_GRP1_DisableClockSleep\n
 416:Drivers/STM32WLxx_HAL_Driver/Inc/stm32wlxx_ll_bus.h ****   * @param  Periphs This parameter can be a combination of the following values:
 417:Drivers/STM32WLxx_HAL_Driver/Inc/stm32wlxx_ll_bus.h ****   *         @arg @ref LL_AHB1_GRP1_PERIPH_DMA1
 418:Drivers/STM32WLxx_HAL_Driver/Inc/stm32wlxx_ll_bus.h ****   *         @arg @ref LL_AHB1_GRP1_PERIPH_DMA2
ARM GAS  /var/folders/9y/n02fl3g16gnf7ppy14xghdy80000gn/T//ccRSWXWQ.s 			page 14


 419:Drivers/STM32WLxx_HAL_Driver/Inc/stm32wlxx_ll_bus.h ****   *         @arg @ref LL_AHB1_GRP1_PERIPH_DMAMUX1
 420:Drivers/STM32WLxx_HAL_Driver/Inc/stm32wlxx_ll_bus.h ****   *         @arg @ref LL_AHB1_GRP1_PERIPH_CRC
 421:Drivers/STM32WLxx_HAL_Driver/Inc/stm32wlxx_ll_bus.h ****   * @retval None
 422:Drivers/STM32WLxx_HAL_Driver/Inc/stm32wlxx_ll_bus.h ****   */
 423:Drivers/STM32WLxx_HAL_Driver/Inc/stm32wlxx_ll_bus.h **** __STATIC_INLINE void LL_AHB1_GRP1_DisableClockSleep(uint32_t Periphs)
 424:Drivers/STM32WLxx_HAL_Driver/Inc/stm32wlxx_ll_bus.h **** {
 425:Drivers/STM32WLxx_HAL_Driver/Inc/stm32wlxx_ll_bus.h ****   CLEAR_BIT(RCC->AHB1SMENR, Periphs);
 426:Drivers/STM32WLxx_HAL_Driver/Inc/stm32wlxx_ll_bus.h **** }
 427:Drivers/STM32WLxx_HAL_Driver/Inc/stm32wlxx_ll_bus.h **** 
 428:Drivers/STM32WLxx_HAL_Driver/Inc/stm32wlxx_ll_bus.h **** /**
 429:Drivers/STM32WLxx_HAL_Driver/Inc/stm32wlxx_ll_bus.h ****   * @}
 430:Drivers/STM32WLxx_HAL_Driver/Inc/stm32wlxx_ll_bus.h ****   */
 431:Drivers/STM32WLxx_HAL_Driver/Inc/stm32wlxx_ll_bus.h **** 
 432:Drivers/STM32WLxx_HAL_Driver/Inc/stm32wlxx_ll_bus.h **** /** @defgroup BUS_LL_EF_AHB2 AHB2
 433:Drivers/STM32WLxx_HAL_Driver/Inc/stm32wlxx_ll_bus.h ****   * @{
 434:Drivers/STM32WLxx_HAL_Driver/Inc/stm32wlxx_ll_bus.h ****   */
 435:Drivers/STM32WLxx_HAL_Driver/Inc/stm32wlxx_ll_bus.h **** 
 436:Drivers/STM32WLxx_HAL_Driver/Inc/stm32wlxx_ll_bus.h **** /**
 437:Drivers/STM32WLxx_HAL_Driver/Inc/stm32wlxx_ll_bus.h ****   * @brief  Enable AHB2 peripherals clock.
 438:Drivers/STM32WLxx_HAL_Driver/Inc/stm32wlxx_ll_bus.h ****   * @rmtoll AHB2ENR      GPIOAEN       LL_AHB2_GRP1_EnableClock\n
 439:Drivers/STM32WLxx_HAL_Driver/Inc/stm32wlxx_ll_bus.h ****   *         AHB2ENR      GPIOBEN       LL_AHB2_GRP1_EnableClock\n
 440:Drivers/STM32WLxx_HAL_Driver/Inc/stm32wlxx_ll_bus.h ****   *         AHB2ENR      GPIOCEN       LL_AHB2_GRP1_EnableClock\n
 441:Drivers/STM32WLxx_HAL_Driver/Inc/stm32wlxx_ll_bus.h ****   *         AHB2ENR      GPIOHEN       LL_AHB2_GRP1_EnableClock\n
 442:Drivers/STM32WLxx_HAL_Driver/Inc/stm32wlxx_ll_bus.h ****   * @param  Periphs This parameter can be a combination of the following values:
 443:Drivers/STM32WLxx_HAL_Driver/Inc/stm32wlxx_ll_bus.h ****   *         @arg @ref LL_AHB2_GRP1_PERIPH_GPIOA
 444:Drivers/STM32WLxx_HAL_Driver/Inc/stm32wlxx_ll_bus.h ****   *         @arg @ref LL_AHB2_GRP1_PERIPH_GPIOB
 445:Drivers/STM32WLxx_HAL_Driver/Inc/stm32wlxx_ll_bus.h ****   *         @arg @ref LL_AHB2_GRP1_PERIPH_GPIOC
 446:Drivers/STM32WLxx_HAL_Driver/Inc/stm32wlxx_ll_bus.h ****   *         @arg @ref LL_AHB2_GRP1_PERIPH_GPIOH
 447:Drivers/STM32WLxx_HAL_Driver/Inc/stm32wlxx_ll_bus.h ****   * @retval None
 448:Drivers/STM32WLxx_HAL_Driver/Inc/stm32wlxx_ll_bus.h ****   */
 449:Drivers/STM32WLxx_HAL_Driver/Inc/stm32wlxx_ll_bus.h **** __STATIC_INLINE void LL_AHB2_GRP1_EnableClock(uint32_t Periphs)
 450:Drivers/STM32WLxx_HAL_Driver/Inc/stm32wlxx_ll_bus.h **** {
 451:Drivers/STM32WLxx_HAL_Driver/Inc/stm32wlxx_ll_bus.h ****   __IO uint32_t tmpreg;
 452:Drivers/STM32WLxx_HAL_Driver/Inc/stm32wlxx_ll_bus.h ****   SET_BIT(RCC->AHB2ENR, Periphs);
 453:Drivers/STM32WLxx_HAL_Driver/Inc/stm32wlxx_ll_bus.h ****   /* Delay after an RCC peripheral clock enabling */
 454:Drivers/STM32WLxx_HAL_Driver/Inc/stm32wlxx_ll_bus.h ****   tmpreg = READ_BIT(RCC->AHB2ENR, Periphs);
 455:Drivers/STM32WLxx_HAL_Driver/Inc/stm32wlxx_ll_bus.h ****   (void)tmpreg;
 456:Drivers/STM32WLxx_HAL_Driver/Inc/stm32wlxx_ll_bus.h **** }
 457:Drivers/STM32WLxx_HAL_Driver/Inc/stm32wlxx_ll_bus.h **** 
 458:Drivers/STM32WLxx_HAL_Driver/Inc/stm32wlxx_ll_bus.h **** /**
 459:Drivers/STM32WLxx_HAL_Driver/Inc/stm32wlxx_ll_bus.h ****   * @brief  Check if AHB2 peripheral clock is enabled or not
 460:Drivers/STM32WLxx_HAL_Driver/Inc/stm32wlxx_ll_bus.h ****   * @rmtoll AHB2ENR      GPIOAEN       LL_AHB2_GRP1_IsEnabledClock\n
 461:Drivers/STM32WLxx_HAL_Driver/Inc/stm32wlxx_ll_bus.h ****   *         AHB2ENR      GPIOBEN       LL_AHB2_GRP1_IsEnabledClock\n
 462:Drivers/STM32WLxx_HAL_Driver/Inc/stm32wlxx_ll_bus.h ****   *         AHB2ENR      GPIOCEN       LL_AHB2_GRP1_IsEnabledClock\n
 463:Drivers/STM32WLxx_HAL_Driver/Inc/stm32wlxx_ll_bus.h ****   *         AHB2ENR      GPIOHEN       LL_AHB2_GRP1_IsEnabledClock\n
 464:Drivers/STM32WLxx_HAL_Driver/Inc/stm32wlxx_ll_bus.h ****   * @param  Periphs This parameter can be a combination of the following values:
 465:Drivers/STM32WLxx_HAL_Driver/Inc/stm32wlxx_ll_bus.h ****   *         @arg @ref LL_AHB2_GRP1_PERIPH_GPIOA
 466:Drivers/STM32WLxx_HAL_Driver/Inc/stm32wlxx_ll_bus.h ****   *         @arg @ref LL_AHB2_GRP1_PERIPH_GPIOB
 467:Drivers/STM32WLxx_HAL_Driver/Inc/stm32wlxx_ll_bus.h ****   *         @arg @ref LL_AHB2_GRP1_PERIPH_GPIOC
 468:Drivers/STM32WLxx_HAL_Driver/Inc/stm32wlxx_ll_bus.h ****   *         @arg @ref LL_AHB2_GRP1_PERIPH_GPIOH
 469:Drivers/STM32WLxx_HAL_Driver/Inc/stm32wlxx_ll_bus.h ****   * @retval uint32_t
 470:Drivers/STM32WLxx_HAL_Driver/Inc/stm32wlxx_ll_bus.h ****   */
 471:Drivers/STM32WLxx_HAL_Driver/Inc/stm32wlxx_ll_bus.h **** __STATIC_INLINE uint32_t LL_AHB2_GRP1_IsEnabledClock(uint32_t Periphs)
 472:Drivers/STM32WLxx_HAL_Driver/Inc/stm32wlxx_ll_bus.h **** {
 473:Drivers/STM32WLxx_HAL_Driver/Inc/stm32wlxx_ll_bus.h ****   return ((READ_BIT(RCC->AHB2ENR, Periphs) == (Periphs)) ? 1UL : 0UL);
 474:Drivers/STM32WLxx_HAL_Driver/Inc/stm32wlxx_ll_bus.h **** }
 475:Drivers/STM32WLxx_HAL_Driver/Inc/stm32wlxx_ll_bus.h **** 
ARM GAS  /var/folders/9y/n02fl3g16gnf7ppy14xghdy80000gn/T//ccRSWXWQ.s 			page 15


 476:Drivers/STM32WLxx_HAL_Driver/Inc/stm32wlxx_ll_bus.h **** /**
 477:Drivers/STM32WLxx_HAL_Driver/Inc/stm32wlxx_ll_bus.h ****   * @brief  Disable AHB2 peripherals clock.
 478:Drivers/STM32WLxx_HAL_Driver/Inc/stm32wlxx_ll_bus.h ****   * @rmtoll AHB2ENR      GPIOAEN       LL_AHB2_GRP1_DisableClock\n
 479:Drivers/STM32WLxx_HAL_Driver/Inc/stm32wlxx_ll_bus.h ****   *         AHB2ENR      GPIOBEN       LL_AHB2_GRP1_DisableClock\n
 480:Drivers/STM32WLxx_HAL_Driver/Inc/stm32wlxx_ll_bus.h ****   *         AHB2ENR      GPIOCEN       LL_AHB2_GRP1_DisableClock\n
 481:Drivers/STM32WLxx_HAL_Driver/Inc/stm32wlxx_ll_bus.h ****   *         AHB2ENR      GPIOHEN       LL_AHB2_GRP1_DisableClock\n
 482:Drivers/STM32WLxx_HAL_Driver/Inc/stm32wlxx_ll_bus.h ****   * @param  Periphs This parameter can be a combination of the following values:
 483:Drivers/STM32WLxx_HAL_Driver/Inc/stm32wlxx_ll_bus.h ****   *         @arg @ref LL_AHB2_GRP1_PERIPH_GPIOA
 484:Drivers/STM32WLxx_HAL_Driver/Inc/stm32wlxx_ll_bus.h ****   *         @arg @ref LL_AHB2_GRP1_PERIPH_GPIOB
 485:Drivers/STM32WLxx_HAL_Driver/Inc/stm32wlxx_ll_bus.h ****   *         @arg @ref LL_AHB2_GRP1_PERIPH_GPIOC
 486:Drivers/STM32WLxx_HAL_Driver/Inc/stm32wlxx_ll_bus.h ****   *         @arg @ref LL_AHB2_GRP1_PERIPH_GPIOH
 487:Drivers/STM32WLxx_HAL_Driver/Inc/stm32wlxx_ll_bus.h ****   * @retval None
 488:Drivers/STM32WLxx_HAL_Driver/Inc/stm32wlxx_ll_bus.h ****   */
 489:Drivers/STM32WLxx_HAL_Driver/Inc/stm32wlxx_ll_bus.h **** __STATIC_INLINE void LL_AHB2_GRP1_DisableClock(uint32_t Periphs)
 490:Drivers/STM32WLxx_HAL_Driver/Inc/stm32wlxx_ll_bus.h **** {
 491:Drivers/STM32WLxx_HAL_Driver/Inc/stm32wlxx_ll_bus.h ****   CLEAR_BIT(RCC->AHB2ENR, Periphs);
 492:Drivers/STM32WLxx_HAL_Driver/Inc/stm32wlxx_ll_bus.h **** }
 493:Drivers/STM32WLxx_HAL_Driver/Inc/stm32wlxx_ll_bus.h **** 
 494:Drivers/STM32WLxx_HAL_Driver/Inc/stm32wlxx_ll_bus.h **** /**
 495:Drivers/STM32WLxx_HAL_Driver/Inc/stm32wlxx_ll_bus.h ****   * @brief  Force AHB2 peripherals reset.
 496:Drivers/STM32WLxx_HAL_Driver/Inc/stm32wlxx_ll_bus.h ****   * @rmtoll AHB2RSTR     GPIOARST      LL_AHB2_GRP1_ForceReset\n
 497:Drivers/STM32WLxx_HAL_Driver/Inc/stm32wlxx_ll_bus.h ****   *         AHB2RSTR     GPIOBRST      LL_AHB2_GRP1_ForceReset\n
 498:Drivers/STM32WLxx_HAL_Driver/Inc/stm32wlxx_ll_bus.h ****   *         AHB2RSTR     GPIOCRST      LL_AHB2_GRP1_ForceReset\n
 499:Drivers/STM32WLxx_HAL_Driver/Inc/stm32wlxx_ll_bus.h ****   *         AHB2RSTR     GPIOHRST      LL_AHB2_GRP1_ForceReset
 500:Drivers/STM32WLxx_HAL_Driver/Inc/stm32wlxx_ll_bus.h ****   * @param  Periphs This parameter can be a combination of the following values:
 501:Drivers/STM32WLxx_HAL_Driver/Inc/stm32wlxx_ll_bus.h ****   *         @arg @ref LL_AHB2_GRP1_PERIPH_ALL
 502:Drivers/STM32WLxx_HAL_Driver/Inc/stm32wlxx_ll_bus.h ****   *         @arg @ref LL_AHB2_GRP1_PERIPH_GPIOA
 503:Drivers/STM32WLxx_HAL_Driver/Inc/stm32wlxx_ll_bus.h ****   *         @arg @ref LL_AHB2_GRP1_PERIPH_GPIOB
 504:Drivers/STM32WLxx_HAL_Driver/Inc/stm32wlxx_ll_bus.h ****   *         @arg @ref LL_AHB2_GRP1_PERIPH_GPIOC
 505:Drivers/STM32WLxx_HAL_Driver/Inc/stm32wlxx_ll_bus.h ****   *         @arg @ref LL_AHB2_GRP1_PERIPH_GPIOH
 506:Drivers/STM32WLxx_HAL_Driver/Inc/stm32wlxx_ll_bus.h ****   * @retval None
 507:Drivers/STM32WLxx_HAL_Driver/Inc/stm32wlxx_ll_bus.h ****   */
 508:Drivers/STM32WLxx_HAL_Driver/Inc/stm32wlxx_ll_bus.h **** __STATIC_INLINE void LL_AHB2_GRP1_ForceReset(uint32_t Periphs)
 509:Drivers/STM32WLxx_HAL_Driver/Inc/stm32wlxx_ll_bus.h **** {
 510:Drivers/STM32WLxx_HAL_Driver/Inc/stm32wlxx_ll_bus.h ****   SET_BIT(RCC->AHB2RSTR, Periphs);
 511:Drivers/STM32WLxx_HAL_Driver/Inc/stm32wlxx_ll_bus.h **** }
 512:Drivers/STM32WLxx_HAL_Driver/Inc/stm32wlxx_ll_bus.h **** 
 513:Drivers/STM32WLxx_HAL_Driver/Inc/stm32wlxx_ll_bus.h **** /**
 514:Drivers/STM32WLxx_HAL_Driver/Inc/stm32wlxx_ll_bus.h ****   * @brief  Release AHB2 peripherals reset.
 515:Drivers/STM32WLxx_HAL_Driver/Inc/stm32wlxx_ll_bus.h ****   * @rmtoll AHB2RSTR     GPIOARST      LL_AHB2_GRP1_ReleaseReset\n
 516:Drivers/STM32WLxx_HAL_Driver/Inc/stm32wlxx_ll_bus.h ****   *         AHB2RSTR     GPIOBRST      LL_AHB2_GRP1_ReleaseReset\n
 517:Drivers/STM32WLxx_HAL_Driver/Inc/stm32wlxx_ll_bus.h ****   *         AHB2RSTR     GPIOCRST      LL_AHB2_GRP1_ReleaseReset\n
 518:Drivers/STM32WLxx_HAL_Driver/Inc/stm32wlxx_ll_bus.h ****   *         AHB2RSTR     GPIOHRST      LL_AHB2_GRP1_ReleaseReset\n
 519:Drivers/STM32WLxx_HAL_Driver/Inc/stm32wlxx_ll_bus.h ****   * @param  Periphs This parameter can be a combination of the following values:
 520:Drivers/STM32WLxx_HAL_Driver/Inc/stm32wlxx_ll_bus.h ****   *         @arg @ref LL_AHB2_GRP1_PERIPH_ALL
 521:Drivers/STM32WLxx_HAL_Driver/Inc/stm32wlxx_ll_bus.h ****   *         @arg @ref LL_AHB2_GRP1_PERIPH_GPIOA
 522:Drivers/STM32WLxx_HAL_Driver/Inc/stm32wlxx_ll_bus.h ****   *         @arg @ref LL_AHB2_GRP1_PERIPH_GPIOB
 523:Drivers/STM32WLxx_HAL_Driver/Inc/stm32wlxx_ll_bus.h ****   *         @arg @ref LL_AHB2_GRP1_PERIPH_GPIOC
 524:Drivers/STM32WLxx_HAL_Driver/Inc/stm32wlxx_ll_bus.h ****   *         @arg @ref LL_AHB2_GRP1_PERIPH_GPIOH
 525:Drivers/STM32WLxx_HAL_Driver/Inc/stm32wlxx_ll_bus.h ****   * @retval None
 526:Drivers/STM32WLxx_HAL_Driver/Inc/stm32wlxx_ll_bus.h ****   */
 527:Drivers/STM32WLxx_HAL_Driver/Inc/stm32wlxx_ll_bus.h **** __STATIC_INLINE void LL_AHB2_GRP1_ReleaseReset(uint32_t Periphs)
 528:Drivers/STM32WLxx_HAL_Driver/Inc/stm32wlxx_ll_bus.h **** {
 529:Drivers/STM32WLxx_HAL_Driver/Inc/stm32wlxx_ll_bus.h ****   CLEAR_BIT(RCC->AHB2RSTR, Periphs);
 530:Drivers/STM32WLxx_HAL_Driver/Inc/stm32wlxx_ll_bus.h **** }
 531:Drivers/STM32WLxx_HAL_Driver/Inc/stm32wlxx_ll_bus.h **** 
 532:Drivers/STM32WLxx_HAL_Driver/Inc/stm32wlxx_ll_bus.h **** /**
ARM GAS  /var/folders/9y/n02fl3g16gnf7ppy14xghdy80000gn/T//ccRSWXWQ.s 			page 16


 533:Drivers/STM32WLxx_HAL_Driver/Inc/stm32wlxx_ll_bus.h ****   * @brief  Enable AHB2 peripherals clock during Low Power (Sleep) mode.
 534:Drivers/STM32WLxx_HAL_Driver/Inc/stm32wlxx_ll_bus.h ****   * @rmtoll AHB2SMENR    GPIOASMEN     LL_AHB2_GRP1_EnableClockSleep\n
 535:Drivers/STM32WLxx_HAL_Driver/Inc/stm32wlxx_ll_bus.h ****   *         AHB2SMENR    GPIOBSMEN     LL_AHB2_GRP1_EnableClockSleep\n
 536:Drivers/STM32WLxx_HAL_Driver/Inc/stm32wlxx_ll_bus.h ****   *         AHB2SMENR    GPIOCSMEN     LL_AHB2_GRP1_EnableClockSleep\n
 537:Drivers/STM32WLxx_HAL_Driver/Inc/stm32wlxx_ll_bus.h ****   *         AHB2SMENR    GPIOHSMEN     LL_AHB2_GRP1_EnableClockSleep\n
 538:Drivers/STM32WLxx_HAL_Driver/Inc/stm32wlxx_ll_bus.h ****   * @param  Periphs This parameter can be a combination of the following values:
 539:Drivers/STM32WLxx_HAL_Driver/Inc/stm32wlxx_ll_bus.h ****   *         @arg @ref LL_AHB2_GRP1_PERIPH_GPIOA
 540:Drivers/STM32WLxx_HAL_Driver/Inc/stm32wlxx_ll_bus.h ****   *         @arg @ref LL_AHB2_GRP1_PERIPH_GPIOB
 541:Drivers/STM32WLxx_HAL_Driver/Inc/stm32wlxx_ll_bus.h ****   *         @arg @ref LL_AHB2_GRP1_PERIPH_GPIOC
 542:Drivers/STM32WLxx_HAL_Driver/Inc/stm32wlxx_ll_bus.h ****   *         @arg @ref LL_AHB2_GRP1_PERIPH_GPIOH
 543:Drivers/STM32WLxx_HAL_Driver/Inc/stm32wlxx_ll_bus.h ****   * @retval None
 544:Drivers/STM32WLxx_HAL_Driver/Inc/stm32wlxx_ll_bus.h ****   */
 545:Drivers/STM32WLxx_HAL_Driver/Inc/stm32wlxx_ll_bus.h **** __STATIC_INLINE void LL_AHB2_GRP1_EnableClockSleep(uint32_t Periphs)
 546:Drivers/STM32WLxx_HAL_Driver/Inc/stm32wlxx_ll_bus.h **** {
 547:Drivers/STM32WLxx_HAL_Driver/Inc/stm32wlxx_ll_bus.h ****   __IO uint32_t tmpreg;
 548:Drivers/STM32WLxx_HAL_Driver/Inc/stm32wlxx_ll_bus.h ****   SET_BIT(RCC->AHB2SMENR, Periphs);
 549:Drivers/STM32WLxx_HAL_Driver/Inc/stm32wlxx_ll_bus.h ****   /* Delay after an RCC peripheral clock enabling */
 550:Drivers/STM32WLxx_HAL_Driver/Inc/stm32wlxx_ll_bus.h ****   tmpreg = READ_BIT(RCC->AHB2SMENR, Periphs);
 551:Drivers/STM32WLxx_HAL_Driver/Inc/stm32wlxx_ll_bus.h ****   (void)tmpreg;
 552:Drivers/STM32WLxx_HAL_Driver/Inc/stm32wlxx_ll_bus.h **** }
 553:Drivers/STM32WLxx_HAL_Driver/Inc/stm32wlxx_ll_bus.h **** 
 554:Drivers/STM32WLxx_HAL_Driver/Inc/stm32wlxx_ll_bus.h **** /**
 555:Drivers/STM32WLxx_HAL_Driver/Inc/stm32wlxx_ll_bus.h ****   * @brief  Check if AHB2 peripheral clock is enabled by the clock gating during CPU1 CSleep mode
 556:Drivers/STM32WLxx_HAL_Driver/Inc/stm32wlxx_ll_bus.h ****   * @rmtoll AHB2SMENR    GPIOASMEN     LL_AHB2_GRP1_IsEnabledClockSleep\n
 557:Drivers/STM32WLxx_HAL_Driver/Inc/stm32wlxx_ll_bus.h ****   *         AHB2SMENR    GPIOBSMEN     LL_AHB2_GRP1_IsEnabledClockSleep\n
 558:Drivers/STM32WLxx_HAL_Driver/Inc/stm32wlxx_ll_bus.h ****   *         AHB2SMENR    GPIOCSMEN     LL_AHB2_GRP1_IsEnabledClockSleep\n
 559:Drivers/STM32WLxx_HAL_Driver/Inc/stm32wlxx_ll_bus.h ****   *         AHB2SMENR    GPIOHSMEN     LL_AHB2_GRP1_IsEnabledClockSleep
 560:Drivers/STM32WLxx_HAL_Driver/Inc/stm32wlxx_ll_bus.h ****   * @param  Periphs This parameter can be a combination of the following values:
 561:Drivers/STM32WLxx_HAL_Driver/Inc/stm32wlxx_ll_bus.h ****   *         @arg @ref LL_AHB2_GRP1_PERIPH_GPIOA
 562:Drivers/STM32WLxx_HAL_Driver/Inc/stm32wlxx_ll_bus.h ****   *         @arg @ref LL_AHB2_GRP1_PERIPH_GPIOB
 563:Drivers/STM32WLxx_HAL_Driver/Inc/stm32wlxx_ll_bus.h ****   *         @arg @ref LL_AHB2_GRP1_PERIPH_GPIOC
 564:Drivers/STM32WLxx_HAL_Driver/Inc/stm32wlxx_ll_bus.h ****   *         @arg @ref LL_AHB2_GRP1_PERIPH_GPIOH
 565:Drivers/STM32WLxx_HAL_Driver/Inc/stm32wlxx_ll_bus.h ****   * @retval uint32_t
 566:Drivers/STM32WLxx_HAL_Driver/Inc/stm32wlxx_ll_bus.h ****   */
 567:Drivers/STM32WLxx_HAL_Driver/Inc/stm32wlxx_ll_bus.h **** __STATIC_INLINE uint32_t LL_AHB2_GRP1_IsEnabledClockSleep(uint32_t Periphs)
 568:Drivers/STM32WLxx_HAL_Driver/Inc/stm32wlxx_ll_bus.h **** {
 569:Drivers/STM32WLxx_HAL_Driver/Inc/stm32wlxx_ll_bus.h ****   return ((READ_BIT(RCC->AHB2SMENR, Periphs) == (Periphs)) ? 1UL : 0UL);
 570:Drivers/STM32WLxx_HAL_Driver/Inc/stm32wlxx_ll_bus.h **** }
 571:Drivers/STM32WLxx_HAL_Driver/Inc/stm32wlxx_ll_bus.h **** 
 572:Drivers/STM32WLxx_HAL_Driver/Inc/stm32wlxx_ll_bus.h **** /**
 573:Drivers/STM32WLxx_HAL_Driver/Inc/stm32wlxx_ll_bus.h ****   * @brief  Disable AHB2 peripherals clock during Low Power (Sleep) mode.
 574:Drivers/STM32WLxx_HAL_Driver/Inc/stm32wlxx_ll_bus.h ****   * @rmtoll AHB2SMENR    GPIOASMEN     LL_AHB2_GRP1_DisableClockSleep\n
 575:Drivers/STM32WLxx_HAL_Driver/Inc/stm32wlxx_ll_bus.h ****   *         AHB2SMENR    GPIOBSMEN     LL_AHB2_GRP1_DisableClockSleep\n
 576:Drivers/STM32WLxx_HAL_Driver/Inc/stm32wlxx_ll_bus.h ****   *         AHB2SMENR    GPIOCSMEN     LL_AHB2_GRP1_DisableClockSleep\n
 577:Drivers/STM32WLxx_HAL_Driver/Inc/stm32wlxx_ll_bus.h ****   *         AHB2SMENR    GPIOHSMEN     LL_AHB2_GRP1_DisableClockSleep\n
 578:Drivers/STM32WLxx_HAL_Driver/Inc/stm32wlxx_ll_bus.h ****   * @param  Periphs This parameter can be a combination of the following values:
 579:Drivers/STM32WLxx_HAL_Driver/Inc/stm32wlxx_ll_bus.h ****   *         @arg @ref LL_AHB2_GRP1_PERIPH_GPIOA
 580:Drivers/STM32WLxx_HAL_Driver/Inc/stm32wlxx_ll_bus.h ****   *         @arg @ref LL_AHB2_GRP1_PERIPH_GPIOB
 581:Drivers/STM32WLxx_HAL_Driver/Inc/stm32wlxx_ll_bus.h ****   *         @arg @ref LL_AHB2_GRP1_PERIPH_GPIOC
 582:Drivers/STM32WLxx_HAL_Driver/Inc/stm32wlxx_ll_bus.h ****   *         @arg @ref LL_AHB2_GRP1_PERIPH_GPIOH
 583:Drivers/STM32WLxx_HAL_Driver/Inc/stm32wlxx_ll_bus.h ****   * @retval None
 584:Drivers/STM32WLxx_HAL_Driver/Inc/stm32wlxx_ll_bus.h ****   */
 585:Drivers/STM32WLxx_HAL_Driver/Inc/stm32wlxx_ll_bus.h **** __STATIC_INLINE void LL_AHB2_GRP1_DisableClockSleep(uint32_t Periphs)
 586:Drivers/STM32WLxx_HAL_Driver/Inc/stm32wlxx_ll_bus.h **** {
 587:Drivers/STM32WLxx_HAL_Driver/Inc/stm32wlxx_ll_bus.h ****   CLEAR_BIT(RCC->AHB2SMENR, Periphs);
 588:Drivers/STM32WLxx_HAL_Driver/Inc/stm32wlxx_ll_bus.h **** }
 589:Drivers/STM32WLxx_HAL_Driver/Inc/stm32wlxx_ll_bus.h **** 
ARM GAS  /var/folders/9y/n02fl3g16gnf7ppy14xghdy80000gn/T//ccRSWXWQ.s 			page 17


 590:Drivers/STM32WLxx_HAL_Driver/Inc/stm32wlxx_ll_bus.h **** /**
 591:Drivers/STM32WLxx_HAL_Driver/Inc/stm32wlxx_ll_bus.h ****   * @}
 592:Drivers/STM32WLxx_HAL_Driver/Inc/stm32wlxx_ll_bus.h ****   */
 593:Drivers/STM32WLxx_HAL_Driver/Inc/stm32wlxx_ll_bus.h **** 
 594:Drivers/STM32WLxx_HAL_Driver/Inc/stm32wlxx_ll_bus.h **** /** @defgroup BUS_LL_EF_AHB3 AHB3
 595:Drivers/STM32WLxx_HAL_Driver/Inc/stm32wlxx_ll_bus.h ****   * @{
 596:Drivers/STM32WLxx_HAL_Driver/Inc/stm32wlxx_ll_bus.h ****   */
 597:Drivers/STM32WLxx_HAL_Driver/Inc/stm32wlxx_ll_bus.h **** 
 598:Drivers/STM32WLxx_HAL_Driver/Inc/stm32wlxx_ll_bus.h **** #if defined(DUAL_CORE) /* Switch added for Documentation generation purpose to exclude IPCC in else
 599:Drivers/STM32WLxx_HAL_Driver/Inc/stm32wlxx_ll_bus.h **** /**
 600:Drivers/STM32WLxx_HAL_Driver/Inc/stm32wlxx_ll_bus.h ****   * @brief  Enable AHB3 peripherals clock.
 601:Drivers/STM32WLxx_HAL_Driver/Inc/stm32wlxx_ll_bus.h ****   * @rmtoll AHB3ENR      PKAEN         LL_AHB3_GRP1_EnableClock\n
 602:Drivers/STM32WLxx_HAL_Driver/Inc/stm32wlxx_ll_bus.h ****   *         AHB3ENR      AESEN         LL_AHB3_GRP1_EnableClock\n
 603:Drivers/STM32WLxx_HAL_Driver/Inc/stm32wlxx_ll_bus.h ****   *         AHB3ENR      RNGEN         LL_AHB3_GRP1_EnableClock\n
 604:Drivers/STM32WLxx_HAL_Driver/Inc/stm32wlxx_ll_bus.h ****   *         AHB3ENR      HSEMEN        LL_AHB3_GRP1_EnableClock\n
 605:Drivers/STM32WLxx_HAL_Driver/Inc/stm32wlxx_ll_bus.h ****   *         AHB3ENR      IPCCEN        LL_AHB3_GRP1_EnableClock\n
 606:Drivers/STM32WLxx_HAL_Driver/Inc/stm32wlxx_ll_bus.h ****   *         AHB3ENR      FLASHEN       LL_AHB3_GRP1_EnableClock
 607:Drivers/STM32WLxx_HAL_Driver/Inc/stm32wlxx_ll_bus.h ****   * @param  Periphs This parameter can be a combination of the following values:
 608:Drivers/STM32WLxx_HAL_Driver/Inc/stm32wlxx_ll_bus.h ****   *         @arg @ref LL_AHB3_GRP1_PERIPH_PKA
 609:Drivers/STM32WLxx_HAL_Driver/Inc/stm32wlxx_ll_bus.h ****   *         @arg @ref LL_AHB3_GRP1_PERIPH_AES
 610:Drivers/STM32WLxx_HAL_Driver/Inc/stm32wlxx_ll_bus.h ****   *         @arg @ref LL_AHB3_GRP1_PERIPH_RNG
 611:Drivers/STM32WLxx_HAL_Driver/Inc/stm32wlxx_ll_bus.h ****   *         @arg @ref LL_AHB3_GRP1_PERIPH_HSEM
 612:Drivers/STM32WLxx_HAL_Driver/Inc/stm32wlxx_ll_bus.h ****   *         @arg @ref LL_AHB3_GRP1_PERIPH_IPCC
 613:Drivers/STM32WLxx_HAL_Driver/Inc/stm32wlxx_ll_bus.h ****   *         @arg @ref LL_AHB3_GRP1_PERIPH_FLASH
 614:Drivers/STM32WLxx_HAL_Driver/Inc/stm32wlxx_ll_bus.h ****   * @retval None
 615:Drivers/STM32WLxx_HAL_Driver/Inc/stm32wlxx_ll_bus.h ****   */
 616:Drivers/STM32WLxx_HAL_Driver/Inc/stm32wlxx_ll_bus.h **** 
 617:Drivers/STM32WLxx_HAL_Driver/Inc/stm32wlxx_ll_bus.h **** #else
 618:Drivers/STM32WLxx_HAL_Driver/Inc/stm32wlxx_ll_bus.h **** /**
 619:Drivers/STM32WLxx_HAL_Driver/Inc/stm32wlxx_ll_bus.h ****   * @brief  Enable AHB3 peripherals clock.
 620:Drivers/STM32WLxx_HAL_Driver/Inc/stm32wlxx_ll_bus.h ****   * @rmtoll AHB3ENR      PKAEN         LL_AHB3_GRP1_EnableClock\n
 621:Drivers/STM32WLxx_HAL_Driver/Inc/stm32wlxx_ll_bus.h ****   *         AHB3ENR      AESEN         LL_AHB3_GRP1_EnableClock\n
 622:Drivers/STM32WLxx_HAL_Driver/Inc/stm32wlxx_ll_bus.h ****   *         AHB3ENR      RNGEN         LL_AHB3_GRP1_EnableClock\n
 623:Drivers/STM32WLxx_HAL_Driver/Inc/stm32wlxx_ll_bus.h ****   *         AHB3ENR      HSEMEN        LL_AHB3_GRP1_EnableClock\n
 624:Drivers/STM32WLxx_HAL_Driver/Inc/stm32wlxx_ll_bus.h ****   *         AHB3ENR      FLASHEN       LL_AHB3_GRP1_EnableClock
 625:Drivers/STM32WLxx_HAL_Driver/Inc/stm32wlxx_ll_bus.h ****   * @param  Periphs This parameter can be a combination of the following values:
 626:Drivers/STM32WLxx_HAL_Driver/Inc/stm32wlxx_ll_bus.h ****   *         @arg @ref LL_AHB3_GRP1_PERIPH_PKA
 627:Drivers/STM32WLxx_HAL_Driver/Inc/stm32wlxx_ll_bus.h ****   *         @arg @ref LL_AHB3_GRP1_PERIPH_AES
 628:Drivers/STM32WLxx_HAL_Driver/Inc/stm32wlxx_ll_bus.h ****   *         @arg @ref LL_AHB3_GRP1_PERIPH_RNG
 629:Drivers/STM32WLxx_HAL_Driver/Inc/stm32wlxx_ll_bus.h ****   *         @arg @ref LL_AHB3_GRP1_PERIPH_HSEM
 630:Drivers/STM32WLxx_HAL_Driver/Inc/stm32wlxx_ll_bus.h ****   *         @arg @ref LL_AHB3_GRP1_PERIPH_FLASH
 631:Drivers/STM32WLxx_HAL_Driver/Inc/stm32wlxx_ll_bus.h ****   * @retval None
 632:Drivers/STM32WLxx_HAL_Driver/Inc/stm32wlxx_ll_bus.h ****   */
 633:Drivers/STM32WLxx_HAL_Driver/Inc/stm32wlxx_ll_bus.h **** #endif /* DUAL_CORE */
 634:Drivers/STM32WLxx_HAL_Driver/Inc/stm32wlxx_ll_bus.h **** __STATIC_INLINE void LL_AHB3_GRP1_EnableClock(uint32_t Periphs)
 635:Drivers/STM32WLxx_HAL_Driver/Inc/stm32wlxx_ll_bus.h **** {
 636:Drivers/STM32WLxx_HAL_Driver/Inc/stm32wlxx_ll_bus.h ****   __IO uint32_t tmpreg;
 637:Drivers/STM32WLxx_HAL_Driver/Inc/stm32wlxx_ll_bus.h ****   SET_BIT(RCC->AHB3ENR, Periphs);
 638:Drivers/STM32WLxx_HAL_Driver/Inc/stm32wlxx_ll_bus.h ****   /* Delay after an RCC peripheral clock enabling */
 639:Drivers/STM32WLxx_HAL_Driver/Inc/stm32wlxx_ll_bus.h ****   tmpreg = READ_BIT(RCC->AHB3ENR, Periphs);
 640:Drivers/STM32WLxx_HAL_Driver/Inc/stm32wlxx_ll_bus.h ****   (void)tmpreg;
 641:Drivers/STM32WLxx_HAL_Driver/Inc/stm32wlxx_ll_bus.h **** }
 642:Drivers/STM32WLxx_HAL_Driver/Inc/stm32wlxx_ll_bus.h **** 
 643:Drivers/STM32WLxx_HAL_Driver/Inc/stm32wlxx_ll_bus.h **** #if defined(DUAL_CORE) /* Switch added for Documentation generation purpose to exclude IPCC in else
 644:Drivers/STM32WLxx_HAL_Driver/Inc/stm32wlxx_ll_bus.h **** /**
 645:Drivers/STM32WLxx_HAL_Driver/Inc/stm32wlxx_ll_bus.h ****   * @brief  Check if AHB3 peripheral clock is enabled or not
 646:Drivers/STM32WLxx_HAL_Driver/Inc/stm32wlxx_ll_bus.h ****   * @rmtoll AHB3ENR      PKAEN         LL_AHB3_GRP1_IsEnabledClock\n
ARM GAS  /var/folders/9y/n02fl3g16gnf7ppy14xghdy80000gn/T//ccRSWXWQ.s 			page 18


 647:Drivers/STM32WLxx_HAL_Driver/Inc/stm32wlxx_ll_bus.h ****   *         AHB3ENR      AESEN         LL_AHB3_GRP1_IsEnabledClock\n
 648:Drivers/STM32WLxx_HAL_Driver/Inc/stm32wlxx_ll_bus.h ****   *         AHB3ENR      RNGEN         LL_AHB3_GRP1_IsEnabledClock\n
 649:Drivers/STM32WLxx_HAL_Driver/Inc/stm32wlxx_ll_bus.h ****   *         AHB3ENR      HSEMEN        LL_AHB3_GRP1_IsEnabledClock\n
 650:Drivers/STM32WLxx_HAL_Driver/Inc/stm32wlxx_ll_bus.h ****   *         AHB3ENR      IPCCEN        LL_AHB3_GRP1_IsEnabledClock\n
 651:Drivers/STM32WLxx_HAL_Driver/Inc/stm32wlxx_ll_bus.h ****   *         AHB3ENR      FLASHEN       LL_AHB3_GRP1_IsEnabledClock
 652:Drivers/STM32WLxx_HAL_Driver/Inc/stm32wlxx_ll_bus.h ****   * @param  Periphs This parameter can be a combination of the following values:
 653:Drivers/STM32WLxx_HAL_Driver/Inc/stm32wlxx_ll_bus.h ****   *         @arg @ref LL_AHB3_GRP1_PERIPH_PKA
 654:Drivers/STM32WLxx_HAL_Driver/Inc/stm32wlxx_ll_bus.h ****   *         @arg @ref LL_AHB3_GRP1_PERIPH_AES
 655:Drivers/STM32WLxx_HAL_Driver/Inc/stm32wlxx_ll_bus.h ****   *         @arg @ref LL_AHB3_GRP1_PERIPH_RNG
 656:Drivers/STM32WLxx_HAL_Driver/Inc/stm32wlxx_ll_bus.h ****   *         @arg @ref LL_AHB3_GRP1_PERIPH_HSEM
 657:Drivers/STM32WLxx_HAL_Driver/Inc/stm32wlxx_ll_bus.h ****   *         @arg @ref LL_AHB3_GRP1_PERIPH_IPCC
 658:Drivers/STM32WLxx_HAL_Driver/Inc/stm32wlxx_ll_bus.h ****   *         @arg @ref LL_AHB3_GRP1_PERIPH_FLASH
 659:Drivers/STM32WLxx_HAL_Driver/Inc/stm32wlxx_ll_bus.h ****   * @retval uint32_t
 660:Drivers/STM32WLxx_HAL_Driver/Inc/stm32wlxx_ll_bus.h ****   */
 661:Drivers/STM32WLxx_HAL_Driver/Inc/stm32wlxx_ll_bus.h **** #else
 662:Drivers/STM32WLxx_HAL_Driver/Inc/stm32wlxx_ll_bus.h **** /**
 663:Drivers/STM32WLxx_HAL_Driver/Inc/stm32wlxx_ll_bus.h ****   * @brief  Check if AHB3 peripheral clock is enabled or not
 664:Drivers/STM32WLxx_HAL_Driver/Inc/stm32wlxx_ll_bus.h ****   * @rmtoll AHB3ENR      PKAEN         LL_AHB3_GRP1_IsEnabledClock\n
 665:Drivers/STM32WLxx_HAL_Driver/Inc/stm32wlxx_ll_bus.h ****   *         AHB3ENR      AESEN         LL_AHB3_GRP1_IsEnabledClock\n
 666:Drivers/STM32WLxx_HAL_Driver/Inc/stm32wlxx_ll_bus.h ****   *         AHB3ENR      RNGEN         LL_AHB3_GRP1_IsEnabledClock\n
 667:Drivers/STM32WLxx_HAL_Driver/Inc/stm32wlxx_ll_bus.h ****   *         AHB3ENR      HSEMEN        LL_AHB3_GRP1_IsEnabledClock\n
 668:Drivers/STM32WLxx_HAL_Driver/Inc/stm32wlxx_ll_bus.h ****   *         AHB3ENR      FLASHEN       LL_AHB3_GRP1_IsEnabledClock
 669:Drivers/STM32WLxx_HAL_Driver/Inc/stm32wlxx_ll_bus.h ****   * @param  Periphs This parameter can be a combination of the following values:
 670:Drivers/STM32WLxx_HAL_Driver/Inc/stm32wlxx_ll_bus.h ****   *         @arg @ref LL_AHB3_GRP1_PERIPH_PKA
 671:Drivers/STM32WLxx_HAL_Driver/Inc/stm32wlxx_ll_bus.h ****   *         @arg @ref LL_AHB3_GRP1_PERIPH_AES
 672:Drivers/STM32WLxx_HAL_Driver/Inc/stm32wlxx_ll_bus.h ****   *         @arg @ref LL_AHB3_GRP1_PERIPH_RNG
 673:Drivers/STM32WLxx_HAL_Driver/Inc/stm32wlxx_ll_bus.h ****   *         @arg @ref LL_AHB3_GRP1_PERIPH_HSEM
 674:Drivers/STM32WLxx_HAL_Driver/Inc/stm32wlxx_ll_bus.h ****   *         @arg @ref LL_AHB3_GRP1_PERIPH_FLASH
 675:Drivers/STM32WLxx_HAL_Driver/Inc/stm32wlxx_ll_bus.h ****   * @retval uint32_t
 676:Drivers/STM32WLxx_HAL_Driver/Inc/stm32wlxx_ll_bus.h ****   */
 677:Drivers/STM32WLxx_HAL_Driver/Inc/stm32wlxx_ll_bus.h **** 
 678:Drivers/STM32WLxx_HAL_Driver/Inc/stm32wlxx_ll_bus.h **** #endif /* DUAL_CORE */
 679:Drivers/STM32WLxx_HAL_Driver/Inc/stm32wlxx_ll_bus.h **** __STATIC_INLINE uint32_t LL_AHB3_GRP1_IsEnabledClock(uint32_t Periphs)
 680:Drivers/STM32WLxx_HAL_Driver/Inc/stm32wlxx_ll_bus.h **** {
 681:Drivers/STM32WLxx_HAL_Driver/Inc/stm32wlxx_ll_bus.h ****   return ((READ_BIT(RCC->AHB3ENR, Periphs) == (Periphs)) ? 1UL : 0UL);
 682:Drivers/STM32WLxx_HAL_Driver/Inc/stm32wlxx_ll_bus.h **** }
 683:Drivers/STM32WLxx_HAL_Driver/Inc/stm32wlxx_ll_bus.h **** 
 684:Drivers/STM32WLxx_HAL_Driver/Inc/stm32wlxx_ll_bus.h **** #if defined(DUAL_CORE) /* Switch added for Documentation generation purpose to exclude IPCC in else
 685:Drivers/STM32WLxx_HAL_Driver/Inc/stm32wlxx_ll_bus.h **** /**
 686:Drivers/STM32WLxx_HAL_Driver/Inc/stm32wlxx_ll_bus.h ****   * @brief  Disable AHB3 peripherals clock.
 687:Drivers/STM32WLxx_HAL_Driver/Inc/stm32wlxx_ll_bus.h ****   * @rmtoll AHB3ENR      PKAEN         LL_AHB3_GRP1_DisableClock\n
 688:Drivers/STM32WLxx_HAL_Driver/Inc/stm32wlxx_ll_bus.h ****   *         AHB3ENR      AESEN         LL_AHB3_GRP1_DisableClock\n
 689:Drivers/STM32WLxx_HAL_Driver/Inc/stm32wlxx_ll_bus.h ****   *         AHB3ENR      RNGEN         LL_AHB3_GRP1_DisableClock\n
 690:Drivers/STM32WLxx_HAL_Driver/Inc/stm32wlxx_ll_bus.h ****   *         AHB3ENR      HSEMEN        LL_AHB3_GRP1_DisableClock\n
 691:Drivers/STM32WLxx_HAL_Driver/Inc/stm32wlxx_ll_bus.h ****   *         AHB3ENR      IPCCEN        LL_AHB3_GRP1_DisableClock\n
 692:Drivers/STM32WLxx_HAL_Driver/Inc/stm32wlxx_ll_bus.h ****   *         AHB3ENR      FLASHEN       LL_AHB3_GRP1_DisableClock
 693:Drivers/STM32WLxx_HAL_Driver/Inc/stm32wlxx_ll_bus.h ****   * @param  Periphs This parameter can be a combination of the following values:
 694:Drivers/STM32WLxx_HAL_Driver/Inc/stm32wlxx_ll_bus.h ****   *         @arg @ref LL_AHB3_GRP1_PERIPH_PKA
 695:Drivers/STM32WLxx_HAL_Driver/Inc/stm32wlxx_ll_bus.h ****   *         @arg @ref LL_AHB3_GRP1_PERIPH_AES
 696:Drivers/STM32WLxx_HAL_Driver/Inc/stm32wlxx_ll_bus.h ****   *         @arg @ref LL_AHB3_GRP1_PERIPH_RNG
 697:Drivers/STM32WLxx_HAL_Driver/Inc/stm32wlxx_ll_bus.h ****   *         @arg @ref LL_AHB3_GRP1_PERIPH_HSEM
 698:Drivers/STM32WLxx_HAL_Driver/Inc/stm32wlxx_ll_bus.h ****   *         @arg @ref LL_AHB3_GRP1_PERIPH_IPCC
 699:Drivers/STM32WLxx_HAL_Driver/Inc/stm32wlxx_ll_bus.h ****   *         @arg @ref LL_AHB3_GRP1_PERIPH_FLASH
 700:Drivers/STM32WLxx_HAL_Driver/Inc/stm32wlxx_ll_bus.h ****   * @retval None
 701:Drivers/STM32WLxx_HAL_Driver/Inc/stm32wlxx_ll_bus.h ****   */
 702:Drivers/STM32WLxx_HAL_Driver/Inc/stm32wlxx_ll_bus.h **** 
 703:Drivers/STM32WLxx_HAL_Driver/Inc/stm32wlxx_ll_bus.h **** #else
ARM GAS  /var/folders/9y/n02fl3g16gnf7ppy14xghdy80000gn/T//ccRSWXWQ.s 			page 19


 704:Drivers/STM32WLxx_HAL_Driver/Inc/stm32wlxx_ll_bus.h **** /**
 705:Drivers/STM32WLxx_HAL_Driver/Inc/stm32wlxx_ll_bus.h ****   * @brief  Disable AHB3 peripherals clock.
 706:Drivers/STM32WLxx_HAL_Driver/Inc/stm32wlxx_ll_bus.h ****   * @rmtoll AHB3ENR      PKAEN         LL_AHB3_GRP1_DisableClock\n
 707:Drivers/STM32WLxx_HAL_Driver/Inc/stm32wlxx_ll_bus.h ****   *         AHB3ENR      AESEN         LL_AHB3_GRP1_DisableClock\n
 708:Drivers/STM32WLxx_HAL_Driver/Inc/stm32wlxx_ll_bus.h ****   *         AHB3ENR      RNGEN         LL_AHB3_GRP1_DisableClock\n
 709:Drivers/STM32WLxx_HAL_Driver/Inc/stm32wlxx_ll_bus.h ****   *         AHB3ENR      HSEMEN        LL_AHB3_GRP1_DisableClock\n
 710:Drivers/STM32WLxx_HAL_Driver/Inc/stm32wlxx_ll_bus.h ****   *         AHB3ENR      FLASHEN       LL_AHB3_GRP1_DisableClock
 711:Drivers/STM32WLxx_HAL_Driver/Inc/stm32wlxx_ll_bus.h ****   * @param  Periphs This parameter can be a combination of the following values:
 712:Drivers/STM32WLxx_HAL_Driver/Inc/stm32wlxx_ll_bus.h ****   *         @arg @ref LL_AHB3_GRP1_PERIPH_PKA
 713:Drivers/STM32WLxx_HAL_Driver/Inc/stm32wlxx_ll_bus.h ****   *         @arg @ref LL_AHB3_GRP1_PERIPH_AES
 714:Drivers/STM32WLxx_HAL_Driver/Inc/stm32wlxx_ll_bus.h ****   *         @arg @ref LL_AHB3_GRP1_PERIPH_RNG
 715:Drivers/STM32WLxx_HAL_Driver/Inc/stm32wlxx_ll_bus.h ****   *         @arg @ref LL_AHB3_GRP1_PERIPH_HSEM
 716:Drivers/STM32WLxx_HAL_Driver/Inc/stm32wlxx_ll_bus.h ****   *         @arg @ref LL_AHB3_GRP1_PERIPH_FLASH
 717:Drivers/STM32WLxx_HAL_Driver/Inc/stm32wlxx_ll_bus.h ****   * @retval None
 718:Drivers/STM32WLxx_HAL_Driver/Inc/stm32wlxx_ll_bus.h ****   */
 719:Drivers/STM32WLxx_HAL_Driver/Inc/stm32wlxx_ll_bus.h **** #endif /* DUAL_CORE */
 720:Drivers/STM32WLxx_HAL_Driver/Inc/stm32wlxx_ll_bus.h **** __STATIC_INLINE void LL_AHB3_GRP1_DisableClock(uint32_t Periphs)
 721:Drivers/STM32WLxx_HAL_Driver/Inc/stm32wlxx_ll_bus.h **** {
 722:Drivers/STM32WLxx_HAL_Driver/Inc/stm32wlxx_ll_bus.h ****   CLEAR_BIT(RCC->AHB3ENR, Periphs);
 723:Drivers/STM32WLxx_HAL_Driver/Inc/stm32wlxx_ll_bus.h **** }
 724:Drivers/STM32WLxx_HAL_Driver/Inc/stm32wlxx_ll_bus.h **** 
 725:Drivers/STM32WLxx_HAL_Driver/Inc/stm32wlxx_ll_bus.h **** #if defined(DUAL_CORE) /* Switch added for Documentation generation purpose to exclude IPCC in else
 726:Drivers/STM32WLxx_HAL_Driver/Inc/stm32wlxx_ll_bus.h **** /**
 727:Drivers/STM32WLxx_HAL_Driver/Inc/stm32wlxx_ll_bus.h ****   * @brief  Force AHB3 peripherals reset.
 728:Drivers/STM32WLxx_HAL_Driver/Inc/stm32wlxx_ll_bus.h ****   * @rmtoll AHB3RSTR     PKARST        LL_AHB3_GRP1_ForceReset\n
 729:Drivers/STM32WLxx_HAL_Driver/Inc/stm32wlxx_ll_bus.h ****   *         AHB3RSTR     AESRST        LL_AHB3_GRP1_ForceReset\n
 730:Drivers/STM32WLxx_HAL_Driver/Inc/stm32wlxx_ll_bus.h ****   *         AHB3RSTR     RNGRST        LL_AHB3_GRP1_ForceReset\n
 731:Drivers/STM32WLxx_HAL_Driver/Inc/stm32wlxx_ll_bus.h ****   *         AHB3RSTR     HSEMRST       LL_AHB3_GRP1_ForceReset\n
 732:Drivers/STM32WLxx_HAL_Driver/Inc/stm32wlxx_ll_bus.h ****   *         AHB3RSTR     IPCCRST       LL_AHB3_GRP1_ForceReset\n
 733:Drivers/STM32WLxx_HAL_Driver/Inc/stm32wlxx_ll_bus.h ****   *         AHB3RSTR     FLASHRST      LL_AHB3_GRP1_ForceReset
 734:Drivers/STM32WLxx_HAL_Driver/Inc/stm32wlxx_ll_bus.h ****   * @param  Periphs This parameter can be a combination of the following values:
 735:Drivers/STM32WLxx_HAL_Driver/Inc/stm32wlxx_ll_bus.h ****   *         @arg @ref LL_AHB3_GRP1_PERIPH_ALL
 736:Drivers/STM32WLxx_HAL_Driver/Inc/stm32wlxx_ll_bus.h ****   *         @arg @ref LL_AHB3_GRP1_PERIPH_AES
 737:Drivers/STM32WLxx_HAL_Driver/Inc/stm32wlxx_ll_bus.h ****   *         @arg @ref LL_AHB3_GRP1_PERIPH_PKA
 738:Drivers/STM32WLxx_HAL_Driver/Inc/stm32wlxx_ll_bus.h ****   *         @arg @ref LL_AHB3_GRP1_PERIPH_RNG
 739:Drivers/STM32WLxx_HAL_Driver/Inc/stm32wlxx_ll_bus.h ****   *         @arg @ref LL_AHB3_GRP1_PERIPH_HSEM
 740:Drivers/STM32WLxx_HAL_Driver/Inc/stm32wlxx_ll_bus.h ****   *         @arg @ref LL_AHB3_GRP1_PERIPH_IPCC
 741:Drivers/STM32WLxx_HAL_Driver/Inc/stm32wlxx_ll_bus.h ****   *         @arg @ref LL_AHB3_GRP1_PERIPH_FLASH
 742:Drivers/STM32WLxx_HAL_Driver/Inc/stm32wlxx_ll_bus.h ****   * @retval None
 743:Drivers/STM32WLxx_HAL_Driver/Inc/stm32wlxx_ll_bus.h ****   */
 744:Drivers/STM32WLxx_HAL_Driver/Inc/stm32wlxx_ll_bus.h **** #else
 745:Drivers/STM32WLxx_HAL_Driver/Inc/stm32wlxx_ll_bus.h **** /**
 746:Drivers/STM32WLxx_HAL_Driver/Inc/stm32wlxx_ll_bus.h ****   * @brief  Force AHB3 peripherals reset.
 747:Drivers/STM32WLxx_HAL_Driver/Inc/stm32wlxx_ll_bus.h ****   * @rmtoll AHB3RSTR     PKARST        LL_AHB3_GRP1_ForceReset\n
 748:Drivers/STM32WLxx_HAL_Driver/Inc/stm32wlxx_ll_bus.h ****   *         AHB3RSTR     AESRST        LL_AHB3_GRP1_ForceReset\n
 749:Drivers/STM32WLxx_HAL_Driver/Inc/stm32wlxx_ll_bus.h ****   *         AHB3RSTR     RNGRST        LL_AHB3_GRP1_ForceReset\n
 750:Drivers/STM32WLxx_HAL_Driver/Inc/stm32wlxx_ll_bus.h ****   *         AHB3RSTR     HSEMRST       LL_AHB3_GRP1_ForceReset\n
 751:Drivers/STM32WLxx_HAL_Driver/Inc/stm32wlxx_ll_bus.h ****   *         AHB3RSTR     FLASHRST      LL_AHB3_GRP1_ForceReset
 752:Drivers/STM32WLxx_HAL_Driver/Inc/stm32wlxx_ll_bus.h ****   * @param  Periphs This parameter can be a combination of the following values:
 753:Drivers/STM32WLxx_HAL_Driver/Inc/stm32wlxx_ll_bus.h ****   *         @arg @ref LL_AHB3_GRP1_PERIPH_ALL
 754:Drivers/STM32WLxx_HAL_Driver/Inc/stm32wlxx_ll_bus.h ****   *         @arg @ref LL_AHB3_GRP1_PERIPH_AES
 755:Drivers/STM32WLxx_HAL_Driver/Inc/stm32wlxx_ll_bus.h ****   *         @arg @ref LL_AHB3_GRP1_PERIPH_PKA
 756:Drivers/STM32WLxx_HAL_Driver/Inc/stm32wlxx_ll_bus.h ****   *         @arg @ref LL_AHB3_GRP1_PERIPH_RNG
 757:Drivers/STM32WLxx_HAL_Driver/Inc/stm32wlxx_ll_bus.h ****   *         @arg @ref LL_AHB3_GRP1_PERIPH_HSEM
 758:Drivers/STM32WLxx_HAL_Driver/Inc/stm32wlxx_ll_bus.h ****   *         @arg @ref LL_AHB3_GRP1_PERIPH_FLASH
 759:Drivers/STM32WLxx_HAL_Driver/Inc/stm32wlxx_ll_bus.h ****   * @retval None
 760:Drivers/STM32WLxx_HAL_Driver/Inc/stm32wlxx_ll_bus.h ****   */
ARM GAS  /var/folders/9y/n02fl3g16gnf7ppy14xghdy80000gn/T//ccRSWXWQ.s 			page 20


 761:Drivers/STM32WLxx_HAL_Driver/Inc/stm32wlxx_ll_bus.h **** 
 762:Drivers/STM32WLxx_HAL_Driver/Inc/stm32wlxx_ll_bus.h **** #endif /* DUAL_CORE */
 763:Drivers/STM32WLxx_HAL_Driver/Inc/stm32wlxx_ll_bus.h **** __STATIC_INLINE void LL_AHB3_GRP1_ForceReset(uint32_t Periphs)
 764:Drivers/STM32WLxx_HAL_Driver/Inc/stm32wlxx_ll_bus.h **** {
 765:Drivers/STM32WLxx_HAL_Driver/Inc/stm32wlxx_ll_bus.h ****   SET_BIT(RCC->AHB3RSTR, Periphs);
 766:Drivers/STM32WLxx_HAL_Driver/Inc/stm32wlxx_ll_bus.h **** }
 767:Drivers/STM32WLxx_HAL_Driver/Inc/stm32wlxx_ll_bus.h **** 
 768:Drivers/STM32WLxx_HAL_Driver/Inc/stm32wlxx_ll_bus.h **** #if defined(DUAL_CORE) /* Switch added for Documentation generation purpose to exclude IPCC in else
 769:Drivers/STM32WLxx_HAL_Driver/Inc/stm32wlxx_ll_bus.h **** /**
 770:Drivers/STM32WLxx_HAL_Driver/Inc/stm32wlxx_ll_bus.h ****   * @brief  Release AHB3 peripherals reset.
 771:Drivers/STM32WLxx_HAL_Driver/Inc/stm32wlxx_ll_bus.h ****   * @rmtoll AHB3RSTR     PKARST        LL_AHB3_GRP1_ReleaseReset\n
 772:Drivers/STM32WLxx_HAL_Driver/Inc/stm32wlxx_ll_bus.h ****   *         AHB3RSTR     AESRST        LL_AHB3_GRP1_ReleaseReset\n
 773:Drivers/STM32WLxx_HAL_Driver/Inc/stm32wlxx_ll_bus.h ****   *         AHB3RSTR     RNGRST        LL_AHB3_GRP1_ReleaseReset\n
 774:Drivers/STM32WLxx_HAL_Driver/Inc/stm32wlxx_ll_bus.h ****   *         AHB3RSTR     HSEMRST       LL_AHB3_GRP1_ReleaseReset\n
 775:Drivers/STM32WLxx_HAL_Driver/Inc/stm32wlxx_ll_bus.h ****   *         AHB3RSTR     IPCCRST       LL_AHB3_GRP1_ReleaseReset\n
 776:Drivers/STM32WLxx_HAL_Driver/Inc/stm32wlxx_ll_bus.h ****   *         AHB3RSTR     FLASHRST      LL_AHB3_GRP1_ReleaseReset
 777:Drivers/STM32WLxx_HAL_Driver/Inc/stm32wlxx_ll_bus.h ****   * @param  Periphs This parameter can be a combination of the following values:
 778:Drivers/STM32WLxx_HAL_Driver/Inc/stm32wlxx_ll_bus.h ****   *         @arg @ref LL_AHB3_GRP1_PERIPH_ALL
 779:Drivers/STM32WLxx_HAL_Driver/Inc/stm32wlxx_ll_bus.h ****   *         @arg @ref LL_AHB3_GRP1_PERIPH_PKA
 780:Drivers/STM32WLxx_HAL_Driver/Inc/stm32wlxx_ll_bus.h ****   *         @arg @ref LL_AHB3_GRP1_PERIPH_AES
 781:Drivers/STM32WLxx_HAL_Driver/Inc/stm32wlxx_ll_bus.h ****   *         @arg @ref LL_AHB3_GRP1_PERIPH_RNG
 782:Drivers/STM32WLxx_HAL_Driver/Inc/stm32wlxx_ll_bus.h ****   *         @arg @ref LL_AHB3_GRP1_PERIPH_HSEM
 783:Drivers/STM32WLxx_HAL_Driver/Inc/stm32wlxx_ll_bus.h ****   *         @arg @ref LL_AHB3_GRP1_PERIPH_IPCC
 784:Drivers/STM32WLxx_HAL_Driver/Inc/stm32wlxx_ll_bus.h ****   *         @arg @ref LL_AHB3_GRP1_PERIPH_FLASH
 785:Drivers/STM32WLxx_HAL_Driver/Inc/stm32wlxx_ll_bus.h ****   * @retval None
 786:Drivers/STM32WLxx_HAL_Driver/Inc/stm32wlxx_ll_bus.h ****   */
 787:Drivers/STM32WLxx_HAL_Driver/Inc/stm32wlxx_ll_bus.h **** #else
 788:Drivers/STM32WLxx_HAL_Driver/Inc/stm32wlxx_ll_bus.h **** /**
 789:Drivers/STM32WLxx_HAL_Driver/Inc/stm32wlxx_ll_bus.h ****   * @brief  Release AHB3 peripherals reset.
 790:Drivers/STM32WLxx_HAL_Driver/Inc/stm32wlxx_ll_bus.h ****   * @rmtoll AHB3RSTR     PKARST        LL_AHB3_GRP1_ReleaseReset\n
 791:Drivers/STM32WLxx_HAL_Driver/Inc/stm32wlxx_ll_bus.h ****   *         AHB3RSTR     AESRST        LL_AHB3_GRP1_ReleaseReset\n
 792:Drivers/STM32WLxx_HAL_Driver/Inc/stm32wlxx_ll_bus.h ****   *         AHB3RSTR     RNGRST        LL_AHB3_GRP1_ReleaseReset\n
 793:Drivers/STM32WLxx_HAL_Driver/Inc/stm32wlxx_ll_bus.h ****   *         AHB3RSTR     HSEMRST       LL_AHB3_GRP1_ReleaseReset\n
 794:Drivers/STM32WLxx_HAL_Driver/Inc/stm32wlxx_ll_bus.h ****   *         AHB3RSTR     FLASHRST      LL_AHB3_GRP1_ReleaseReset
 795:Drivers/STM32WLxx_HAL_Driver/Inc/stm32wlxx_ll_bus.h ****   * @param  Periphs This parameter can be a combination of the following values:
 796:Drivers/STM32WLxx_HAL_Driver/Inc/stm32wlxx_ll_bus.h ****   *         @arg @ref LL_AHB3_GRP1_PERIPH_ALL
 797:Drivers/STM32WLxx_HAL_Driver/Inc/stm32wlxx_ll_bus.h ****   *         @arg @ref LL_AHB3_GRP1_PERIPH_PKA
 798:Drivers/STM32WLxx_HAL_Driver/Inc/stm32wlxx_ll_bus.h ****   *         @arg @ref LL_AHB3_GRP1_PERIPH_AES
 799:Drivers/STM32WLxx_HAL_Driver/Inc/stm32wlxx_ll_bus.h ****   *         @arg @ref LL_AHB3_GRP1_PERIPH_RNG
 800:Drivers/STM32WLxx_HAL_Driver/Inc/stm32wlxx_ll_bus.h ****   *         @arg @ref LL_AHB3_GRP1_PERIPH_HSEM
 801:Drivers/STM32WLxx_HAL_Driver/Inc/stm32wlxx_ll_bus.h ****   *         @arg @ref LL_AHB3_GRP1_PERIPH_FLASH
 802:Drivers/STM32WLxx_HAL_Driver/Inc/stm32wlxx_ll_bus.h ****   * @retval None
 803:Drivers/STM32WLxx_HAL_Driver/Inc/stm32wlxx_ll_bus.h ****   */
 804:Drivers/STM32WLxx_HAL_Driver/Inc/stm32wlxx_ll_bus.h **** 
 805:Drivers/STM32WLxx_HAL_Driver/Inc/stm32wlxx_ll_bus.h **** #endif /* DUAL_CORE */
 806:Drivers/STM32WLxx_HAL_Driver/Inc/stm32wlxx_ll_bus.h **** __STATIC_INLINE void LL_AHB3_GRP1_ReleaseReset(uint32_t Periphs)
 807:Drivers/STM32WLxx_HAL_Driver/Inc/stm32wlxx_ll_bus.h **** {
 808:Drivers/STM32WLxx_HAL_Driver/Inc/stm32wlxx_ll_bus.h ****   CLEAR_BIT(RCC->AHB3RSTR, Periphs);
 809:Drivers/STM32WLxx_HAL_Driver/Inc/stm32wlxx_ll_bus.h **** }
 810:Drivers/STM32WLxx_HAL_Driver/Inc/stm32wlxx_ll_bus.h **** 
 811:Drivers/STM32WLxx_HAL_Driver/Inc/stm32wlxx_ll_bus.h **** /**
 812:Drivers/STM32WLxx_HAL_Driver/Inc/stm32wlxx_ll_bus.h ****   * @brief  Enable AHB3 peripherals clock during Low Power (Sleep) mode.
 813:Drivers/STM32WLxx_HAL_Driver/Inc/stm32wlxx_ll_bus.h ****   * @rmtoll AHB3SMENR    PKASMEN       LL_AHB3_GRP1_EnableClockSleep\n
 814:Drivers/STM32WLxx_HAL_Driver/Inc/stm32wlxx_ll_bus.h ****   *         AHB3SMENR    AESSMEN       LL_AHB3_GRP1_EnableClockSleep\n
 815:Drivers/STM32WLxx_HAL_Driver/Inc/stm32wlxx_ll_bus.h ****   *         AHB3SMENR    RNGSMEN       LL_AHB3_GRP1_EnableClockSleep\n
 816:Drivers/STM32WLxx_HAL_Driver/Inc/stm32wlxx_ll_bus.h ****   *         AHB1SMENR    SRAM1SMEN     LL_AHB1_GRP1_EnableClockSleep\n
 817:Drivers/STM32WLxx_HAL_Driver/Inc/stm32wlxx_ll_bus.h ****   *         AHB3SMENR    SRAM2SMEN     LL_AHB3_GRP1_EnableClockSleep\n
ARM GAS  /var/folders/9y/n02fl3g16gnf7ppy14xghdy80000gn/T//ccRSWXWQ.s 			page 21


 818:Drivers/STM32WLxx_HAL_Driver/Inc/stm32wlxx_ll_bus.h ****   *         AHB3SMENR    FLASHSMEN     LL_AHB3_GRP1_EnableClockSleep
 819:Drivers/STM32WLxx_HAL_Driver/Inc/stm32wlxx_ll_bus.h ****   * @param  Periphs This parameter can be a combination of the following values:
 820:Drivers/STM32WLxx_HAL_Driver/Inc/stm32wlxx_ll_bus.h ****   *         @arg @ref LL_AHB3_GRP1_PERIPH_PKA
 821:Drivers/STM32WLxx_HAL_Driver/Inc/stm32wlxx_ll_bus.h ****   *         @arg @ref LL_AHB3_GRP1_PERIPH_AES
 822:Drivers/STM32WLxx_HAL_Driver/Inc/stm32wlxx_ll_bus.h ****   *         @arg @ref LL_AHB3_GRP1_PERIPH_RNG
 823:Drivers/STM32WLxx_HAL_Driver/Inc/stm32wlxx_ll_bus.h ****   *         @arg @ref LL_AHB3_GRP1_PERIPH_SRAM1
 824:Drivers/STM32WLxx_HAL_Driver/Inc/stm32wlxx_ll_bus.h ****   *         @arg @ref LL_AHB3_GRP1_PERIPH_SRAM2
 825:Drivers/STM32WLxx_HAL_Driver/Inc/stm32wlxx_ll_bus.h ****   *         @arg @ref LL_AHB3_GRP1_PERIPH_FLASH
 826:Drivers/STM32WLxx_HAL_Driver/Inc/stm32wlxx_ll_bus.h ****   * @retval None
 827:Drivers/STM32WLxx_HAL_Driver/Inc/stm32wlxx_ll_bus.h ****   */
 828:Drivers/STM32WLxx_HAL_Driver/Inc/stm32wlxx_ll_bus.h **** __STATIC_INLINE void LL_AHB3_GRP1_EnableClockSleep(uint32_t Periphs)
 829:Drivers/STM32WLxx_HAL_Driver/Inc/stm32wlxx_ll_bus.h **** {
 830:Drivers/STM32WLxx_HAL_Driver/Inc/stm32wlxx_ll_bus.h ****   __IO uint32_t tmpreg;
 831:Drivers/STM32WLxx_HAL_Driver/Inc/stm32wlxx_ll_bus.h ****   SET_BIT(RCC->AHB3SMENR, Periphs);
 832:Drivers/STM32WLxx_HAL_Driver/Inc/stm32wlxx_ll_bus.h ****   /* Delay after an RCC peripheral clock enabling */
 833:Drivers/STM32WLxx_HAL_Driver/Inc/stm32wlxx_ll_bus.h ****   tmpreg = READ_BIT(RCC->AHB3SMENR, Periphs);
 834:Drivers/STM32WLxx_HAL_Driver/Inc/stm32wlxx_ll_bus.h ****   (void)tmpreg;
 835:Drivers/STM32WLxx_HAL_Driver/Inc/stm32wlxx_ll_bus.h **** }
 836:Drivers/STM32WLxx_HAL_Driver/Inc/stm32wlxx_ll_bus.h **** 
 837:Drivers/STM32WLxx_HAL_Driver/Inc/stm32wlxx_ll_bus.h **** /**
 838:Drivers/STM32WLxx_HAL_Driver/Inc/stm32wlxx_ll_bus.h ****   * @brief  Check if AHB3 peripheral clock is enabled by the clock gating during CPU1 CSleep mode
 839:Drivers/STM32WLxx_HAL_Driver/Inc/stm32wlxx_ll_bus.h ****   * @rmtoll AHB3SMENR    PKASMEN       LL_AHB3_GRP1_IsEnabledClockSleep\n
 840:Drivers/STM32WLxx_HAL_Driver/Inc/stm32wlxx_ll_bus.h ****   *         AHB3SMENR    AESSMEN       LL_AHB3_GRP1_IsEnabledClockSleep\n
 841:Drivers/STM32WLxx_HAL_Driver/Inc/stm32wlxx_ll_bus.h ****   *         AHB3SMENR    RNGSMEN       LL_AHB3_GRP1_IsEnabledClockSleep\n
 842:Drivers/STM32WLxx_HAL_Driver/Inc/stm32wlxx_ll_bus.h ****   *         AHB1SMENR    SRAM1SMEN     LL_AHB3_GRP1_IsEnabledClockSleep\n
 843:Drivers/STM32WLxx_HAL_Driver/Inc/stm32wlxx_ll_bus.h ****   *         AHB3SMENR    SRAM2SMEN     LL_AHB3_GRP1_IsEnabledClockSleep\n
 844:Drivers/STM32WLxx_HAL_Driver/Inc/stm32wlxx_ll_bus.h ****   *         AHB3SMENR    FLASHSMEN     LL_AHB3_GRP1_IsEnabledClockSleep
 845:Drivers/STM32WLxx_HAL_Driver/Inc/stm32wlxx_ll_bus.h ****   * @param  Periphs This parameter can be a combination of the following values:
 846:Drivers/STM32WLxx_HAL_Driver/Inc/stm32wlxx_ll_bus.h ****   *         @arg @ref LL_AHB3_GRP1_PERIPH_PKA
 847:Drivers/STM32WLxx_HAL_Driver/Inc/stm32wlxx_ll_bus.h ****   *         @arg @ref LL_AHB3_GRP1_PERIPH_AES
 848:Drivers/STM32WLxx_HAL_Driver/Inc/stm32wlxx_ll_bus.h ****   *         @arg @ref LL_AHB3_GRP1_PERIPH_RNG
 849:Drivers/STM32WLxx_HAL_Driver/Inc/stm32wlxx_ll_bus.h ****   *         @arg @ref LL_AHB3_GRP1_PERIPH_SRAM1
 850:Drivers/STM32WLxx_HAL_Driver/Inc/stm32wlxx_ll_bus.h ****   *         @arg @ref LL_AHB3_GRP1_PERIPH_SRAM2
 851:Drivers/STM32WLxx_HAL_Driver/Inc/stm32wlxx_ll_bus.h ****   *         @arg @ref LL_AHB3_GRP1_PERIPH_FLASH
 852:Drivers/STM32WLxx_HAL_Driver/Inc/stm32wlxx_ll_bus.h ****   * @retval None
 853:Drivers/STM32WLxx_HAL_Driver/Inc/stm32wlxx_ll_bus.h ****   */
 854:Drivers/STM32WLxx_HAL_Driver/Inc/stm32wlxx_ll_bus.h **** __STATIC_INLINE uint32_t LL_AHB3_GRP1_IsEnabledClockSleep(uint32_t Periphs)
 855:Drivers/STM32WLxx_HAL_Driver/Inc/stm32wlxx_ll_bus.h **** {
 856:Drivers/STM32WLxx_HAL_Driver/Inc/stm32wlxx_ll_bus.h ****   return ((READ_BIT(RCC->AHB3SMENR, Periphs) == (Periphs)) ? 1UL : 0UL);
 857:Drivers/STM32WLxx_HAL_Driver/Inc/stm32wlxx_ll_bus.h **** }
 858:Drivers/STM32WLxx_HAL_Driver/Inc/stm32wlxx_ll_bus.h **** 
 859:Drivers/STM32WLxx_HAL_Driver/Inc/stm32wlxx_ll_bus.h **** /**
 860:Drivers/STM32WLxx_HAL_Driver/Inc/stm32wlxx_ll_bus.h ****   * @brief  Disable AHB3 peripherals clock during Low Power (Sleep) mode.
 861:Drivers/STM32WLxx_HAL_Driver/Inc/stm32wlxx_ll_bus.h ****   * @rmtoll AHB3SMENR    PKASMEN       LL_AHB3_GRP1_DisableClockSleep\n
 862:Drivers/STM32WLxx_HAL_Driver/Inc/stm32wlxx_ll_bus.h ****   *         AHB3SMENR    AESSMEN       LL_AHB3_GRP1_DisableClockSleep\n
 863:Drivers/STM32WLxx_HAL_Driver/Inc/stm32wlxx_ll_bus.h ****   *         AHB3SMENR    RNGSMEN       LL_AHB3_GRP1_DisableClockSleep\n
 864:Drivers/STM32WLxx_HAL_Driver/Inc/stm32wlxx_ll_bus.h ****   *         AHB3SMENR    SRAM1SMEN     LL_AHB3_GRP1_DisableClockSleep\n
 865:Drivers/STM32WLxx_HAL_Driver/Inc/stm32wlxx_ll_bus.h ****   *         AHB3SMENR    SRAM2SMEN     LL_AHB3_GRP1_DisableClockSleep\n
 866:Drivers/STM32WLxx_HAL_Driver/Inc/stm32wlxx_ll_bus.h ****   *         AHB3SMENR    FLASHSMEN     LL_AHB3_GRP1_DisableClockSleep
 867:Drivers/STM32WLxx_HAL_Driver/Inc/stm32wlxx_ll_bus.h ****   * @param  Periphs This parameter can be a combination of the following values:
 868:Drivers/STM32WLxx_HAL_Driver/Inc/stm32wlxx_ll_bus.h ****   *         @arg @ref LL_AHB3_GRP1_PERIPH_PKA
 869:Drivers/STM32WLxx_HAL_Driver/Inc/stm32wlxx_ll_bus.h ****   *         @arg @ref LL_AHB3_GRP1_PERIPH_AES
 870:Drivers/STM32WLxx_HAL_Driver/Inc/stm32wlxx_ll_bus.h ****   *         @arg @ref LL_AHB3_GRP1_PERIPH_RNG
 871:Drivers/STM32WLxx_HAL_Driver/Inc/stm32wlxx_ll_bus.h ****   *         @arg @ref LL_AHB3_GRP1_PERIPH_SRAM1
 872:Drivers/STM32WLxx_HAL_Driver/Inc/stm32wlxx_ll_bus.h ****   *         @arg @ref LL_AHB3_GRP1_PERIPH_SRAM2
 873:Drivers/STM32WLxx_HAL_Driver/Inc/stm32wlxx_ll_bus.h ****   *         @arg @ref LL_AHB3_GRP1_PERIPH_FLASH
 874:Drivers/STM32WLxx_HAL_Driver/Inc/stm32wlxx_ll_bus.h ****   * @retval None
ARM GAS  /var/folders/9y/n02fl3g16gnf7ppy14xghdy80000gn/T//ccRSWXWQ.s 			page 22


 875:Drivers/STM32WLxx_HAL_Driver/Inc/stm32wlxx_ll_bus.h ****   */
 876:Drivers/STM32WLxx_HAL_Driver/Inc/stm32wlxx_ll_bus.h **** __STATIC_INLINE void LL_AHB3_GRP1_DisableClockSleep(uint32_t Periphs)
 877:Drivers/STM32WLxx_HAL_Driver/Inc/stm32wlxx_ll_bus.h **** {
 878:Drivers/STM32WLxx_HAL_Driver/Inc/stm32wlxx_ll_bus.h ****   CLEAR_BIT(RCC->AHB3SMENR, Periphs);
 879:Drivers/STM32WLxx_HAL_Driver/Inc/stm32wlxx_ll_bus.h **** }
 880:Drivers/STM32WLxx_HAL_Driver/Inc/stm32wlxx_ll_bus.h **** 
 881:Drivers/STM32WLxx_HAL_Driver/Inc/stm32wlxx_ll_bus.h **** /**
 882:Drivers/STM32WLxx_HAL_Driver/Inc/stm32wlxx_ll_bus.h ****   * @}
 883:Drivers/STM32WLxx_HAL_Driver/Inc/stm32wlxx_ll_bus.h ****   */
 884:Drivers/STM32WLxx_HAL_Driver/Inc/stm32wlxx_ll_bus.h **** 
 885:Drivers/STM32WLxx_HAL_Driver/Inc/stm32wlxx_ll_bus.h **** /** @defgroup BUS_LL_EF_APB1 APB1
 886:Drivers/STM32WLxx_HAL_Driver/Inc/stm32wlxx_ll_bus.h ****   * @{
 887:Drivers/STM32WLxx_HAL_Driver/Inc/stm32wlxx_ll_bus.h ****   */
 888:Drivers/STM32WLxx_HAL_Driver/Inc/stm32wlxx_ll_bus.h **** 
 889:Drivers/STM32WLxx_HAL_Driver/Inc/stm32wlxx_ll_bus.h **** /**
 890:Drivers/STM32WLxx_HAL_Driver/Inc/stm32wlxx_ll_bus.h ****   * @brief  Enable APB1 peripherals clock.
 891:Drivers/STM32WLxx_HAL_Driver/Inc/stm32wlxx_ll_bus.h ****   * @rmtoll APB1ENR1     TIM2EN        LL_APB1_GRP1_EnableClock\n
 892:Drivers/STM32WLxx_HAL_Driver/Inc/stm32wlxx_ll_bus.h ****   *         APB1ENR1     RTCAPBEN      LL_APB1_GRP1_EnableClock\n
 893:Drivers/STM32WLxx_HAL_Driver/Inc/stm32wlxx_ll_bus.h ****   *         APB1ENR1     WWDGEN        LL_APB1_GRP1_EnableClock\n
 894:Drivers/STM32WLxx_HAL_Driver/Inc/stm32wlxx_ll_bus.h ****   *         APB1ENR1     SPI2EN        LL_APB1_GRP1_EnableClock\n
 895:Drivers/STM32WLxx_HAL_Driver/Inc/stm32wlxx_ll_bus.h ****   *         APB1ENR1     USART2EN      LL_APB1_GRP1_EnableClock\n
 896:Drivers/STM32WLxx_HAL_Driver/Inc/stm32wlxx_ll_bus.h ****   *         APB1ENR1     I2C1EN        LL_APB1_GRP1_EnableClock\n
 897:Drivers/STM32WLxx_HAL_Driver/Inc/stm32wlxx_ll_bus.h ****   *         APB1ENR1     I2C2EN        LL_APB1_GRP1_EnableClock\n
 898:Drivers/STM32WLxx_HAL_Driver/Inc/stm32wlxx_ll_bus.h ****   *         APB1ENR1     I2C3EN        LL_APB1_GRP1_EnableClock\n
 899:Drivers/STM32WLxx_HAL_Driver/Inc/stm32wlxx_ll_bus.h ****   *         APB1ENR1     DACEN         LL_APB1_GRP1_EnableClock\n
 900:Drivers/STM32WLxx_HAL_Driver/Inc/stm32wlxx_ll_bus.h ****   *         APB1ENR1     LPTIM1EN      LL_APB1_GRP1_EnableClock
 901:Drivers/STM32WLxx_HAL_Driver/Inc/stm32wlxx_ll_bus.h ****   * @param  Periphs This parameter can be a combination of the following values:
 902:Drivers/STM32WLxx_HAL_Driver/Inc/stm32wlxx_ll_bus.h ****   *         @arg @ref LL_APB1_GRP1_PERIPH_TIM2
 903:Drivers/STM32WLxx_HAL_Driver/Inc/stm32wlxx_ll_bus.h ****   *         @arg @ref LL_APB1_GRP1_PERIPH_RTCAPB
 904:Drivers/STM32WLxx_HAL_Driver/Inc/stm32wlxx_ll_bus.h ****   *         @arg @ref LL_APB1_GRP1_PERIPH_WWDG
 905:Drivers/STM32WLxx_HAL_Driver/Inc/stm32wlxx_ll_bus.h ****   *         @arg @ref LL_APB1_GRP1_PERIPH_SPI2
 906:Drivers/STM32WLxx_HAL_Driver/Inc/stm32wlxx_ll_bus.h ****   *         @arg @ref LL_APB1_GRP1_PERIPH_USART2
 907:Drivers/STM32WLxx_HAL_Driver/Inc/stm32wlxx_ll_bus.h ****   *         @arg @ref LL_APB1_GRP1_PERIPH_I2C1
 908:Drivers/STM32WLxx_HAL_Driver/Inc/stm32wlxx_ll_bus.h ****   *         @arg @ref LL_APB1_GRP1_PERIPH_I2C2
 909:Drivers/STM32WLxx_HAL_Driver/Inc/stm32wlxx_ll_bus.h ****   *         @arg @ref LL_APB1_GRP1_PERIPH_I2C3
 910:Drivers/STM32WLxx_HAL_Driver/Inc/stm32wlxx_ll_bus.h ****   *         @arg @ref LL_APB1_GRP1_PERIPH_DAC
 911:Drivers/STM32WLxx_HAL_Driver/Inc/stm32wlxx_ll_bus.h ****   *         @arg @ref LL_APB1_GRP1_PERIPH_LPTIM1
 912:Drivers/STM32WLxx_HAL_Driver/Inc/stm32wlxx_ll_bus.h ****   * @retval None
 913:Drivers/STM32WLxx_HAL_Driver/Inc/stm32wlxx_ll_bus.h ****   */
 914:Drivers/STM32WLxx_HAL_Driver/Inc/stm32wlxx_ll_bus.h **** __STATIC_INLINE void LL_APB1_GRP1_EnableClock(uint32_t Periphs)
 915:Drivers/STM32WLxx_HAL_Driver/Inc/stm32wlxx_ll_bus.h **** {
 916:Drivers/STM32WLxx_HAL_Driver/Inc/stm32wlxx_ll_bus.h ****   __IO uint32_t tmpreg;
 917:Drivers/STM32WLxx_HAL_Driver/Inc/stm32wlxx_ll_bus.h ****   SET_BIT(RCC->APB1ENR1, Periphs);
 918:Drivers/STM32WLxx_HAL_Driver/Inc/stm32wlxx_ll_bus.h ****   /* Delay after an RCC peripheral clock enabling */
 919:Drivers/STM32WLxx_HAL_Driver/Inc/stm32wlxx_ll_bus.h ****   tmpreg = READ_BIT(RCC->APB1ENR1, Periphs);
 920:Drivers/STM32WLxx_HAL_Driver/Inc/stm32wlxx_ll_bus.h ****   (void)tmpreg;
 921:Drivers/STM32WLxx_HAL_Driver/Inc/stm32wlxx_ll_bus.h **** }
 922:Drivers/STM32WLxx_HAL_Driver/Inc/stm32wlxx_ll_bus.h **** 
 923:Drivers/STM32WLxx_HAL_Driver/Inc/stm32wlxx_ll_bus.h **** /**
 924:Drivers/STM32WLxx_HAL_Driver/Inc/stm32wlxx_ll_bus.h ****   * @brief  Enable APB1 peripherals clock.
 925:Drivers/STM32WLxx_HAL_Driver/Inc/stm32wlxx_ll_bus.h ****   * @rmtoll APB1ENR2     LPUART1EN     LL_APB1_GRP2_EnableClock\n
 926:Drivers/STM32WLxx_HAL_Driver/Inc/stm32wlxx_ll_bus.h ****   *         APB1ENR2     LPTIM2EN      LL_APB1_GRP2_EnableClock
 927:Drivers/STM32WLxx_HAL_Driver/Inc/stm32wlxx_ll_bus.h ****   *         APB1ENR2     LPTIM3EN      LL_APB1_GRP2_EnableClock
 928:Drivers/STM32WLxx_HAL_Driver/Inc/stm32wlxx_ll_bus.h ****   * @param  Periphs This parameter can be a combination of the following values:
 929:Drivers/STM32WLxx_HAL_Driver/Inc/stm32wlxx_ll_bus.h ****   *         @arg @ref LL_APB1_GRP2_PERIPH_LPUART1
 930:Drivers/STM32WLxx_HAL_Driver/Inc/stm32wlxx_ll_bus.h ****   *         @arg @ref LL_APB1_GRP2_PERIPH_LPTIM2
 931:Drivers/STM32WLxx_HAL_Driver/Inc/stm32wlxx_ll_bus.h ****   *         @arg @ref LL_APB1_GRP2_PERIPH_LPTIM3
ARM GAS  /var/folders/9y/n02fl3g16gnf7ppy14xghdy80000gn/T//ccRSWXWQ.s 			page 23


 932:Drivers/STM32WLxx_HAL_Driver/Inc/stm32wlxx_ll_bus.h **** 
 933:Drivers/STM32WLxx_HAL_Driver/Inc/stm32wlxx_ll_bus.h ****   * @retval None
 934:Drivers/STM32WLxx_HAL_Driver/Inc/stm32wlxx_ll_bus.h ****   */
 935:Drivers/STM32WLxx_HAL_Driver/Inc/stm32wlxx_ll_bus.h **** __STATIC_INLINE void LL_APB1_GRP2_EnableClock(uint32_t Periphs)
 936:Drivers/STM32WLxx_HAL_Driver/Inc/stm32wlxx_ll_bus.h **** {
 937:Drivers/STM32WLxx_HAL_Driver/Inc/stm32wlxx_ll_bus.h ****   __IO uint32_t tmpreg;
 938:Drivers/STM32WLxx_HAL_Driver/Inc/stm32wlxx_ll_bus.h ****   SET_BIT(RCC->APB1ENR2, Periphs);
 939:Drivers/STM32WLxx_HAL_Driver/Inc/stm32wlxx_ll_bus.h ****   /* Delay after an RCC peripheral clock enabling */
 940:Drivers/STM32WLxx_HAL_Driver/Inc/stm32wlxx_ll_bus.h ****   tmpreg = READ_BIT(RCC->APB1ENR2, Periphs);
 941:Drivers/STM32WLxx_HAL_Driver/Inc/stm32wlxx_ll_bus.h ****   (void)tmpreg;
 942:Drivers/STM32WLxx_HAL_Driver/Inc/stm32wlxx_ll_bus.h **** }
 943:Drivers/STM32WLxx_HAL_Driver/Inc/stm32wlxx_ll_bus.h **** 
 944:Drivers/STM32WLxx_HAL_Driver/Inc/stm32wlxx_ll_bus.h **** /**
 945:Drivers/STM32WLxx_HAL_Driver/Inc/stm32wlxx_ll_bus.h ****   * @brief  Check if APB1 peripheral clock is enabled or not
 946:Drivers/STM32WLxx_HAL_Driver/Inc/stm32wlxx_ll_bus.h ****   * @rmtoll APB1ENR1     TIM2EN        LL_APB1_GRP1_IsEnabledClock\n
 947:Drivers/STM32WLxx_HAL_Driver/Inc/stm32wlxx_ll_bus.h ****   *         APB1ENR1     RTCAPBEN      LL_APB1_GRP1_IsEnabledClock\n
 948:Drivers/STM32WLxx_HAL_Driver/Inc/stm32wlxx_ll_bus.h ****   *         APB1ENR1     WWDGEN        LL_APB1_GRP1_IsEnabledClock\n
 949:Drivers/STM32WLxx_HAL_Driver/Inc/stm32wlxx_ll_bus.h ****   *         APB1ENR1     SPI2EN        LL_APB1_GRP1_IsEnabledClock\n
 950:Drivers/STM32WLxx_HAL_Driver/Inc/stm32wlxx_ll_bus.h ****   *         APB1ENR1     USART2EN      LL_APB1_GRP1_IsEnabledClock\n
 951:Drivers/STM32WLxx_HAL_Driver/Inc/stm32wlxx_ll_bus.h ****   *         APB1ENR1     I2C1EN        LL_APB1_GRP1_IsEnabledClock\n
 952:Drivers/STM32WLxx_HAL_Driver/Inc/stm32wlxx_ll_bus.h ****   *         APB1ENR1     I2C2EN        LL_APB1_GRP1_IsEnabledClock\n
 953:Drivers/STM32WLxx_HAL_Driver/Inc/stm32wlxx_ll_bus.h ****   *         APB1ENR1     I2C3EN        LL_APB1_GRP1_IsEnabledClock\n
 954:Drivers/STM32WLxx_HAL_Driver/Inc/stm32wlxx_ll_bus.h ****   *         APB1ENR1     DACEN         LL_APB1_GRP1_IsEnabledClock\n
 955:Drivers/STM32WLxx_HAL_Driver/Inc/stm32wlxx_ll_bus.h ****   *         APB1ENR1     LPTIM1EN      LL_APB1_GRP1_IsEnabledClock
 956:Drivers/STM32WLxx_HAL_Driver/Inc/stm32wlxx_ll_bus.h **** 
 957:Drivers/STM32WLxx_HAL_Driver/Inc/stm32wlxx_ll_bus.h ****   * @param  Periphs This parameter can be a combination of the following values:
 958:Drivers/STM32WLxx_HAL_Driver/Inc/stm32wlxx_ll_bus.h ****   *         @arg @ref LL_APB1_GRP1_PERIPH_TIM2
 959:Drivers/STM32WLxx_HAL_Driver/Inc/stm32wlxx_ll_bus.h ****   *         @arg @ref LL_APB1_GRP1_PERIPH_RTCAPB
 960:Drivers/STM32WLxx_HAL_Driver/Inc/stm32wlxx_ll_bus.h ****   *         @arg @ref LL_APB1_GRP1_PERIPH_WWDG
 961:Drivers/STM32WLxx_HAL_Driver/Inc/stm32wlxx_ll_bus.h ****   *         @arg @ref LL_APB1_GRP1_PERIPH_SPI2
 962:Drivers/STM32WLxx_HAL_Driver/Inc/stm32wlxx_ll_bus.h ****   *         @arg @ref LL_APB1_GRP1_PERIPH_USART2
 963:Drivers/STM32WLxx_HAL_Driver/Inc/stm32wlxx_ll_bus.h ****   *         @arg @ref LL_APB1_GRP1_PERIPH_I2C1
 964:Drivers/STM32WLxx_HAL_Driver/Inc/stm32wlxx_ll_bus.h ****   *         @arg @ref LL_APB1_GRP1_PERIPH_I2C2
 965:Drivers/STM32WLxx_HAL_Driver/Inc/stm32wlxx_ll_bus.h ****   *         @arg @ref LL_APB1_GRP1_PERIPH_I2C3
 966:Drivers/STM32WLxx_HAL_Driver/Inc/stm32wlxx_ll_bus.h ****   *         @arg @ref LL_APB1_GRP1_PERIPH_DAC
 967:Drivers/STM32WLxx_HAL_Driver/Inc/stm32wlxx_ll_bus.h ****   *         @arg @ref LL_APB1_GRP1_PERIPH_LPTIM1
 968:Drivers/STM32WLxx_HAL_Driver/Inc/stm32wlxx_ll_bus.h **** 
 969:Drivers/STM32WLxx_HAL_Driver/Inc/stm32wlxx_ll_bus.h ****   * @retval uint32_t
 970:Drivers/STM32WLxx_HAL_Driver/Inc/stm32wlxx_ll_bus.h ****   */
 971:Drivers/STM32WLxx_HAL_Driver/Inc/stm32wlxx_ll_bus.h **** __STATIC_INLINE uint32_t LL_APB1_GRP1_IsEnabledClock(uint32_t Periphs)
 972:Drivers/STM32WLxx_HAL_Driver/Inc/stm32wlxx_ll_bus.h **** {
 973:Drivers/STM32WLxx_HAL_Driver/Inc/stm32wlxx_ll_bus.h ****   return ((READ_BIT(RCC->APB1ENR1, Periphs) == (Periphs)) ? 1UL : 0UL);
 974:Drivers/STM32WLxx_HAL_Driver/Inc/stm32wlxx_ll_bus.h **** }
 975:Drivers/STM32WLxx_HAL_Driver/Inc/stm32wlxx_ll_bus.h **** 
 976:Drivers/STM32WLxx_HAL_Driver/Inc/stm32wlxx_ll_bus.h **** /**
 977:Drivers/STM32WLxx_HAL_Driver/Inc/stm32wlxx_ll_bus.h ****   * @brief  Check if APB1 peripheral clock is enabled or not
 978:Drivers/STM32WLxx_HAL_Driver/Inc/stm32wlxx_ll_bus.h ****   * @rmtoll APB1ENR2     LPUART1EN     LL_APB1_GRP2_IsEnabledClock\n
 979:Drivers/STM32WLxx_HAL_Driver/Inc/stm32wlxx_ll_bus.h ****   *         APB1ENR2     LPTIM2EN      LL_APB1_GRP2_IsEnabledClock
 980:Drivers/STM32WLxx_HAL_Driver/Inc/stm32wlxx_ll_bus.h ****   *         APB1ENR2     LPTIM3EN      LL_APB1_GRP2_IsEnabledClock
 981:Drivers/STM32WLxx_HAL_Driver/Inc/stm32wlxx_ll_bus.h ****   * @param  Periphs This parameter can be a combination of the following values:
 982:Drivers/STM32WLxx_HAL_Driver/Inc/stm32wlxx_ll_bus.h ****   *         @arg @ref LL_APB1_GRP2_PERIPH_LPUART1
 983:Drivers/STM32WLxx_HAL_Driver/Inc/stm32wlxx_ll_bus.h ****   *         @arg @ref LL_APB1_GRP2_PERIPH_LPTIM2
 984:Drivers/STM32WLxx_HAL_Driver/Inc/stm32wlxx_ll_bus.h ****   *         @arg @ref LL_APB1_GRP2_PERIPH_LPTIM3
 985:Drivers/STM32WLxx_HAL_Driver/Inc/stm32wlxx_ll_bus.h ****   * @retval uint32_t
 986:Drivers/STM32WLxx_HAL_Driver/Inc/stm32wlxx_ll_bus.h ****   */
 987:Drivers/STM32WLxx_HAL_Driver/Inc/stm32wlxx_ll_bus.h **** __STATIC_INLINE uint32_t LL_APB1_GRP2_IsEnabledClock(uint32_t Periphs)
 988:Drivers/STM32WLxx_HAL_Driver/Inc/stm32wlxx_ll_bus.h **** {
ARM GAS  /var/folders/9y/n02fl3g16gnf7ppy14xghdy80000gn/T//ccRSWXWQ.s 			page 24


 989:Drivers/STM32WLxx_HAL_Driver/Inc/stm32wlxx_ll_bus.h ****   return ((READ_BIT(RCC->APB1ENR2, Periphs) == (Periphs)) ? 1UL : 0UL);
 990:Drivers/STM32WLxx_HAL_Driver/Inc/stm32wlxx_ll_bus.h **** }
 991:Drivers/STM32WLxx_HAL_Driver/Inc/stm32wlxx_ll_bus.h **** 
 992:Drivers/STM32WLxx_HAL_Driver/Inc/stm32wlxx_ll_bus.h **** /**
 993:Drivers/STM32WLxx_HAL_Driver/Inc/stm32wlxx_ll_bus.h ****   * @brief  Disable APB1 peripherals clock.
 994:Drivers/STM32WLxx_HAL_Driver/Inc/stm32wlxx_ll_bus.h ****   * @rmtoll APB1ENR1     TIM2EN        LL_APB1_GRP1_DisableClock\n
 995:Drivers/STM32WLxx_HAL_Driver/Inc/stm32wlxx_ll_bus.h ****   *         APB1ENR1     RTCAPBEN      LL_APB1_GRP1_DisableClock\n
 996:Drivers/STM32WLxx_HAL_Driver/Inc/stm32wlxx_ll_bus.h ****   *         APB1ENR1     SPI2EN        LL_APB1_GRP1_DisableClock\n
 997:Drivers/STM32WLxx_HAL_Driver/Inc/stm32wlxx_ll_bus.h ****   *         APB1ENR1     USART2EN      LL_APB1_GRP1_DisableClock\n
 998:Drivers/STM32WLxx_HAL_Driver/Inc/stm32wlxx_ll_bus.h ****   *         APB1ENR1     I2C1EN        LL_APB1_GRP1_DisableClock\n
 999:Drivers/STM32WLxx_HAL_Driver/Inc/stm32wlxx_ll_bus.h ****   *         APB1ENR1     I2C2EN        LL_APB1_GRP1_DisableClock\n
1000:Drivers/STM32WLxx_HAL_Driver/Inc/stm32wlxx_ll_bus.h ****   *         APB1ENR1     I2C3EN        LL_APB1_GRP1_DisableClock\n
1001:Drivers/STM32WLxx_HAL_Driver/Inc/stm32wlxx_ll_bus.h ****   *         APB1ENR1     DACEN         LL_APB1_GRP1_DisableClock\n
1002:Drivers/STM32WLxx_HAL_Driver/Inc/stm32wlxx_ll_bus.h ****   *         APB1ENR1     LPTIM1EN      LL_APB1_GRP1_DisableClock
1003:Drivers/STM32WLxx_HAL_Driver/Inc/stm32wlxx_ll_bus.h **** 
1004:Drivers/STM32WLxx_HAL_Driver/Inc/stm32wlxx_ll_bus.h ****   * @param  Periphs This parameter can be a combination of the following values:
1005:Drivers/STM32WLxx_HAL_Driver/Inc/stm32wlxx_ll_bus.h ****   *         @arg @ref LL_APB1_GRP1_PERIPH_TIM2
1006:Drivers/STM32WLxx_HAL_Driver/Inc/stm32wlxx_ll_bus.h ****   *         @arg @ref LL_APB1_GRP1_PERIPH_RTCAPB
1007:Drivers/STM32WLxx_HAL_Driver/Inc/stm32wlxx_ll_bus.h ****   *         @arg @ref LL_APB1_GRP1_PERIPH_WWDG
1008:Drivers/STM32WLxx_HAL_Driver/Inc/stm32wlxx_ll_bus.h ****   *         @arg @ref LL_APB1_GRP1_PERIPH_SPI2
1009:Drivers/STM32WLxx_HAL_Driver/Inc/stm32wlxx_ll_bus.h ****   *         @arg @ref LL_APB1_GRP1_PERIPH_USART2
1010:Drivers/STM32WLxx_HAL_Driver/Inc/stm32wlxx_ll_bus.h ****   *         @arg @ref LL_APB1_GRP1_PERIPH_I2C1
1011:Drivers/STM32WLxx_HAL_Driver/Inc/stm32wlxx_ll_bus.h ****   *         @arg @ref LL_APB1_GRP1_PERIPH_I2C2
1012:Drivers/STM32WLxx_HAL_Driver/Inc/stm32wlxx_ll_bus.h ****   *         @arg @ref LL_APB1_GRP1_PERIPH_I2C3
1013:Drivers/STM32WLxx_HAL_Driver/Inc/stm32wlxx_ll_bus.h ****   *         @arg @ref LL_APB1_GRP1_PERIPH_DAC
1014:Drivers/STM32WLxx_HAL_Driver/Inc/stm32wlxx_ll_bus.h ****   *         @arg @ref LL_APB1_GRP1_PERIPH_LPTIM1
1015:Drivers/STM32WLxx_HAL_Driver/Inc/stm32wlxx_ll_bus.h **** 
1016:Drivers/STM32WLxx_HAL_Driver/Inc/stm32wlxx_ll_bus.h ****   * @retval None
1017:Drivers/STM32WLxx_HAL_Driver/Inc/stm32wlxx_ll_bus.h ****   */
1018:Drivers/STM32WLxx_HAL_Driver/Inc/stm32wlxx_ll_bus.h **** __STATIC_INLINE void LL_APB1_GRP1_DisableClock(uint32_t Periphs)
1019:Drivers/STM32WLxx_HAL_Driver/Inc/stm32wlxx_ll_bus.h **** {
1020:Drivers/STM32WLxx_HAL_Driver/Inc/stm32wlxx_ll_bus.h ****   CLEAR_BIT(RCC->APB1ENR1, Periphs);
1021:Drivers/STM32WLxx_HAL_Driver/Inc/stm32wlxx_ll_bus.h **** }
1022:Drivers/STM32WLxx_HAL_Driver/Inc/stm32wlxx_ll_bus.h **** 
1023:Drivers/STM32WLxx_HAL_Driver/Inc/stm32wlxx_ll_bus.h **** /**
1024:Drivers/STM32WLxx_HAL_Driver/Inc/stm32wlxx_ll_bus.h ****   * @brief  Disable APB1 peripherals clock.
1025:Drivers/STM32WLxx_HAL_Driver/Inc/stm32wlxx_ll_bus.h ****   * @rmtoll APB1ENR2     LPUART1EN     LL_APB1_GRP2_DisableClock\n
1026:Drivers/STM32WLxx_HAL_Driver/Inc/stm32wlxx_ll_bus.h ****   *         APB1ENR2     LPTIM2EN      LL_APB1_GRP2_DisableClock
1027:Drivers/STM32WLxx_HAL_Driver/Inc/stm32wlxx_ll_bus.h ****   *         APB1ENR2     LPTIM3EN      LL_APB1_GRP2_DisableClock
1028:Drivers/STM32WLxx_HAL_Driver/Inc/stm32wlxx_ll_bus.h ****   * @param  Periphs This parameter can be a combination of the following values:
1029:Drivers/STM32WLxx_HAL_Driver/Inc/stm32wlxx_ll_bus.h ****   *         @arg @ref LL_APB1_GRP2_PERIPH_LPUART1
1030:Drivers/STM32WLxx_HAL_Driver/Inc/stm32wlxx_ll_bus.h ****   *         @arg @ref LL_APB1_GRP2_PERIPH_LPTIM2
1031:Drivers/STM32WLxx_HAL_Driver/Inc/stm32wlxx_ll_bus.h ****   *         @arg @ref LL_APB1_GRP2_PERIPH_LPTIM3
1032:Drivers/STM32WLxx_HAL_Driver/Inc/stm32wlxx_ll_bus.h ****   * @retval None
1033:Drivers/STM32WLxx_HAL_Driver/Inc/stm32wlxx_ll_bus.h ****   */
1034:Drivers/STM32WLxx_HAL_Driver/Inc/stm32wlxx_ll_bus.h **** __STATIC_INLINE void LL_APB1_GRP2_DisableClock(uint32_t Periphs)
1035:Drivers/STM32WLxx_HAL_Driver/Inc/stm32wlxx_ll_bus.h **** {
1036:Drivers/STM32WLxx_HAL_Driver/Inc/stm32wlxx_ll_bus.h ****   CLEAR_BIT(RCC->APB1ENR2, Periphs);
1037:Drivers/STM32WLxx_HAL_Driver/Inc/stm32wlxx_ll_bus.h **** }
1038:Drivers/STM32WLxx_HAL_Driver/Inc/stm32wlxx_ll_bus.h **** 
1039:Drivers/STM32WLxx_HAL_Driver/Inc/stm32wlxx_ll_bus.h **** /**
1040:Drivers/STM32WLxx_HAL_Driver/Inc/stm32wlxx_ll_bus.h ****   * @brief  Force APB1 peripherals reset.
1041:Drivers/STM32WLxx_HAL_Driver/Inc/stm32wlxx_ll_bus.h ****   * @rmtoll APB1RSTR1    TIM2RST       LL_APB1_GRP1_ForceReset\n
1042:Drivers/STM32WLxx_HAL_Driver/Inc/stm32wlxx_ll_bus.h ****   *         APB1RSTR1    SPI2RST       LL_APB1_GRP1_ForceReset\n
1043:Drivers/STM32WLxx_HAL_Driver/Inc/stm32wlxx_ll_bus.h ****   *         APB1RSTR1    USART2RST     LL_APB1_GRP1_ForceReset\n
1044:Drivers/STM32WLxx_HAL_Driver/Inc/stm32wlxx_ll_bus.h ****   *         APB1RSTR1    I2C1RST       LL_APB1_GRP1_ForceReset\n
1045:Drivers/STM32WLxx_HAL_Driver/Inc/stm32wlxx_ll_bus.h ****   *         APB1RSTR1    I2C2RST       LL_APB1_GRP1_ForceReset\n
ARM GAS  /var/folders/9y/n02fl3g16gnf7ppy14xghdy80000gn/T//ccRSWXWQ.s 			page 25


1046:Drivers/STM32WLxx_HAL_Driver/Inc/stm32wlxx_ll_bus.h ****   *         APB1RSTR1    I2C3RST       LL_APB1_GRP1_ForceReset\n
1047:Drivers/STM32WLxx_HAL_Driver/Inc/stm32wlxx_ll_bus.h ****   *         APB1RSTR1    DACRST        LL_APB1_GRP1_ForceReset\n
1048:Drivers/STM32WLxx_HAL_Driver/Inc/stm32wlxx_ll_bus.h ****   *         APB1RSTR1    LPTIM1RST     LL_APB1_GRP1_ForceReset
1049:Drivers/STM32WLxx_HAL_Driver/Inc/stm32wlxx_ll_bus.h ****   * @param  Periphs This parameter can be a combination of the following values:
1050:Drivers/STM32WLxx_HAL_Driver/Inc/stm32wlxx_ll_bus.h ****   *         @arg @ref LL_APB1_GRP1_PERIPH_ALL
1051:Drivers/STM32WLxx_HAL_Driver/Inc/stm32wlxx_ll_bus.h ****   *         @arg @ref LL_APB1_GRP1_PERIPH_TIM2
1052:Drivers/STM32WLxx_HAL_Driver/Inc/stm32wlxx_ll_bus.h ****   *         @arg @ref LL_APB1_GRP1_PERIPH_SPI2
1053:Drivers/STM32WLxx_HAL_Driver/Inc/stm32wlxx_ll_bus.h ****   *         @arg @ref LL_APB1_GRP1_PERIPH_USART2
1054:Drivers/STM32WLxx_HAL_Driver/Inc/stm32wlxx_ll_bus.h ****   *         @arg @ref LL_APB1_GRP1_PERIPH_I2C1
1055:Drivers/STM32WLxx_HAL_Driver/Inc/stm32wlxx_ll_bus.h ****   *         @arg @ref LL_APB1_GRP1_PERIPH_I2C2
1056:Drivers/STM32WLxx_HAL_Driver/Inc/stm32wlxx_ll_bus.h ****   *         @arg @ref LL_APB1_GRP1_PERIPH_I2C3
1057:Drivers/STM32WLxx_HAL_Driver/Inc/stm32wlxx_ll_bus.h ****   *         @arg @ref LL_APB1_GRP1_PERIPH_DAC
1058:Drivers/STM32WLxx_HAL_Driver/Inc/stm32wlxx_ll_bus.h ****   *         @arg @ref LL_APB1_GRP1_PERIPH_LPTIM1
1059:Drivers/STM32WLxx_HAL_Driver/Inc/stm32wlxx_ll_bus.h **** 
1060:Drivers/STM32WLxx_HAL_Driver/Inc/stm32wlxx_ll_bus.h ****   * @retval None
1061:Drivers/STM32WLxx_HAL_Driver/Inc/stm32wlxx_ll_bus.h ****   */
1062:Drivers/STM32WLxx_HAL_Driver/Inc/stm32wlxx_ll_bus.h **** __STATIC_INLINE void LL_APB1_GRP1_ForceReset(uint32_t Periphs)
  81              		.loc 2 1062 22 view .LVU7
  82              	.LBB63:
1063:Drivers/STM32WLxx_HAL_Driver/Inc/stm32wlxx_ll_bus.h **** {
1064:Drivers/STM32WLxx_HAL_Driver/Inc/stm32wlxx_ll_bus.h ****   SET_BIT(RCC->APB1RSTR1, Periphs);
  83              		.loc 2 1064 3 view .LVU8
  84 0002 4FF0B043 		mov	r3, #1476395008
  85 0006 9A6B     		ldr	r2, [r3, #56]
  86 0008 4FF0FF32 		mov	r2, #-1
  87 000c 9A63     		str	r2, [r3, #56]
  88              	.LVL1:
  89              		.loc 2 1064 3 is_stmt 0 view .LVU9
  90              	.LBE63:
  91              	.LBE62:
 200:Drivers/STM32WLxx_HAL_Driver/Src/stm32wlxx_hal.c ****   __HAL_RCC_APB1_RELEASE_RESET();
  92              		.loc 1 200 3 is_stmt 1 view .LVU10
  93              	.LBB64:
  94              	.LBI64:
1065:Drivers/STM32WLxx_HAL_Driver/Inc/stm32wlxx_ll_bus.h **** }
1066:Drivers/STM32WLxx_HAL_Driver/Inc/stm32wlxx_ll_bus.h **** 
1067:Drivers/STM32WLxx_HAL_Driver/Inc/stm32wlxx_ll_bus.h **** /**
1068:Drivers/STM32WLxx_HAL_Driver/Inc/stm32wlxx_ll_bus.h ****   * @brief  Force APB1 peripherals reset.
1069:Drivers/STM32WLxx_HAL_Driver/Inc/stm32wlxx_ll_bus.h ****   * @rmtoll APB1RSTR2    LPUART1RST    LL_APB1_GRP2_ForceReset\n
1070:Drivers/STM32WLxx_HAL_Driver/Inc/stm32wlxx_ll_bus.h ****   *         APB1RSTR2    LPTIM2RST     LL_APB1_GRP2_ForceReset
1071:Drivers/STM32WLxx_HAL_Driver/Inc/stm32wlxx_ll_bus.h ****   *         APB1RSTR2    LPTIM3RST     LL_APB1_GRP2_ForceReset
1072:Drivers/STM32WLxx_HAL_Driver/Inc/stm32wlxx_ll_bus.h ****   * @param  Periphs This parameter can be a combination of the following values:
1073:Drivers/STM32WLxx_HAL_Driver/Inc/stm32wlxx_ll_bus.h ****   *         @arg @ref LL_APB1_GRP2_PERIPH_ALL
1074:Drivers/STM32WLxx_HAL_Driver/Inc/stm32wlxx_ll_bus.h ****   *         @arg @ref LL_APB1_GRP2_PERIPH_LPUART1
1075:Drivers/STM32WLxx_HAL_Driver/Inc/stm32wlxx_ll_bus.h ****   *         @arg @ref LL_APB1_GRP2_PERIPH_LPTIM2
1076:Drivers/STM32WLxx_HAL_Driver/Inc/stm32wlxx_ll_bus.h ****   *         @arg @ref LL_APB1_GRP2_PERIPH_LPTIM3
1077:Drivers/STM32WLxx_HAL_Driver/Inc/stm32wlxx_ll_bus.h ****   * @retval None
1078:Drivers/STM32WLxx_HAL_Driver/Inc/stm32wlxx_ll_bus.h ****   */
1079:Drivers/STM32WLxx_HAL_Driver/Inc/stm32wlxx_ll_bus.h **** __STATIC_INLINE void LL_APB1_GRP2_ForceReset(uint32_t Periphs)
  95              		.loc 2 1079 22 view .LVU11
  96              	.LBB65:
1080:Drivers/STM32WLxx_HAL_Driver/Inc/stm32wlxx_ll_bus.h **** {
1081:Drivers/STM32WLxx_HAL_Driver/Inc/stm32wlxx_ll_bus.h ****   SET_BIT(RCC->APB1RSTR2, Periphs);
  97              		.loc 2 1081 3 view .LVU12
  98 000e D96B     		ldr	r1, [r3, #60]
  99 0010 DA63     		str	r2, [r3, #60]
 100              	.LVL2:
ARM GAS  /var/folders/9y/n02fl3g16gnf7ppy14xghdy80000gn/T//ccRSWXWQ.s 			page 26


 101              		.loc 2 1081 3 is_stmt 0 view .LVU13
 102              	.LBE65:
 103              	.LBE64:
 200:Drivers/STM32WLxx_HAL_Driver/Src/stm32wlxx_hal.c ****   __HAL_RCC_APB1_RELEASE_RESET();
 104              		.loc 1 200 3 is_stmt 1 view .LVU14
 201:Drivers/STM32WLxx_HAL_Driver/Src/stm32wlxx_hal.c **** 
 105              		.loc 1 201 3 view .LVU15
 201:Drivers/STM32WLxx_HAL_Driver/Src/stm32wlxx_hal.c **** 
 106              		.loc 1 201 3 view .LVU16
 107              	.LBB66:
 108              	.LBI66:
1082:Drivers/STM32WLxx_HAL_Driver/Inc/stm32wlxx_ll_bus.h **** }
1083:Drivers/STM32WLxx_HAL_Driver/Inc/stm32wlxx_ll_bus.h **** 
1084:Drivers/STM32WLxx_HAL_Driver/Inc/stm32wlxx_ll_bus.h **** /**
1085:Drivers/STM32WLxx_HAL_Driver/Inc/stm32wlxx_ll_bus.h ****   * @brief  Release APB1 peripherals reset.
1086:Drivers/STM32WLxx_HAL_Driver/Inc/stm32wlxx_ll_bus.h ****   * @rmtoll APB1RSTR1    TIM2RST       LL_APB1_GRP1_ReleaseReset\n
1087:Drivers/STM32WLxx_HAL_Driver/Inc/stm32wlxx_ll_bus.h ****   *         APB1RSTR1    SPI2RST       LL_APB1_GRP1_ReleaseReset\n
1088:Drivers/STM32WLxx_HAL_Driver/Inc/stm32wlxx_ll_bus.h ****   *         APB1RSTR1    DACRST        LL_APB1_GRP1_ReleaseReset\n
1089:Drivers/STM32WLxx_HAL_Driver/Inc/stm32wlxx_ll_bus.h ****   *         APB1RSTR1    I2C1RST       LL_APB1_GRP1_ReleaseReset\n
1090:Drivers/STM32WLxx_HAL_Driver/Inc/stm32wlxx_ll_bus.h ****   *         APB1RSTR1    I2C2RST       LL_APB1_GRP1_ReleaseReset\n
1091:Drivers/STM32WLxx_HAL_Driver/Inc/stm32wlxx_ll_bus.h ****   *         APB1RSTR1    I2C3RST       LL_APB1_GRP1_ReleaseReset\n
1092:Drivers/STM32WLxx_HAL_Driver/Inc/stm32wlxx_ll_bus.h ****   *         APB1RSTR1    DACRST        LL_APB1_GRP1_ReleaseReset\n
1093:Drivers/STM32WLxx_HAL_Driver/Inc/stm32wlxx_ll_bus.h ****   *         APB1RSTR1    LPTIM1RST     LL_APB1_GRP1_ReleaseReset
1094:Drivers/STM32WLxx_HAL_Driver/Inc/stm32wlxx_ll_bus.h ****   * @param  Periphs This parameter can be a combination of the following values:
1095:Drivers/STM32WLxx_HAL_Driver/Inc/stm32wlxx_ll_bus.h ****   *         @arg @ref LL_APB1_GRP1_PERIPH_ALL
1096:Drivers/STM32WLxx_HAL_Driver/Inc/stm32wlxx_ll_bus.h ****   *         @arg @ref LL_APB1_GRP1_PERIPH_TIM2
1097:Drivers/STM32WLxx_HAL_Driver/Inc/stm32wlxx_ll_bus.h ****   *         @arg @ref LL_APB1_GRP1_PERIPH_SPI2
1098:Drivers/STM32WLxx_HAL_Driver/Inc/stm32wlxx_ll_bus.h ****   *         @arg @ref LL_APB1_GRP1_PERIPH_USART2
1099:Drivers/STM32WLxx_HAL_Driver/Inc/stm32wlxx_ll_bus.h ****   *         @arg @ref LL_APB1_GRP1_PERIPH_I2C1
1100:Drivers/STM32WLxx_HAL_Driver/Inc/stm32wlxx_ll_bus.h ****   *         @arg @ref LL_APB1_GRP1_PERIPH_I2C2
1101:Drivers/STM32WLxx_HAL_Driver/Inc/stm32wlxx_ll_bus.h ****   *         @arg @ref LL_APB1_GRP1_PERIPH_I2C3
1102:Drivers/STM32WLxx_HAL_Driver/Inc/stm32wlxx_ll_bus.h ****   *         @arg @ref LL_APB1_GRP1_PERIPH_DAC
1103:Drivers/STM32WLxx_HAL_Driver/Inc/stm32wlxx_ll_bus.h ****   *         @arg @ref LL_APB1_GRP1_PERIPH_LPTIM1
1104:Drivers/STM32WLxx_HAL_Driver/Inc/stm32wlxx_ll_bus.h **** 
1105:Drivers/STM32WLxx_HAL_Driver/Inc/stm32wlxx_ll_bus.h ****   * @retval None
1106:Drivers/STM32WLxx_HAL_Driver/Inc/stm32wlxx_ll_bus.h ****   */
1107:Drivers/STM32WLxx_HAL_Driver/Inc/stm32wlxx_ll_bus.h **** __STATIC_INLINE void LL_APB1_GRP1_ReleaseReset(uint32_t Periphs)
 109              		.loc 2 1107 22 view .LVU17
 110              	.LBB67:
1108:Drivers/STM32WLxx_HAL_Driver/Inc/stm32wlxx_ll_bus.h **** {
1109:Drivers/STM32WLxx_HAL_Driver/Inc/stm32wlxx_ll_bus.h ****   CLEAR_BIT(RCC->APB1RSTR1, Periphs);
 111              		.loc 2 1109 3 view .LVU18
 112 0012 996B     		ldr	r1, [r3, #56]
 113 0014 0024     		movs	r4, #0
 114 0016 9C63     		str	r4, [r3, #56]
 115              	.LVL3:
 116              		.loc 2 1109 3 is_stmt 0 view .LVU19
 117              	.LBE67:
 118              	.LBE66:
 201:Drivers/STM32WLxx_HAL_Driver/Src/stm32wlxx_hal.c **** 
 119              		.loc 1 201 3 is_stmt 1 view .LVU20
 120              	.LBB68:
 121              	.LBI68:
1110:Drivers/STM32WLxx_HAL_Driver/Inc/stm32wlxx_ll_bus.h **** }
1111:Drivers/STM32WLxx_HAL_Driver/Inc/stm32wlxx_ll_bus.h **** 
1112:Drivers/STM32WLxx_HAL_Driver/Inc/stm32wlxx_ll_bus.h **** /**
1113:Drivers/STM32WLxx_HAL_Driver/Inc/stm32wlxx_ll_bus.h ****   * @brief  Release APB1 peripherals reset.
ARM GAS  /var/folders/9y/n02fl3g16gnf7ppy14xghdy80000gn/T//ccRSWXWQ.s 			page 27


1114:Drivers/STM32WLxx_HAL_Driver/Inc/stm32wlxx_ll_bus.h ****   * @rmtoll APB1RSTR2    LPUART1RST    LL_APB1_GRP2_ReleaseReset\n
1115:Drivers/STM32WLxx_HAL_Driver/Inc/stm32wlxx_ll_bus.h ****   *         APB1RSTR2    LPTIM2RST     LL_APB1_GRP2_ReleaseReset
1116:Drivers/STM32WLxx_HAL_Driver/Inc/stm32wlxx_ll_bus.h ****   *         APB1RSTR2    LPTIM3RST     LL_APB1_GRP2_ReleaseReset
1117:Drivers/STM32WLxx_HAL_Driver/Inc/stm32wlxx_ll_bus.h ****   * @param  Periphs This parameter can be a combination of the following values:
1118:Drivers/STM32WLxx_HAL_Driver/Inc/stm32wlxx_ll_bus.h ****   *         @arg @ref LL_APB1_GRP2_PERIPH_ALL
1119:Drivers/STM32WLxx_HAL_Driver/Inc/stm32wlxx_ll_bus.h ****   *         @arg @ref LL_APB1_GRP2_PERIPH_LPUART1
1120:Drivers/STM32WLxx_HAL_Driver/Inc/stm32wlxx_ll_bus.h ****   *         @arg @ref LL_APB1_GRP2_PERIPH_LPTIM2
1121:Drivers/STM32WLxx_HAL_Driver/Inc/stm32wlxx_ll_bus.h ****   *         @arg @ref LL_APB1_GRP2_PERIPH_LPTIM3
1122:Drivers/STM32WLxx_HAL_Driver/Inc/stm32wlxx_ll_bus.h ****   * @retval None
1123:Drivers/STM32WLxx_HAL_Driver/Inc/stm32wlxx_ll_bus.h ****   */
1124:Drivers/STM32WLxx_HAL_Driver/Inc/stm32wlxx_ll_bus.h **** __STATIC_INLINE void LL_APB1_GRP2_ReleaseReset(uint32_t Periphs)
 122              		.loc 2 1124 22 view .LVU21
 123              	.LBB69:
1125:Drivers/STM32WLxx_HAL_Driver/Inc/stm32wlxx_ll_bus.h **** {
1126:Drivers/STM32WLxx_HAL_Driver/Inc/stm32wlxx_ll_bus.h ****   CLEAR_BIT(RCC->APB1RSTR2, Periphs);
 124              		.loc 2 1126 3 view .LVU22
 125 0018 D96B     		ldr	r1, [r3, #60]
 126 001a DC63     		str	r4, [r3, #60]
 127              	.LVL4:
 128              		.loc 2 1126 3 is_stmt 0 view .LVU23
 129              	.LBE69:
 130              	.LBE68:
 201:Drivers/STM32WLxx_HAL_Driver/Src/stm32wlxx_hal.c **** 
 131              		.loc 1 201 3 is_stmt 1 view .LVU24
 203:Drivers/STM32WLxx_HAL_Driver/Src/stm32wlxx_hal.c ****   __HAL_RCC_APB2_RELEASE_RESET();
 132              		.loc 1 203 3 view .LVU25
 133              	.LBB70:
 134              	.LBI70:
1127:Drivers/STM32WLxx_HAL_Driver/Inc/stm32wlxx_ll_bus.h **** }
1128:Drivers/STM32WLxx_HAL_Driver/Inc/stm32wlxx_ll_bus.h **** 
1129:Drivers/STM32WLxx_HAL_Driver/Inc/stm32wlxx_ll_bus.h **** /**
1130:Drivers/STM32WLxx_HAL_Driver/Inc/stm32wlxx_ll_bus.h ****   * @brief  Enable APB1 peripherals clock during Low Power (Sleep) mode.
1131:Drivers/STM32WLxx_HAL_Driver/Inc/stm32wlxx_ll_bus.h ****   * @rmtoll APB1SMENR1   TIM2SMEN      LL_APB1_GRP1_EnableClockSleep\n
1132:Drivers/STM32WLxx_HAL_Driver/Inc/stm32wlxx_ll_bus.h ****   *         APB1SMENR1   RTCAPBSMEN    LL_APB1_GRP1_EnableClockSleep\n
1133:Drivers/STM32WLxx_HAL_Driver/Inc/stm32wlxx_ll_bus.h ****   *         APB1SMENR1   WWDGSMEN      LL_APB1_GRP1_EnableClockSleep\n
1134:Drivers/STM32WLxx_HAL_Driver/Inc/stm32wlxx_ll_bus.h ****   *         APB1SMENR1   SPI2SMEN      LL_APB1_GRP1_EnableClockSleep\n
1135:Drivers/STM32WLxx_HAL_Driver/Inc/stm32wlxx_ll_bus.h ****   *         APB1SMENR1   USART2SMEN    LL_APB1_GRP1_EnableClockSleep\n
1136:Drivers/STM32WLxx_HAL_Driver/Inc/stm32wlxx_ll_bus.h ****   *         APB1SMENR1   I2C1SMEN      LL_APB1_GRP1_EnableClockSleep\n
1137:Drivers/STM32WLxx_HAL_Driver/Inc/stm32wlxx_ll_bus.h ****   *         APB1SMENR1   I2C2SMEN      LL_APB1_GRP1_EnableClockSleep\n
1138:Drivers/STM32WLxx_HAL_Driver/Inc/stm32wlxx_ll_bus.h ****   *         APB1SMENR1   I2C3SMEN      LL_APB1_GRP1_EnableClockSleep\n
1139:Drivers/STM32WLxx_HAL_Driver/Inc/stm32wlxx_ll_bus.h ****   *         APB1SMENR1   DACSMEN       LL_APB1_GRP1_EnableClockSleep\n
1140:Drivers/STM32WLxx_HAL_Driver/Inc/stm32wlxx_ll_bus.h ****   *         APB1SMENR1   LPTIM1SMEN    LL_APB1_GRP1_EnableClockSleep
1141:Drivers/STM32WLxx_HAL_Driver/Inc/stm32wlxx_ll_bus.h ****   * @param  Periphs This parameter can be a combination of the following values:
1142:Drivers/STM32WLxx_HAL_Driver/Inc/stm32wlxx_ll_bus.h ****   *         @arg @ref LL_APB1_GRP1_PERIPH_TIM2
1143:Drivers/STM32WLxx_HAL_Driver/Inc/stm32wlxx_ll_bus.h ****   *         @arg @ref LL_APB1_GRP1_PERIPH_RTCAPB
1144:Drivers/STM32WLxx_HAL_Driver/Inc/stm32wlxx_ll_bus.h ****   *         @arg @ref LL_APB1_GRP1_PERIPH_WWDG
1145:Drivers/STM32WLxx_HAL_Driver/Inc/stm32wlxx_ll_bus.h ****   *         @arg @ref LL_APB1_GRP1_PERIPH_SPI2
1146:Drivers/STM32WLxx_HAL_Driver/Inc/stm32wlxx_ll_bus.h ****   *         @arg @ref LL_APB1_GRP1_PERIPH_USART2
1147:Drivers/STM32WLxx_HAL_Driver/Inc/stm32wlxx_ll_bus.h ****   *         @arg @ref LL_APB1_GRP1_PERIPH_I2C1
1148:Drivers/STM32WLxx_HAL_Driver/Inc/stm32wlxx_ll_bus.h ****   *         @arg @ref LL_APB1_GRP1_PERIPH_I2C2
1149:Drivers/STM32WLxx_HAL_Driver/Inc/stm32wlxx_ll_bus.h ****   *         @arg @ref LL_APB1_GRP1_PERIPH_I2C3
1150:Drivers/STM32WLxx_HAL_Driver/Inc/stm32wlxx_ll_bus.h ****   *         @arg @ref LL_APB1_GRP1_PERIPH_DAC
1151:Drivers/STM32WLxx_HAL_Driver/Inc/stm32wlxx_ll_bus.h ****   *         @arg @ref LL_APB1_GRP1_PERIPH_LPTIM1
1152:Drivers/STM32WLxx_HAL_Driver/Inc/stm32wlxx_ll_bus.h **** 
1153:Drivers/STM32WLxx_HAL_Driver/Inc/stm32wlxx_ll_bus.h ****   * @retval None
1154:Drivers/STM32WLxx_HAL_Driver/Inc/stm32wlxx_ll_bus.h ****   */
1155:Drivers/STM32WLxx_HAL_Driver/Inc/stm32wlxx_ll_bus.h **** __STATIC_INLINE void LL_APB1_GRP1_EnableClockSleep(uint32_t Periphs)
ARM GAS  /var/folders/9y/n02fl3g16gnf7ppy14xghdy80000gn/T//ccRSWXWQ.s 			page 28


1156:Drivers/STM32WLxx_HAL_Driver/Inc/stm32wlxx_ll_bus.h **** {
1157:Drivers/STM32WLxx_HAL_Driver/Inc/stm32wlxx_ll_bus.h ****   __IO uint32_t tmpreg;
1158:Drivers/STM32WLxx_HAL_Driver/Inc/stm32wlxx_ll_bus.h ****   SET_BIT(RCC->APB1SMENR1, Periphs);
1159:Drivers/STM32WLxx_HAL_Driver/Inc/stm32wlxx_ll_bus.h ****   /* Delay after an RCC peripheral clock enabling */
1160:Drivers/STM32WLxx_HAL_Driver/Inc/stm32wlxx_ll_bus.h ****   tmpreg = READ_BIT(RCC->APB1SMENR1, Periphs);
1161:Drivers/STM32WLxx_HAL_Driver/Inc/stm32wlxx_ll_bus.h ****   (void)tmpreg;
1162:Drivers/STM32WLxx_HAL_Driver/Inc/stm32wlxx_ll_bus.h **** }
1163:Drivers/STM32WLxx_HAL_Driver/Inc/stm32wlxx_ll_bus.h **** 
1164:Drivers/STM32WLxx_HAL_Driver/Inc/stm32wlxx_ll_bus.h **** /**
1165:Drivers/STM32WLxx_HAL_Driver/Inc/stm32wlxx_ll_bus.h ****   * @brief  Enable APB1 peripherals clock during Low Power (Sleep) mode.
1166:Drivers/STM32WLxx_HAL_Driver/Inc/stm32wlxx_ll_bus.h ****   * @rmtoll APB1SMENR2   LPUART1SMEN   LL_APB1_GRP2_EnableClockSleep\n
1167:Drivers/STM32WLxx_HAL_Driver/Inc/stm32wlxx_ll_bus.h ****   *         APB1SMENR2   LPTIM2SMEN    LL_APB1_GRP2_EnableClockSleep
1168:Drivers/STM32WLxx_HAL_Driver/Inc/stm32wlxx_ll_bus.h ****   *         APB1SMENR2   LPTIM3SMEN    LL_APB1_GRP2_EnableClockSleep
1169:Drivers/STM32WLxx_HAL_Driver/Inc/stm32wlxx_ll_bus.h ****   * @param  Periphs This parameter can be a combination of the following values:
1170:Drivers/STM32WLxx_HAL_Driver/Inc/stm32wlxx_ll_bus.h ****   *         @arg @ref LL_APB1_GRP2_PERIPH_LPUART1
1171:Drivers/STM32WLxx_HAL_Driver/Inc/stm32wlxx_ll_bus.h ****   *         @arg @ref LL_APB1_GRP2_PERIPH_LPTIM2
1172:Drivers/STM32WLxx_HAL_Driver/Inc/stm32wlxx_ll_bus.h ****   *         @arg @ref LL_APB1_GRP2_PERIPH_LPTIM3
1173:Drivers/STM32WLxx_HAL_Driver/Inc/stm32wlxx_ll_bus.h ****   * @retval None
1174:Drivers/STM32WLxx_HAL_Driver/Inc/stm32wlxx_ll_bus.h ****   */
1175:Drivers/STM32WLxx_HAL_Driver/Inc/stm32wlxx_ll_bus.h **** __STATIC_INLINE void LL_APB1_GRP2_EnableClockSleep(uint32_t Periphs)
1176:Drivers/STM32WLxx_HAL_Driver/Inc/stm32wlxx_ll_bus.h **** {
1177:Drivers/STM32WLxx_HAL_Driver/Inc/stm32wlxx_ll_bus.h ****   __IO uint32_t tmpreg;
1178:Drivers/STM32WLxx_HAL_Driver/Inc/stm32wlxx_ll_bus.h ****   SET_BIT(RCC->APB1SMENR2, Periphs);
1179:Drivers/STM32WLxx_HAL_Driver/Inc/stm32wlxx_ll_bus.h ****   /* Delay after an RCC peripheral clock enabling */
1180:Drivers/STM32WLxx_HAL_Driver/Inc/stm32wlxx_ll_bus.h ****   tmpreg = READ_BIT(RCC->APB1SMENR2, Periphs);
1181:Drivers/STM32WLxx_HAL_Driver/Inc/stm32wlxx_ll_bus.h ****   (void)tmpreg;
1182:Drivers/STM32WLxx_HAL_Driver/Inc/stm32wlxx_ll_bus.h **** }
1183:Drivers/STM32WLxx_HAL_Driver/Inc/stm32wlxx_ll_bus.h **** 
1184:Drivers/STM32WLxx_HAL_Driver/Inc/stm32wlxx_ll_bus.h **** /**
1185:Drivers/STM32WLxx_HAL_Driver/Inc/stm32wlxx_ll_bus.h ****   * @brief  Check if APB1 clock is enabled by the clock gating during CPU1 CSleep mode
1186:Drivers/STM32WLxx_HAL_Driver/Inc/stm32wlxx_ll_bus.h ****   * @rmtoll APB1SMENR1   TIM2SMEN      LL_APB1_GRP1_IsEnabledClockSleep\n
1187:Drivers/STM32WLxx_HAL_Driver/Inc/stm32wlxx_ll_bus.h ****   *         APB1SMENR1   RTCAPBSMEN    LL_APB1_GRP1_IsEnabledClockSleep\n
1188:Drivers/STM32WLxx_HAL_Driver/Inc/stm32wlxx_ll_bus.h ****   *         APB1SMENR1   WWDGSMEN      LL_APB1_GRP1_IsEnabledClockSleep\n
1189:Drivers/STM32WLxx_HAL_Driver/Inc/stm32wlxx_ll_bus.h ****   *         APB1SMENR1   SPI2SMEN      LL_APB1_GRP1_IsEnabledClockSleep\n
1190:Drivers/STM32WLxx_HAL_Driver/Inc/stm32wlxx_ll_bus.h ****   *         APB1SMENR1   USART2SMEN    LL_APB1_GRP1_IsEnabledClockSleep\n
1191:Drivers/STM32WLxx_HAL_Driver/Inc/stm32wlxx_ll_bus.h ****   *         APB1SMENR1   I2C1SMEN      LL_APB1_GRP1_IsEnabledClockSleep\n
1192:Drivers/STM32WLxx_HAL_Driver/Inc/stm32wlxx_ll_bus.h ****   *         APB1SMENR1   I2C2SMEN      LL_APB1_GRP1_IsEnabledClockSleep\n
1193:Drivers/STM32WLxx_HAL_Driver/Inc/stm32wlxx_ll_bus.h ****   *         APB1SMENR1   I2C3SMEN      LL_APB1_GRP1_IsEnabledClockSleep\n
1194:Drivers/STM32WLxx_HAL_Driver/Inc/stm32wlxx_ll_bus.h ****   *         APB1SMENR1   DACSMEN       LL_APB1_GRP1_IsEnabledClockSleep\n
1195:Drivers/STM32WLxx_HAL_Driver/Inc/stm32wlxx_ll_bus.h ****   *         APB1SMENR1   LPTIM1SMEN    LL_APB1_GRP1_IsEnabledClockSleep
1196:Drivers/STM32WLxx_HAL_Driver/Inc/stm32wlxx_ll_bus.h ****   * @param  Periphs This parameter can be a combination of the following values:
1197:Drivers/STM32WLxx_HAL_Driver/Inc/stm32wlxx_ll_bus.h ****   *         @arg @ref LL_APB1_GRP1_PERIPH_TIM2
1198:Drivers/STM32WLxx_HAL_Driver/Inc/stm32wlxx_ll_bus.h ****   *         @arg @ref LL_APB1_GRP1_PERIPH_RTCAPB
1199:Drivers/STM32WLxx_HAL_Driver/Inc/stm32wlxx_ll_bus.h ****   *         @arg @ref LL_APB1_GRP1_PERIPH_WWDG
1200:Drivers/STM32WLxx_HAL_Driver/Inc/stm32wlxx_ll_bus.h ****   *         @arg @ref LL_APB1_GRP1_PERIPH_SPI2
1201:Drivers/STM32WLxx_HAL_Driver/Inc/stm32wlxx_ll_bus.h ****   *         @arg @ref LL_APB1_GRP1_PERIPH_USART2
1202:Drivers/STM32WLxx_HAL_Driver/Inc/stm32wlxx_ll_bus.h ****   *         @arg @ref LL_APB1_GRP1_PERIPH_I2C1
1203:Drivers/STM32WLxx_HAL_Driver/Inc/stm32wlxx_ll_bus.h ****   *         @arg @ref LL_APB1_GRP1_PERIPH_I2C2
1204:Drivers/STM32WLxx_HAL_Driver/Inc/stm32wlxx_ll_bus.h ****   *         @arg @ref LL_APB1_GRP1_PERIPH_I2C3
1205:Drivers/STM32WLxx_HAL_Driver/Inc/stm32wlxx_ll_bus.h ****   *         @arg @ref LL_APB1_GRP1_PERIPH_DAC
1206:Drivers/STM32WLxx_HAL_Driver/Inc/stm32wlxx_ll_bus.h ****   *         @arg @ref LL_APB1_GRP1_PERIPH_LPTIM1
1207:Drivers/STM32WLxx_HAL_Driver/Inc/stm32wlxx_ll_bus.h **** 
1208:Drivers/STM32WLxx_HAL_Driver/Inc/stm32wlxx_ll_bus.h ****   * @retval None
1209:Drivers/STM32WLxx_HAL_Driver/Inc/stm32wlxx_ll_bus.h ****   */
1210:Drivers/STM32WLxx_HAL_Driver/Inc/stm32wlxx_ll_bus.h **** __STATIC_INLINE uint32_t LL_APB1_GRP1_IsEnabledClockSleep(uint32_t Periphs)
1211:Drivers/STM32WLxx_HAL_Driver/Inc/stm32wlxx_ll_bus.h **** {
1212:Drivers/STM32WLxx_HAL_Driver/Inc/stm32wlxx_ll_bus.h ****   return ((READ_BIT(RCC->APB1SMENR1, Periphs) == (Periphs)) ? 1UL : 0UL);
ARM GAS  /var/folders/9y/n02fl3g16gnf7ppy14xghdy80000gn/T//ccRSWXWQ.s 			page 29


1213:Drivers/STM32WLxx_HAL_Driver/Inc/stm32wlxx_ll_bus.h **** }
1214:Drivers/STM32WLxx_HAL_Driver/Inc/stm32wlxx_ll_bus.h **** 
1215:Drivers/STM32WLxx_HAL_Driver/Inc/stm32wlxx_ll_bus.h **** /**
1216:Drivers/STM32WLxx_HAL_Driver/Inc/stm32wlxx_ll_bus.h ****   * @brief  Check if APB1 clock is enabled by the clock gating during CPU1 CSleep mode
1217:Drivers/STM32WLxx_HAL_Driver/Inc/stm32wlxx_ll_bus.h ****   * @rmtoll APB1SMENR2   LPUART1SMEN   LL_APB1_GRP2_IsEnabledClockSleep\n
1218:Drivers/STM32WLxx_HAL_Driver/Inc/stm32wlxx_ll_bus.h ****   *         APB1SMENR2   LPTIM2SMEN    LL_APB1_GRP2_IsEnabledClockSleep\n
1219:Drivers/STM32WLxx_HAL_Driver/Inc/stm32wlxx_ll_bus.h ****   *         APB1SMENR2   LPTIM3SMEN    LL_APB1_GRP2_IsEnabledClockSleep
1220:Drivers/STM32WLxx_HAL_Driver/Inc/stm32wlxx_ll_bus.h ****   * @param  Periphs This parameter can be a combination of the following values:
1221:Drivers/STM32WLxx_HAL_Driver/Inc/stm32wlxx_ll_bus.h ****   *         @arg @ref LL_APB1_GRP2_PERIPH_LPUART1
1222:Drivers/STM32WLxx_HAL_Driver/Inc/stm32wlxx_ll_bus.h ****   *         @arg @ref LL_APB1_GRP2_PERIPH_LPTIM2
1223:Drivers/STM32WLxx_HAL_Driver/Inc/stm32wlxx_ll_bus.h ****   *         @arg @ref LL_APB1_GRP2_PERIPH_LPTIM3
1224:Drivers/STM32WLxx_HAL_Driver/Inc/stm32wlxx_ll_bus.h ****   * @retval None
1225:Drivers/STM32WLxx_HAL_Driver/Inc/stm32wlxx_ll_bus.h ****   */
1226:Drivers/STM32WLxx_HAL_Driver/Inc/stm32wlxx_ll_bus.h **** __STATIC_INLINE uint32_t LL_APB1_GRP2_IsEnabledClockSleep(uint32_t Periphs)
1227:Drivers/STM32WLxx_HAL_Driver/Inc/stm32wlxx_ll_bus.h **** {
1228:Drivers/STM32WLxx_HAL_Driver/Inc/stm32wlxx_ll_bus.h ****   return ((READ_BIT(RCC->APB1SMENR2, Periphs) == (Periphs)) ? 1UL : 0UL);
1229:Drivers/STM32WLxx_HAL_Driver/Inc/stm32wlxx_ll_bus.h **** }
1230:Drivers/STM32WLxx_HAL_Driver/Inc/stm32wlxx_ll_bus.h **** 
1231:Drivers/STM32WLxx_HAL_Driver/Inc/stm32wlxx_ll_bus.h **** /**
1232:Drivers/STM32WLxx_HAL_Driver/Inc/stm32wlxx_ll_bus.h ****   * @brief  Disable APB1 peripherals clock during Low Power (Sleep) mode.
1233:Drivers/STM32WLxx_HAL_Driver/Inc/stm32wlxx_ll_bus.h ****   * @rmtoll APB1SMENR1   TIM2SMEN      LL_APB1_GRP1_DisableClockSleep\n
1234:Drivers/STM32WLxx_HAL_Driver/Inc/stm32wlxx_ll_bus.h ****   *         APB1SMENR1   RTCAPBSMEN    LL_APB1_GRP1_DisableClockSleep\n
1235:Drivers/STM32WLxx_HAL_Driver/Inc/stm32wlxx_ll_bus.h ****   *         APB1SMENR1   WWDGSMEN      LL_APB1_GRP1_DisableClockSleep\n
1236:Drivers/STM32WLxx_HAL_Driver/Inc/stm32wlxx_ll_bus.h ****   *         APB1SMENR1   SPI2SMEN      LL_APB1_GRP1_DisableClockSleep\n
1237:Drivers/STM32WLxx_HAL_Driver/Inc/stm32wlxx_ll_bus.h ****   *         APB1SMENR1   USART2SMEN    LL_APB1_GRP1_DisableClockSleep\n
1238:Drivers/STM32WLxx_HAL_Driver/Inc/stm32wlxx_ll_bus.h ****   *         APB1SMENR1   I2C1SMEN      LL_APB1_GRP1_DisableClockSleep\n
1239:Drivers/STM32WLxx_HAL_Driver/Inc/stm32wlxx_ll_bus.h ****   *         APB1SMENR1   I2C2SMEN      LL_APB1_GRP1_DisableClockSleep\n
1240:Drivers/STM32WLxx_HAL_Driver/Inc/stm32wlxx_ll_bus.h ****   *         APB1SMENR1   I2C3SMEN      LL_APB1_GRP1_DisableClockSleep\n
1241:Drivers/STM32WLxx_HAL_Driver/Inc/stm32wlxx_ll_bus.h ****   *         APB1SMENR1   DACSMEN       LL_APB1_GRP1_DisableClockSleep\n
1242:Drivers/STM32WLxx_HAL_Driver/Inc/stm32wlxx_ll_bus.h ****   *         APB1SMENR1   LPTIM1SMEN    LL_APB1_GRP1_DisableClockSleep
1243:Drivers/STM32WLxx_HAL_Driver/Inc/stm32wlxx_ll_bus.h ****   * @param  Periphs This parameter can be a combination of the following values:
1244:Drivers/STM32WLxx_HAL_Driver/Inc/stm32wlxx_ll_bus.h ****   *         @arg @ref LL_APB1_GRP1_PERIPH_TIM2
1245:Drivers/STM32WLxx_HAL_Driver/Inc/stm32wlxx_ll_bus.h ****   *         @arg @ref LL_APB1_GRP1_PERIPH_RTCAPB
1246:Drivers/STM32WLxx_HAL_Driver/Inc/stm32wlxx_ll_bus.h ****   *         @arg @ref LL_APB1_GRP1_PERIPH_WWDG
1247:Drivers/STM32WLxx_HAL_Driver/Inc/stm32wlxx_ll_bus.h ****   *         @arg @ref LL_APB1_GRP1_PERIPH_SPI2
1248:Drivers/STM32WLxx_HAL_Driver/Inc/stm32wlxx_ll_bus.h ****   *         @arg @ref LL_APB1_GRP1_PERIPH_USART2
1249:Drivers/STM32WLxx_HAL_Driver/Inc/stm32wlxx_ll_bus.h ****   *         @arg @ref LL_APB1_GRP1_PERIPH_I2C1
1250:Drivers/STM32WLxx_HAL_Driver/Inc/stm32wlxx_ll_bus.h ****   *         @arg @ref LL_APB1_GRP1_PERIPH_I2C2
1251:Drivers/STM32WLxx_HAL_Driver/Inc/stm32wlxx_ll_bus.h ****   *         @arg @ref LL_APB1_GRP1_PERIPH_I2C3
1252:Drivers/STM32WLxx_HAL_Driver/Inc/stm32wlxx_ll_bus.h ****   *         @arg @ref LL_APB1_GRP1_PERIPH_DAC
1253:Drivers/STM32WLxx_HAL_Driver/Inc/stm32wlxx_ll_bus.h ****   *         @arg @ref LL_APB1_GRP1_PERIPH_LPTIM1
1254:Drivers/STM32WLxx_HAL_Driver/Inc/stm32wlxx_ll_bus.h **** 
1255:Drivers/STM32WLxx_HAL_Driver/Inc/stm32wlxx_ll_bus.h ****   * @retval None
1256:Drivers/STM32WLxx_HAL_Driver/Inc/stm32wlxx_ll_bus.h ****   */
1257:Drivers/STM32WLxx_HAL_Driver/Inc/stm32wlxx_ll_bus.h **** __STATIC_INLINE void LL_APB1_GRP1_DisableClockSleep(uint32_t Periphs)
1258:Drivers/STM32WLxx_HAL_Driver/Inc/stm32wlxx_ll_bus.h **** {
1259:Drivers/STM32WLxx_HAL_Driver/Inc/stm32wlxx_ll_bus.h ****   CLEAR_BIT(RCC->APB1SMENR1, Periphs);
1260:Drivers/STM32WLxx_HAL_Driver/Inc/stm32wlxx_ll_bus.h **** }
1261:Drivers/STM32WLxx_HAL_Driver/Inc/stm32wlxx_ll_bus.h **** 
1262:Drivers/STM32WLxx_HAL_Driver/Inc/stm32wlxx_ll_bus.h **** /**
1263:Drivers/STM32WLxx_HAL_Driver/Inc/stm32wlxx_ll_bus.h ****   * @brief  Disable APB1 peripherals clock during Low Power (Sleep) mode.
1264:Drivers/STM32WLxx_HAL_Driver/Inc/stm32wlxx_ll_bus.h ****   * @rmtoll APB1SMENR2   LPUART1SMEN   LL_APB1_GRP2_DisableClockSleep\n
1265:Drivers/STM32WLxx_HAL_Driver/Inc/stm32wlxx_ll_bus.h ****   *         APB1SMENR2   LPTIM2SMEN    LL_APB1_GRP2_DisableClockSleep
1266:Drivers/STM32WLxx_HAL_Driver/Inc/stm32wlxx_ll_bus.h ****   *         APB1SMENR2   LPTIM3SMEN    LL_APB1_GRP2_DisableClockSleep
1267:Drivers/STM32WLxx_HAL_Driver/Inc/stm32wlxx_ll_bus.h ****   * @param  Periphs This parameter can be a combination of the following values:
1268:Drivers/STM32WLxx_HAL_Driver/Inc/stm32wlxx_ll_bus.h ****   *         @arg @ref LL_APB1_GRP2_PERIPH_LPUART1
1269:Drivers/STM32WLxx_HAL_Driver/Inc/stm32wlxx_ll_bus.h ****   *         @arg @ref LL_APB1_GRP2_PERIPH_LPTIM2
ARM GAS  /var/folders/9y/n02fl3g16gnf7ppy14xghdy80000gn/T//ccRSWXWQ.s 			page 30


1270:Drivers/STM32WLxx_HAL_Driver/Inc/stm32wlxx_ll_bus.h ****   *         @arg @ref LL_APB1_GRP2_PERIPH_LPTIM3
1271:Drivers/STM32WLxx_HAL_Driver/Inc/stm32wlxx_ll_bus.h ****   * @retval None
1272:Drivers/STM32WLxx_HAL_Driver/Inc/stm32wlxx_ll_bus.h ****   */
1273:Drivers/STM32WLxx_HAL_Driver/Inc/stm32wlxx_ll_bus.h **** __STATIC_INLINE void LL_APB1_GRP2_DisableClockSleep(uint32_t Periphs)
1274:Drivers/STM32WLxx_HAL_Driver/Inc/stm32wlxx_ll_bus.h **** {
1275:Drivers/STM32WLxx_HAL_Driver/Inc/stm32wlxx_ll_bus.h ****   CLEAR_BIT(RCC->APB1SMENR2, Periphs);
1276:Drivers/STM32WLxx_HAL_Driver/Inc/stm32wlxx_ll_bus.h **** }
1277:Drivers/STM32WLxx_HAL_Driver/Inc/stm32wlxx_ll_bus.h **** 
1278:Drivers/STM32WLxx_HAL_Driver/Inc/stm32wlxx_ll_bus.h **** /**
1279:Drivers/STM32WLxx_HAL_Driver/Inc/stm32wlxx_ll_bus.h ****   * @}
1280:Drivers/STM32WLxx_HAL_Driver/Inc/stm32wlxx_ll_bus.h ****   */
1281:Drivers/STM32WLxx_HAL_Driver/Inc/stm32wlxx_ll_bus.h **** 
1282:Drivers/STM32WLxx_HAL_Driver/Inc/stm32wlxx_ll_bus.h **** /** @defgroup BUS_LL_EF_APB2 APB2
1283:Drivers/STM32WLxx_HAL_Driver/Inc/stm32wlxx_ll_bus.h ****   * @{
1284:Drivers/STM32WLxx_HAL_Driver/Inc/stm32wlxx_ll_bus.h ****   */
1285:Drivers/STM32WLxx_HAL_Driver/Inc/stm32wlxx_ll_bus.h **** 
1286:Drivers/STM32WLxx_HAL_Driver/Inc/stm32wlxx_ll_bus.h **** /**
1287:Drivers/STM32WLxx_HAL_Driver/Inc/stm32wlxx_ll_bus.h ****   * @brief  Enable APB2 peripherals clock.
1288:Drivers/STM32WLxx_HAL_Driver/Inc/stm32wlxx_ll_bus.h ****   * @rmtoll APB2ENR      ADCEN         LL_APB2_GRP1_EnableClock\n
1289:Drivers/STM32WLxx_HAL_Driver/Inc/stm32wlxx_ll_bus.h ****   *         APB2ENR      TIM1EN        LL_APB2_GRP1_EnableClock\n
1290:Drivers/STM32WLxx_HAL_Driver/Inc/stm32wlxx_ll_bus.h ****   *         APB2ENR      SPI1EN        LL_APB2_GRP1_EnableClock\n
1291:Drivers/STM32WLxx_HAL_Driver/Inc/stm32wlxx_ll_bus.h ****   *         APB2ENR      USART1EN      LL_APB2_GRP1_EnableClock\n
1292:Drivers/STM32WLxx_HAL_Driver/Inc/stm32wlxx_ll_bus.h ****   *         APB2ENR      TIM16EN       LL_APB2_GRP1_EnableClock\n
1293:Drivers/STM32WLxx_HAL_Driver/Inc/stm32wlxx_ll_bus.h ****   *         APB2ENR      TIM17EN       LL_APB2_GRP1_EnableClock\n
1294:Drivers/STM32WLxx_HAL_Driver/Inc/stm32wlxx_ll_bus.h ****   * @param  Periphs This parameter can be a combination of the following values:
1295:Drivers/STM32WLxx_HAL_Driver/Inc/stm32wlxx_ll_bus.h ****   *         @arg @ref LL_APB2_GRP1_PERIPH_ADC
1296:Drivers/STM32WLxx_HAL_Driver/Inc/stm32wlxx_ll_bus.h ****   *         @arg @ref LL_APB2_GRP1_PERIPH_TIM1
1297:Drivers/STM32WLxx_HAL_Driver/Inc/stm32wlxx_ll_bus.h ****   *         @arg @ref LL_APB2_GRP1_PERIPH_SPI1
1298:Drivers/STM32WLxx_HAL_Driver/Inc/stm32wlxx_ll_bus.h ****   *         @arg @ref LL_APB2_GRP1_PERIPH_USART1
1299:Drivers/STM32WLxx_HAL_Driver/Inc/stm32wlxx_ll_bus.h ****   *         @arg @ref LL_APB2_GRP1_PERIPH_TIM16
1300:Drivers/STM32WLxx_HAL_Driver/Inc/stm32wlxx_ll_bus.h ****   *         @arg @ref LL_APB2_GRP1_PERIPH_TIM17
1301:Drivers/STM32WLxx_HAL_Driver/Inc/stm32wlxx_ll_bus.h ****   * @retval None
1302:Drivers/STM32WLxx_HAL_Driver/Inc/stm32wlxx_ll_bus.h ****   */
1303:Drivers/STM32WLxx_HAL_Driver/Inc/stm32wlxx_ll_bus.h **** __STATIC_INLINE void LL_APB2_GRP1_EnableClock(uint32_t Periphs)
1304:Drivers/STM32WLxx_HAL_Driver/Inc/stm32wlxx_ll_bus.h **** {
1305:Drivers/STM32WLxx_HAL_Driver/Inc/stm32wlxx_ll_bus.h ****   __IO uint32_t tmpreg;
1306:Drivers/STM32WLxx_HAL_Driver/Inc/stm32wlxx_ll_bus.h ****   SET_BIT(RCC->APB2ENR, Periphs);
1307:Drivers/STM32WLxx_HAL_Driver/Inc/stm32wlxx_ll_bus.h ****   /* Delay after an RCC peripheral clock enabling */
1308:Drivers/STM32WLxx_HAL_Driver/Inc/stm32wlxx_ll_bus.h ****   tmpreg = READ_BIT(RCC->APB2ENR, Periphs);
1309:Drivers/STM32WLxx_HAL_Driver/Inc/stm32wlxx_ll_bus.h ****   (void)tmpreg;
1310:Drivers/STM32WLxx_HAL_Driver/Inc/stm32wlxx_ll_bus.h **** }
1311:Drivers/STM32WLxx_HAL_Driver/Inc/stm32wlxx_ll_bus.h **** 
1312:Drivers/STM32WLxx_HAL_Driver/Inc/stm32wlxx_ll_bus.h **** /**
1313:Drivers/STM32WLxx_HAL_Driver/Inc/stm32wlxx_ll_bus.h ****   * @brief  Check if APB2 peripheral clock is enabled or not
1314:Drivers/STM32WLxx_HAL_Driver/Inc/stm32wlxx_ll_bus.h ****   * @rmtoll APB2ENR      ADCEN         LL_APB2_GRP1_IsEnabledClock\n
1315:Drivers/STM32WLxx_HAL_Driver/Inc/stm32wlxx_ll_bus.h ****   *         APB2ENR      TIM1EN        LL_APB2_GRP1_IsEnabledClock\n
1316:Drivers/STM32WLxx_HAL_Driver/Inc/stm32wlxx_ll_bus.h ****   *         APB2ENR      SPI1EN        LL_APB2_GRP1_IsEnabledClock\n
1317:Drivers/STM32WLxx_HAL_Driver/Inc/stm32wlxx_ll_bus.h ****   *         APB2ENR      USART1EN      LL_APB2_GRP1_IsEnabledClock\n
1318:Drivers/STM32WLxx_HAL_Driver/Inc/stm32wlxx_ll_bus.h ****   *         APB2ENR      TIM16EN       LL_APB2_GRP1_IsEnabledClock\n
1319:Drivers/STM32WLxx_HAL_Driver/Inc/stm32wlxx_ll_bus.h ****   *         APB2ENR      TIM17EN       LL_APB2_GRP1_IsEnabledClock\n
1320:Drivers/STM32WLxx_HAL_Driver/Inc/stm32wlxx_ll_bus.h ****   * @param  Periphs This parameter can be a combination of the following values:
1321:Drivers/STM32WLxx_HAL_Driver/Inc/stm32wlxx_ll_bus.h ****   *         @arg @ref LL_APB2_GRP1_PERIPH_ADC
1322:Drivers/STM32WLxx_HAL_Driver/Inc/stm32wlxx_ll_bus.h ****   *         @arg @ref LL_APB2_GRP1_PERIPH_TIM1
1323:Drivers/STM32WLxx_HAL_Driver/Inc/stm32wlxx_ll_bus.h ****   *         @arg @ref LL_APB2_GRP1_PERIPH_SPI1
1324:Drivers/STM32WLxx_HAL_Driver/Inc/stm32wlxx_ll_bus.h ****   *         @arg @ref LL_APB2_GRP1_PERIPH_USART1
1325:Drivers/STM32WLxx_HAL_Driver/Inc/stm32wlxx_ll_bus.h ****   *         @arg @ref LL_APB2_GRP1_PERIPH_TIM16
1326:Drivers/STM32WLxx_HAL_Driver/Inc/stm32wlxx_ll_bus.h ****   *         @arg @ref LL_APB2_GRP1_PERIPH_TIM17
ARM GAS  /var/folders/9y/n02fl3g16gnf7ppy14xghdy80000gn/T//ccRSWXWQ.s 			page 31


1327:Drivers/STM32WLxx_HAL_Driver/Inc/stm32wlxx_ll_bus.h ****   * @retval uint32_t
1328:Drivers/STM32WLxx_HAL_Driver/Inc/stm32wlxx_ll_bus.h ****   */
1329:Drivers/STM32WLxx_HAL_Driver/Inc/stm32wlxx_ll_bus.h **** __STATIC_INLINE uint32_t LL_APB2_GRP1_IsEnabledClock(uint32_t Periphs)
1330:Drivers/STM32WLxx_HAL_Driver/Inc/stm32wlxx_ll_bus.h **** {
1331:Drivers/STM32WLxx_HAL_Driver/Inc/stm32wlxx_ll_bus.h ****   return ((READ_BIT(RCC->APB2ENR, Periphs) == (Periphs)) ? 1UL : 0UL);
1332:Drivers/STM32WLxx_HAL_Driver/Inc/stm32wlxx_ll_bus.h **** }
1333:Drivers/STM32WLxx_HAL_Driver/Inc/stm32wlxx_ll_bus.h **** 
1334:Drivers/STM32WLxx_HAL_Driver/Inc/stm32wlxx_ll_bus.h **** /**
1335:Drivers/STM32WLxx_HAL_Driver/Inc/stm32wlxx_ll_bus.h ****   * @brief  Disable APB2 peripherals clock.
1336:Drivers/STM32WLxx_HAL_Driver/Inc/stm32wlxx_ll_bus.h ****   * @rmtoll APB2ENR      ADCEN         LL_APB2_GRP1_DisableClock\n
1337:Drivers/STM32WLxx_HAL_Driver/Inc/stm32wlxx_ll_bus.h ****   *         APB2ENR      TIM1EN        LL_APB2_GRP1_DisableClock\n
1338:Drivers/STM32WLxx_HAL_Driver/Inc/stm32wlxx_ll_bus.h ****   *         APB2ENR      SPI1EN        LL_APB2_GRP1_DisableClock\n
1339:Drivers/STM32WLxx_HAL_Driver/Inc/stm32wlxx_ll_bus.h ****   *         APB2ENR      USART1EN      LL_APB2_GRP1_DisableClock\n
1340:Drivers/STM32WLxx_HAL_Driver/Inc/stm32wlxx_ll_bus.h ****   *         APB2ENR      TIM16EN       LL_APB2_GRP1_DisableClock\n
1341:Drivers/STM32WLxx_HAL_Driver/Inc/stm32wlxx_ll_bus.h ****   *         APB2ENR      TIM17EN       LL_APB2_GRP1_DisableClock\n
1342:Drivers/STM32WLxx_HAL_Driver/Inc/stm32wlxx_ll_bus.h ****   * @param  Periphs This parameter can be a combination of the following values:
1343:Drivers/STM32WLxx_HAL_Driver/Inc/stm32wlxx_ll_bus.h ****   *         @arg @ref LL_APB2_GRP1_PERIPH_ADC
1344:Drivers/STM32WLxx_HAL_Driver/Inc/stm32wlxx_ll_bus.h ****   *         @arg @ref LL_APB2_GRP1_PERIPH_TIM1
1345:Drivers/STM32WLxx_HAL_Driver/Inc/stm32wlxx_ll_bus.h ****   *         @arg @ref LL_APB2_GRP1_PERIPH_SPI1
1346:Drivers/STM32WLxx_HAL_Driver/Inc/stm32wlxx_ll_bus.h ****   *         @arg @ref LL_APB2_GRP1_PERIPH_USART1
1347:Drivers/STM32WLxx_HAL_Driver/Inc/stm32wlxx_ll_bus.h ****   *         @arg @ref LL_APB2_GRP1_PERIPH_TIM16
1348:Drivers/STM32WLxx_HAL_Driver/Inc/stm32wlxx_ll_bus.h ****   *         @arg @ref LL_APB2_GRP1_PERIPH_TIM17
1349:Drivers/STM32WLxx_HAL_Driver/Inc/stm32wlxx_ll_bus.h ****   * @retval None
1350:Drivers/STM32WLxx_HAL_Driver/Inc/stm32wlxx_ll_bus.h ****   */
1351:Drivers/STM32WLxx_HAL_Driver/Inc/stm32wlxx_ll_bus.h **** __STATIC_INLINE void LL_APB2_GRP1_DisableClock(uint32_t Periphs)
1352:Drivers/STM32WLxx_HAL_Driver/Inc/stm32wlxx_ll_bus.h **** {
1353:Drivers/STM32WLxx_HAL_Driver/Inc/stm32wlxx_ll_bus.h ****   CLEAR_BIT(RCC->APB2ENR, Periphs);
1354:Drivers/STM32WLxx_HAL_Driver/Inc/stm32wlxx_ll_bus.h **** }
1355:Drivers/STM32WLxx_HAL_Driver/Inc/stm32wlxx_ll_bus.h **** 
1356:Drivers/STM32WLxx_HAL_Driver/Inc/stm32wlxx_ll_bus.h **** /**
1357:Drivers/STM32WLxx_HAL_Driver/Inc/stm32wlxx_ll_bus.h ****   * @brief  Force APB2 peripherals reset.
1358:Drivers/STM32WLxx_HAL_Driver/Inc/stm32wlxx_ll_bus.h ****   * @rmtoll APB2RSTR     ADCRST        LL_APB2_GRP1_ForceReset\n
1359:Drivers/STM32WLxx_HAL_Driver/Inc/stm32wlxx_ll_bus.h ****   *         APB2RSTR     TIM1RST       LL_APB2_GRP1_ForceReset\n
1360:Drivers/STM32WLxx_HAL_Driver/Inc/stm32wlxx_ll_bus.h ****   *         APB2RSTR     SPI1RST       LL_APB2_GRP1_ForceReset\n
1361:Drivers/STM32WLxx_HAL_Driver/Inc/stm32wlxx_ll_bus.h ****   *         APB2RSTR     USART1RST     LL_APB2_GRP1_ForceReset\n
1362:Drivers/STM32WLxx_HAL_Driver/Inc/stm32wlxx_ll_bus.h ****   *         APB2RSTR     TIM16RST      LL_APB2_GRP1_ForceReset\n
1363:Drivers/STM32WLxx_HAL_Driver/Inc/stm32wlxx_ll_bus.h ****   *         APB2RSTR     TIM17RST      LL_APB2_GRP1_ForceReset\n
1364:Drivers/STM32WLxx_HAL_Driver/Inc/stm32wlxx_ll_bus.h ****   * @param  Periphs This parameter can be a combination of the following values:
1365:Drivers/STM32WLxx_HAL_Driver/Inc/stm32wlxx_ll_bus.h ****   *         @arg @ref LL_APB2_GRP1_PERIPH_ALL
1366:Drivers/STM32WLxx_HAL_Driver/Inc/stm32wlxx_ll_bus.h ****   *         @arg @ref LL_APB2_GRP1_PERIPH_ADC
1367:Drivers/STM32WLxx_HAL_Driver/Inc/stm32wlxx_ll_bus.h ****   *         @arg @ref LL_APB2_GRP1_PERIPH_TIM1
1368:Drivers/STM32WLxx_HAL_Driver/Inc/stm32wlxx_ll_bus.h ****   *         @arg @ref LL_APB2_GRP1_PERIPH_SPI1
1369:Drivers/STM32WLxx_HAL_Driver/Inc/stm32wlxx_ll_bus.h ****   *         @arg @ref LL_APB2_GRP1_PERIPH_USART1
1370:Drivers/STM32WLxx_HAL_Driver/Inc/stm32wlxx_ll_bus.h ****   *         @arg @ref LL_APB2_GRP1_PERIPH_TIM16
1371:Drivers/STM32WLxx_HAL_Driver/Inc/stm32wlxx_ll_bus.h ****   *         @arg @ref LL_APB2_GRP1_PERIPH_TIM17
1372:Drivers/STM32WLxx_HAL_Driver/Inc/stm32wlxx_ll_bus.h ****   * @retval None
1373:Drivers/STM32WLxx_HAL_Driver/Inc/stm32wlxx_ll_bus.h ****   */
1374:Drivers/STM32WLxx_HAL_Driver/Inc/stm32wlxx_ll_bus.h **** __STATIC_INLINE void LL_APB2_GRP1_ForceReset(uint32_t Periphs)
 135              		.loc 2 1374 22 view .LVU26
 136              	.LBB71:
1375:Drivers/STM32WLxx_HAL_Driver/Inc/stm32wlxx_ll_bus.h **** {
1376:Drivers/STM32WLxx_HAL_Driver/Inc/stm32wlxx_ll_bus.h ****   SET_BIT(RCC->APB2RSTR, Periphs);
 137              		.loc 2 1376 3 view .LVU27
 138 001c 196C     		ldr	r1, [r3, #64]
 139 001e 1A64     		str	r2, [r3, #64]
 140              	.LVL5:
 141              		.loc 2 1376 3 is_stmt 0 view .LVU28
ARM GAS  /var/folders/9y/n02fl3g16gnf7ppy14xghdy80000gn/T//ccRSWXWQ.s 			page 32


 142              	.LBE71:
 143              	.LBE70:
 204:Drivers/STM32WLxx_HAL_Driver/Src/stm32wlxx_hal.c **** 
 144              		.loc 1 204 3 is_stmt 1 view .LVU29
 145              	.LBB72:
 146              	.LBI72:
1377:Drivers/STM32WLxx_HAL_Driver/Inc/stm32wlxx_ll_bus.h **** }
1378:Drivers/STM32WLxx_HAL_Driver/Inc/stm32wlxx_ll_bus.h **** 
1379:Drivers/STM32WLxx_HAL_Driver/Inc/stm32wlxx_ll_bus.h **** /**
1380:Drivers/STM32WLxx_HAL_Driver/Inc/stm32wlxx_ll_bus.h ****   * @brief  Release APB2 peripherals reset.
1381:Drivers/STM32WLxx_HAL_Driver/Inc/stm32wlxx_ll_bus.h ****   * @rmtoll APB2RSTR     ADCRST        LL_APB2_GRP1_ReleaseReset\n
1382:Drivers/STM32WLxx_HAL_Driver/Inc/stm32wlxx_ll_bus.h ****   *         APB2RSTR     TIM1RST       LL_APB2_GRP1_ReleaseReset\n
1383:Drivers/STM32WLxx_HAL_Driver/Inc/stm32wlxx_ll_bus.h ****   *         APB2RSTR     SPI1RST       LL_APB2_GRP1_ReleaseReset\n
1384:Drivers/STM32WLxx_HAL_Driver/Inc/stm32wlxx_ll_bus.h ****   *         APB2RSTR     USART1RST     LL_APB2_GRP1_ReleaseReset\n
1385:Drivers/STM32WLxx_HAL_Driver/Inc/stm32wlxx_ll_bus.h ****   *         APB2RSTR     TIM16RST      LL_APB2_GRP1_ReleaseReset\n
1386:Drivers/STM32WLxx_HAL_Driver/Inc/stm32wlxx_ll_bus.h ****   *         APB2RSTR     TIM17RST      LL_APB2_GRP1_ReleaseReset\n
1387:Drivers/STM32WLxx_HAL_Driver/Inc/stm32wlxx_ll_bus.h ****   * @param  Periphs This parameter can be a combination of the following values:
1388:Drivers/STM32WLxx_HAL_Driver/Inc/stm32wlxx_ll_bus.h ****   *         @arg @ref LL_APB2_GRP1_PERIPH_ALL
1389:Drivers/STM32WLxx_HAL_Driver/Inc/stm32wlxx_ll_bus.h ****   *         @arg @ref LL_APB2_GRP1_PERIPH_ADC
1390:Drivers/STM32WLxx_HAL_Driver/Inc/stm32wlxx_ll_bus.h ****   *         @arg @ref LL_APB2_GRP1_PERIPH_TIM1
1391:Drivers/STM32WLxx_HAL_Driver/Inc/stm32wlxx_ll_bus.h ****   *         @arg @ref LL_APB2_GRP1_PERIPH_SPI1
1392:Drivers/STM32WLxx_HAL_Driver/Inc/stm32wlxx_ll_bus.h ****   *         @arg @ref LL_APB2_GRP1_PERIPH_USART1
1393:Drivers/STM32WLxx_HAL_Driver/Inc/stm32wlxx_ll_bus.h ****   *         @arg @ref LL_APB2_GRP1_PERIPH_TIM16
1394:Drivers/STM32WLxx_HAL_Driver/Inc/stm32wlxx_ll_bus.h ****   *         @arg @ref LL_APB2_GRP1_PERIPH_TIM17
1395:Drivers/STM32WLxx_HAL_Driver/Inc/stm32wlxx_ll_bus.h ****   * @retval None
1396:Drivers/STM32WLxx_HAL_Driver/Inc/stm32wlxx_ll_bus.h ****   */
1397:Drivers/STM32WLxx_HAL_Driver/Inc/stm32wlxx_ll_bus.h **** __STATIC_INLINE void LL_APB2_GRP1_ReleaseReset(uint32_t Periphs)
 147              		.loc 2 1397 22 view .LVU30
 148              	.LBB73:
1398:Drivers/STM32WLxx_HAL_Driver/Inc/stm32wlxx_ll_bus.h **** {
1399:Drivers/STM32WLxx_HAL_Driver/Inc/stm32wlxx_ll_bus.h ****   CLEAR_BIT(RCC->APB2RSTR, Periphs);
 149              		.loc 2 1399 3 view .LVU31
 150 0020 196C     		ldr	r1, [r3, #64]
 151 0022 1C64     		str	r4, [r3, #64]
 152              	.LVL6:
 153              		.loc 2 1399 3 is_stmt 0 view .LVU32
 154              	.LBE73:
 155              	.LBE72:
 206:Drivers/STM32WLxx_HAL_Driver/Src/stm32wlxx_hal.c ****   __HAL_RCC_APB3_RELEASE_RESET();
 156              		.loc 1 206 3 is_stmt 1 view .LVU33
 157              	.LBB74:
 158              	.LBI74:
1400:Drivers/STM32WLxx_HAL_Driver/Inc/stm32wlxx_ll_bus.h **** }
1401:Drivers/STM32WLxx_HAL_Driver/Inc/stm32wlxx_ll_bus.h **** 
1402:Drivers/STM32WLxx_HAL_Driver/Inc/stm32wlxx_ll_bus.h **** /**
1403:Drivers/STM32WLxx_HAL_Driver/Inc/stm32wlxx_ll_bus.h ****   * @brief  Enable APB2 peripherals clock during Low Power (Sleep) mode.
1404:Drivers/STM32WLxx_HAL_Driver/Inc/stm32wlxx_ll_bus.h ****   * @rmtoll APB2SMENR    ADCSMEN       LL_APB2_GRP1_EnableClockSleep\n
1405:Drivers/STM32WLxx_HAL_Driver/Inc/stm32wlxx_ll_bus.h ****   *         APB2SMENR    TIM1SMEN      LL_APB2_GRP1_EnableClockSleep\n
1406:Drivers/STM32WLxx_HAL_Driver/Inc/stm32wlxx_ll_bus.h ****   *         APB2SMENR    SPI1SMEN      LL_APB2_GRP1_EnableClockSleep\n
1407:Drivers/STM32WLxx_HAL_Driver/Inc/stm32wlxx_ll_bus.h ****   *         APB2SMENR    USART1SMEN    LL_APB2_GRP1_EnableClockSleep\n
1408:Drivers/STM32WLxx_HAL_Driver/Inc/stm32wlxx_ll_bus.h ****   *         APB2SMENR    TIM16SMEN     LL_APB2_GRP1_EnableClockSleep\n
1409:Drivers/STM32WLxx_HAL_Driver/Inc/stm32wlxx_ll_bus.h ****   *         APB2SMENR    TIM17SMEN     LL_APB2_GRP1_EnableClockSleep\n
1410:Drivers/STM32WLxx_HAL_Driver/Inc/stm32wlxx_ll_bus.h ****   * @param  Periphs This parameter can be a combination of the following values:
1411:Drivers/STM32WLxx_HAL_Driver/Inc/stm32wlxx_ll_bus.h ****   *         @arg @ref LL_APB2_GRP1_PERIPH_ADC
1412:Drivers/STM32WLxx_HAL_Driver/Inc/stm32wlxx_ll_bus.h ****   *         @arg @ref LL_APB2_GRP1_PERIPH_TIM1
1413:Drivers/STM32WLxx_HAL_Driver/Inc/stm32wlxx_ll_bus.h ****   *         @arg @ref LL_APB2_GRP1_PERIPH_SPI1
1414:Drivers/STM32WLxx_HAL_Driver/Inc/stm32wlxx_ll_bus.h ****   *         @arg @ref LL_APB2_GRP1_PERIPH_USART1
ARM GAS  /var/folders/9y/n02fl3g16gnf7ppy14xghdy80000gn/T//ccRSWXWQ.s 			page 33


1415:Drivers/STM32WLxx_HAL_Driver/Inc/stm32wlxx_ll_bus.h ****   *         @arg @ref LL_APB2_GRP1_PERIPH_TIM16
1416:Drivers/STM32WLxx_HAL_Driver/Inc/stm32wlxx_ll_bus.h ****   *         @arg @ref LL_APB2_GRP1_PERIPH_TIM17
1417:Drivers/STM32WLxx_HAL_Driver/Inc/stm32wlxx_ll_bus.h ****   * @retval None
1418:Drivers/STM32WLxx_HAL_Driver/Inc/stm32wlxx_ll_bus.h ****   */
1419:Drivers/STM32WLxx_HAL_Driver/Inc/stm32wlxx_ll_bus.h **** __STATIC_INLINE void LL_APB2_GRP1_EnableClockSleep(uint32_t Periphs)
1420:Drivers/STM32WLxx_HAL_Driver/Inc/stm32wlxx_ll_bus.h **** {
1421:Drivers/STM32WLxx_HAL_Driver/Inc/stm32wlxx_ll_bus.h ****   __IO uint32_t tmpreg;
1422:Drivers/STM32WLxx_HAL_Driver/Inc/stm32wlxx_ll_bus.h ****   SET_BIT(RCC->APB2SMENR, Periphs);
1423:Drivers/STM32WLxx_HAL_Driver/Inc/stm32wlxx_ll_bus.h ****   /* Delay after an RCC peripheral clock enabling */
1424:Drivers/STM32WLxx_HAL_Driver/Inc/stm32wlxx_ll_bus.h ****   tmpreg = READ_BIT(RCC->APB2SMENR, Periphs);
1425:Drivers/STM32WLxx_HAL_Driver/Inc/stm32wlxx_ll_bus.h ****   (void)tmpreg;
1426:Drivers/STM32WLxx_HAL_Driver/Inc/stm32wlxx_ll_bus.h **** }
1427:Drivers/STM32WLxx_HAL_Driver/Inc/stm32wlxx_ll_bus.h **** 
1428:Drivers/STM32WLxx_HAL_Driver/Inc/stm32wlxx_ll_bus.h **** /**
1429:Drivers/STM32WLxx_HAL_Driver/Inc/stm32wlxx_ll_bus.h ****   * @brief  Check if APB2 clock is enabled by the clock gating during CPU1 CSleep mode
1430:Drivers/STM32WLxx_HAL_Driver/Inc/stm32wlxx_ll_bus.h ****   * @rmtoll APB2SMENR    ADCSMEN       LL_APB2_GRP1_IsEnabledClockSleep\n
1431:Drivers/STM32WLxx_HAL_Driver/Inc/stm32wlxx_ll_bus.h ****   *         APB2SMENR    TIM1SMEN      LL_APB2_GRP1_IsEnabledClockSleep\n
1432:Drivers/STM32WLxx_HAL_Driver/Inc/stm32wlxx_ll_bus.h ****   *         APB2SMENR    SPI1SMEN      LL_APB2_GRP1_IsEnabledClockSleep\n
1433:Drivers/STM32WLxx_HAL_Driver/Inc/stm32wlxx_ll_bus.h ****   *         APB2SMENR    USART1SMEN    LL_APB2_GRP1_IsEnabledClockSleep\n
1434:Drivers/STM32WLxx_HAL_Driver/Inc/stm32wlxx_ll_bus.h ****   *         APB2SMENR    TIM16SMEN     LL_APB2_GRP1_IsEnabledClockSleep\n
1435:Drivers/STM32WLxx_HAL_Driver/Inc/stm32wlxx_ll_bus.h ****   *         APB2SMENR    TIM17SMEN     LL_APB2_GRP1_IsEnabledClockSleep
1436:Drivers/STM32WLxx_HAL_Driver/Inc/stm32wlxx_ll_bus.h ****   * @param  Periphs This parameter can be a combination of the following values:
1437:Drivers/STM32WLxx_HAL_Driver/Inc/stm32wlxx_ll_bus.h ****   * @param  Periphs This parameter can be a combination of the following values:
1438:Drivers/STM32WLxx_HAL_Driver/Inc/stm32wlxx_ll_bus.h ****   *         @arg @ref LL_APB2_GRP1_PERIPH_ADC
1439:Drivers/STM32WLxx_HAL_Driver/Inc/stm32wlxx_ll_bus.h ****   *         @arg @ref LL_APB2_GRP1_PERIPH_TIM1
1440:Drivers/STM32WLxx_HAL_Driver/Inc/stm32wlxx_ll_bus.h ****   *         @arg @ref LL_APB2_GRP1_PERIPH_SPI1
1441:Drivers/STM32WLxx_HAL_Driver/Inc/stm32wlxx_ll_bus.h ****   *         @arg @ref LL_APB2_GRP1_PERIPH_USART1
1442:Drivers/STM32WLxx_HAL_Driver/Inc/stm32wlxx_ll_bus.h ****   *         @arg @ref LL_APB2_GRP1_PERIPH_TIM16
1443:Drivers/STM32WLxx_HAL_Driver/Inc/stm32wlxx_ll_bus.h ****   *         @arg @ref LL_APB2_GRP1_PERIPH_TIM17
1444:Drivers/STM32WLxx_HAL_Driver/Inc/stm32wlxx_ll_bus.h ****   * @retval None
1445:Drivers/STM32WLxx_HAL_Driver/Inc/stm32wlxx_ll_bus.h ****   */
1446:Drivers/STM32WLxx_HAL_Driver/Inc/stm32wlxx_ll_bus.h **** __STATIC_INLINE uint32_t LL_APB2_GRP1_IsEnabledClockSleep(uint32_t Periphs)
1447:Drivers/STM32WLxx_HAL_Driver/Inc/stm32wlxx_ll_bus.h **** {
1448:Drivers/STM32WLxx_HAL_Driver/Inc/stm32wlxx_ll_bus.h ****   return ((READ_BIT(RCC->APB2SMENR, Periphs) == (Periphs)) ? 1UL : 0UL);
1449:Drivers/STM32WLxx_HAL_Driver/Inc/stm32wlxx_ll_bus.h **** }
1450:Drivers/STM32WLxx_HAL_Driver/Inc/stm32wlxx_ll_bus.h **** 
1451:Drivers/STM32WLxx_HAL_Driver/Inc/stm32wlxx_ll_bus.h **** /**
1452:Drivers/STM32WLxx_HAL_Driver/Inc/stm32wlxx_ll_bus.h ****   * @brief  Disable APB2 peripherals clock during Low Power (Sleep) mode.
1453:Drivers/STM32WLxx_HAL_Driver/Inc/stm32wlxx_ll_bus.h ****   * @rmtoll APB2SMENR    ADCSMEN       LL_APB2_GRP1_DisableClockSleep\n
1454:Drivers/STM32WLxx_HAL_Driver/Inc/stm32wlxx_ll_bus.h ****   *         APB2SMENR    TIM1SMEN      LL_APB2_GRP1_DisableClockSleep\n
1455:Drivers/STM32WLxx_HAL_Driver/Inc/stm32wlxx_ll_bus.h ****   *         APB2SMENR    SPI1SMEN      LL_APB2_GRP1_DisableClockSleep\n
1456:Drivers/STM32WLxx_HAL_Driver/Inc/stm32wlxx_ll_bus.h ****   *         APB2SMENR    USART1SMEN    LL_APB2_GRP1_DisableClockSleep\n
1457:Drivers/STM32WLxx_HAL_Driver/Inc/stm32wlxx_ll_bus.h ****   *         APB2SMENR    TIM16SMEN     LL_APB2_GRP1_DisableClockSleep\n
1458:Drivers/STM32WLxx_HAL_Driver/Inc/stm32wlxx_ll_bus.h ****   *         APB2SMENR    TIM17SMEN     LL_APB2_GRP1_DisableClockSleep\n
1459:Drivers/STM32WLxx_HAL_Driver/Inc/stm32wlxx_ll_bus.h ****   * @param  Periphs This parameter can be a combination of the following values:
1460:Drivers/STM32WLxx_HAL_Driver/Inc/stm32wlxx_ll_bus.h ****   *         @arg @ref LL_APB2_GRP1_PERIPH_ADC
1461:Drivers/STM32WLxx_HAL_Driver/Inc/stm32wlxx_ll_bus.h ****   *         @arg @ref LL_APB2_GRP1_PERIPH_TIM1
1462:Drivers/STM32WLxx_HAL_Driver/Inc/stm32wlxx_ll_bus.h ****   *         @arg @ref LL_APB2_GRP1_PERIPH_SPI1
1463:Drivers/STM32WLxx_HAL_Driver/Inc/stm32wlxx_ll_bus.h ****   *         @arg @ref LL_APB2_GRP1_PERIPH_USART1
1464:Drivers/STM32WLxx_HAL_Driver/Inc/stm32wlxx_ll_bus.h ****   *         @arg @ref LL_APB2_GRP1_PERIPH_TIM16
1465:Drivers/STM32WLxx_HAL_Driver/Inc/stm32wlxx_ll_bus.h ****   *         @arg @ref LL_APB2_GRP1_PERIPH_TIM17
1466:Drivers/STM32WLxx_HAL_Driver/Inc/stm32wlxx_ll_bus.h ****   * @retval None
1467:Drivers/STM32WLxx_HAL_Driver/Inc/stm32wlxx_ll_bus.h ****   */
1468:Drivers/STM32WLxx_HAL_Driver/Inc/stm32wlxx_ll_bus.h **** __STATIC_INLINE void LL_APB2_GRP1_DisableClockSleep(uint32_t Periphs)
1469:Drivers/STM32WLxx_HAL_Driver/Inc/stm32wlxx_ll_bus.h **** {
1470:Drivers/STM32WLxx_HAL_Driver/Inc/stm32wlxx_ll_bus.h ****   CLEAR_BIT(RCC->APB2SMENR, Periphs);
1471:Drivers/STM32WLxx_HAL_Driver/Inc/stm32wlxx_ll_bus.h **** }
ARM GAS  /var/folders/9y/n02fl3g16gnf7ppy14xghdy80000gn/T//ccRSWXWQ.s 			page 34


1472:Drivers/STM32WLxx_HAL_Driver/Inc/stm32wlxx_ll_bus.h **** 
1473:Drivers/STM32WLxx_HAL_Driver/Inc/stm32wlxx_ll_bus.h **** /**
1474:Drivers/STM32WLxx_HAL_Driver/Inc/stm32wlxx_ll_bus.h ****   * @}
1475:Drivers/STM32WLxx_HAL_Driver/Inc/stm32wlxx_ll_bus.h ****   */
1476:Drivers/STM32WLxx_HAL_Driver/Inc/stm32wlxx_ll_bus.h **** 
1477:Drivers/STM32WLxx_HAL_Driver/Inc/stm32wlxx_ll_bus.h **** /** @defgroup BUS_LL_EF_APB3 APB3
1478:Drivers/STM32WLxx_HAL_Driver/Inc/stm32wlxx_ll_bus.h ****   * @{
1479:Drivers/STM32WLxx_HAL_Driver/Inc/stm32wlxx_ll_bus.h ****   */
1480:Drivers/STM32WLxx_HAL_Driver/Inc/stm32wlxx_ll_bus.h **** 
1481:Drivers/STM32WLxx_HAL_Driver/Inc/stm32wlxx_ll_bus.h **** /**
1482:Drivers/STM32WLxx_HAL_Driver/Inc/stm32wlxx_ll_bus.h ****   * @brief  Enable APB3 peripherals clock.
1483:Drivers/STM32WLxx_HAL_Driver/Inc/stm32wlxx_ll_bus.h ****   * @rmtoll APB3ENR    SUBGHZSPIEN     LL_APB3_GRP1_EnableClock\n
1484:Drivers/STM32WLxx_HAL_Driver/Inc/stm32wlxx_ll_bus.h ****   * @param  Periphs This parameter can be a combination of the following values:
1485:Drivers/STM32WLxx_HAL_Driver/Inc/stm32wlxx_ll_bus.h ****   *         @arg @ref LL_APB3_GRP1_PERIPH_SUBGHZSPI
1486:Drivers/STM32WLxx_HAL_Driver/Inc/stm32wlxx_ll_bus.h ****   * @retval None
1487:Drivers/STM32WLxx_HAL_Driver/Inc/stm32wlxx_ll_bus.h ****   */
1488:Drivers/STM32WLxx_HAL_Driver/Inc/stm32wlxx_ll_bus.h **** __STATIC_INLINE void LL_APB3_GRP1_EnableClock(uint32_t Periphs)
1489:Drivers/STM32WLxx_HAL_Driver/Inc/stm32wlxx_ll_bus.h **** {
1490:Drivers/STM32WLxx_HAL_Driver/Inc/stm32wlxx_ll_bus.h ****   __IO uint32_t tmpreg;
1491:Drivers/STM32WLxx_HAL_Driver/Inc/stm32wlxx_ll_bus.h ****   SET_BIT(RCC->APB3ENR, Periphs);
1492:Drivers/STM32WLxx_HAL_Driver/Inc/stm32wlxx_ll_bus.h ****   /* Delay after an RCC peripheral clock enabling */
1493:Drivers/STM32WLxx_HAL_Driver/Inc/stm32wlxx_ll_bus.h ****   tmpreg = READ_BIT(RCC->APB3ENR, Periphs);
1494:Drivers/STM32WLxx_HAL_Driver/Inc/stm32wlxx_ll_bus.h ****   (void)tmpreg;
1495:Drivers/STM32WLxx_HAL_Driver/Inc/stm32wlxx_ll_bus.h **** }
1496:Drivers/STM32WLxx_HAL_Driver/Inc/stm32wlxx_ll_bus.h **** 
1497:Drivers/STM32WLxx_HAL_Driver/Inc/stm32wlxx_ll_bus.h **** /**
1498:Drivers/STM32WLxx_HAL_Driver/Inc/stm32wlxx_ll_bus.h ****   * @brief  Check if APB3 peripheral clock is enabled or not
1499:Drivers/STM32WLxx_HAL_Driver/Inc/stm32wlxx_ll_bus.h ****   * @rmtoll APB3ENR    SUBGHZSPIEN     LL_APB3_GRP1_IsEnabledClock\n
1500:Drivers/STM32WLxx_HAL_Driver/Inc/stm32wlxx_ll_bus.h ****   * @param  Periphs This parameter can be a combination of the following values:
1501:Drivers/STM32WLxx_HAL_Driver/Inc/stm32wlxx_ll_bus.h ****   *         @arg @ref LL_APB3_GRP1_PERIPH_SUBGHZSPI
1502:Drivers/STM32WLxx_HAL_Driver/Inc/stm32wlxx_ll_bus.h ****   * @retval uint32_t
1503:Drivers/STM32WLxx_HAL_Driver/Inc/stm32wlxx_ll_bus.h ****   */
1504:Drivers/STM32WLxx_HAL_Driver/Inc/stm32wlxx_ll_bus.h **** __STATIC_INLINE uint32_t LL_APB3_GRP1_IsEnabledClock(uint32_t Periphs)
1505:Drivers/STM32WLxx_HAL_Driver/Inc/stm32wlxx_ll_bus.h **** {
1506:Drivers/STM32WLxx_HAL_Driver/Inc/stm32wlxx_ll_bus.h ****   return ((READ_BIT(RCC->APB3ENR, Periphs) == (Periphs)) ? 1UL : 0UL);
1507:Drivers/STM32WLxx_HAL_Driver/Inc/stm32wlxx_ll_bus.h **** }
1508:Drivers/STM32WLxx_HAL_Driver/Inc/stm32wlxx_ll_bus.h **** 
1509:Drivers/STM32WLxx_HAL_Driver/Inc/stm32wlxx_ll_bus.h **** /**
1510:Drivers/STM32WLxx_HAL_Driver/Inc/stm32wlxx_ll_bus.h ****   * @brief  Disable APB3 peripherals clock.
1511:Drivers/STM32WLxx_HAL_Driver/Inc/stm32wlxx_ll_bus.h ****   * @rmtoll APB3ENR    SUBGHZSPIEN     LL_APB3_GRP1_DisableClock\n
1512:Drivers/STM32WLxx_HAL_Driver/Inc/stm32wlxx_ll_bus.h ****   * @param  Periphs This parameter can be a combination of the following values:
1513:Drivers/STM32WLxx_HAL_Driver/Inc/stm32wlxx_ll_bus.h ****   *         @arg @ref LL_APB3_GRP1_PERIPH_SUBGHZSPI
1514:Drivers/STM32WLxx_HAL_Driver/Inc/stm32wlxx_ll_bus.h ****   * @retval None
1515:Drivers/STM32WLxx_HAL_Driver/Inc/stm32wlxx_ll_bus.h ****   */
1516:Drivers/STM32WLxx_HAL_Driver/Inc/stm32wlxx_ll_bus.h **** __STATIC_INLINE void LL_APB3_GRP1_DisableClock(uint32_t Periphs)
1517:Drivers/STM32WLxx_HAL_Driver/Inc/stm32wlxx_ll_bus.h **** {
1518:Drivers/STM32WLxx_HAL_Driver/Inc/stm32wlxx_ll_bus.h ****   CLEAR_BIT(RCC->APB3ENR, Periphs);
1519:Drivers/STM32WLxx_HAL_Driver/Inc/stm32wlxx_ll_bus.h **** }
1520:Drivers/STM32WLxx_HAL_Driver/Inc/stm32wlxx_ll_bus.h **** 
1521:Drivers/STM32WLxx_HAL_Driver/Inc/stm32wlxx_ll_bus.h **** 
1522:Drivers/STM32WLxx_HAL_Driver/Inc/stm32wlxx_ll_bus.h **** /**
1523:Drivers/STM32WLxx_HAL_Driver/Inc/stm32wlxx_ll_bus.h ****   * @brief  Force APB3 peripherals reset.
1524:Drivers/STM32WLxx_HAL_Driver/Inc/stm32wlxx_ll_bus.h ****   * @rmtoll APB3RSTR     SUBGHZSPIRST  LL_APB3_GRP1_ForceReset
1525:Drivers/STM32WLxx_HAL_Driver/Inc/stm32wlxx_ll_bus.h ****   * @param  Periphs This parameter can be a combination of the following values:
1526:Drivers/STM32WLxx_HAL_Driver/Inc/stm32wlxx_ll_bus.h ****   *         @arg @ref LL_APB3_GRP1_PERIPH_SUBGHZSPI
1527:Drivers/STM32WLxx_HAL_Driver/Inc/stm32wlxx_ll_bus.h ****   * @retval None
1528:Drivers/STM32WLxx_HAL_Driver/Inc/stm32wlxx_ll_bus.h ****   */
ARM GAS  /var/folders/9y/n02fl3g16gnf7ppy14xghdy80000gn/T//ccRSWXWQ.s 			page 35


1529:Drivers/STM32WLxx_HAL_Driver/Inc/stm32wlxx_ll_bus.h **** __STATIC_INLINE void LL_APB3_GRP1_ForceReset(uint32_t Periphs)
 159              		.loc 2 1529 22 view .LVU34
 160              	.LBB75:
1530:Drivers/STM32WLxx_HAL_Driver/Inc/stm32wlxx_ll_bus.h **** {
1531:Drivers/STM32WLxx_HAL_Driver/Inc/stm32wlxx_ll_bus.h ****   SET_BIT(RCC->APB3RSTR, Periphs);
 161              		.loc 2 1531 3 view .LVU35
 162 0024 596C     		ldr	r1, [r3, #68]
 163 0026 5A64     		str	r2, [r3, #68]
 164              	.LVL7:
 165              		.loc 2 1531 3 is_stmt 0 view .LVU36
 166              	.LBE75:
 167              	.LBE74:
 207:Drivers/STM32WLxx_HAL_Driver/Src/stm32wlxx_hal.c **** 
 168              		.loc 1 207 3 is_stmt 1 view .LVU37
 169              	.LBB76:
 170              	.LBI76:
1532:Drivers/STM32WLxx_HAL_Driver/Inc/stm32wlxx_ll_bus.h **** }
1533:Drivers/STM32WLxx_HAL_Driver/Inc/stm32wlxx_ll_bus.h **** 
1534:Drivers/STM32WLxx_HAL_Driver/Inc/stm32wlxx_ll_bus.h **** /**
1535:Drivers/STM32WLxx_HAL_Driver/Inc/stm32wlxx_ll_bus.h ****   * @brief  Release APB3 peripherals reset.
1536:Drivers/STM32WLxx_HAL_Driver/Inc/stm32wlxx_ll_bus.h ****   * @rmtoll APB3RSTR     SUBGHZSPIRST  LL_APB3_GRP1_ReleaseReset
1537:Drivers/STM32WLxx_HAL_Driver/Inc/stm32wlxx_ll_bus.h ****   * @param  Periphs This parameter can be a combination of the following values:
1538:Drivers/STM32WLxx_HAL_Driver/Inc/stm32wlxx_ll_bus.h ****   *         @arg @ref LL_APB3_GRP1_PERIPH_SUBGHZSPI
1539:Drivers/STM32WLxx_HAL_Driver/Inc/stm32wlxx_ll_bus.h ****   * @retval None
1540:Drivers/STM32WLxx_HAL_Driver/Inc/stm32wlxx_ll_bus.h ****   */
1541:Drivers/STM32WLxx_HAL_Driver/Inc/stm32wlxx_ll_bus.h **** __STATIC_INLINE void LL_APB3_GRP1_ReleaseReset(uint32_t Periphs)
 171              		.loc 2 1541 22 view .LVU38
 172              	.LBB77:
1542:Drivers/STM32WLxx_HAL_Driver/Inc/stm32wlxx_ll_bus.h **** {
1543:Drivers/STM32WLxx_HAL_Driver/Inc/stm32wlxx_ll_bus.h ****   CLEAR_BIT(RCC->APB3RSTR, Periphs);
 173              		.loc 2 1543 3 view .LVU39
 174 0028 596C     		ldr	r1, [r3, #68]
 175 002a 5C64     		str	r4, [r3, #68]
 176              	.LVL8:
 177              		.loc 2 1543 3 is_stmt 0 view .LVU40
 178              	.LBE77:
 179              	.LBE76:
 209:Drivers/STM32WLxx_HAL_Driver/Src/stm32wlxx_hal.c ****   __HAL_RCC_AHB1_RELEASE_RESET();
 180              		.loc 1 209 3 is_stmt 1 view .LVU41
 181              	.LBB78:
 182              	.LBI78:
 346:Drivers/STM32WLxx_HAL_Driver/Inc/stm32wlxx_ll_bus.h **** {
 183              		.loc 2 346 22 view .LVU42
 184              	.LBB79:
 348:Drivers/STM32WLxx_HAL_Driver/Inc/stm32wlxx_ll_bus.h **** }
 185              		.loc 2 348 3 view .LVU43
 186 002c 996A     		ldr	r1, [r3, #40]
 187 002e 9A62     		str	r2, [r3, #40]
 188              	.LVL9:
 348:Drivers/STM32WLxx_HAL_Driver/Inc/stm32wlxx_ll_bus.h **** }
 189              		.loc 2 348 3 is_stmt 0 view .LVU44
 190              	.LBE79:
 191              	.LBE78:
 210:Drivers/STM32WLxx_HAL_Driver/Src/stm32wlxx_hal.c **** 
 192              		.loc 1 210 3 is_stmt 1 view .LVU45
 193              	.LBB80:
 194              	.LBI80:
ARM GAS  /var/folders/9y/n02fl3g16gnf7ppy14xghdy80000gn/T//ccRSWXWQ.s 			page 36


 365:Drivers/STM32WLxx_HAL_Driver/Inc/stm32wlxx_ll_bus.h **** {
 195              		.loc 2 365 22 view .LVU46
 196              	.LBB81:
 367:Drivers/STM32WLxx_HAL_Driver/Inc/stm32wlxx_ll_bus.h **** }
 197              		.loc 2 367 3 view .LVU47
 198 0030 996A     		ldr	r1, [r3, #40]
 199 0032 9C62     		str	r4, [r3, #40]
 200              	.LVL10:
 367:Drivers/STM32WLxx_HAL_Driver/Inc/stm32wlxx_ll_bus.h **** }
 201              		.loc 2 367 3 is_stmt 0 view .LVU48
 202              	.LBE81:
 203              	.LBE80:
 212:Drivers/STM32WLxx_HAL_Driver/Src/stm32wlxx_hal.c ****   __HAL_RCC_AHB2_RELEASE_RESET();
 204              		.loc 1 212 3 is_stmt 1 view .LVU49
 205              	.LBB82:
 206              	.LBI82:
 508:Drivers/STM32WLxx_HAL_Driver/Inc/stm32wlxx_ll_bus.h **** {
 207              		.loc 2 508 22 view .LVU50
 208              	.LBB83:
 510:Drivers/STM32WLxx_HAL_Driver/Inc/stm32wlxx_ll_bus.h **** }
 209              		.loc 2 510 3 view .LVU51
 210 0034 D96A     		ldr	r1, [r3, #44]
 211 0036 DA62     		str	r2, [r3, #44]
 212              	.LVL11:
 510:Drivers/STM32WLxx_HAL_Driver/Inc/stm32wlxx_ll_bus.h **** }
 213              		.loc 2 510 3 is_stmt 0 view .LVU52
 214              	.LBE83:
 215              	.LBE82:
 213:Drivers/STM32WLxx_HAL_Driver/Src/stm32wlxx_hal.c **** 
 216              		.loc 1 213 3 is_stmt 1 view .LVU53
 217              	.LBB84:
 218              	.LBI84:
 527:Drivers/STM32WLxx_HAL_Driver/Inc/stm32wlxx_ll_bus.h **** {
 219              		.loc 2 527 22 view .LVU54
 220              	.LBB85:
 529:Drivers/STM32WLxx_HAL_Driver/Inc/stm32wlxx_ll_bus.h **** }
 221              		.loc 2 529 3 view .LVU55
 222 0038 D96A     		ldr	r1, [r3, #44]
 223 003a DC62     		str	r4, [r3, #44]
 224              	.LVL12:
 529:Drivers/STM32WLxx_HAL_Driver/Inc/stm32wlxx_ll_bus.h **** }
 225              		.loc 2 529 3 is_stmt 0 view .LVU56
 226              	.LBE85:
 227              	.LBE84:
 215:Drivers/STM32WLxx_HAL_Driver/Src/stm32wlxx_hal.c ****   __HAL_RCC_AHB3_RELEASE_RESET();
 228              		.loc 1 215 3 is_stmt 1 view .LVU57
 229              	.LBB86:
 230              	.LBI86:
 763:Drivers/STM32WLxx_HAL_Driver/Inc/stm32wlxx_ll_bus.h **** {
 231              		.loc 2 763 22 view .LVU58
 232              	.LBB87:
 765:Drivers/STM32WLxx_HAL_Driver/Inc/stm32wlxx_ll_bus.h **** }
 233              		.loc 2 765 3 view .LVU59
 234 003c 196B     		ldr	r1, [r3, #48]
 235 003e 1A63     		str	r2, [r3, #48]
 236              	.LVL13:
 765:Drivers/STM32WLxx_HAL_Driver/Inc/stm32wlxx_ll_bus.h **** }
ARM GAS  /var/folders/9y/n02fl3g16gnf7ppy14xghdy80000gn/T//ccRSWXWQ.s 			page 37


 237              		.loc 2 765 3 is_stmt 0 view .LVU60
 238              	.LBE87:
 239              	.LBE86:
 216:Drivers/STM32WLxx_HAL_Driver/Src/stm32wlxx_hal.c **** 
 240              		.loc 1 216 3 is_stmt 1 view .LVU61
 241              	.LBB88:
 242              	.LBI88:
 806:Drivers/STM32WLxx_HAL_Driver/Inc/stm32wlxx_ll_bus.h **** {
 243              		.loc 2 806 22 view .LVU62
 244              	.LBB89:
 808:Drivers/STM32WLxx_HAL_Driver/Inc/stm32wlxx_ll_bus.h **** }
 245              		.loc 2 808 3 view .LVU63
 246 0040 1A6B     		ldr	r2, [r3, #48]
 247 0042 1C63     		str	r4, [r3, #48]
 248              	.LVL14:
 808:Drivers/STM32WLxx_HAL_Driver/Inc/stm32wlxx_ll_bus.h **** }
 249              		.loc 2 808 3 is_stmt 0 view .LVU64
 250              	.LBE89:
 251              	.LBE88:
 219:Drivers/STM32WLxx_HAL_Driver/Src/stm32wlxx_hal.c **** 
 252              		.loc 1 219 3 is_stmt 1 view .LVU65
 253 0044 FFF7FEFF 		bl	HAL_MspDeInit
 254              	.LVL15:
 222:Drivers/STM32WLxx_HAL_Driver/Src/stm32wlxx_hal.c **** }
 255              		.loc 1 222 3 view .LVU66
 223:Drivers/STM32WLxx_HAL_Driver/Src/stm32wlxx_hal.c **** 
 256              		.loc 1 223 1 is_stmt 0 view .LVU67
 257 0048 2046     		mov	r0, r4
 258 004a 10BD     		pop	{r4, pc}
 259              		.cfi_endproc
 260              	.LFE845:
 262              		.section	.text.HAL_InitTick,"ax",%progbits
 263              		.align	1
 264              		.weak	HAL_InitTick
 265              		.syntax unified
 266              		.thumb
 267              		.thumb_func
 268              		.fpu softvfp
 270              	HAL_InitTick:
 271              	.LVL16:
 272              	.LFB848:
 246:Drivers/STM32WLxx_HAL_Driver/Src/stm32wlxx_hal.c **** 
 247:Drivers/STM32WLxx_HAL_Driver/Src/stm32wlxx_hal.c **** /**
 248:Drivers/STM32WLxx_HAL_Driver/Src/stm32wlxx_hal.c ****   * @brief This function configures the source of the time base:
 249:Drivers/STM32WLxx_HAL_Driver/Src/stm32wlxx_hal.c ****   *        The time source is configured  to have 1ms time base with a dedicated
 250:Drivers/STM32WLxx_HAL_Driver/Src/stm32wlxx_hal.c ****   *        Tick interrupt priority.
 251:Drivers/STM32WLxx_HAL_Driver/Src/stm32wlxx_hal.c ****   * @note This function is called  automatically at the beginning of program after
 252:Drivers/STM32WLxx_HAL_Driver/Src/stm32wlxx_hal.c ****   *       reset by HAL_Init() or at any time when clock is reconfigured  by HAL_RCC_ClockConfig().
 253:Drivers/STM32WLxx_HAL_Driver/Src/stm32wlxx_hal.c ****   * @note In the default implementation, SysTick timer is the source of time base.
 254:Drivers/STM32WLxx_HAL_Driver/Src/stm32wlxx_hal.c ****   *       It is used to generate interrupts at regular time intervals.
 255:Drivers/STM32WLxx_HAL_Driver/Src/stm32wlxx_hal.c ****   *       Care must be taken if HAL_Delay() is called from a peripheral ISR process,
 256:Drivers/STM32WLxx_HAL_Driver/Src/stm32wlxx_hal.c ****   *       The SysTick interrupt must have higher priority (numerically lower)
 257:Drivers/STM32WLxx_HAL_Driver/Src/stm32wlxx_hal.c ****   *       than the peripheral interrupt. Otherwise the caller ISR process will be blocked.
 258:Drivers/STM32WLxx_HAL_Driver/Src/stm32wlxx_hal.c ****   *       The function is declared as __weak  to be overwritten  in case of other
 259:Drivers/STM32WLxx_HAL_Driver/Src/stm32wlxx_hal.c ****   *       implementation  in user file.
 260:Drivers/STM32WLxx_HAL_Driver/Src/stm32wlxx_hal.c ****   * @param TickPriority Tick interrupt priority.
 261:Drivers/STM32WLxx_HAL_Driver/Src/stm32wlxx_hal.c ****   * @retval HAL status
ARM GAS  /var/folders/9y/n02fl3g16gnf7ppy14xghdy80000gn/T//ccRSWXWQ.s 			page 38


 262:Drivers/STM32WLxx_HAL_Driver/Src/stm32wlxx_hal.c ****   */
 263:Drivers/STM32WLxx_HAL_Driver/Src/stm32wlxx_hal.c **** __weak HAL_StatusTypeDef HAL_InitTick(uint32_t TickPriority)
 264:Drivers/STM32WLxx_HAL_Driver/Src/stm32wlxx_hal.c **** {
 273              		.loc 1 264 1 is_stmt 1 view -0
 274              		.cfi_startproc
 275              		@ args = 0, pretend = 0, frame = 0
 276              		@ frame_needed = 0, uses_anonymous_args = 0
 265:Drivers/STM32WLxx_HAL_Driver/Src/stm32wlxx_hal.c ****   HAL_StatusTypeDef  status = HAL_OK;
 277              		.loc 1 265 3 view .LVU69
 266:Drivers/STM32WLxx_HAL_Driver/Src/stm32wlxx_hal.c **** 
 267:Drivers/STM32WLxx_HAL_Driver/Src/stm32wlxx_hal.c ****   /* Check uwTickFreq for MisraC 2012 (even if uwTickFreq is a enum type that don't take the value 
 268:Drivers/STM32WLxx_HAL_Driver/Src/stm32wlxx_hal.c ****   if ((uint32_t)uwTickFreq != 0U)
 278              		.loc 1 268 3 view .LVU70
 279              		.loc 1 268 28 is_stmt 0 view .LVU71
 280 0000 114B     		ldr	r3, .L16
 281 0002 1B78     		ldrb	r3, [r3]	@ zero_extendqisi2
 282              		.loc 1 268 6 view .LVU72
 283 0004 0BB9     		cbnz	r3, .L14
 269:Drivers/STM32WLxx_HAL_Driver/Src/stm32wlxx_hal.c ****   {
 270:Drivers/STM32WLxx_HAL_Driver/Src/stm32wlxx_hal.c ****     /*Configure the SysTick to have interrupt in 1ms time basis*/
 271:Drivers/STM32WLxx_HAL_Driver/Src/stm32wlxx_hal.c **** #ifdef CORE_CM0PLUS
 272:Drivers/STM32WLxx_HAL_Driver/Src/stm32wlxx_hal.c ****     if (HAL_SYSTICK_Config(HAL_RCC_GetHCLK2Freq() / (1000U / (uint32_t)uwTickFreq)) == 0U)
 273:Drivers/STM32WLxx_HAL_Driver/Src/stm32wlxx_hal.c **** #else
 274:Drivers/STM32WLxx_HAL_Driver/Src/stm32wlxx_hal.c ****     if (HAL_SYSTICK_Config(HAL_RCC_GetHCLKFreq() / (1000U / (uint32_t)uwTickFreq)) == 0U)
 275:Drivers/STM32WLxx_HAL_Driver/Src/stm32wlxx_hal.c **** #endif
 276:Drivers/STM32WLxx_HAL_Driver/Src/stm32wlxx_hal.c ****     {
 277:Drivers/STM32WLxx_HAL_Driver/Src/stm32wlxx_hal.c ****       /* Configure the SysTick IRQ priority */
 278:Drivers/STM32WLxx_HAL_Driver/Src/stm32wlxx_hal.c ****       if (TickPriority < (1UL << __NVIC_PRIO_BITS))
 279:Drivers/STM32WLxx_HAL_Driver/Src/stm32wlxx_hal.c ****       {
 280:Drivers/STM32WLxx_HAL_Driver/Src/stm32wlxx_hal.c ****         HAL_NVIC_SetPriority(SysTick_IRQn, TickPriority, 0U);
 281:Drivers/STM32WLxx_HAL_Driver/Src/stm32wlxx_hal.c ****         uwTickPrio = TickPriority;
 282:Drivers/STM32WLxx_HAL_Driver/Src/stm32wlxx_hal.c ****       }
 283:Drivers/STM32WLxx_HAL_Driver/Src/stm32wlxx_hal.c ****       else
 284:Drivers/STM32WLxx_HAL_Driver/Src/stm32wlxx_hal.c ****       {
 285:Drivers/STM32WLxx_HAL_Driver/Src/stm32wlxx_hal.c ****         status = HAL_ERROR;
 286:Drivers/STM32WLxx_HAL_Driver/Src/stm32wlxx_hal.c ****       }
 287:Drivers/STM32WLxx_HAL_Driver/Src/stm32wlxx_hal.c ****     }
 288:Drivers/STM32WLxx_HAL_Driver/Src/stm32wlxx_hal.c ****     else
 289:Drivers/STM32WLxx_HAL_Driver/Src/stm32wlxx_hal.c ****     {
 290:Drivers/STM32WLxx_HAL_Driver/Src/stm32wlxx_hal.c ****       status = HAL_ERROR;
 291:Drivers/STM32WLxx_HAL_Driver/Src/stm32wlxx_hal.c ****     }
 292:Drivers/STM32WLxx_HAL_Driver/Src/stm32wlxx_hal.c ****   }
 293:Drivers/STM32WLxx_HAL_Driver/Src/stm32wlxx_hal.c ****   else
 294:Drivers/STM32WLxx_HAL_Driver/Src/stm32wlxx_hal.c ****   {
 295:Drivers/STM32WLxx_HAL_Driver/Src/stm32wlxx_hal.c ****     status = HAL_ERROR;
 284              		.loc 1 295 12 view .LVU73
 285 0006 0120     		movs	r0, #1
 286              	.LVL17:
 296:Drivers/STM32WLxx_HAL_Driver/Src/stm32wlxx_hal.c ****   }
 297:Drivers/STM32WLxx_HAL_Driver/Src/stm32wlxx_hal.c **** 
 298:Drivers/STM32WLxx_HAL_Driver/Src/stm32wlxx_hal.c ****   /* Return function status */
 299:Drivers/STM32WLxx_HAL_Driver/Src/stm32wlxx_hal.c ****   return status;
 287              		.loc 1 299 3 is_stmt 1 view .LVU74
 300:Drivers/STM32WLxx_HAL_Driver/Src/stm32wlxx_hal.c **** }
 288              		.loc 1 300 1 is_stmt 0 view .LVU75
 289 0008 7047     		bx	lr
 290              	.LVL18:
ARM GAS  /var/folders/9y/n02fl3g16gnf7ppy14xghdy80000gn/T//ccRSWXWQ.s 			page 39


 291              	.L14:
 264:Drivers/STM32WLxx_HAL_Driver/Src/stm32wlxx_hal.c ****   HAL_StatusTypeDef  status = HAL_OK;
 292              		.loc 1 264 1 view .LVU76
 293 000a 10B5     		push	{r4, lr}
 294              		.cfi_def_cfa_offset 8
 295              		.cfi_offset 4, -8
 296              		.cfi_offset 14, -4
 297 000c 0446     		mov	r4, r0
 274:Drivers/STM32WLxx_HAL_Driver/Src/stm32wlxx_hal.c **** #endif
 298              		.loc 1 274 5 is_stmt 1 view .LVU77
 274:Drivers/STM32WLxx_HAL_Driver/Src/stm32wlxx_hal.c **** #endif
 299              		.loc 1 274 28 is_stmt 0 view .LVU78
 300 000e FFF7FEFF 		bl	HAL_RCC_GetHCLKFreq
 301              	.LVL19:
 274:Drivers/STM32WLxx_HAL_Driver/Src/stm32wlxx_hal.c **** #endif
 302              		.loc 1 274 61 view .LVU79
 303 0012 0D4B     		ldr	r3, .L16
 304 0014 1A78     		ldrb	r2, [r3]	@ zero_extendqisi2
 274:Drivers/STM32WLxx_HAL_Driver/Src/stm32wlxx_hal.c **** #endif
 305              		.loc 1 274 59 view .LVU80
 306 0016 4FF47A73 		mov	r3, #1000
 307 001a B3FBF2F3 		udiv	r3, r3, r2
 274:Drivers/STM32WLxx_HAL_Driver/Src/stm32wlxx_hal.c **** #endif
 308              		.loc 1 274 9 view .LVU81
 309 001e B0FBF3F0 		udiv	r0, r0, r3
 310 0022 FFF7FEFF 		bl	HAL_SYSTICK_Config
 311              	.LVL20:
 274:Drivers/STM32WLxx_HAL_Driver/Src/stm32wlxx_hal.c **** #endif
 312              		.loc 1 274 8 view .LVU82
 313 0026 68B9     		cbnz	r0, .L8
 278:Drivers/STM32WLxx_HAL_Driver/Src/stm32wlxx_hal.c ****       {
 314              		.loc 1 278 7 is_stmt 1 view .LVU83
 278:Drivers/STM32WLxx_HAL_Driver/Src/stm32wlxx_hal.c ****       {
 315              		.loc 1 278 10 is_stmt 0 view .LVU84
 316 0028 0F2C     		cmp	r4, #15
 317 002a 01D9     		bls	.L15
 285:Drivers/STM32WLxx_HAL_Driver/Src/stm32wlxx_hal.c ****       }
 318              		.loc 1 285 16 view .LVU85
 319 002c 0120     		movs	r0, #1
 320 002e 0AE0     		b	.L6
 321              	.L15:
 280:Drivers/STM32WLxx_HAL_Driver/Src/stm32wlxx_hal.c ****         uwTickPrio = TickPriority;
 322              		.loc 1 280 9 is_stmt 1 view .LVU86
 323 0030 0022     		movs	r2, #0
 324 0032 2146     		mov	r1, r4
 325 0034 4FF0FF30 		mov	r0, #-1
 326 0038 FFF7FEFF 		bl	HAL_NVIC_SetPriority
 327              	.LVL21:
 281:Drivers/STM32WLxx_HAL_Driver/Src/stm32wlxx_hal.c ****       }
 328              		.loc 1 281 9 view .LVU87
 281:Drivers/STM32WLxx_HAL_Driver/Src/stm32wlxx_hal.c ****       }
 329              		.loc 1 281 20 is_stmt 0 view .LVU88
 330 003c 034B     		ldr	r3, .L16+4
 331 003e 1C60     		str	r4, [r3]
 265:Drivers/STM32WLxx_HAL_Driver/Src/stm32wlxx_hal.c **** 
 332              		.loc 1 265 22 view .LVU89
 333 0040 0020     		movs	r0, #0
ARM GAS  /var/folders/9y/n02fl3g16gnf7ppy14xghdy80000gn/T//ccRSWXWQ.s 			page 40


 334 0042 00E0     		b	.L6
 335              	.L8:
 290:Drivers/STM32WLxx_HAL_Driver/Src/stm32wlxx_hal.c ****     }
 336              		.loc 1 290 14 view .LVU90
 337 0044 0120     		movs	r0, #1
 338              	.L6:
 339              	.LVL22:
 299:Drivers/STM32WLxx_HAL_Driver/Src/stm32wlxx_hal.c **** }
 340              		.loc 1 299 3 is_stmt 1 view .LVU91
 341              		.loc 1 300 1 is_stmt 0 view .LVU92
 342 0046 10BD     		pop	{r4, pc}
 343              	.LVL23:
 344              	.L17:
 345              		.loc 1 300 1 view .LVU93
 346              		.align	2
 347              	.L16:
 348 0048 00000000 		.word	.LANCHOR0
 349 004c 00000000 		.word	.LANCHOR1
 350              		.cfi_endproc
 351              	.LFE848:
 353              		.section	.text.HAL_Init,"ax",%progbits
 354              		.align	1
 355              		.global	HAL_Init
 356              		.syntax unified
 357              		.thumb
 358              		.thumb_func
 359              		.fpu softvfp
 361              	HAL_Init:
 362              	.LFB844:
 142:Drivers/STM32WLxx_HAL_Driver/Src/stm32wlxx_hal.c ****   HAL_StatusTypeDef  status = HAL_OK;
 363              		.loc 1 142 1 is_stmt 1 view -0
 364              		.cfi_startproc
 365              		@ args = 0, pretend = 0, frame = 0
 366              		@ frame_needed = 0, uses_anonymous_args = 0
 367 0000 10B5     		push	{r4, lr}
 368              		.cfi_def_cfa_offset 8
 369              		.cfi_offset 4, -8
 370              		.cfi_offset 14, -4
 143:Drivers/STM32WLxx_HAL_Driver/Src/stm32wlxx_hal.c ****   /* Configure Flash prefetch, Instruction cache, Data cache */
 371              		.loc 1 143 3 view .LVU95
 372              	.LVL24:
 167:Drivers/STM32WLxx_HAL_Driver/Src/stm32wlxx_hal.c **** #endif
 373              		.loc 1 167 3 view .LVU96
 374 0002 0320     		movs	r0, #3
 375 0004 FFF7FEFF 		bl	HAL_NVIC_SetPriorityGrouping
 376              	.LVL25:
 174:Drivers/STM32WLxx_HAL_Driver/Src/stm32wlxx_hal.c **** #endif
 377              		.loc 1 174 3 view .LVU97
 174:Drivers/STM32WLxx_HAL_Driver/Src/stm32wlxx_hal.c **** #endif
 378              		.loc 1 174 21 is_stmt 0 view .LVU98
 379 0008 FFF7FEFF 		bl	HAL_RCC_GetHCLKFreq
 380              	.LVL26:
 174:Drivers/STM32WLxx_HAL_Driver/Src/stm32wlxx_hal.c **** #endif
 381              		.loc 1 174 19 view .LVU99
 382 000c 064B     		ldr	r3, .L23
 383 000e 1860     		str	r0, [r3]
 178:Drivers/STM32WLxx_HAL_Driver/Src/stm32wlxx_hal.c ****   {
ARM GAS  /var/folders/9y/n02fl3g16gnf7ppy14xghdy80000gn/T//ccRSWXWQ.s 			page 41


 384              		.loc 1 178 3 is_stmt 1 view .LVU100
 178:Drivers/STM32WLxx_HAL_Driver/Src/stm32wlxx_hal.c ****   {
 385              		.loc 1 178 7 is_stmt 0 view .LVU101
 386 0010 0F20     		movs	r0, #15
 387 0012 FFF7FEFF 		bl	HAL_InitTick
 388              	.LVL27:
 178:Drivers/STM32WLxx_HAL_Driver/Src/stm32wlxx_hal.c ****   {
 389              		.loc 1 178 6 view .LVU102
 390 0016 10B1     		cbz	r0, .L22
 180:Drivers/STM32WLxx_HAL_Driver/Src/stm32wlxx_hal.c ****   }
 391              		.loc 1 180 12 view .LVU103
 392 0018 0124     		movs	r4, #1
 393              	.L19:
 394              	.LVL28:
 189:Drivers/STM32WLxx_HAL_Driver/Src/stm32wlxx_hal.c **** }
 395              		.loc 1 189 3 is_stmt 1 view .LVU104
 190:Drivers/STM32WLxx_HAL_Driver/Src/stm32wlxx_hal.c **** 
 396              		.loc 1 190 1 is_stmt 0 view .LVU105
 397 001a 2046     		mov	r0, r4
 398 001c 10BD     		pop	{r4, pc}
 399              	.LVL29:
 400              	.L22:
 190:Drivers/STM32WLxx_HAL_Driver/Src/stm32wlxx_hal.c **** 
 401              		.loc 1 190 1 view .LVU106
 402 001e 0446     		mov	r4, r0
 185:Drivers/STM32WLxx_HAL_Driver/Src/stm32wlxx_hal.c ****   }
 403              		.loc 1 185 5 is_stmt 1 view .LVU107
 404 0020 FFF7FEFF 		bl	HAL_MspInit
 405              	.LVL30:
 406 0024 F9E7     		b	.L19
 407              	.L24:
 408 0026 00BF     		.align	2
 409              	.L23:
 410 0028 00000000 		.word	SystemCoreClock
 411              		.cfi_endproc
 412              	.LFE844:
 414              		.section	.text.HAL_IncTick,"ax",%progbits
 415              		.align	1
 416              		.weak	HAL_IncTick
 417              		.syntax unified
 418              		.thumb
 419              		.thumb_func
 420              		.fpu softvfp
 422              	HAL_IncTick:
 423              	.LFB849:
 301:Drivers/STM32WLxx_HAL_Driver/Src/stm32wlxx_hal.c **** 
 302:Drivers/STM32WLxx_HAL_Driver/Src/stm32wlxx_hal.c **** /**
 303:Drivers/STM32WLxx_HAL_Driver/Src/stm32wlxx_hal.c ****   * @}
 304:Drivers/STM32WLxx_HAL_Driver/Src/stm32wlxx_hal.c ****   */
 305:Drivers/STM32WLxx_HAL_Driver/Src/stm32wlxx_hal.c **** 
 306:Drivers/STM32WLxx_HAL_Driver/Src/stm32wlxx_hal.c **** /** @addtogroup HAL_Exported_Functions_Group2
 307:Drivers/STM32WLxx_HAL_Driver/Src/stm32wlxx_hal.c ****  *  @brief    HAL Control functions
 308:Drivers/STM32WLxx_HAL_Driver/Src/stm32wlxx_hal.c ****  *
 309:Drivers/STM32WLxx_HAL_Driver/Src/stm32wlxx_hal.c **** @verbatim
 310:Drivers/STM32WLxx_HAL_Driver/Src/stm32wlxx_hal.c ****  ===============================================================================
 311:Drivers/STM32WLxx_HAL_Driver/Src/stm32wlxx_hal.c ****                       ##### HAL Control functions #####
 312:Drivers/STM32WLxx_HAL_Driver/Src/stm32wlxx_hal.c ****  ===============================================================================
ARM GAS  /var/folders/9y/n02fl3g16gnf7ppy14xghdy80000gn/T//ccRSWXWQ.s 			page 42


 313:Drivers/STM32WLxx_HAL_Driver/Src/stm32wlxx_hal.c ****     [..]  This section provides functions allowing to:
 314:Drivers/STM32WLxx_HAL_Driver/Src/stm32wlxx_hal.c ****       (+) Provide a tick value in millisecond
 315:Drivers/STM32WLxx_HAL_Driver/Src/stm32wlxx_hal.c ****       (+) Provide a blocking delay in millisecond
 316:Drivers/STM32WLxx_HAL_Driver/Src/stm32wlxx_hal.c ****       (+) Suspend the time base source interrupt
 317:Drivers/STM32WLxx_HAL_Driver/Src/stm32wlxx_hal.c ****       (+) Resume the time base source interrupt
 318:Drivers/STM32WLxx_HAL_Driver/Src/stm32wlxx_hal.c ****       (+) Get the HAL API driver version
 319:Drivers/STM32WLxx_HAL_Driver/Src/stm32wlxx_hal.c ****       (+) Get the device revision identifier
 320:Drivers/STM32WLxx_HAL_Driver/Src/stm32wlxx_hal.c ****       (+) Get the device identifier
 321:Drivers/STM32WLxx_HAL_Driver/Src/stm32wlxx_hal.c ****       (+) Get the unique device identifier
 322:Drivers/STM32WLxx_HAL_Driver/Src/stm32wlxx_hal.c **** 
 323:Drivers/STM32WLxx_HAL_Driver/Src/stm32wlxx_hal.c **** @endverbatim
 324:Drivers/STM32WLxx_HAL_Driver/Src/stm32wlxx_hal.c ****   * @{
 325:Drivers/STM32WLxx_HAL_Driver/Src/stm32wlxx_hal.c ****   */
 326:Drivers/STM32WLxx_HAL_Driver/Src/stm32wlxx_hal.c **** 
 327:Drivers/STM32WLxx_HAL_Driver/Src/stm32wlxx_hal.c **** /**
 328:Drivers/STM32WLxx_HAL_Driver/Src/stm32wlxx_hal.c ****   * @brief This function is called to increment  a global variable "uwTick"
 329:Drivers/STM32WLxx_HAL_Driver/Src/stm32wlxx_hal.c ****   *        used as application time base.
 330:Drivers/STM32WLxx_HAL_Driver/Src/stm32wlxx_hal.c ****   * @note In the default implementation, this variable is incremented each 1ms
 331:Drivers/STM32WLxx_HAL_Driver/Src/stm32wlxx_hal.c ****   *       in SysTick ISR.
 332:Drivers/STM32WLxx_HAL_Driver/Src/stm32wlxx_hal.c ****  * @note This function is declared as __weak to be overwritten in case of other
 333:Drivers/STM32WLxx_HAL_Driver/Src/stm32wlxx_hal.c ****   *      implementations in user file.
 334:Drivers/STM32WLxx_HAL_Driver/Src/stm32wlxx_hal.c ****   * @retval None
 335:Drivers/STM32WLxx_HAL_Driver/Src/stm32wlxx_hal.c ****   */
 336:Drivers/STM32WLxx_HAL_Driver/Src/stm32wlxx_hal.c **** __weak void HAL_IncTick(void)
 337:Drivers/STM32WLxx_HAL_Driver/Src/stm32wlxx_hal.c **** {
 424              		.loc 1 337 1 view -0
 425              		.cfi_startproc
 426              		@ args = 0, pretend = 0, frame = 0
 427              		@ frame_needed = 0, uses_anonymous_args = 0
 428              		@ link register save eliminated.
 338:Drivers/STM32WLxx_HAL_Driver/Src/stm32wlxx_hal.c ****   uwTick += (uint32_t)uwTickFreq;
 429              		.loc 1 338 3 view .LVU109
 430              		.loc 1 338 13 is_stmt 0 view .LVU110
 431 0000 034B     		ldr	r3, .L26
 432 0002 1B78     		ldrb	r3, [r3]	@ zero_extendqisi2
 433              		.loc 1 338 10 view .LVU111
 434 0004 034A     		ldr	r2, .L26+4
 435 0006 1168     		ldr	r1, [r2]
 436 0008 0B44     		add	r3, r3, r1
 437 000a 1360     		str	r3, [r2]
 339:Drivers/STM32WLxx_HAL_Driver/Src/stm32wlxx_hal.c **** }
 438              		.loc 1 339 1 view .LVU112
 439 000c 7047     		bx	lr
 440              	.L27:
 441 000e 00BF     		.align	2
 442              	.L26:
 443 0010 00000000 		.word	.LANCHOR0
 444 0014 00000000 		.word	.LANCHOR2
 445              		.cfi_endproc
 446              	.LFE849:
 448              		.section	.text.HAL_GetTick,"ax",%progbits
 449              		.align	1
 450              		.weak	HAL_GetTick
 451              		.syntax unified
 452              		.thumb
 453              		.thumb_func
 454              		.fpu softvfp
ARM GAS  /var/folders/9y/n02fl3g16gnf7ppy14xghdy80000gn/T//ccRSWXWQ.s 			page 43


 456              	HAL_GetTick:
 457              	.LFB850:
 340:Drivers/STM32WLxx_HAL_Driver/Src/stm32wlxx_hal.c **** 
 341:Drivers/STM32WLxx_HAL_Driver/Src/stm32wlxx_hal.c **** /**
 342:Drivers/STM32WLxx_HAL_Driver/Src/stm32wlxx_hal.c ****   * @brief Provides a tick value in millisecond.
 343:Drivers/STM32WLxx_HAL_Driver/Src/stm32wlxx_hal.c ****   * @note This function is declared as __weak to be overwritten in case of other
 344:Drivers/STM32WLxx_HAL_Driver/Src/stm32wlxx_hal.c ****   *       implementations in user file.
 345:Drivers/STM32WLxx_HAL_Driver/Src/stm32wlxx_hal.c ****   * @retval tick value
 346:Drivers/STM32WLxx_HAL_Driver/Src/stm32wlxx_hal.c ****   */
 347:Drivers/STM32WLxx_HAL_Driver/Src/stm32wlxx_hal.c **** __weak uint32_t HAL_GetTick(void)
 348:Drivers/STM32WLxx_HAL_Driver/Src/stm32wlxx_hal.c **** {
 458              		.loc 1 348 1 is_stmt 1 view -0
 459              		.cfi_startproc
 460              		@ args = 0, pretend = 0, frame = 0
 461              		@ frame_needed = 0, uses_anonymous_args = 0
 462              		@ link register save eliminated.
 349:Drivers/STM32WLxx_HAL_Driver/Src/stm32wlxx_hal.c ****   return uwTick;
 463              		.loc 1 349 3 view .LVU114
 464              		.loc 1 349 10 is_stmt 0 view .LVU115
 465 0000 014B     		ldr	r3, .L29
 466 0002 1868     		ldr	r0, [r3]
 350:Drivers/STM32WLxx_HAL_Driver/Src/stm32wlxx_hal.c **** }
 467              		.loc 1 350 1 view .LVU116
 468 0004 7047     		bx	lr
 469              	.L30:
 470 0006 00BF     		.align	2
 471              	.L29:
 472 0008 00000000 		.word	.LANCHOR2
 473              		.cfi_endproc
 474              	.LFE850:
 476              		.section	.text.HAL_GetTickPrio,"ax",%progbits
 477              		.align	1
 478              		.global	HAL_GetTickPrio
 479              		.syntax unified
 480              		.thumb
 481              		.thumb_func
 482              		.fpu softvfp
 484              	HAL_GetTickPrio:
 485              	.LFB851:
 351:Drivers/STM32WLxx_HAL_Driver/Src/stm32wlxx_hal.c **** 
 352:Drivers/STM32WLxx_HAL_Driver/Src/stm32wlxx_hal.c **** /**
 353:Drivers/STM32WLxx_HAL_Driver/Src/stm32wlxx_hal.c ****   * @brief This function returns a tick priority.
 354:Drivers/STM32WLxx_HAL_Driver/Src/stm32wlxx_hal.c ****   * @retval tick priority
 355:Drivers/STM32WLxx_HAL_Driver/Src/stm32wlxx_hal.c ****   */
 356:Drivers/STM32WLxx_HAL_Driver/Src/stm32wlxx_hal.c **** uint32_t HAL_GetTickPrio(void)
 357:Drivers/STM32WLxx_HAL_Driver/Src/stm32wlxx_hal.c **** {
 486              		.loc 1 357 1 is_stmt 1 view -0
 487              		.cfi_startproc
 488              		@ args = 0, pretend = 0, frame = 0
 489              		@ frame_needed = 0, uses_anonymous_args = 0
 490              		@ link register save eliminated.
 358:Drivers/STM32WLxx_HAL_Driver/Src/stm32wlxx_hal.c ****   return uwTickPrio;
 491              		.loc 1 358 3 view .LVU118
 359:Drivers/STM32WLxx_HAL_Driver/Src/stm32wlxx_hal.c **** }
 492              		.loc 1 359 1 is_stmt 0 view .LVU119
 493 0000 014B     		ldr	r3, .L32
 494 0002 1868     		ldr	r0, [r3]
ARM GAS  /var/folders/9y/n02fl3g16gnf7ppy14xghdy80000gn/T//ccRSWXWQ.s 			page 44


 495 0004 7047     		bx	lr
 496              	.L33:
 497 0006 00BF     		.align	2
 498              	.L32:
 499 0008 00000000 		.word	.LANCHOR1
 500              		.cfi_endproc
 501              	.LFE851:
 503              		.section	.text.HAL_SetTickFreq,"ax",%progbits
 504              		.align	1
 505              		.global	HAL_SetTickFreq
 506              		.syntax unified
 507              		.thumb
 508              		.thumb_func
 509              		.fpu softvfp
 511              	HAL_SetTickFreq:
 512              	.LVL31:
 513              	.LFB852:
 360:Drivers/STM32WLxx_HAL_Driver/Src/stm32wlxx_hal.c **** 
 361:Drivers/STM32WLxx_HAL_Driver/Src/stm32wlxx_hal.c **** /**
 362:Drivers/STM32WLxx_HAL_Driver/Src/stm32wlxx_hal.c ****   * @brief Set new tick Freq.
 363:Drivers/STM32WLxx_HAL_Driver/Src/stm32wlxx_hal.c ****   * @retval Status
 364:Drivers/STM32WLxx_HAL_Driver/Src/stm32wlxx_hal.c ****   */
 365:Drivers/STM32WLxx_HAL_Driver/Src/stm32wlxx_hal.c **** HAL_StatusTypeDef HAL_SetTickFreq(HAL_TickFreqTypeDef Freq)
 366:Drivers/STM32WLxx_HAL_Driver/Src/stm32wlxx_hal.c **** {
 514              		.loc 1 366 1 is_stmt 1 view -0
 515              		.cfi_startproc
 516              		@ args = 0, pretend = 0, frame = 0
 517              		@ frame_needed = 0, uses_anonymous_args = 0
 518              		.loc 1 366 1 is_stmt 0 view .LVU121
 519 0000 10B5     		push	{r4, lr}
 520              		.cfi_def_cfa_offset 8
 521              		.cfi_offset 4, -8
 522              		.cfi_offset 14, -4
 367:Drivers/STM32WLxx_HAL_Driver/Src/stm32wlxx_hal.c ****   HAL_StatusTypeDef status  = HAL_OK;
 523              		.loc 1 367 3 is_stmt 1 view .LVU122
 524              	.LVL32:
 368:Drivers/STM32WLxx_HAL_Driver/Src/stm32wlxx_hal.c ****   HAL_TickFreqTypeDef prevTickFreq;
 525              		.loc 1 368 3 view .LVU123
 369:Drivers/STM32WLxx_HAL_Driver/Src/stm32wlxx_hal.c ****   assert_param(IS_TICKFREQ(Freq));
 526              		.loc 1 369 3 view .LVU124
 370:Drivers/STM32WLxx_HAL_Driver/Src/stm32wlxx_hal.c **** 
 371:Drivers/STM32WLxx_HAL_Driver/Src/stm32wlxx_hal.c ****   if (uwTickFreq != Freq)
 527              		.loc 1 371 3 view .LVU125
 528              		.loc 1 371 18 is_stmt 0 view .LVU126
 529 0002 084B     		ldr	r3, .L39
 530 0004 1C78     		ldrb	r4, [r3]	@ zero_extendqisi2
 531              		.loc 1 371 6 view .LVU127
 532 0006 8442     		cmp	r4, r0
 533 0008 01D1     		bne	.L38
 367:Drivers/STM32WLxx_HAL_Driver/Src/stm32wlxx_hal.c ****   HAL_TickFreqTypeDef prevTickFreq;
 534              		.loc 1 367 21 view .LVU128
 535 000a 0020     		movs	r0, #0
 536              	.LVL33:
 537              	.L35:
 372:Drivers/STM32WLxx_HAL_Driver/Src/stm32wlxx_hal.c ****   {
 373:Drivers/STM32WLxx_HAL_Driver/Src/stm32wlxx_hal.c ****     /* Back up uwTickFreq frequency */
 374:Drivers/STM32WLxx_HAL_Driver/Src/stm32wlxx_hal.c ****     prevTickFreq = uwTickFreq;
ARM GAS  /var/folders/9y/n02fl3g16gnf7ppy14xghdy80000gn/T//ccRSWXWQ.s 			page 45


 375:Drivers/STM32WLxx_HAL_Driver/Src/stm32wlxx_hal.c **** 
 376:Drivers/STM32WLxx_HAL_Driver/Src/stm32wlxx_hal.c ****     /* Update uwTickFreq global variable used by HAL_InitTick() */
 377:Drivers/STM32WLxx_HAL_Driver/Src/stm32wlxx_hal.c ****     uwTickFreq = Freq;
 378:Drivers/STM32WLxx_HAL_Driver/Src/stm32wlxx_hal.c **** 
 379:Drivers/STM32WLxx_HAL_Driver/Src/stm32wlxx_hal.c ****     /* Apply the new tick Freq */
 380:Drivers/STM32WLxx_HAL_Driver/Src/stm32wlxx_hal.c ****     status = HAL_InitTick(uwTickPrio);
 381:Drivers/STM32WLxx_HAL_Driver/Src/stm32wlxx_hal.c **** 
 382:Drivers/STM32WLxx_HAL_Driver/Src/stm32wlxx_hal.c ****     if (status != HAL_OK)
 383:Drivers/STM32WLxx_HAL_Driver/Src/stm32wlxx_hal.c ****     {
 384:Drivers/STM32WLxx_HAL_Driver/Src/stm32wlxx_hal.c ****       /* Restore previous tick frequency */
 385:Drivers/STM32WLxx_HAL_Driver/Src/stm32wlxx_hal.c ****       uwTickFreq = prevTickFreq;
 386:Drivers/STM32WLxx_HAL_Driver/Src/stm32wlxx_hal.c ****     }
 387:Drivers/STM32WLxx_HAL_Driver/Src/stm32wlxx_hal.c ****   }
 388:Drivers/STM32WLxx_HAL_Driver/Src/stm32wlxx_hal.c **** 
 389:Drivers/STM32WLxx_HAL_Driver/Src/stm32wlxx_hal.c ****   return status;
 538              		.loc 1 389 3 is_stmt 1 view .LVU129
 390:Drivers/STM32WLxx_HAL_Driver/Src/stm32wlxx_hal.c **** }
 539              		.loc 1 390 1 is_stmt 0 view .LVU130
 540 000c 10BD     		pop	{r4, pc}
 541              	.LVL34:
 542              	.L38:
 374:Drivers/STM32WLxx_HAL_Driver/Src/stm32wlxx_hal.c **** 
 543              		.loc 1 374 5 is_stmt 1 view .LVU131
 377:Drivers/STM32WLxx_HAL_Driver/Src/stm32wlxx_hal.c **** 
 544              		.loc 1 377 5 view .LVU132
 377:Drivers/STM32WLxx_HAL_Driver/Src/stm32wlxx_hal.c **** 
 545              		.loc 1 377 16 is_stmt 0 view .LVU133
 546 000e 1870     		strb	r0, [r3]
 380:Drivers/STM32WLxx_HAL_Driver/Src/stm32wlxx_hal.c **** 
 547              		.loc 1 380 5 is_stmt 1 view .LVU134
 380:Drivers/STM32WLxx_HAL_Driver/Src/stm32wlxx_hal.c **** 
 548              		.loc 1 380 14 is_stmt 0 view .LVU135
 549 0010 054B     		ldr	r3, .L39+4
 550 0012 1868     		ldr	r0, [r3]
 551              	.LVL35:
 380:Drivers/STM32WLxx_HAL_Driver/Src/stm32wlxx_hal.c **** 
 552              		.loc 1 380 14 view .LVU136
 553 0014 FFF7FEFF 		bl	HAL_InitTick
 554              	.LVL36:
 382:Drivers/STM32WLxx_HAL_Driver/Src/stm32wlxx_hal.c ****     {
 555              		.loc 1 382 5 is_stmt 1 view .LVU137
 382:Drivers/STM32WLxx_HAL_Driver/Src/stm32wlxx_hal.c ****     {
 556              		.loc 1 382 8 is_stmt 0 view .LVU138
 557 0018 0028     		cmp	r0, #0
 558 001a F7D0     		beq	.L35
 385:Drivers/STM32WLxx_HAL_Driver/Src/stm32wlxx_hal.c ****     }
 559              		.loc 1 385 7 is_stmt 1 view .LVU139
 385:Drivers/STM32WLxx_HAL_Driver/Src/stm32wlxx_hal.c ****     }
 560              		.loc 1 385 18 is_stmt 0 view .LVU140
 561 001c 014B     		ldr	r3, .L39
 562 001e 1C70     		strb	r4, [r3]
 563 0020 F4E7     		b	.L35
 564              	.L40:
 565 0022 00BF     		.align	2
 566              	.L39:
 567 0024 00000000 		.word	.LANCHOR0
 568 0028 00000000 		.word	.LANCHOR1
ARM GAS  /var/folders/9y/n02fl3g16gnf7ppy14xghdy80000gn/T//ccRSWXWQ.s 			page 46


 569              		.cfi_endproc
 570              	.LFE852:
 572              		.section	.text.HAL_GetTickFreq,"ax",%progbits
 573              		.align	1
 574              		.global	HAL_GetTickFreq
 575              		.syntax unified
 576              		.thumb
 577              		.thumb_func
 578              		.fpu softvfp
 580              	HAL_GetTickFreq:
 581              	.LFB853:
 391:Drivers/STM32WLxx_HAL_Driver/Src/stm32wlxx_hal.c **** 
 392:Drivers/STM32WLxx_HAL_Driver/Src/stm32wlxx_hal.c **** /**
 393:Drivers/STM32WLxx_HAL_Driver/Src/stm32wlxx_hal.c ****   * @brief Return tick frequency.
 394:Drivers/STM32WLxx_HAL_Driver/Src/stm32wlxx_hal.c ****   * @retval tick period in Hz
 395:Drivers/STM32WLxx_HAL_Driver/Src/stm32wlxx_hal.c ****   */
 396:Drivers/STM32WLxx_HAL_Driver/Src/stm32wlxx_hal.c **** HAL_TickFreqTypeDef HAL_GetTickFreq(void)
 397:Drivers/STM32WLxx_HAL_Driver/Src/stm32wlxx_hal.c **** {
 582              		.loc 1 397 1 is_stmt 1 view -0
 583              		.cfi_startproc
 584              		@ args = 0, pretend = 0, frame = 0
 585              		@ frame_needed = 0, uses_anonymous_args = 0
 586              		@ link register save eliminated.
 398:Drivers/STM32WLxx_HAL_Driver/Src/stm32wlxx_hal.c ****   return uwTickFreq;
 587              		.loc 1 398 3 view .LVU142
 399:Drivers/STM32WLxx_HAL_Driver/Src/stm32wlxx_hal.c **** }
 588              		.loc 1 399 1 is_stmt 0 view .LVU143
 589 0000 014B     		ldr	r3, .L42
 590 0002 1878     		ldrb	r0, [r3]	@ zero_extendqisi2
 591 0004 7047     		bx	lr
 592              	.L43:
 593 0006 00BF     		.align	2
 594              	.L42:
 595 0008 00000000 		.word	.LANCHOR0
 596              		.cfi_endproc
 597              	.LFE853:
 599              		.section	.text.HAL_Delay,"ax",%progbits
 600              		.align	1
 601              		.weak	HAL_Delay
 602              		.syntax unified
 603              		.thumb
 604              		.thumb_func
 605              		.fpu softvfp
 607              	HAL_Delay:
 608              	.LVL37:
 609              	.LFB854:
 400:Drivers/STM32WLxx_HAL_Driver/Src/stm32wlxx_hal.c **** 
 401:Drivers/STM32WLxx_HAL_Driver/Src/stm32wlxx_hal.c **** /**
 402:Drivers/STM32WLxx_HAL_Driver/Src/stm32wlxx_hal.c ****   * @brief This function provides minimum delay (in milliseconds) based
 403:Drivers/STM32WLxx_HAL_Driver/Src/stm32wlxx_hal.c ****   *        on variable incremented.
 404:Drivers/STM32WLxx_HAL_Driver/Src/stm32wlxx_hal.c ****   * @note In the default implementation , SysTick timer is the source of time base.
 405:Drivers/STM32WLxx_HAL_Driver/Src/stm32wlxx_hal.c ****   *       It is used to generate interrupts at regular time intervals where uwTick
 406:Drivers/STM32WLxx_HAL_Driver/Src/stm32wlxx_hal.c ****   *       is incremented.
 407:Drivers/STM32WLxx_HAL_Driver/Src/stm32wlxx_hal.c ****   * @note This function is declared as __weak to be overwritten in case of other
 408:Drivers/STM32WLxx_HAL_Driver/Src/stm32wlxx_hal.c ****   *       implementations in user file.
 409:Drivers/STM32WLxx_HAL_Driver/Src/stm32wlxx_hal.c ****   * @param Delay  specifies the delay time length, in milliseconds.
 410:Drivers/STM32WLxx_HAL_Driver/Src/stm32wlxx_hal.c ****   * @retval None
ARM GAS  /var/folders/9y/n02fl3g16gnf7ppy14xghdy80000gn/T//ccRSWXWQ.s 			page 47


 411:Drivers/STM32WLxx_HAL_Driver/Src/stm32wlxx_hal.c ****   */
 412:Drivers/STM32WLxx_HAL_Driver/Src/stm32wlxx_hal.c **** __weak void HAL_Delay(uint32_t Delay)
 413:Drivers/STM32WLxx_HAL_Driver/Src/stm32wlxx_hal.c **** {
 610              		.loc 1 413 1 is_stmt 1 view -0
 611              		.cfi_startproc
 612              		@ args = 0, pretend = 0, frame = 0
 613              		@ frame_needed = 0, uses_anonymous_args = 0
 614              		.loc 1 413 1 is_stmt 0 view .LVU145
 615 0000 38B5     		push	{r3, r4, r5, lr}
 616              		.cfi_def_cfa_offset 16
 617              		.cfi_offset 3, -16
 618              		.cfi_offset 4, -12
 619              		.cfi_offset 5, -8
 620              		.cfi_offset 14, -4
 621 0002 0446     		mov	r4, r0
 414:Drivers/STM32WLxx_HAL_Driver/Src/stm32wlxx_hal.c ****   uint32_t tickstart = HAL_GetTick();
 622              		.loc 1 414 3 is_stmt 1 view .LVU146
 623              		.loc 1 414 24 is_stmt 0 view .LVU147
 624 0004 FFF7FEFF 		bl	HAL_GetTick
 625              	.LVL38:
 626              		.loc 1 414 24 view .LVU148
 627 0008 0546     		mov	r5, r0
 628              	.LVL39:
 415:Drivers/STM32WLxx_HAL_Driver/Src/stm32wlxx_hal.c ****   uint32_t wait = Delay;
 629              		.loc 1 415 3 is_stmt 1 view .LVU149
 416:Drivers/STM32WLxx_HAL_Driver/Src/stm32wlxx_hal.c **** 
 417:Drivers/STM32WLxx_HAL_Driver/Src/stm32wlxx_hal.c ****   /* Add a freq to guarantee minimum wait */
 418:Drivers/STM32WLxx_HAL_Driver/Src/stm32wlxx_hal.c ****   if (wait < HAL_MAX_DELAY)
 630              		.loc 1 418 3 view .LVU150
 631              		.loc 1 418 6 is_stmt 0 view .LVU151
 632 000a B4F1FF3F 		cmp	r4, #-1
 633 000e 02D0     		beq	.L46
 419:Drivers/STM32WLxx_HAL_Driver/Src/stm32wlxx_hal.c ****   {
 420:Drivers/STM32WLxx_HAL_Driver/Src/stm32wlxx_hal.c ****     wait += (uint32_t)(uwTickFreq);
 634              		.loc 1 420 5 is_stmt 1 view .LVU152
 635              		.loc 1 420 13 is_stmt 0 view .LVU153
 636 0010 044B     		ldr	r3, .L48
 637 0012 1B78     		ldrb	r3, [r3]	@ zero_extendqisi2
 638              		.loc 1 420 10 view .LVU154
 639 0014 1C44     		add	r4, r4, r3
 640              	.LVL40:
 641              	.L46:
 421:Drivers/STM32WLxx_HAL_Driver/Src/stm32wlxx_hal.c ****   }
 422:Drivers/STM32WLxx_HAL_Driver/Src/stm32wlxx_hal.c **** 
 423:Drivers/STM32WLxx_HAL_Driver/Src/stm32wlxx_hal.c ****   while ((HAL_GetTick() - tickstart) < wait)
 424:Drivers/STM32WLxx_HAL_Driver/Src/stm32wlxx_hal.c ****   {
 425:Drivers/STM32WLxx_HAL_Driver/Src/stm32wlxx_hal.c ****   }
 642              		.loc 1 425 3 is_stmt 1 discriminator 1 view .LVU155
 423:Drivers/STM32WLxx_HAL_Driver/Src/stm32wlxx_hal.c ****   {
 643              		.loc 1 423 9 discriminator 1 view .LVU156
 423:Drivers/STM32WLxx_HAL_Driver/Src/stm32wlxx_hal.c ****   {
 644              		.loc 1 423 11 is_stmt 0 discriminator 1 view .LVU157
 645 0016 FFF7FEFF 		bl	HAL_GetTick
 646              	.LVL41:
 423:Drivers/STM32WLxx_HAL_Driver/Src/stm32wlxx_hal.c ****   {
 647              		.loc 1 423 25 discriminator 1 view .LVU158
 648 001a 401B     		subs	r0, r0, r5
ARM GAS  /var/folders/9y/n02fl3g16gnf7ppy14xghdy80000gn/T//ccRSWXWQ.s 			page 48


 423:Drivers/STM32WLxx_HAL_Driver/Src/stm32wlxx_hal.c ****   {
 649              		.loc 1 423 9 discriminator 1 view .LVU159
 650 001c A042     		cmp	r0, r4
 651 001e FAD3     		bcc	.L46
 426:Drivers/STM32WLxx_HAL_Driver/Src/stm32wlxx_hal.c **** }
 652              		.loc 1 426 1 view .LVU160
 653 0020 38BD     		pop	{r3, r4, r5, pc}
 654              	.LVL42:
 655              	.L49:
 656              		.loc 1 426 1 view .LVU161
 657 0022 00BF     		.align	2
 658              	.L48:
 659 0024 00000000 		.word	.LANCHOR0
 660              		.cfi_endproc
 661              	.LFE854:
 663              		.section	.text.HAL_SuspendTick,"ax",%progbits
 664              		.align	1
 665              		.weak	HAL_SuspendTick
 666              		.syntax unified
 667              		.thumb
 668              		.thumb_func
 669              		.fpu softvfp
 671              	HAL_SuspendTick:
 672              	.LFB855:
 427:Drivers/STM32WLxx_HAL_Driver/Src/stm32wlxx_hal.c **** 
 428:Drivers/STM32WLxx_HAL_Driver/Src/stm32wlxx_hal.c **** 
 429:Drivers/STM32WLxx_HAL_Driver/Src/stm32wlxx_hal.c **** /**
 430:Drivers/STM32WLxx_HAL_Driver/Src/stm32wlxx_hal.c ****   * @brief Suspend Tick increment.
 431:Drivers/STM32WLxx_HAL_Driver/Src/stm32wlxx_hal.c ****   * @note In the default implementation , SysTick timer is the source of time base. It is
 432:Drivers/STM32WLxx_HAL_Driver/Src/stm32wlxx_hal.c ****   *       used to generate interrupts at regular time intervals. Once HAL_SuspendTick()
 433:Drivers/STM32WLxx_HAL_Driver/Src/stm32wlxx_hal.c ****   *       is called, the SysTick interrupt will be disabled and so Tick increment
 434:Drivers/STM32WLxx_HAL_Driver/Src/stm32wlxx_hal.c ****   *       is suspended.
 435:Drivers/STM32WLxx_HAL_Driver/Src/stm32wlxx_hal.c ****   * @note This function is declared as __weak to be overwritten in case of other
 436:Drivers/STM32WLxx_HAL_Driver/Src/stm32wlxx_hal.c ****   *       implementations in user file.
 437:Drivers/STM32WLxx_HAL_Driver/Src/stm32wlxx_hal.c ****   * @retval None
 438:Drivers/STM32WLxx_HAL_Driver/Src/stm32wlxx_hal.c ****   */
 439:Drivers/STM32WLxx_HAL_Driver/Src/stm32wlxx_hal.c **** __weak void HAL_SuspendTick(void)
 440:Drivers/STM32WLxx_HAL_Driver/Src/stm32wlxx_hal.c **** {
 673              		.loc 1 440 1 is_stmt 1 view -0
 674              		.cfi_startproc
 675              		@ args = 0, pretend = 0, frame = 0
 676              		@ frame_needed = 0, uses_anonymous_args = 0
 677              		@ link register save eliminated.
 441:Drivers/STM32WLxx_HAL_Driver/Src/stm32wlxx_hal.c ****   /* Disable SysTick Interrupt */
 442:Drivers/STM32WLxx_HAL_Driver/Src/stm32wlxx_hal.c ****   CLEAR_BIT(SysTick->CTRL, SysTick_CTRL_TICKINT_Msk);
 678              		.loc 1 442 3 view .LVU163
 679 0000 4FF0E022 		mov	r2, #-536813568
 680 0004 1369     		ldr	r3, [r2, #16]
 681 0006 23F00203 		bic	r3, r3, #2
 682 000a 1361     		str	r3, [r2, #16]
 443:Drivers/STM32WLxx_HAL_Driver/Src/stm32wlxx_hal.c **** }
 683              		.loc 1 443 1 is_stmt 0 view .LVU164
 684 000c 7047     		bx	lr
 685              		.cfi_endproc
 686              	.LFE855:
 688              		.section	.text.HAL_ResumeTick,"ax",%progbits
 689              		.align	1
ARM GAS  /var/folders/9y/n02fl3g16gnf7ppy14xghdy80000gn/T//ccRSWXWQ.s 			page 49


 690              		.weak	HAL_ResumeTick
 691              		.syntax unified
 692              		.thumb
 693              		.thumb_func
 694              		.fpu softvfp
 696              	HAL_ResumeTick:
 697              	.LFB856:
 444:Drivers/STM32WLxx_HAL_Driver/Src/stm32wlxx_hal.c **** 
 445:Drivers/STM32WLxx_HAL_Driver/Src/stm32wlxx_hal.c **** /**
 446:Drivers/STM32WLxx_HAL_Driver/Src/stm32wlxx_hal.c ****   * @brief Resume Tick increment.
 447:Drivers/STM32WLxx_HAL_Driver/Src/stm32wlxx_hal.c ****   * @note In the default implementation , SysTick timer is the source of time base. It is
 448:Drivers/STM32WLxx_HAL_Driver/Src/stm32wlxx_hal.c ****   *       used to generate interrupts at regular time intervals. Once HAL_ResumeTick()
 449:Drivers/STM32WLxx_HAL_Driver/Src/stm32wlxx_hal.c ****   *       is called, the SysTick interrupt will be enabled and so Tick increment
 450:Drivers/STM32WLxx_HAL_Driver/Src/stm32wlxx_hal.c ****   *       is resumed.
 451:Drivers/STM32WLxx_HAL_Driver/Src/stm32wlxx_hal.c ****   * @note This function is declared as __weak to be overwritten in case of other
 452:Drivers/STM32WLxx_HAL_Driver/Src/stm32wlxx_hal.c ****   *       implementations in user file.
 453:Drivers/STM32WLxx_HAL_Driver/Src/stm32wlxx_hal.c ****   * @retval None
 454:Drivers/STM32WLxx_HAL_Driver/Src/stm32wlxx_hal.c ****   */
 455:Drivers/STM32WLxx_HAL_Driver/Src/stm32wlxx_hal.c **** __weak void HAL_ResumeTick(void)
 456:Drivers/STM32WLxx_HAL_Driver/Src/stm32wlxx_hal.c **** {
 698              		.loc 1 456 1 is_stmt 1 view -0
 699              		.cfi_startproc
 700              		@ args = 0, pretend = 0, frame = 0
 701              		@ frame_needed = 0, uses_anonymous_args = 0
 702              		@ link register save eliminated.
 457:Drivers/STM32WLxx_HAL_Driver/Src/stm32wlxx_hal.c ****   /* Enable SysTick Interrupt */
 458:Drivers/STM32WLxx_HAL_Driver/Src/stm32wlxx_hal.c ****   SET_BIT(SysTick->CTRL, SysTick_CTRL_TICKINT_Msk);
 703              		.loc 1 458 3 view .LVU166
 704 0000 4FF0E022 		mov	r2, #-536813568
 705 0004 1369     		ldr	r3, [r2, #16]
 706 0006 43F00203 		orr	r3, r3, #2
 707 000a 1361     		str	r3, [r2, #16]
 459:Drivers/STM32WLxx_HAL_Driver/Src/stm32wlxx_hal.c **** }
 708              		.loc 1 459 1 is_stmt 0 view .LVU167
 709 000c 7047     		bx	lr
 710              		.cfi_endproc
 711              	.LFE856:
 713              		.section	.text.HAL_GetHalVersion,"ax",%progbits
 714              		.align	1
 715              		.global	HAL_GetHalVersion
 716              		.syntax unified
 717              		.thumb
 718              		.thumb_func
 719              		.fpu softvfp
 721              	HAL_GetHalVersion:
 722              	.LFB857:
 460:Drivers/STM32WLxx_HAL_Driver/Src/stm32wlxx_hal.c **** 
 461:Drivers/STM32WLxx_HAL_Driver/Src/stm32wlxx_hal.c **** /**
 462:Drivers/STM32WLxx_HAL_Driver/Src/stm32wlxx_hal.c ****   * @brief  Returns the HAL revision
 463:Drivers/STM32WLxx_HAL_Driver/Src/stm32wlxx_hal.c ****   * @retval version : 0xXYZR (8bits for each decimal, R for RC)
 464:Drivers/STM32WLxx_HAL_Driver/Src/stm32wlxx_hal.c ****   */
 465:Drivers/STM32WLxx_HAL_Driver/Src/stm32wlxx_hal.c **** uint32_t HAL_GetHalVersion(void)
 466:Drivers/STM32WLxx_HAL_Driver/Src/stm32wlxx_hal.c **** {
 723              		.loc 1 466 1 is_stmt 1 view -0
 724              		.cfi_startproc
 725              		@ args = 0, pretend = 0, frame = 0
 726              		@ frame_needed = 0, uses_anonymous_args = 0
ARM GAS  /var/folders/9y/n02fl3g16gnf7ppy14xghdy80000gn/T//ccRSWXWQ.s 			page 50


 727              		@ link register save eliminated.
 467:Drivers/STM32WLxx_HAL_Driver/Src/stm32wlxx_hal.c ****   return __STM32WLxx_HAL_VERSION;
 728              		.loc 1 467 3 view .LVU169
 468:Drivers/STM32WLxx_HAL_Driver/Src/stm32wlxx_hal.c **** }
 729              		.loc 1 468 1 is_stmt 0 view .LVU170
 730 0000 4FF08170 		mov	r0, #16908288
 731 0004 7047     		bx	lr
 732              		.cfi_endproc
 733              	.LFE857:
 735              		.section	.text.HAL_GetREVID,"ax",%progbits
 736              		.align	1
 737              		.global	HAL_GetREVID
 738              		.syntax unified
 739              		.thumb
 740              		.thumb_func
 741              		.fpu softvfp
 743              	HAL_GetREVID:
 744              	.LFB858:
 469:Drivers/STM32WLxx_HAL_Driver/Src/stm32wlxx_hal.c **** 
 470:Drivers/STM32WLxx_HAL_Driver/Src/stm32wlxx_hal.c **** #if defined(CORE_CM0PLUS)
 471:Drivers/STM32WLxx_HAL_Driver/Src/stm32wlxx_hal.c **** #else
 472:Drivers/STM32WLxx_HAL_Driver/Src/stm32wlxx_hal.c **** /**
 473:Drivers/STM32WLxx_HAL_Driver/Src/stm32wlxx_hal.c ****   * @brief  Returns the device revision identifier.
 474:Drivers/STM32WLxx_HAL_Driver/Src/stm32wlxx_hal.c ****   * @retval Device revision identifier
 475:Drivers/STM32WLxx_HAL_Driver/Src/stm32wlxx_hal.c ****   */
 476:Drivers/STM32WLxx_HAL_Driver/Src/stm32wlxx_hal.c **** uint32_t HAL_GetREVID(void)
 477:Drivers/STM32WLxx_HAL_Driver/Src/stm32wlxx_hal.c **** {
 745              		.loc 1 477 1 is_stmt 1 view -0
 746              		.cfi_startproc
 747              		@ args = 0, pretend = 0, frame = 0
 748              		@ frame_needed = 0, uses_anonymous_args = 0
 749              		@ link register save eliminated.
 478:Drivers/STM32WLxx_HAL_Driver/Src/stm32wlxx_hal.c ****   return (LL_DBGMCU_GetRevisionID());
 750              		.loc 1 478 3 view .LVU172
 751              	.LBB90:
 752              	.LBI90:
 753              		.file 3 "Drivers/STM32WLxx_HAL_Driver/Inc/stm32wlxx_ll_system.h"
   1:Drivers/STM32WLxx_HAL_Driver/Inc/stm32wlxx_ll_system.h **** /**
   2:Drivers/STM32WLxx_HAL_Driver/Inc/stm32wlxx_ll_system.h ****   ******************************************************************************
   3:Drivers/STM32WLxx_HAL_Driver/Inc/stm32wlxx_ll_system.h ****   * @file    stm32wlxx_ll_system.h
   4:Drivers/STM32WLxx_HAL_Driver/Inc/stm32wlxx_ll_system.h ****   * @author  MCD Application Team
   5:Drivers/STM32WLxx_HAL_Driver/Inc/stm32wlxx_ll_system.h ****   * @brief   Header file of SYSTEM LL module.
   6:Drivers/STM32WLxx_HAL_Driver/Inc/stm32wlxx_ll_system.h ****   *
   7:Drivers/STM32WLxx_HAL_Driver/Inc/stm32wlxx_ll_system.h ****   ******************************************************************************
   8:Drivers/STM32WLxx_HAL_Driver/Inc/stm32wlxx_ll_system.h ****   * @attention
   9:Drivers/STM32WLxx_HAL_Driver/Inc/stm32wlxx_ll_system.h ****   *
  10:Drivers/STM32WLxx_HAL_Driver/Inc/stm32wlxx_ll_system.h ****   * Copyright (c) 2020 STMicroelectronics.
  11:Drivers/STM32WLxx_HAL_Driver/Inc/stm32wlxx_ll_system.h ****   * All rights reserved.
  12:Drivers/STM32WLxx_HAL_Driver/Inc/stm32wlxx_ll_system.h ****   *
  13:Drivers/STM32WLxx_HAL_Driver/Inc/stm32wlxx_ll_system.h ****   * This software is licensed under terms that can be found in the LICENSE file
  14:Drivers/STM32WLxx_HAL_Driver/Inc/stm32wlxx_ll_system.h ****   * in the root directory of this software component.
  15:Drivers/STM32WLxx_HAL_Driver/Inc/stm32wlxx_ll_system.h ****   * If no LICENSE file comes with this software, it is provided AS-IS.
  16:Drivers/STM32WLxx_HAL_Driver/Inc/stm32wlxx_ll_system.h ****   *
  17:Drivers/STM32WLxx_HAL_Driver/Inc/stm32wlxx_ll_system.h ****   ******************************************************************************
  18:Drivers/STM32WLxx_HAL_Driver/Inc/stm32wlxx_ll_system.h ****   @verbatim
  19:Drivers/STM32WLxx_HAL_Driver/Inc/stm32wlxx_ll_system.h ****   ==============================================================================
  20:Drivers/STM32WLxx_HAL_Driver/Inc/stm32wlxx_ll_system.h ****                      ##### How to use this driver #####
ARM GAS  /var/folders/9y/n02fl3g16gnf7ppy14xghdy80000gn/T//ccRSWXWQ.s 			page 51


  21:Drivers/STM32WLxx_HAL_Driver/Inc/stm32wlxx_ll_system.h ****   ==============================================================================
  22:Drivers/STM32WLxx_HAL_Driver/Inc/stm32wlxx_ll_system.h ****     [..]
  23:Drivers/STM32WLxx_HAL_Driver/Inc/stm32wlxx_ll_system.h ****     The LL SYSTEM driver contains a set of generic APIs that can be
  24:Drivers/STM32WLxx_HAL_Driver/Inc/stm32wlxx_ll_system.h ****     used by user:
  25:Drivers/STM32WLxx_HAL_Driver/Inc/stm32wlxx_ll_system.h ****       (+) Some of the FLASH features need to be handled in the SYSTEM file.
  26:Drivers/STM32WLxx_HAL_Driver/Inc/stm32wlxx_ll_system.h ****       (+) Access to DBGCMU registers
  27:Drivers/STM32WLxx_HAL_Driver/Inc/stm32wlxx_ll_system.h ****       (+) Access to SYSCFG registers
  28:Drivers/STM32WLxx_HAL_Driver/Inc/stm32wlxx_ll_system.h ****       (+) Access to VREFBUF registers
  29:Drivers/STM32WLxx_HAL_Driver/Inc/stm32wlxx_ll_system.h **** 
  30:Drivers/STM32WLxx_HAL_Driver/Inc/stm32wlxx_ll_system.h ****   @endverbatim
  31:Drivers/STM32WLxx_HAL_Driver/Inc/stm32wlxx_ll_system.h ****   ******************************************************************************
  32:Drivers/STM32WLxx_HAL_Driver/Inc/stm32wlxx_ll_system.h ****   */
  33:Drivers/STM32WLxx_HAL_Driver/Inc/stm32wlxx_ll_system.h **** 
  34:Drivers/STM32WLxx_HAL_Driver/Inc/stm32wlxx_ll_system.h **** /* Define to prevent recursive inclusion -------------------------------------*/
  35:Drivers/STM32WLxx_HAL_Driver/Inc/stm32wlxx_ll_system.h **** #ifndef STM32WLxx_LL_SYSTEM_H
  36:Drivers/STM32WLxx_HAL_Driver/Inc/stm32wlxx_ll_system.h **** #define STM32WLxx_LL_SYSTEM_H
  37:Drivers/STM32WLxx_HAL_Driver/Inc/stm32wlxx_ll_system.h **** 
  38:Drivers/STM32WLxx_HAL_Driver/Inc/stm32wlxx_ll_system.h **** #ifdef __cplusplus
  39:Drivers/STM32WLxx_HAL_Driver/Inc/stm32wlxx_ll_system.h **** extern "C" {
  40:Drivers/STM32WLxx_HAL_Driver/Inc/stm32wlxx_ll_system.h **** #endif
  41:Drivers/STM32WLxx_HAL_Driver/Inc/stm32wlxx_ll_system.h **** 
  42:Drivers/STM32WLxx_HAL_Driver/Inc/stm32wlxx_ll_system.h **** /* Includes ------------------------------------------------------------------*/
  43:Drivers/STM32WLxx_HAL_Driver/Inc/stm32wlxx_ll_system.h **** #include "stm32wlxx.h"
  44:Drivers/STM32WLxx_HAL_Driver/Inc/stm32wlxx_ll_system.h **** 
  45:Drivers/STM32WLxx_HAL_Driver/Inc/stm32wlxx_ll_system.h **** /** @addtogroup STM32WLxx_LL_Driver
  46:Drivers/STM32WLxx_HAL_Driver/Inc/stm32wlxx_ll_system.h ****   * @{
  47:Drivers/STM32WLxx_HAL_Driver/Inc/stm32wlxx_ll_system.h ****   */
  48:Drivers/STM32WLxx_HAL_Driver/Inc/stm32wlxx_ll_system.h **** 
  49:Drivers/STM32WLxx_HAL_Driver/Inc/stm32wlxx_ll_system.h **** #if defined (FLASH) || defined (SYSCFG) || defined (DBGMCU) || defined (VREFBUF)
  50:Drivers/STM32WLxx_HAL_Driver/Inc/stm32wlxx_ll_system.h **** 
  51:Drivers/STM32WLxx_HAL_Driver/Inc/stm32wlxx_ll_system.h **** /** @defgroup SYSTEM_LL SYSTEM
  52:Drivers/STM32WLxx_HAL_Driver/Inc/stm32wlxx_ll_system.h ****   * @{
  53:Drivers/STM32WLxx_HAL_Driver/Inc/stm32wlxx_ll_system.h ****   */
  54:Drivers/STM32WLxx_HAL_Driver/Inc/stm32wlxx_ll_system.h **** 
  55:Drivers/STM32WLxx_HAL_Driver/Inc/stm32wlxx_ll_system.h **** /* Private types -------------------------------------------------------------*/
  56:Drivers/STM32WLxx_HAL_Driver/Inc/stm32wlxx_ll_system.h **** /* Private variables ---------------------------------------------------------*/
  57:Drivers/STM32WLxx_HAL_Driver/Inc/stm32wlxx_ll_system.h **** 
  58:Drivers/STM32WLxx_HAL_Driver/Inc/stm32wlxx_ll_system.h **** /* Private constants ---------------------------------------------------------*/
  59:Drivers/STM32WLxx_HAL_Driver/Inc/stm32wlxx_ll_system.h **** /** @defgroup SYSTEM_LL_Private_Constants SYSTEM Private Constants
  60:Drivers/STM32WLxx_HAL_Driver/Inc/stm32wlxx_ll_system.h ****   * @{
  61:Drivers/STM32WLxx_HAL_Driver/Inc/stm32wlxx_ll_system.h ****   */
  62:Drivers/STM32WLxx_HAL_Driver/Inc/stm32wlxx_ll_system.h **** #define LL_SYSCFG_EXTI_REGISTER_PINPOS_SHFT     16U   /*!< Define used to shift pin position in EXT
  63:Drivers/STM32WLxx_HAL_Driver/Inc/stm32wlxx_ll_system.h **** 
  64:Drivers/STM32WLxx_HAL_Driver/Inc/stm32wlxx_ll_system.h **** /**
  65:Drivers/STM32WLxx_HAL_Driver/Inc/stm32wlxx_ll_system.h ****  * @brief VREFBUF VREF_SC0 & VREF_SC1 calibration values 
  66:Drivers/STM32WLxx_HAL_Driver/Inc/stm32wlxx_ll_system.h ****  */
  67:Drivers/STM32WLxx_HAL_Driver/Inc/stm32wlxx_ll_system.h **** #define VREFBUF_SC0_CAL_ADDR   ((uint8_t*) (0x1FFF75F0UL)) /*!<  Address of VREFBUF trimming value 
  68:Drivers/STM32WLxx_HAL_Driver/Inc/stm32wlxx_ll_system.h ****                                                                  VREF_SC0 in STM32WL datasheet */
  69:Drivers/STM32WLxx_HAL_Driver/Inc/stm32wlxx_ll_system.h **** #define VREFBUF_SC1_CAL_ADDR   ((uint8_t*) (0x1FFF7530UL)) /*!<  Address of VREFBUF trimming value 
  70:Drivers/STM32WLxx_HAL_Driver/Inc/stm32wlxx_ll_system.h ****                                                                  VREF_SC1 in STM32WL datasheet */
  71:Drivers/STM32WLxx_HAL_Driver/Inc/stm32wlxx_ll_system.h **** /**
  72:Drivers/STM32WLxx_HAL_Driver/Inc/stm32wlxx_ll_system.h ****   * @}
  73:Drivers/STM32WLxx_HAL_Driver/Inc/stm32wlxx_ll_system.h ****   */
  74:Drivers/STM32WLxx_HAL_Driver/Inc/stm32wlxx_ll_system.h **** 
  75:Drivers/STM32WLxx_HAL_Driver/Inc/stm32wlxx_ll_system.h **** /* Private macros ------------------------------------------------------------*/
  76:Drivers/STM32WLxx_HAL_Driver/Inc/stm32wlxx_ll_system.h **** 
  77:Drivers/STM32WLxx_HAL_Driver/Inc/stm32wlxx_ll_system.h **** /* Exported types ------------------------------------------------------------*/
ARM GAS  /var/folders/9y/n02fl3g16gnf7ppy14xghdy80000gn/T//ccRSWXWQ.s 			page 52


  78:Drivers/STM32WLxx_HAL_Driver/Inc/stm32wlxx_ll_system.h **** /* Exported constants --------------------------------------------------------*/
  79:Drivers/STM32WLxx_HAL_Driver/Inc/stm32wlxx_ll_system.h **** /** @defgroup SYSTEM_LL_Exported_Constants SYSTEM Exported Constants
  80:Drivers/STM32WLxx_HAL_Driver/Inc/stm32wlxx_ll_system.h ****   * @{
  81:Drivers/STM32WLxx_HAL_Driver/Inc/stm32wlxx_ll_system.h ****   */
  82:Drivers/STM32WLxx_HAL_Driver/Inc/stm32wlxx_ll_system.h **** 
  83:Drivers/STM32WLxx_HAL_Driver/Inc/stm32wlxx_ll_system.h **** /** @defgroup SYSTEM_LL_EC_REMAP SYSCFG REMAP
  84:Drivers/STM32WLxx_HAL_Driver/Inc/stm32wlxx_ll_system.h **** * @{
  85:Drivers/STM32WLxx_HAL_Driver/Inc/stm32wlxx_ll_system.h **** */
  86:Drivers/STM32WLxx_HAL_Driver/Inc/stm32wlxx_ll_system.h **** #define LL_SYSCFG_REMAP_FLASH                   0x00000000U                                        
  87:Drivers/STM32WLxx_HAL_Driver/Inc/stm32wlxx_ll_system.h **** #define LL_SYSCFG_REMAP_SYSTEMFLASH             SYSCFG_MEMRMP_MEM_MODE_0                           
  88:Drivers/STM32WLxx_HAL_Driver/Inc/stm32wlxx_ll_system.h **** #define LL_SYSCFG_REMAP_SRAM                    (SYSCFG_MEMRMP_MEM_MODE_1 | SYSCFG_MEMRMP_MEM_MODE_
  89:Drivers/STM32WLxx_HAL_Driver/Inc/stm32wlxx_ll_system.h **** /**
  90:Drivers/STM32WLxx_HAL_Driver/Inc/stm32wlxx_ll_system.h ****   * @}
  91:Drivers/STM32WLxx_HAL_Driver/Inc/stm32wlxx_ll_system.h ****   */
  92:Drivers/STM32WLxx_HAL_Driver/Inc/stm32wlxx_ll_system.h **** 
  93:Drivers/STM32WLxx_HAL_Driver/Inc/stm32wlxx_ll_system.h **** /** @defgroup SYSTEM_LL_EC_I2C_FASTMODEPLUS SYSCFG I2C FASTMODEPLUS
  94:Drivers/STM32WLxx_HAL_Driver/Inc/stm32wlxx_ll_system.h ****   * @{
  95:Drivers/STM32WLxx_HAL_Driver/Inc/stm32wlxx_ll_system.h ****   */
  96:Drivers/STM32WLxx_HAL_Driver/Inc/stm32wlxx_ll_system.h **** #define LL_SYSCFG_I2C_FASTMODEPLUS_PB6          SYSCFG_CFGR1_I2C_PB6_FMP /*!< Enable Fast Mode Plus
  97:Drivers/STM32WLxx_HAL_Driver/Inc/stm32wlxx_ll_system.h **** #define LL_SYSCFG_I2C_FASTMODEPLUS_PB7          SYSCFG_CFGR1_I2C_PB7_FMP /*!< Enable Fast Mode Plus
  98:Drivers/STM32WLxx_HAL_Driver/Inc/stm32wlxx_ll_system.h **** #define LL_SYSCFG_I2C_FASTMODEPLUS_PB8          SYSCFG_CFGR1_I2C_PB8_FMP /*!< Enable Fast Mode Plus
  99:Drivers/STM32WLxx_HAL_Driver/Inc/stm32wlxx_ll_system.h **** #define LL_SYSCFG_I2C_FASTMODEPLUS_PB9          SYSCFG_CFGR1_I2C_PB9_FMP /*!< Enable Fast Mode Plus
 100:Drivers/STM32WLxx_HAL_Driver/Inc/stm32wlxx_ll_system.h **** #define LL_SYSCFG_I2C_FASTMODEPLUS_I2C1         SYSCFG_CFGR1_I2C1_FMP    /*!< Enable Fast Mode Plus
