ARM GAS  /var/folders/9y/n02fl3g16gnf7ppy14xghdy80000gn/T//cckqCF9e.s 			page 1


   1              		.cpu cortex-m4
   2              		.eabi_attribute 20, 1
   3              		.eabi_attribute 21, 1
   4              		.eabi_attribute 23, 3
   5              		.eabi_attribute 24, 1
   6              		.eabi_attribute 25, 1
   7              		.eabi_attribute 26, 1
   8              		.eabi_attribute 30, 1
   9              		.eabi_attribute 34, 1
  10              		.eabi_attribute 18, 4
  11              		.file	"stm32wlxx_hal_dma.c"
  12              		.text
  13              	.Ltext0:
  14              		.cfi_sections	.debug_frame
  15              		.section	.text.DMA_SetConfig,"ax",%progbits
  16              		.align	1
  17              		.arch armv7e-m
  18              		.syntax unified
  19              		.thumb
  20              		.thumb_func
  21              		.fpu softvfp
  23              	DMA_SetConfig:
  24              	.LVL0:
  25              	.LFB856:
  26              		.file 1 "Drivers/STM32WLxx_HAL_Driver/Src/stm32wlxx_hal_dma.c"
   1:Drivers/STM32WLxx_HAL_Driver/Src/stm32wlxx_hal_dma.c **** /**
   2:Drivers/STM32WLxx_HAL_Driver/Src/stm32wlxx_hal_dma.c ****   ******************************************************************************
   3:Drivers/STM32WLxx_HAL_Driver/Src/stm32wlxx_hal_dma.c ****   * @file    stm32wlxx_hal_dma.c
   4:Drivers/STM32WLxx_HAL_Driver/Src/stm32wlxx_hal_dma.c ****   * @author  MCD Application Team
   5:Drivers/STM32WLxx_HAL_Driver/Src/stm32wlxx_hal_dma.c ****   * @brief   DMA HAL module driver.
   6:Drivers/STM32WLxx_HAL_Driver/Src/stm32wlxx_hal_dma.c ****   *          This file provides firmware functions to manage the following
   7:Drivers/STM32WLxx_HAL_Driver/Src/stm32wlxx_hal_dma.c ****   *          functionalities of the Direct Memory Access (DMA) peripheral:
   8:Drivers/STM32WLxx_HAL_Driver/Src/stm32wlxx_hal_dma.c ****   *           + Initialization and de-initialization functions
   9:Drivers/STM32WLxx_HAL_Driver/Src/stm32wlxx_hal_dma.c ****   *           + IO operation functions
  10:Drivers/STM32WLxx_HAL_Driver/Src/stm32wlxx_hal_dma.c ****   *           + Peripheral State and errors functions
  11:Drivers/STM32WLxx_HAL_Driver/Src/stm32wlxx_hal_dma.c ****   ******************************************************************************
  12:Drivers/STM32WLxx_HAL_Driver/Src/stm32wlxx_hal_dma.c ****   * @attention
  13:Drivers/STM32WLxx_HAL_Driver/Src/stm32wlxx_hal_dma.c ****   *
  14:Drivers/STM32WLxx_HAL_Driver/Src/stm32wlxx_hal_dma.c ****   * Copyright (c) 2020 STMicroelectronics.
  15:Drivers/STM32WLxx_HAL_Driver/Src/stm32wlxx_hal_dma.c ****   * All rights reserved.
  16:Drivers/STM32WLxx_HAL_Driver/Src/stm32wlxx_hal_dma.c ****   *
  17:Drivers/STM32WLxx_HAL_Driver/Src/stm32wlxx_hal_dma.c ****   * This software is licensed under terms that can be found in the LICENSE file
  18:Drivers/STM32WLxx_HAL_Driver/Src/stm32wlxx_hal_dma.c ****   * in the root directory of this software component.
  19:Drivers/STM32WLxx_HAL_Driver/Src/stm32wlxx_hal_dma.c ****   * If no LICENSE file comes with this software, it is provided AS-IS.
  20:Drivers/STM32WLxx_HAL_Driver/Src/stm32wlxx_hal_dma.c ****   *
  21:Drivers/STM32WLxx_HAL_Driver/Src/stm32wlxx_hal_dma.c ****   ******************************************************************************
  22:Drivers/STM32WLxx_HAL_Driver/Src/stm32wlxx_hal_dma.c ****   @verbatim
  23:Drivers/STM32WLxx_HAL_Driver/Src/stm32wlxx_hal_dma.c ****   ==============================================================================
  24:Drivers/STM32WLxx_HAL_Driver/Src/stm32wlxx_hal_dma.c ****                         ##### How to use this driver #####
  25:Drivers/STM32WLxx_HAL_Driver/Src/stm32wlxx_hal_dma.c ****   ==============================================================================
  26:Drivers/STM32WLxx_HAL_Driver/Src/stm32wlxx_hal_dma.c ****   [..]
  27:Drivers/STM32WLxx_HAL_Driver/Src/stm32wlxx_hal_dma.c ****    (#) Enable and configure the peripheral to be connected to the DMA Channel
  28:Drivers/STM32WLxx_HAL_Driver/Src/stm32wlxx_hal_dma.c ****        (except for internal SRAM / FLASH memories: no initialization is
  29:Drivers/STM32WLxx_HAL_Driver/Src/stm32wlxx_hal_dma.c ****        necessary). Please refer to the Reference manual for connection between peripherals
  30:Drivers/STM32WLxx_HAL_Driver/Src/stm32wlxx_hal_dma.c ****        and DMA requests.
  31:Drivers/STM32WLxx_HAL_Driver/Src/stm32wlxx_hal_dma.c **** 
  32:Drivers/STM32WLxx_HAL_Driver/Src/stm32wlxx_hal_dma.c ****    (#) For a given Channel, program the required configuration through the following parameters:
ARM GAS  /var/folders/9y/n02fl3g16gnf7ppy14xghdy80000gn/T//cckqCF9e.s 			page 2


  33:Drivers/STM32WLxx_HAL_Driver/Src/stm32wlxx_hal_dma.c ****        Channel request, Transfer Direction, Source and Destination data formats,
  34:Drivers/STM32WLxx_HAL_Driver/Src/stm32wlxx_hal_dma.c ****        Circular or Normal mode, Channel Priority level, Source and Destination Increment mode
  35:Drivers/STM32WLxx_HAL_Driver/Src/stm32wlxx_hal_dma.c ****        using HAL_DMA_Init() function.
  36:Drivers/STM32WLxx_HAL_Driver/Src/stm32wlxx_hal_dma.c **** 
  37:Drivers/STM32WLxx_HAL_Driver/Src/stm32wlxx_hal_dma.c ****        Prior to HAL_DMA_Init the peripheral clock shall be enabled for both DMA & DMAMUX
  38:Drivers/STM32WLxx_HAL_Driver/Src/stm32wlxx_hal_dma.c ****        thanks to:
  39:Drivers/STM32WLxx_HAL_Driver/Src/stm32wlxx_hal_dma.c ****       (##) DMA1 or DMA2: __HAL_RCC_DMA1_CLK_ENABLE() or  __HAL_RCC_DMA2_CLK_ENABLE();
  40:Drivers/STM32WLxx_HAL_Driver/Src/stm32wlxx_hal_dma.c ****       (##) DMAMUX1:      __HAL_RCC_DMAMUX1_CLK_ENABLE();
  41:Drivers/STM32WLxx_HAL_Driver/Src/stm32wlxx_hal_dma.c **** 
  42:Drivers/STM32WLxx_HAL_Driver/Src/stm32wlxx_hal_dma.c ****    (#) Use HAL_DMA_GetState() function to return the DMA state and HAL_DMA_GetError() in case of er
  43:Drivers/STM32WLxx_HAL_Driver/Src/stm32wlxx_hal_dma.c ****        detection.
  44:Drivers/STM32WLxx_HAL_Driver/Src/stm32wlxx_hal_dma.c **** 
  45:Drivers/STM32WLxx_HAL_Driver/Src/stm32wlxx_hal_dma.c ****    (#) Use HAL_DMA_Abort() function to abort the current transfer
  46:Drivers/STM32WLxx_HAL_Driver/Src/stm32wlxx_hal_dma.c **** 
  47:Drivers/STM32WLxx_HAL_Driver/Src/stm32wlxx_hal_dma.c ****      -@-   In Memory-to-Memory transfer mode, Circular mode is not allowed.
  48:Drivers/STM32WLxx_HAL_Driver/Src/stm32wlxx_hal_dma.c **** 
  49:Drivers/STM32WLxx_HAL_Driver/Src/stm32wlxx_hal_dma.c ****      *** Polling mode IO operation ***
  50:Drivers/STM32WLxx_HAL_Driver/Src/stm32wlxx_hal_dma.c ****      =================================
  51:Drivers/STM32WLxx_HAL_Driver/Src/stm32wlxx_hal_dma.c ****      [..]
  52:Drivers/STM32WLxx_HAL_Driver/Src/stm32wlxx_hal_dma.c ****        (+) Use HAL_DMA_Start() to start DMA transfer after the configuration of Source
  53:Drivers/STM32WLxx_HAL_Driver/Src/stm32wlxx_hal_dma.c ****            address and destination address and the Length of data to be transferred
  54:Drivers/STM32WLxx_HAL_Driver/Src/stm32wlxx_hal_dma.c ****        (+) Use HAL_DMA_PollForTransfer() to poll for the end of current transfer, in this
  55:Drivers/STM32WLxx_HAL_Driver/Src/stm32wlxx_hal_dma.c ****            case a fixed Timeout can be configured by User depending from his application.
  56:Drivers/STM32WLxx_HAL_Driver/Src/stm32wlxx_hal_dma.c **** 
  57:Drivers/STM32WLxx_HAL_Driver/Src/stm32wlxx_hal_dma.c ****      *** Interrupt mode IO operation ***
  58:Drivers/STM32WLxx_HAL_Driver/Src/stm32wlxx_hal_dma.c ****      ===================================
  59:Drivers/STM32WLxx_HAL_Driver/Src/stm32wlxx_hal_dma.c ****      [..]
  60:Drivers/STM32WLxx_HAL_Driver/Src/stm32wlxx_hal_dma.c ****        (+) Configure the DMA interrupt priority using HAL_NVIC_SetPriority()
  61:Drivers/STM32WLxx_HAL_Driver/Src/stm32wlxx_hal_dma.c ****        (+) Enable the DMA IRQ handler using HAL_NVIC_EnableIRQ()
  62:Drivers/STM32WLxx_HAL_Driver/Src/stm32wlxx_hal_dma.c ****        (+) Use HAL_DMA_Start_IT() to start DMA transfer after the configuration of
  63:Drivers/STM32WLxx_HAL_Driver/Src/stm32wlxx_hal_dma.c ****            Source address and destination address and the Length of data to be transferred.
  64:Drivers/STM32WLxx_HAL_Driver/Src/stm32wlxx_hal_dma.c ****            In this case the DMA interrupt is configured
  65:Drivers/STM32WLxx_HAL_Driver/Src/stm32wlxx_hal_dma.c ****        (+) Use HAL_DMA_IRQHandler() called under DMA_IRQHandler() Interrupt subroutine
  66:Drivers/STM32WLxx_HAL_Driver/Src/stm32wlxx_hal_dma.c ****        (+) At the end of data transfer HAL_DMA_IRQHandler() function is executed and user can
  67:Drivers/STM32WLxx_HAL_Driver/Src/stm32wlxx_hal_dma.c ****               add his own function to register callbacks with HAL_DMA_RegisterCallback().
  68:Drivers/STM32WLxx_HAL_Driver/Src/stm32wlxx_hal_dma.c **** 
  69:Drivers/STM32WLxx_HAL_Driver/Src/stm32wlxx_hal_dma.c ****      *** DMA HAL driver macros list ***
  70:Drivers/STM32WLxx_HAL_Driver/Src/stm32wlxx_hal_dma.c ****      =============================================
  71:Drivers/STM32WLxx_HAL_Driver/Src/stm32wlxx_hal_dma.c ****      [..]
  72:Drivers/STM32WLxx_HAL_Driver/Src/stm32wlxx_hal_dma.c ****        Below the list of macros in DMA HAL driver.
  73:Drivers/STM32WLxx_HAL_Driver/Src/stm32wlxx_hal_dma.c **** 
  74:Drivers/STM32WLxx_HAL_Driver/Src/stm32wlxx_hal_dma.c ****        (+) __HAL_DMA_ENABLE: Enable the specified DMA Channel.
  75:Drivers/STM32WLxx_HAL_Driver/Src/stm32wlxx_hal_dma.c ****        (+) __HAL_DMA_DISABLE: Disable the specified DMA Channel.
  76:Drivers/STM32WLxx_HAL_Driver/Src/stm32wlxx_hal_dma.c ****        (+) __HAL_DMA_GET_FLAG: Get the DMA Channel pending flags.
  77:Drivers/STM32WLxx_HAL_Driver/Src/stm32wlxx_hal_dma.c ****        (+) __HAL_DMA_CLEAR_FLAG: Clear the DMA Channel pending flags.
  78:Drivers/STM32WLxx_HAL_Driver/Src/stm32wlxx_hal_dma.c ****        (+) __HAL_DMA_ENABLE_IT: Enable the specified DMA Channel interrupts.
  79:Drivers/STM32WLxx_HAL_Driver/Src/stm32wlxx_hal_dma.c ****        (+) __HAL_DMA_DISABLE_IT: Disable the specified DMA Channel interrupts.
  80:Drivers/STM32WLxx_HAL_Driver/Src/stm32wlxx_hal_dma.c ****        (+) __HAL_DMA_GET_IT_SOURCE: Check whether the specified DMA Channel interrupt is enabled or
  81:Drivers/STM32WLxx_HAL_Driver/Src/stm32wlxx_hal_dma.c **** 
  82:Drivers/STM32WLxx_HAL_Driver/Src/stm32wlxx_hal_dma.c ****      [..]
  83:Drivers/STM32WLxx_HAL_Driver/Src/stm32wlxx_hal_dma.c ****       (@) You can refer to the DMA HAL driver header file for more useful macros
  84:Drivers/STM32WLxx_HAL_Driver/Src/stm32wlxx_hal_dma.c **** 
  85:Drivers/STM32WLxx_HAL_Driver/Src/stm32wlxx_hal_dma.c ****   @endverbatim
  86:Drivers/STM32WLxx_HAL_Driver/Src/stm32wlxx_hal_dma.c ****   ******************************************************************************
  87:Drivers/STM32WLxx_HAL_Driver/Src/stm32wlxx_hal_dma.c ****   */
  88:Drivers/STM32WLxx_HAL_Driver/Src/stm32wlxx_hal_dma.c **** 
  89:Drivers/STM32WLxx_HAL_Driver/Src/stm32wlxx_hal_dma.c **** /* Includes ------------------------------------------------------------------*/
ARM GAS  /var/folders/9y/n02fl3g16gnf7ppy14xghdy80000gn/T//cckqCF9e.s 			page 3


  90:Drivers/STM32WLxx_HAL_Driver/Src/stm32wlxx_hal_dma.c **** #include "stm32wlxx_hal.h"
  91:Drivers/STM32WLxx_HAL_Driver/Src/stm32wlxx_hal_dma.c **** 
  92:Drivers/STM32WLxx_HAL_Driver/Src/stm32wlxx_hal_dma.c **** /** @addtogroup STM32WLxx_HAL_Driver
  93:Drivers/STM32WLxx_HAL_Driver/Src/stm32wlxx_hal_dma.c ****   * @{
  94:Drivers/STM32WLxx_HAL_Driver/Src/stm32wlxx_hal_dma.c ****   */
  95:Drivers/STM32WLxx_HAL_Driver/Src/stm32wlxx_hal_dma.c **** 
  96:Drivers/STM32WLxx_HAL_Driver/Src/stm32wlxx_hal_dma.c **** /** @defgroup DMA DMA
  97:Drivers/STM32WLxx_HAL_Driver/Src/stm32wlxx_hal_dma.c ****   * @brief DMA HAL module driver
  98:Drivers/STM32WLxx_HAL_Driver/Src/stm32wlxx_hal_dma.c ****   * @{
  99:Drivers/STM32WLxx_HAL_Driver/Src/stm32wlxx_hal_dma.c ****   */
 100:Drivers/STM32WLxx_HAL_Driver/Src/stm32wlxx_hal_dma.c **** 
 101:Drivers/STM32WLxx_HAL_Driver/Src/stm32wlxx_hal_dma.c **** #ifdef HAL_DMA_MODULE_ENABLED
 102:Drivers/STM32WLxx_HAL_Driver/Src/stm32wlxx_hal_dma.c **** 
 103:Drivers/STM32WLxx_HAL_Driver/Src/stm32wlxx_hal_dma.c **** /* Private typedef -----------------------------------------------------------*/
 104:Drivers/STM32WLxx_HAL_Driver/Src/stm32wlxx_hal_dma.c **** /* Private define ------------------------------------------------------------*/
 105:Drivers/STM32WLxx_HAL_Driver/Src/stm32wlxx_hal_dma.c **** /* Private macro -------------------------------------------------------------*/
 106:Drivers/STM32WLxx_HAL_Driver/Src/stm32wlxx_hal_dma.c **** /* Private variables ---------------------------------------------------------*/
 107:Drivers/STM32WLxx_HAL_Driver/Src/stm32wlxx_hal_dma.c **** /* Private function prototypes -----------------------------------------------*/
 108:Drivers/STM32WLxx_HAL_Driver/Src/stm32wlxx_hal_dma.c **** 
 109:Drivers/STM32WLxx_HAL_Driver/Src/stm32wlxx_hal_dma.c **** /** @defgroup DMA_Private_Functions DMA Private Functions
 110:Drivers/STM32WLxx_HAL_Driver/Src/stm32wlxx_hal_dma.c ****   * @{
 111:Drivers/STM32WLxx_HAL_Driver/Src/stm32wlxx_hal_dma.c ****   */
 112:Drivers/STM32WLxx_HAL_Driver/Src/stm32wlxx_hal_dma.c **** static void DMA_SetConfig(DMA_HandleTypeDef *hdma, uint32_t SrcAddress, uint32_t DstAddress, uint32
 113:Drivers/STM32WLxx_HAL_Driver/Src/stm32wlxx_hal_dma.c **** static void DMA_CalcDMAMUXChannelBaseAndMask(DMA_HandleTypeDef *hdma);
 114:Drivers/STM32WLxx_HAL_Driver/Src/stm32wlxx_hal_dma.c **** static void DMA_CalcDMAMUXRequestGenBaseAndMask(DMA_HandleTypeDef *hdma);
 115:Drivers/STM32WLxx_HAL_Driver/Src/stm32wlxx_hal_dma.c **** 
 116:Drivers/STM32WLxx_HAL_Driver/Src/stm32wlxx_hal_dma.c **** /**
 117:Drivers/STM32WLxx_HAL_Driver/Src/stm32wlxx_hal_dma.c ****   * @}
 118:Drivers/STM32WLxx_HAL_Driver/Src/stm32wlxx_hal_dma.c ****   */
 119:Drivers/STM32WLxx_HAL_Driver/Src/stm32wlxx_hal_dma.c **** 
 120:Drivers/STM32WLxx_HAL_Driver/Src/stm32wlxx_hal_dma.c **** /* Exported functions ---------------------------------------------------------*/
 121:Drivers/STM32WLxx_HAL_Driver/Src/stm32wlxx_hal_dma.c **** 
 122:Drivers/STM32WLxx_HAL_Driver/Src/stm32wlxx_hal_dma.c **** /** @defgroup DMA_Exported_Functions DMA Exported Functions
 123:Drivers/STM32WLxx_HAL_Driver/Src/stm32wlxx_hal_dma.c ****   * @{
 124:Drivers/STM32WLxx_HAL_Driver/Src/stm32wlxx_hal_dma.c ****   */
 125:Drivers/STM32WLxx_HAL_Driver/Src/stm32wlxx_hal_dma.c **** 
 126:Drivers/STM32WLxx_HAL_Driver/Src/stm32wlxx_hal_dma.c **** /** @defgroup DMA_Exported_Functions_Group1 Initialization and de-initialization functions
 127:Drivers/STM32WLxx_HAL_Driver/Src/stm32wlxx_hal_dma.c ****  *  @brief   Initialization and de-initialization functions
 128:Drivers/STM32WLxx_HAL_Driver/Src/stm32wlxx_hal_dma.c ****  *
 129:Drivers/STM32WLxx_HAL_Driver/Src/stm32wlxx_hal_dma.c **** @verbatim
 130:Drivers/STM32WLxx_HAL_Driver/Src/stm32wlxx_hal_dma.c ****  ===============================================================================
 131:Drivers/STM32WLxx_HAL_Driver/Src/stm32wlxx_hal_dma.c ****              ##### Initialization and de-initialization functions  #####
 132:Drivers/STM32WLxx_HAL_Driver/Src/stm32wlxx_hal_dma.c ****  ===============================================================================
 133:Drivers/STM32WLxx_HAL_Driver/Src/stm32wlxx_hal_dma.c ****     [..]
 134:Drivers/STM32WLxx_HAL_Driver/Src/stm32wlxx_hal_dma.c ****     This section provides functions allowing to initialize the DMA Channel source
 135:Drivers/STM32WLxx_HAL_Driver/Src/stm32wlxx_hal_dma.c ****     and destination addresses, incrementation and data sizes, transfer direction,
 136:Drivers/STM32WLxx_HAL_Driver/Src/stm32wlxx_hal_dma.c ****     circular/normal mode selection, memory-to-memory mode selection and Channel priority value.
 137:Drivers/STM32WLxx_HAL_Driver/Src/stm32wlxx_hal_dma.c ****     [..]
 138:Drivers/STM32WLxx_HAL_Driver/Src/stm32wlxx_hal_dma.c ****     The HAL_DMA_Init() function follows the DMA configuration procedures as described in
 139:Drivers/STM32WLxx_HAL_Driver/Src/stm32wlxx_hal_dma.c ****     reference manual.
 140:Drivers/STM32WLxx_HAL_Driver/Src/stm32wlxx_hal_dma.c **** 
 141:Drivers/STM32WLxx_HAL_Driver/Src/stm32wlxx_hal_dma.c **** @endverbatim
 142:Drivers/STM32WLxx_HAL_Driver/Src/stm32wlxx_hal_dma.c ****   * @{
 143:Drivers/STM32WLxx_HAL_Driver/Src/stm32wlxx_hal_dma.c ****   */
 144:Drivers/STM32WLxx_HAL_Driver/Src/stm32wlxx_hal_dma.c **** 
 145:Drivers/STM32WLxx_HAL_Driver/Src/stm32wlxx_hal_dma.c **** /**
 146:Drivers/STM32WLxx_HAL_Driver/Src/stm32wlxx_hal_dma.c ****   * @brief Initialize the DMA according to the specified
ARM GAS  /var/folders/9y/n02fl3g16gnf7ppy14xghdy80000gn/T//cckqCF9e.s 			page 4


 147:Drivers/STM32WLxx_HAL_Driver/Src/stm32wlxx_hal_dma.c ****   *        parameters in the DMA_InitTypeDef and initialize the associated handle.
 148:Drivers/STM32WLxx_HAL_Driver/Src/stm32wlxx_hal_dma.c ****   * @param hdma Pointer to a DMA_HandleTypeDef structure that contains
 149:Drivers/STM32WLxx_HAL_Driver/Src/stm32wlxx_hal_dma.c ****   *             the configuration information for the specified DMA Channel.
 150:Drivers/STM32WLxx_HAL_Driver/Src/stm32wlxx_hal_dma.c ****   * @retval HAL status
 151:Drivers/STM32WLxx_HAL_Driver/Src/stm32wlxx_hal_dma.c ****   */
 152:Drivers/STM32WLxx_HAL_Driver/Src/stm32wlxx_hal_dma.c **** HAL_StatusTypeDef HAL_DMA_Init(DMA_HandleTypeDef *hdma)
 153:Drivers/STM32WLxx_HAL_Driver/Src/stm32wlxx_hal_dma.c **** {
 154:Drivers/STM32WLxx_HAL_Driver/Src/stm32wlxx_hal_dma.c ****   /* Check the DMA handle allocation */
 155:Drivers/STM32WLxx_HAL_Driver/Src/stm32wlxx_hal_dma.c ****   if (hdma == NULL)
 156:Drivers/STM32WLxx_HAL_Driver/Src/stm32wlxx_hal_dma.c ****   {
 157:Drivers/STM32WLxx_HAL_Driver/Src/stm32wlxx_hal_dma.c ****     return HAL_ERROR;
 158:Drivers/STM32WLxx_HAL_Driver/Src/stm32wlxx_hal_dma.c ****   }
 159:Drivers/STM32WLxx_HAL_Driver/Src/stm32wlxx_hal_dma.c **** 
 160:Drivers/STM32WLxx_HAL_Driver/Src/stm32wlxx_hal_dma.c ****   /* Check the parameters */
 161:Drivers/STM32WLxx_HAL_Driver/Src/stm32wlxx_hal_dma.c ****   assert_param(IS_DMA_ALL_INSTANCE(hdma->Instance));
 162:Drivers/STM32WLxx_HAL_Driver/Src/stm32wlxx_hal_dma.c ****   assert_param(IS_DMA_DIRECTION(hdma->Init.Direction));
 163:Drivers/STM32WLxx_HAL_Driver/Src/stm32wlxx_hal_dma.c ****   assert_param(IS_DMA_PERIPHERAL_INC_STATE(hdma->Init.PeriphInc));
 164:Drivers/STM32WLxx_HAL_Driver/Src/stm32wlxx_hal_dma.c ****   assert_param(IS_DMA_MEMORY_INC_STATE(hdma->Init.MemInc));
 165:Drivers/STM32WLxx_HAL_Driver/Src/stm32wlxx_hal_dma.c ****   assert_param(IS_DMA_PERIPHERAL_DATA_SIZE(hdma->Init.PeriphDataAlignment));
 166:Drivers/STM32WLxx_HAL_Driver/Src/stm32wlxx_hal_dma.c ****   assert_param(IS_DMA_MEMORY_DATA_SIZE(hdma->Init.MemDataAlignment));
 167:Drivers/STM32WLxx_HAL_Driver/Src/stm32wlxx_hal_dma.c ****   assert_param(IS_DMA_MODE(hdma->Init.Mode));
 168:Drivers/STM32WLxx_HAL_Driver/Src/stm32wlxx_hal_dma.c ****   assert_param(IS_DMA_PRIORITY(hdma->Init.Priority));
 169:Drivers/STM32WLxx_HAL_Driver/Src/stm32wlxx_hal_dma.c **** 
 170:Drivers/STM32WLxx_HAL_Driver/Src/stm32wlxx_hal_dma.c ****   assert_param(IS_DMA_ALL_REQUEST(hdma->Init.Request));
 171:Drivers/STM32WLxx_HAL_Driver/Src/stm32wlxx_hal_dma.c **** 
 172:Drivers/STM32WLxx_HAL_Driver/Src/stm32wlxx_hal_dma.c ****   /* Compute the channel index */
 173:Drivers/STM32WLxx_HAL_Driver/Src/stm32wlxx_hal_dma.c ****   if ((uint32_t)(hdma->Instance) < (uint32_t)(DMA2_Channel1))
 174:Drivers/STM32WLxx_HAL_Driver/Src/stm32wlxx_hal_dma.c ****   {
 175:Drivers/STM32WLxx_HAL_Driver/Src/stm32wlxx_hal_dma.c ****     /* DMA1 */
 176:Drivers/STM32WLxx_HAL_Driver/Src/stm32wlxx_hal_dma.c ****     hdma->ChannelIndex = (((uint32_t)hdma->Instance - (uint32_t)DMA1_Channel1) / ((uint32_t)DMA1_Ch
 177:Drivers/STM32WLxx_HAL_Driver/Src/stm32wlxx_hal_dma.c ****     hdma->DmaBaseAddress = DMA1;
 178:Drivers/STM32WLxx_HAL_Driver/Src/stm32wlxx_hal_dma.c ****   }
 179:Drivers/STM32WLxx_HAL_Driver/Src/stm32wlxx_hal_dma.c ****   else
 180:Drivers/STM32WLxx_HAL_Driver/Src/stm32wlxx_hal_dma.c ****   {
 181:Drivers/STM32WLxx_HAL_Driver/Src/stm32wlxx_hal_dma.c ****     /* DMA2 */
 182:Drivers/STM32WLxx_HAL_Driver/Src/stm32wlxx_hal_dma.c ****     hdma->ChannelIndex = (((uint32_t)hdma->Instance - (uint32_t)DMA2_Channel1) / ((uint32_t)DMA2_Ch
 183:Drivers/STM32WLxx_HAL_Driver/Src/stm32wlxx_hal_dma.c ****     hdma->DmaBaseAddress = DMA2;
 184:Drivers/STM32WLxx_HAL_Driver/Src/stm32wlxx_hal_dma.c ****   }
 185:Drivers/STM32WLxx_HAL_Driver/Src/stm32wlxx_hal_dma.c **** 
 186:Drivers/STM32WLxx_HAL_Driver/Src/stm32wlxx_hal_dma.c ****   /* Change DMA peripheral state */
 187:Drivers/STM32WLxx_HAL_Driver/Src/stm32wlxx_hal_dma.c ****   hdma->State = HAL_DMA_STATE_BUSY;
 188:Drivers/STM32WLxx_HAL_Driver/Src/stm32wlxx_hal_dma.c **** 
 189:Drivers/STM32WLxx_HAL_Driver/Src/stm32wlxx_hal_dma.c ****   /* Clear PL, MSIZE, PSIZE, MINC, PINC, CIRC, DIR and MEM2MEM bits */
 190:Drivers/STM32WLxx_HAL_Driver/Src/stm32wlxx_hal_dma.c ****   CLEAR_BIT(hdma->Instance->CCR, (DMA_CCR_PL    | DMA_CCR_MSIZE  | DMA_CCR_PSIZE  | \
 191:Drivers/STM32WLxx_HAL_Driver/Src/stm32wlxx_hal_dma.c ****                                   DMA_CCR_MINC  | DMA_CCR_PINC   | DMA_CCR_CIRC   | \
 192:Drivers/STM32WLxx_HAL_Driver/Src/stm32wlxx_hal_dma.c ****                                   DMA_CCR_DIR   | DMA_CCR_MEM2MEM));
 193:Drivers/STM32WLxx_HAL_Driver/Src/stm32wlxx_hal_dma.c **** 
 194:Drivers/STM32WLxx_HAL_Driver/Src/stm32wlxx_hal_dma.c ****   /* Set the DMA Channel configuration */
 195:Drivers/STM32WLxx_HAL_Driver/Src/stm32wlxx_hal_dma.c ****   SET_BIT(hdma->Instance->CCR, (hdma->Init.Direction           |                               \
 196:Drivers/STM32WLxx_HAL_Driver/Src/stm32wlxx_hal_dma.c ****                                 hdma->Init.PeriphInc           | hdma->Init.MemInc           | \
 197:Drivers/STM32WLxx_HAL_Driver/Src/stm32wlxx_hal_dma.c ****                                 hdma->Init.PeriphDataAlignment | hdma->Init.MemDataAlignment | \
 198:Drivers/STM32WLxx_HAL_Driver/Src/stm32wlxx_hal_dma.c ****                                 hdma->Init.Mode                | hdma->Init.Priority));
 199:Drivers/STM32WLxx_HAL_Driver/Src/stm32wlxx_hal_dma.c **** 
 200:Drivers/STM32WLxx_HAL_Driver/Src/stm32wlxx_hal_dma.c ****   /* Initialize parameters for DMAMUX channel :
 201:Drivers/STM32WLxx_HAL_Driver/Src/stm32wlxx_hal_dma.c ****      DMAmuxChannel, DMAmuxChannelStatus and DMAmuxChannelStatusMask
 202:Drivers/STM32WLxx_HAL_Driver/Src/stm32wlxx_hal_dma.c ****   */
 203:Drivers/STM32WLxx_HAL_Driver/Src/stm32wlxx_hal_dma.c ****   DMA_CalcDMAMUXChannelBaseAndMask(hdma);
ARM GAS  /var/folders/9y/n02fl3g16gnf7ppy14xghdy80000gn/T//cckqCF9e.s 			page 5


 204:Drivers/STM32WLxx_HAL_Driver/Src/stm32wlxx_hal_dma.c **** 
 205:Drivers/STM32WLxx_HAL_Driver/Src/stm32wlxx_hal_dma.c ****   if (hdma->Init.Direction == DMA_MEMORY_TO_MEMORY)
 206:Drivers/STM32WLxx_HAL_Driver/Src/stm32wlxx_hal_dma.c ****   {
 207:Drivers/STM32WLxx_HAL_Driver/Src/stm32wlxx_hal_dma.c ****     /* if memory to memory force the request to 0*/
 208:Drivers/STM32WLxx_HAL_Driver/Src/stm32wlxx_hal_dma.c ****     hdma->Init.Request = DMA_REQUEST_MEM2MEM;
 209:Drivers/STM32WLxx_HAL_Driver/Src/stm32wlxx_hal_dma.c ****   }
 210:Drivers/STM32WLxx_HAL_Driver/Src/stm32wlxx_hal_dma.c **** 
 211:Drivers/STM32WLxx_HAL_Driver/Src/stm32wlxx_hal_dma.c ****   /* Set peripheral request  to DMAMUX channel */
 212:Drivers/STM32WLxx_HAL_Driver/Src/stm32wlxx_hal_dma.c ****   hdma->DMAmuxChannel->CCR = (hdma->Init.Request & DMAMUX_CxCR_DMAREQ_ID);
 213:Drivers/STM32WLxx_HAL_Driver/Src/stm32wlxx_hal_dma.c **** 
 214:Drivers/STM32WLxx_HAL_Driver/Src/stm32wlxx_hal_dma.c ****   /* Clear the DMAMUX synchro overrun flag */
 215:Drivers/STM32WLxx_HAL_Driver/Src/stm32wlxx_hal_dma.c ****   hdma->DMAmuxChannelStatus->CFR = hdma->DMAmuxChannelStatusMask;
 216:Drivers/STM32WLxx_HAL_Driver/Src/stm32wlxx_hal_dma.c **** 
 217:Drivers/STM32WLxx_HAL_Driver/Src/stm32wlxx_hal_dma.c ****   if (((hdma->Init.Request >  0UL) && (hdma->Init.Request <= DMA_REQUEST_GENERATOR3)))
 218:Drivers/STM32WLxx_HAL_Driver/Src/stm32wlxx_hal_dma.c ****   {
 219:Drivers/STM32WLxx_HAL_Driver/Src/stm32wlxx_hal_dma.c ****     /* Initialize parameters for DMAMUX request generator :
 220:Drivers/STM32WLxx_HAL_Driver/Src/stm32wlxx_hal_dma.c ****        DMAmuxRequestGen, DMAmuxRequestGenStatus and DMAmuxRequestGenStatusMask
 221:Drivers/STM32WLxx_HAL_Driver/Src/stm32wlxx_hal_dma.c ****     */
 222:Drivers/STM32WLxx_HAL_Driver/Src/stm32wlxx_hal_dma.c ****     DMA_CalcDMAMUXRequestGenBaseAndMask(hdma);
 223:Drivers/STM32WLxx_HAL_Driver/Src/stm32wlxx_hal_dma.c **** 
 224:Drivers/STM32WLxx_HAL_Driver/Src/stm32wlxx_hal_dma.c ****     /* Reset the DMAMUX request generator register*/
 225:Drivers/STM32WLxx_HAL_Driver/Src/stm32wlxx_hal_dma.c ****     hdma->DMAmuxRequestGen->RGCR = 0U;
 226:Drivers/STM32WLxx_HAL_Driver/Src/stm32wlxx_hal_dma.c **** 
 227:Drivers/STM32WLxx_HAL_Driver/Src/stm32wlxx_hal_dma.c ****     /* Clear the DMAMUX request generator overrun flag */
 228:Drivers/STM32WLxx_HAL_Driver/Src/stm32wlxx_hal_dma.c ****     hdma->DMAmuxRequestGenStatus->RGCFR = hdma->DMAmuxRequestGenStatusMask;
 229:Drivers/STM32WLxx_HAL_Driver/Src/stm32wlxx_hal_dma.c ****   }
 230:Drivers/STM32WLxx_HAL_Driver/Src/stm32wlxx_hal_dma.c ****   else
 231:Drivers/STM32WLxx_HAL_Driver/Src/stm32wlxx_hal_dma.c ****   {
 232:Drivers/STM32WLxx_HAL_Driver/Src/stm32wlxx_hal_dma.c ****     hdma->DMAmuxRequestGen = 0U;
 233:Drivers/STM32WLxx_HAL_Driver/Src/stm32wlxx_hal_dma.c ****     hdma->DMAmuxRequestGenStatus = 0U;
 234:Drivers/STM32WLxx_HAL_Driver/Src/stm32wlxx_hal_dma.c ****     hdma->DMAmuxRequestGenStatusMask = 0U;
 235:Drivers/STM32WLxx_HAL_Driver/Src/stm32wlxx_hal_dma.c ****   }
 236:Drivers/STM32WLxx_HAL_Driver/Src/stm32wlxx_hal_dma.c **** 
 237:Drivers/STM32WLxx_HAL_Driver/Src/stm32wlxx_hal_dma.c ****   /* Initialize the error code */
 238:Drivers/STM32WLxx_HAL_Driver/Src/stm32wlxx_hal_dma.c ****   hdma->ErrorCode = HAL_DMA_ERROR_NONE;
 239:Drivers/STM32WLxx_HAL_Driver/Src/stm32wlxx_hal_dma.c **** 
 240:Drivers/STM32WLxx_HAL_Driver/Src/stm32wlxx_hal_dma.c ****   /* Initialize the DMA state*/
 241:Drivers/STM32WLxx_HAL_Driver/Src/stm32wlxx_hal_dma.c ****   hdma->State = HAL_DMA_STATE_READY;
 242:Drivers/STM32WLxx_HAL_Driver/Src/stm32wlxx_hal_dma.c **** 
 243:Drivers/STM32WLxx_HAL_Driver/Src/stm32wlxx_hal_dma.c ****   /* Release Lock */
 244:Drivers/STM32WLxx_HAL_Driver/Src/stm32wlxx_hal_dma.c ****   __HAL_UNLOCK(hdma);
 245:Drivers/STM32WLxx_HAL_Driver/Src/stm32wlxx_hal_dma.c **** 
 246:Drivers/STM32WLxx_HAL_Driver/Src/stm32wlxx_hal_dma.c ****   return HAL_OK;
 247:Drivers/STM32WLxx_HAL_Driver/Src/stm32wlxx_hal_dma.c **** }
 248:Drivers/STM32WLxx_HAL_Driver/Src/stm32wlxx_hal_dma.c **** 
 249:Drivers/STM32WLxx_HAL_Driver/Src/stm32wlxx_hal_dma.c **** /**
 250:Drivers/STM32WLxx_HAL_Driver/Src/stm32wlxx_hal_dma.c ****   * @brief DeInitialize the DMA peripheral.
 251:Drivers/STM32WLxx_HAL_Driver/Src/stm32wlxx_hal_dma.c ****   * @param hdma Pointer to a DMA_HandleTypeDef structure that contains
 252:Drivers/STM32WLxx_HAL_Driver/Src/stm32wlxx_hal_dma.c ****   *             the configuration information for the specified DMA Channel.
 253:Drivers/STM32WLxx_HAL_Driver/Src/stm32wlxx_hal_dma.c ****   * @retval HAL status
 254:Drivers/STM32WLxx_HAL_Driver/Src/stm32wlxx_hal_dma.c ****   */
 255:Drivers/STM32WLxx_HAL_Driver/Src/stm32wlxx_hal_dma.c **** HAL_StatusTypeDef HAL_DMA_DeInit(DMA_HandleTypeDef *hdma)
 256:Drivers/STM32WLxx_HAL_Driver/Src/stm32wlxx_hal_dma.c **** {
 257:Drivers/STM32WLxx_HAL_Driver/Src/stm32wlxx_hal_dma.c ****   /* Check the DMA handle allocation */
 258:Drivers/STM32WLxx_HAL_Driver/Src/stm32wlxx_hal_dma.c ****   if (NULL == hdma)
 259:Drivers/STM32WLxx_HAL_Driver/Src/stm32wlxx_hal_dma.c ****   {
 260:Drivers/STM32WLxx_HAL_Driver/Src/stm32wlxx_hal_dma.c ****     return HAL_ERROR;
ARM GAS  /var/folders/9y/n02fl3g16gnf7ppy14xghdy80000gn/T//cckqCF9e.s 			page 6


 261:Drivers/STM32WLxx_HAL_Driver/Src/stm32wlxx_hal_dma.c ****   }
 262:Drivers/STM32WLxx_HAL_Driver/Src/stm32wlxx_hal_dma.c **** 
 263:Drivers/STM32WLxx_HAL_Driver/Src/stm32wlxx_hal_dma.c ****   /* Check the parameters */
 264:Drivers/STM32WLxx_HAL_Driver/Src/stm32wlxx_hal_dma.c ****   assert_param(IS_DMA_ALL_INSTANCE(hdma->Instance));
 265:Drivers/STM32WLxx_HAL_Driver/Src/stm32wlxx_hal_dma.c **** 
 266:Drivers/STM32WLxx_HAL_Driver/Src/stm32wlxx_hal_dma.c ****   /* Disable the selected DMA Channelx */
 267:Drivers/STM32WLxx_HAL_Driver/Src/stm32wlxx_hal_dma.c ****   __HAL_DMA_DISABLE(hdma);
 268:Drivers/STM32WLxx_HAL_Driver/Src/stm32wlxx_hal_dma.c **** 
 269:Drivers/STM32WLxx_HAL_Driver/Src/stm32wlxx_hal_dma.c ****   /* Compute the channel index */
 270:Drivers/STM32WLxx_HAL_Driver/Src/stm32wlxx_hal_dma.c ****   if ((uint32_t)(hdma->Instance) < (uint32_t)(DMA2_Channel1))
 271:Drivers/STM32WLxx_HAL_Driver/Src/stm32wlxx_hal_dma.c ****   {
 272:Drivers/STM32WLxx_HAL_Driver/Src/stm32wlxx_hal_dma.c ****     /* DMA1 */
 273:Drivers/STM32WLxx_HAL_Driver/Src/stm32wlxx_hal_dma.c ****     hdma->ChannelIndex = (((uint32_t)hdma->Instance - (uint32_t)DMA1_Channel1) / ((uint32_t)DMA1_Ch
 274:Drivers/STM32WLxx_HAL_Driver/Src/stm32wlxx_hal_dma.c ****     hdma->DmaBaseAddress = DMA1;
 275:Drivers/STM32WLxx_HAL_Driver/Src/stm32wlxx_hal_dma.c ****   }
 276:Drivers/STM32WLxx_HAL_Driver/Src/stm32wlxx_hal_dma.c ****   else
 277:Drivers/STM32WLxx_HAL_Driver/Src/stm32wlxx_hal_dma.c ****   {
 278:Drivers/STM32WLxx_HAL_Driver/Src/stm32wlxx_hal_dma.c ****     /* DMA2 */
 279:Drivers/STM32WLxx_HAL_Driver/Src/stm32wlxx_hal_dma.c ****     hdma->ChannelIndex = (((uint32_t)hdma->Instance - (uint32_t)DMA2_Channel1) / ((uint32_t)DMA2_Ch
 280:Drivers/STM32WLxx_HAL_Driver/Src/stm32wlxx_hal_dma.c ****     hdma->DmaBaseAddress = DMA2;
 281:Drivers/STM32WLxx_HAL_Driver/Src/stm32wlxx_hal_dma.c ****   }
 282:Drivers/STM32WLxx_HAL_Driver/Src/stm32wlxx_hal_dma.c **** 
 283:Drivers/STM32WLxx_HAL_Driver/Src/stm32wlxx_hal_dma.c ****   /* Reset DMA Channel control register */
 284:Drivers/STM32WLxx_HAL_Driver/Src/stm32wlxx_hal_dma.c ****   hdma->Instance->CCR = 0U;
 285:Drivers/STM32WLxx_HAL_Driver/Src/stm32wlxx_hal_dma.c **** 
 286:Drivers/STM32WLxx_HAL_Driver/Src/stm32wlxx_hal_dma.c ****   /* Clear all flags */
 287:Drivers/STM32WLxx_HAL_Driver/Src/stm32wlxx_hal_dma.c ****   hdma->DmaBaseAddress->IFCR = (DMA_ISR_GIF1 << (hdma->ChannelIndex & 0x1CU));
 288:Drivers/STM32WLxx_HAL_Driver/Src/stm32wlxx_hal_dma.c **** 
 289:Drivers/STM32WLxx_HAL_Driver/Src/stm32wlxx_hal_dma.c ****   /* Initialize parameters for DMAMUX channel :
 290:Drivers/STM32WLxx_HAL_Driver/Src/stm32wlxx_hal_dma.c ****      DMAmuxChannel, DMAmuxChannelStatus and DMAmuxChannelStatusMask */
 291:Drivers/STM32WLxx_HAL_Driver/Src/stm32wlxx_hal_dma.c **** 
 292:Drivers/STM32WLxx_HAL_Driver/Src/stm32wlxx_hal_dma.c ****   DMA_CalcDMAMUXChannelBaseAndMask(hdma);
 293:Drivers/STM32WLxx_HAL_Driver/Src/stm32wlxx_hal_dma.c **** 
 294:Drivers/STM32WLxx_HAL_Driver/Src/stm32wlxx_hal_dma.c ****   /* Reset the DMAMUX channel that corresponds to the DMA channel */
 295:Drivers/STM32WLxx_HAL_Driver/Src/stm32wlxx_hal_dma.c ****   hdma->DMAmuxChannel->CCR = 0U;
 296:Drivers/STM32WLxx_HAL_Driver/Src/stm32wlxx_hal_dma.c **** 
 297:Drivers/STM32WLxx_HAL_Driver/Src/stm32wlxx_hal_dma.c ****   /* Clear the DMAMUX synchro overrun flag */
 298:Drivers/STM32WLxx_HAL_Driver/Src/stm32wlxx_hal_dma.c ****   hdma->DMAmuxChannelStatus->CFR = hdma->DMAmuxChannelStatusMask;
 299:Drivers/STM32WLxx_HAL_Driver/Src/stm32wlxx_hal_dma.c **** 
 300:Drivers/STM32WLxx_HAL_Driver/Src/stm32wlxx_hal_dma.c ****   /* Reset Request generator parameters if any */
 301:Drivers/STM32WLxx_HAL_Driver/Src/stm32wlxx_hal_dma.c ****   if (((hdma->Init.Request >  0UL) && (hdma->Init.Request <= DMA_REQUEST_GENERATOR3)))
 302:Drivers/STM32WLxx_HAL_Driver/Src/stm32wlxx_hal_dma.c ****   {
 303:Drivers/STM32WLxx_HAL_Driver/Src/stm32wlxx_hal_dma.c ****     /* Initialize parameters for DMAMUX request generator :
 304:Drivers/STM32WLxx_HAL_Driver/Src/stm32wlxx_hal_dma.c ****        DMAmuxRequestGen, DMAmuxRequestGenStatus and DMAmuxRequestGenStatusMask
 305:Drivers/STM32WLxx_HAL_Driver/Src/stm32wlxx_hal_dma.c ****     */
 306:Drivers/STM32WLxx_HAL_Driver/Src/stm32wlxx_hal_dma.c ****     DMA_CalcDMAMUXRequestGenBaseAndMask(hdma);
 307:Drivers/STM32WLxx_HAL_Driver/Src/stm32wlxx_hal_dma.c **** 
 308:Drivers/STM32WLxx_HAL_Driver/Src/stm32wlxx_hal_dma.c ****     /* Reset the DMAMUX request generator register*/
 309:Drivers/STM32WLxx_HAL_Driver/Src/stm32wlxx_hal_dma.c ****     hdma->DMAmuxRequestGen->RGCR = 0U;
 310:Drivers/STM32WLxx_HAL_Driver/Src/stm32wlxx_hal_dma.c **** 
 311:Drivers/STM32WLxx_HAL_Driver/Src/stm32wlxx_hal_dma.c ****     /* Clear the DMAMUX request generator overrun flag */
 312:Drivers/STM32WLxx_HAL_Driver/Src/stm32wlxx_hal_dma.c ****     hdma->DMAmuxRequestGenStatus->RGCFR = hdma->DMAmuxRequestGenStatusMask;
 313:Drivers/STM32WLxx_HAL_Driver/Src/stm32wlxx_hal_dma.c ****   }
 314:Drivers/STM32WLxx_HAL_Driver/Src/stm32wlxx_hal_dma.c **** 
 315:Drivers/STM32WLxx_HAL_Driver/Src/stm32wlxx_hal_dma.c ****   hdma->DMAmuxRequestGen = 0U;
 316:Drivers/STM32WLxx_HAL_Driver/Src/stm32wlxx_hal_dma.c ****   hdma->DMAmuxRequestGenStatus = 0U;
 317:Drivers/STM32WLxx_HAL_Driver/Src/stm32wlxx_hal_dma.c ****   hdma->DMAmuxRequestGenStatusMask = 0U;
ARM GAS  /var/folders/9y/n02fl3g16gnf7ppy14xghdy80000gn/T//cckqCF9e.s 			page 7


 318:Drivers/STM32WLxx_HAL_Driver/Src/stm32wlxx_hal_dma.c **** 
 319:Drivers/STM32WLxx_HAL_Driver/Src/stm32wlxx_hal_dma.c ****   /* Clean callbacks */
 320:Drivers/STM32WLxx_HAL_Driver/Src/stm32wlxx_hal_dma.c ****   hdma->XferCpltCallback = NULL;
 321:Drivers/STM32WLxx_HAL_Driver/Src/stm32wlxx_hal_dma.c ****   hdma->XferHalfCpltCallback = NULL;
 322:Drivers/STM32WLxx_HAL_Driver/Src/stm32wlxx_hal_dma.c ****   hdma->XferErrorCallback = NULL;
 323:Drivers/STM32WLxx_HAL_Driver/Src/stm32wlxx_hal_dma.c ****   hdma->XferAbortCallback = NULL;
 324:Drivers/STM32WLxx_HAL_Driver/Src/stm32wlxx_hal_dma.c **** 
 325:Drivers/STM32WLxx_HAL_Driver/Src/stm32wlxx_hal_dma.c ****   /* Initialize the error code */
 326:Drivers/STM32WLxx_HAL_Driver/Src/stm32wlxx_hal_dma.c ****   hdma->ErrorCode = HAL_DMA_ERROR_NONE;
 327:Drivers/STM32WLxx_HAL_Driver/Src/stm32wlxx_hal_dma.c **** 
 328:Drivers/STM32WLxx_HAL_Driver/Src/stm32wlxx_hal_dma.c ****   /* Initialize the DMA state */
 329:Drivers/STM32WLxx_HAL_Driver/Src/stm32wlxx_hal_dma.c ****   hdma->State = HAL_DMA_STATE_RESET;
 330:Drivers/STM32WLxx_HAL_Driver/Src/stm32wlxx_hal_dma.c **** 
 331:Drivers/STM32WLxx_HAL_Driver/Src/stm32wlxx_hal_dma.c ****   /* Release Lock */
 332:Drivers/STM32WLxx_HAL_Driver/Src/stm32wlxx_hal_dma.c ****   __HAL_UNLOCK(hdma);
 333:Drivers/STM32WLxx_HAL_Driver/Src/stm32wlxx_hal_dma.c **** 
 334:Drivers/STM32WLxx_HAL_Driver/Src/stm32wlxx_hal_dma.c ****   return HAL_OK;
 335:Drivers/STM32WLxx_HAL_Driver/Src/stm32wlxx_hal_dma.c **** }
 336:Drivers/STM32WLxx_HAL_Driver/Src/stm32wlxx_hal_dma.c **** 
 337:Drivers/STM32WLxx_HAL_Driver/Src/stm32wlxx_hal_dma.c **** /**
 338:Drivers/STM32WLxx_HAL_Driver/Src/stm32wlxx_hal_dma.c ****   * @}
 339:Drivers/STM32WLxx_HAL_Driver/Src/stm32wlxx_hal_dma.c ****   */
 340:Drivers/STM32WLxx_HAL_Driver/Src/stm32wlxx_hal_dma.c **** 
 341:Drivers/STM32WLxx_HAL_Driver/Src/stm32wlxx_hal_dma.c **** /** @defgroup DMA_Exported_Functions_Group2 Input and Output operation functions
 342:Drivers/STM32WLxx_HAL_Driver/Src/stm32wlxx_hal_dma.c ****  *  @brief   Input and Output operation functions
 343:Drivers/STM32WLxx_HAL_Driver/Src/stm32wlxx_hal_dma.c ****  *
 344:Drivers/STM32WLxx_HAL_Driver/Src/stm32wlxx_hal_dma.c **** @verbatim
 345:Drivers/STM32WLxx_HAL_Driver/Src/stm32wlxx_hal_dma.c ****  ===============================================================================
 346:Drivers/STM32WLxx_HAL_Driver/Src/stm32wlxx_hal_dma.c ****                       #####  IO operation functions  #####
 347:Drivers/STM32WLxx_HAL_Driver/Src/stm32wlxx_hal_dma.c ****  ===============================================================================
 348:Drivers/STM32WLxx_HAL_Driver/Src/stm32wlxx_hal_dma.c ****     [..]  This section provides functions allowing to:
 349:Drivers/STM32WLxx_HAL_Driver/Src/stm32wlxx_hal_dma.c ****       (+) Configure the source, destination address and data length and Start DMA transfer
 350:Drivers/STM32WLxx_HAL_Driver/Src/stm32wlxx_hal_dma.c ****       (+) Configure the source, destination address and data length and
 351:Drivers/STM32WLxx_HAL_Driver/Src/stm32wlxx_hal_dma.c ****           Start DMA transfer with interrupt
 352:Drivers/STM32WLxx_HAL_Driver/Src/stm32wlxx_hal_dma.c ****       (+) Abort DMA transfer
 353:Drivers/STM32WLxx_HAL_Driver/Src/stm32wlxx_hal_dma.c ****       (+) Poll for transfer complete
 354:Drivers/STM32WLxx_HAL_Driver/Src/stm32wlxx_hal_dma.c ****       (+) Handle DMA interrupt request
 355:Drivers/STM32WLxx_HAL_Driver/Src/stm32wlxx_hal_dma.c ****       (+) Register and Unregister DMA callbacks
 356:Drivers/STM32WLxx_HAL_Driver/Src/stm32wlxx_hal_dma.c **** 
 357:Drivers/STM32WLxx_HAL_Driver/Src/stm32wlxx_hal_dma.c **** @endverbatim
 358:Drivers/STM32WLxx_HAL_Driver/Src/stm32wlxx_hal_dma.c ****   * @{
 359:Drivers/STM32WLxx_HAL_Driver/Src/stm32wlxx_hal_dma.c ****   */
 360:Drivers/STM32WLxx_HAL_Driver/Src/stm32wlxx_hal_dma.c **** 
 361:Drivers/STM32WLxx_HAL_Driver/Src/stm32wlxx_hal_dma.c **** /**
 362:Drivers/STM32WLxx_HAL_Driver/Src/stm32wlxx_hal_dma.c ****   * @brief Start the DMA Transfer.
 363:Drivers/STM32WLxx_HAL_Driver/Src/stm32wlxx_hal_dma.c ****   * @param hdma Pointer to a DMA_HandleTypeDef structure that contains
 364:Drivers/STM32WLxx_HAL_Driver/Src/stm32wlxx_hal_dma.c ****   *             the configuration information for the specified DMA Channel.
 365:Drivers/STM32WLxx_HAL_Driver/Src/stm32wlxx_hal_dma.c ****   * @param SrcAddress The source memory Buffer address
 366:Drivers/STM32WLxx_HAL_Driver/Src/stm32wlxx_hal_dma.c ****   * @param DstAddress The destination memory Buffer address
 367:Drivers/STM32WLxx_HAL_Driver/Src/stm32wlxx_hal_dma.c ****   * @param DataLength The length of data to be transferred from source to destination
 368:Drivers/STM32WLxx_HAL_Driver/Src/stm32wlxx_hal_dma.c ****   * @retval HAL status
 369:Drivers/STM32WLxx_HAL_Driver/Src/stm32wlxx_hal_dma.c ****   */
 370:Drivers/STM32WLxx_HAL_Driver/Src/stm32wlxx_hal_dma.c **** HAL_StatusTypeDef HAL_DMA_Start(DMA_HandleTypeDef *hdma, uint32_t SrcAddress, uint32_t DstAddress, 
 371:Drivers/STM32WLxx_HAL_Driver/Src/stm32wlxx_hal_dma.c **** {
 372:Drivers/STM32WLxx_HAL_Driver/Src/stm32wlxx_hal_dma.c ****   HAL_StatusTypeDef status = HAL_OK;
 373:Drivers/STM32WLxx_HAL_Driver/Src/stm32wlxx_hal_dma.c **** 
 374:Drivers/STM32WLxx_HAL_Driver/Src/stm32wlxx_hal_dma.c ****   /* Check the parameters */
ARM GAS  /var/folders/9y/n02fl3g16gnf7ppy14xghdy80000gn/T//cckqCF9e.s 			page 8


 375:Drivers/STM32WLxx_HAL_Driver/Src/stm32wlxx_hal_dma.c ****   assert_param(IS_DMA_BUFFER_SIZE(DataLength));
 376:Drivers/STM32WLxx_HAL_Driver/Src/stm32wlxx_hal_dma.c **** 
 377:Drivers/STM32WLxx_HAL_Driver/Src/stm32wlxx_hal_dma.c ****   /* Process locked */
 378:Drivers/STM32WLxx_HAL_Driver/Src/stm32wlxx_hal_dma.c ****   __HAL_LOCK(hdma);
 379:Drivers/STM32WLxx_HAL_Driver/Src/stm32wlxx_hal_dma.c **** 
 380:Drivers/STM32WLxx_HAL_Driver/Src/stm32wlxx_hal_dma.c ****   if (hdma->State == HAL_DMA_STATE_READY)
 381:Drivers/STM32WLxx_HAL_Driver/Src/stm32wlxx_hal_dma.c ****   {
 382:Drivers/STM32WLxx_HAL_Driver/Src/stm32wlxx_hal_dma.c ****     /* Change DMA peripheral state */
 383:Drivers/STM32WLxx_HAL_Driver/Src/stm32wlxx_hal_dma.c ****     hdma->State = HAL_DMA_STATE_BUSY;
 384:Drivers/STM32WLxx_HAL_Driver/Src/stm32wlxx_hal_dma.c **** 
 385:Drivers/STM32WLxx_HAL_Driver/Src/stm32wlxx_hal_dma.c ****     /* Initialize the error code */
 386:Drivers/STM32WLxx_HAL_Driver/Src/stm32wlxx_hal_dma.c ****     hdma->ErrorCode = HAL_DMA_ERROR_NONE;
 387:Drivers/STM32WLxx_HAL_Driver/Src/stm32wlxx_hal_dma.c **** 
 388:Drivers/STM32WLxx_HAL_Driver/Src/stm32wlxx_hal_dma.c ****     /* Disable the peripheral */
 389:Drivers/STM32WLxx_HAL_Driver/Src/stm32wlxx_hal_dma.c ****     __HAL_DMA_DISABLE(hdma);
 390:Drivers/STM32WLxx_HAL_Driver/Src/stm32wlxx_hal_dma.c **** 
 391:Drivers/STM32WLxx_HAL_Driver/Src/stm32wlxx_hal_dma.c ****     /* Configure the source, destination address and the data length & clear flags*/
 392:Drivers/STM32WLxx_HAL_Driver/Src/stm32wlxx_hal_dma.c ****     DMA_SetConfig(hdma, SrcAddress, DstAddress, DataLength);
 393:Drivers/STM32WLxx_HAL_Driver/Src/stm32wlxx_hal_dma.c **** 
 394:Drivers/STM32WLxx_HAL_Driver/Src/stm32wlxx_hal_dma.c ****     /* Enable the Peripheral */
 395:Drivers/STM32WLxx_HAL_Driver/Src/stm32wlxx_hal_dma.c ****     __HAL_DMA_ENABLE(hdma);
 396:Drivers/STM32WLxx_HAL_Driver/Src/stm32wlxx_hal_dma.c ****   }
 397:Drivers/STM32WLxx_HAL_Driver/Src/stm32wlxx_hal_dma.c ****   else
 398:Drivers/STM32WLxx_HAL_Driver/Src/stm32wlxx_hal_dma.c ****   {
 399:Drivers/STM32WLxx_HAL_Driver/Src/stm32wlxx_hal_dma.c ****     /* Change the error code */
 400:Drivers/STM32WLxx_HAL_Driver/Src/stm32wlxx_hal_dma.c ****     hdma->ErrorCode = HAL_DMA_ERROR_BUSY;
 401:Drivers/STM32WLxx_HAL_Driver/Src/stm32wlxx_hal_dma.c **** 
 402:Drivers/STM32WLxx_HAL_Driver/Src/stm32wlxx_hal_dma.c ****     /* Process Unlocked */
 403:Drivers/STM32WLxx_HAL_Driver/Src/stm32wlxx_hal_dma.c ****     __HAL_UNLOCK(hdma);
 404:Drivers/STM32WLxx_HAL_Driver/Src/stm32wlxx_hal_dma.c **** 
 405:Drivers/STM32WLxx_HAL_Driver/Src/stm32wlxx_hal_dma.c ****     /* Return error status */
 406:Drivers/STM32WLxx_HAL_Driver/Src/stm32wlxx_hal_dma.c ****     status = HAL_ERROR;
 407:Drivers/STM32WLxx_HAL_Driver/Src/stm32wlxx_hal_dma.c ****   }
 408:Drivers/STM32WLxx_HAL_Driver/Src/stm32wlxx_hal_dma.c **** 
 409:Drivers/STM32WLxx_HAL_Driver/Src/stm32wlxx_hal_dma.c ****   return status;
 410:Drivers/STM32WLxx_HAL_Driver/Src/stm32wlxx_hal_dma.c **** }
 411:Drivers/STM32WLxx_HAL_Driver/Src/stm32wlxx_hal_dma.c **** 
 412:Drivers/STM32WLxx_HAL_Driver/Src/stm32wlxx_hal_dma.c **** /**
 413:Drivers/STM32WLxx_HAL_Driver/Src/stm32wlxx_hal_dma.c ****   * @brief Start the DMA Transfer with interrupt enabled.
 414:Drivers/STM32WLxx_HAL_Driver/Src/stm32wlxx_hal_dma.c ****   * @param hdma Pointer to a DMA_HandleTypeDef structure that contains
 415:Drivers/STM32WLxx_HAL_Driver/Src/stm32wlxx_hal_dma.c ****   *             the configuration information for the specified DMA Channel.
 416:Drivers/STM32WLxx_HAL_Driver/Src/stm32wlxx_hal_dma.c ****   * @param SrcAddress The source memory Buffer address
 417:Drivers/STM32WLxx_HAL_Driver/Src/stm32wlxx_hal_dma.c ****   * @param DstAddress The destination memory Buffer address
 418:Drivers/STM32WLxx_HAL_Driver/Src/stm32wlxx_hal_dma.c ****   * @param DataLength The length of data to be transferred from source to destination
 419:Drivers/STM32WLxx_HAL_Driver/Src/stm32wlxx_hal_dma.c ****   * @retval HAL status
 420:Drivers/STM32WLxx_HAL_Driver/Src/stm32wlxx_hal_dma.c ****   */
 421:Drivers/STM32WLxx_HAL_Driver/Src/stm32wlxx_hal_dma.c **** HAL_StatusTypeDef HAL_DMA_Start_IT(DMA_HandleTypeDef *hdma, uint32_t SrcAddress, uint32_t DstAddres
 422:Drivers/STM32WLxx_HAL_Driver/Src/stm32wlxx_hal_dma.c **** {
 423:Drivers/STM32WLxx_HAL_Driver/Src/stm32wlxx_hal_dma.c ****   HAL_StatusTypeDef status = HAL_OK;
 424:Drivers/STM32WLxx_HAL_Driver/Src/stm32wlxx_hal_dma.c **** 
 425:Drivers/STM32WLxx_HAL_Driver/Src/stm32wlxx_hal_dma.c ****   /* Check the parameters */
 426:Drivers/STM32WLxx_HAL_Driver/Src/stm32wlxx_hal_dma.c ****   assert_param(IS_DMA_BUFFER_SIZE(DataLength));
 427:Drivers/STM32WLxx_HAL_Driver/Src/stm32wlxx_hal_dma.c **** 
 428:Drivers/STM32WLxx_HAL_Driver/Src/stm32wlxx_hal_dma.c ****   /* Process locked */
 429:Drivers/STM32WLxx_HAL_Driver/Src/stm32wlxx_hal_dma.c ****   __HAL_LOCK(hdma);
 430:Drivers/STM32WLxx_HAL_Driver/Src/stm32wlxx_hal_dma.c **** 
 431:Drivers/STM32WLxx_HAL_Driver/Src/stm32wlxx_hal_dma.c ****   if (hdma->State == HAL_DMA_STATE_READY)
ARM GAS  /var/folders/9y/n02fl3g16gnf7ppy14xghdy80000gn/T//cckqCF9e.s 			page 9


 432:Drivers/STM32WLxx_HAL_Driver/Src/stm32wlxx_hal_dma.c ****   {
 433:Drivers/STM32WLxx_HAL_Driver/Src/stm32wlxx_hal_dma.c ****     /* Change DMA peripheral state */
 434:Drivers/STM32WLxx_HAL_Driver/Src/stm32wlxx_hal_dma.c ****     hdma->State = HAL_DMA_STATE_BUSY;
 435:Drivers/STM32WLxx_HAL_Driver/Src/stm32wlxx_hal_dma.c ****     hdma->ErrorCode = HAL_DMA_ERROR_NONE;
 436:Drivers/STM32WLxx_HAL_Driver/Src/stm32wlxx_hal_dma.c **** 
 437:Drivers/STM32WLxx_HAL_Driver/Src/stm32wlxx_hal_dma.c ****     /* Disable the peripheral */
 438:Drivers/STM32WLxx_HAL_Driver/Src/stm32wlxx_hal_dma.c ****     __HAL_DMA_DISABLE(hdma);
 439:Drivers/STM32WLxx_HAL_Driver/Src/stm32wlxx_hal_dma.c **** 
 440:Drivers/STM32WLxx_HAL_Driver/Src/stm32wlxx_hal_dma.c ****     /* Configure the source, destination address and the data length & clear flags*/
 441:Drivers/STM32WLxx_HAL_Driver/Src/stm32wlxx_hal_dma.c ****     DMA_SetConfig(hdma, SrcAddress, DstAddress, DataLength);
 442:Drivers/STM32WLxx_HAL_Driver/Src/stm32wlxx_hal_dma.c **** 
 443:Drivers/STM32WLxx_HAL_Driver/Src/stm32wlxx_hal_dma.c ****     /* Enable the transfer complete interrupt */
 444:Drivers/STM32WLxx_HAL_Driver/Src/stm32wlxx_hal_dma.c ****     /* Enable the transfer Error interrupt */
 445:Drivers/STM32WLxx_HAL_Driver/Src/stm32wlxx_hal_dma.c ****     if (NULL != hdma->XferHalfCpltCallback)
 446:Drivers/STM32WLxx_HAL_Driver/Src/stm32wlxx_hal_dma.c ****     {
 447:Drivers/STM32WLxx_HAL_Driver/Src/stm32wlxx_hal_dma.c ****       /* Enable the Half transfer complete interrupt as well */
 448:Drivers/STM32WLxx_HAL_Driver/Src/stm32wlxx_hal_dma.c ****       __HAL_DMA_ENABLE_IT(hdma, (DMA_IT_TC | DMA_IT_HT | DMA_IT_TE));
 449:Drivers/STM32WLxx_HAL_Driver/Src/stm32wlxx_hal_dma.c ****     }
 450:Drivers/STM32WLxx_HAL_Driver/Src/stm32wlxx_hal_dma.c ****     else
 451:Drivers/STM32WLxx_HAL_Driver/Src/stm32wlxx_hal_dma.c ****     {
 452:Drivers/STM32WLxx_HAL_Driver/Src/stm32wlxx_hal_dma.c ****       __HAL_DMA_DISABLE_IT(hdma, DMA_IT_HT);
 453:Drivers/STM32WLxx_HAL_Driver/Src/stm32wlxx_hal_dma.c ****       __HAL_DMA_ENABLE_IT(hdma, (DMA_IT_TC | DMA_IT_TE));
 454:Drivers/STM32WLxx_HAL_Driver/Src/stm32wlxx_hal_dma.c ****     }
 455:Drivers/STM32WLxx_HAL_Driver/Src/stm32wlxx_hal_dma.c **** 
 456:Drivers/STM32WLxx_HAL_Driver/Src/stm32wlxx_hal_dma.c ****     /* Check if DMAMUX Synchronization is enabled*/
 457:Drivers/STM32WLxx_HAL_Driver/Src/stm32wlxx_hal_dma.c ****     if ((hdma->DMAmuxChannel->CCR & DMAMUX_CxCR_SE) != 0U)
 458:Drivers/STM32WLxx_HAL_Driver/Src/stm32wlxx_hal_dma.c ****     {
 459:Drivers/STM32WLxx_HAL_Driver/Src/stm32wlxx_hal_dma.c ****       /* Enable DMAMUX sync overrun IT*/
 460:Drivers/STM32WLxx_HAL_Driver/Src/stm32wlxx_hal_dma.c ****       hdma->DMAmuxChannel->CCR |= DMAMUX_CxCR_SOIE;
 461:Drivers/STM32WLxx_HAL_Driver/Src/stm32wlxx_hal_dma.c ****     }
 462:Drivers/STM32WLxx_HAL_Driver/Src/stm32wlxx_hal_dma.c **** 
 463:Drivers/STM32WLxx_HAL_Driver/Src/stm32wlxx_hal_dma.c ****     if (hdma->DMAmuxRequestGen != 0U)
 464:Drivers/STM32WLxx_HAL_Driver/Src/stm32wlxx_hal_dma.c ****     {
 465:Drivers/STM32WLxx_HAL_Driver/Src/stm32wlxx_hal_dma.c ****       /* if using DMAMUX request generator, enable the DMAMUX request generator overrun IT*/
 466:Drivers/STM32WLxx_HAL_Driver/Src/stm32wlxx_hal_dma.c ****       /* enable the request gen overrun IT*/
 467:Drivers/STM32WLxx_HAL_Driver/Src/stm32wlxx_hal_dma.c ****       hdma->DMAmuxRequestGen->RGCR |= DMAMUX_RGxCR_OIE;
 468:Drivers/STM32WLxx_HAL_Driver/Src/stm32wlxx_hal_dma.c ****     }
 469:Drivers/STM32WLxx_HAL_Driver/Src/stm32wlxx_hal_dma.c **** 
 470:Drivers/STM32WLxx_HAL_Driver/Src/stm32wlxx_hal_dma.c ****     /* Enable the Peripheral */
 471:Drivers/STM32WLxx_HAL_Driver/Src/stm32wlxx_hal_dma.c ****     __HAL_DMA_ENABLE(hdma);
 472:Drivers/STM32WLxx_HAL_Driver/Src/stm32wlxx_hal_dma.c ****   }
 473:Drivers/STM32WLxx_HAL_Driver/Src/stm32wlxx_hal_dma.c ****   else
 474:Drivers/STM32WLxx_HAL_Driver/Src/stm32wlxx_hal_dma.c ****   {
 475:Drivers/STM32WLxx_HAL_Driver/Src/stm32wlxx_hal_dma.c ****     /* Change the error code */
 476:Drivers/STM32WLxx_HAL_Driver/Src/stm32wlxx_hal_dma.c ****     hdma->ErrorCode = HAL_DMA_ERROR_BUSY;
 477:Drivers/STM32WLxx_HAL_Driver/Src/stm32wlxx_hal_dma.c **** 
 478:Drivers/STM32WLxx_HAL_Driver/Src/stm32wlxx_hal_dma.c ****     /* Process Unlocked */
 479:Drivers/STM32WLxx_HAL_Driver/Src/stm32wlxx_hal_dma.c ****     __HAL_UNLOCK(hdma);
 480:Drivers/STM32WLxx_HAL_Driver/Src/stm32wlxx_hal_dma.c **** 
 481:Drivers/STM32WLxx_HAL_Driver/Src/stm32wlxx_hal_dma.c ****     /* Return error status */
 482:Drivers/STM32WLxx_HAL_Driver/Src/stm32wlxx_hal_dma.c ****     status = HAL_ERROR;
 483:Drivers/STM32WLxx_HAL_Driver/Src/stm32wlxx_hal_dma.c ****   }
 484:Drivers/STM32WLxx_HAL_Driver/Src/stm32wlxx_hal_dma.c **** 
 485:Drivers/STM32WLxx_HAL_Driver/Src/stm32wlxx_hal_dma.c ****   return status;
 486:Drivers/STM32WLxx_HAL_Driver/Src/stm32wlxx_hal_dma.c **** }
 487:Drivers/STM32WLxx_HAL_Driver/Src/stm32wlxx_hal_dma.c **** 
 488:Drivers/STM32WLxx_HAL_Driver/Src/stm32wlxx_hal_dma.c **** /**
ARM GAS  /var/folders/9y/n02fl3g16gnf7ppy14xghdy80000gn/T//cckqCF9e.s 			page 10


 489:Drivers/STM32WLxx_HAL_Driver/Src/stm32wlxx_hal_dma.c ****   * @brief Abort the DMA Transfer.
 490:Drivers/STM32WLxx_HAL_Driver/Src/stm32wlxx_hal_dma.c ****   * @param hdma Pointer to a DMA_HandleTypeDef structure that contains
 491:Drivers/STM32WLxx_HAL_Driver/Src/stm32wlxx_hal_dma.c ****   *             the configuration information for the specified DMA Channel.
 492:Drivers/STM32WLxx_HAL_Driver/Src/stm32wlxx_hal_dma.c ****   * @retval HAL status
 493:Drivers/STM32WLxx_HAL_Driver/Src/stm32wlxx_hal_dma.c ****   */
 494:Drivers/STM32WLxx_HAL_Driver/Src/stm32wlxx_hal_dma.c **** HAL_StatusTypeDef HAL_DMA_Abort(DMA_HandleTypeDef *hdma)
 495:Drivers/STM32WLxx_HAL_Driver/Src/stm32wlxx_hal_dma.c **** {
 496:Drivers/STM32WLxx_HAL_Driver/Src/stm32wlxx_hal_dma.c ****   /* Check the DMA peripheral handle */
 497:Drivers/STM32WLxx_HAL_Driver/Src/stm32wlxx_hal_dma.c ****   if (NULL == hdma)
 498:Drivers/STM32WLxx_HAL_Driver/Src/stm32wlxx_hal_dma.c ****   {
 499:Drivers/STM32WLxx_HAL_Driver/Src/stm32wlxx_hal_dma.c ****     return HAL_ERROR;
 500:Drivers/STM32WLxx_HAL_Driver/Src/stm32wlxx_hal_dma.c ****   }
 501:Drivers/STM32WLxx_HAL_Driver/Src/stm32wlxx_hal_dma.c **** 
 502:Drivers/STM32WLxx_HAL_Driver/Src/stm32wlxx_hal_dma.c ****   /* Check the DMA peripheral state */
 503:Drivers/STM32WLxx_HAL_Driver/Src/stm32wlxx_hal_dma.c ****   if (hdma->State != HAL_DMA_STATE_BUSY)
 504:Drivers/STM32WLxx_HAL_Driver/Src/stm32wlxx_hal_dma.c ****   {
 505:Drivers/STM32WLxx_HAL_Driver/Src/stm32wlxx_hal_dma.c ****     hdma->ErrorCode = HAL_DMA_ERROR_NO_XFER;
 506:Drivers/STM32WLxx_HAL_Driver/Src/stm32wlxx_hal_dma.c **** 
 507:Drivers/STM32WLxx_HAL_Driver/Src/stm32wlxx_hal_dma.c ****     /* Process Unlocked */
 508:Drivers/STM32WLxx_HAL_Driver/Src/stm32wlxx_hal_dma.c ****     __HAL_UNLOCK(hdma);
 509:Drivers/STM32WLxx_HAL_Driver/Src/stm32wlxx_hal_dma.c **** 
 510:Drivers/STM32WLxx_HAL_Driver/Src/stm32wlxx_hal_dma.c ****     return HAL_ERROR;
 511:Drivers/STM32WLxx_HAL_Driver/Src/stm32wlxx_hal_dma.c ****   }
 512:Drivers/STM32WLxx_HAL_Driver/Src/stm32wlxx_hal_dma.c ****   else
 513:Drivers/STM32WLxx_HAL_Driver/Src/stm32wlxx_hal_dma.c ****   {
 514:Drivers/STM32WLxx_HAL_Driver/Src/stm32wlxx_hal_dma.c ****     /* Disable DMA IT */
 515:Drivers/STM32WLxx_HAL_Driver/Src/stm32wlxx_hal_dma.c ****     __HAL_DMA_DISABLE_IT(hdma, (DMA_IT_TC | DMA_IT_HT | DMA_IT_TE));
 516:Drivers/STM32WLxx_HAL_Driver/Src/stm32wlxx_hal_dma.c **** 
 517:Drivers/STM32WLxx_HAL_Driver/Src/stm32wlxx_hal_dma.c ****     /* disable the DMAMUX sync overrun IT*/
 518:Drivers/STM32WLxx_HAL_Driver/Src/stm32wlxx_hal_dma.c ****     hdma->DMAmuxChannel->CCR &= ~DMAMUX_CxCR_SOIE;
 519:Drivers/STM32WLxx_HAL_Driver/Src/stm32wlxx_hal_dma.c **** 
 520:Drivers/STM32WLxx_HAL_Driver/Src/stm32wlxx_hal_dma.c ****     /* Disable the channel */
 521:Drivers/STM32WLxx_HAL_Driver/Src/stm32wlxx_hal_dma.c ****     __HAL_DMA_DISABLE(hdma);
 522:Drivers/STM32WLxx_HAL_Driver/Src/stm32wlxx_hal_dma.c **** 
 523:Drivers/STM32WLxx_HAL_Driver/Src/stm32wlxx_hal_dma.c ****     /* Clear all flags */
 524:Drivers/STM32WLxx_HAL_Driver/Src/stm32wlxx_hal_dma.c ****     hdma->DmaBaseAddress->IFCR = (DMA_ISR_GIF1 << (hdma->ChannelIndex & 0x1CU));
 525:Drivers/STM32WLxx_HAL_Driver/Src/stm32wlxx_hal_dma.c **** 
 526:Drivers/STM32WLxx_HAL_Driver/Src/stm32wlxx_hal_dma.c ****     /* Clear the DMAMUX synchro overrun flag */
 527:Drivers/STM32WLxx_HAL_Driver/Src/stm32wlxx_hal_dma.c ****     hdma->DMAmuxChannelStatus->CFR = hdma->DMAmuxChannelStatusMask;
 528:Drivers/STM32WLxx_HAL_Driver/Src/stm32wlxx_hal_dma.c **** 
 529:Drivers/STM32WLxx_HAL_Driver/Src/stm32wlxx_hal_dma.c ****     if (hdma->DMAmuxRequestGen != 0U)
 530:Drivers/STM32WLxx_HAL_Driver/Src/stm32wlxx_hal_dma.c ****     {
 531:Drivers/STM32WLxx_HAL_Driver/Src/stm32wlxx_hal_dma.c ****       /* if using DMAMUX request generator, disable the DMAMUX request generator overrun IT*/
 532:Drivers/STM32WLxx_HAL_Driver/Src/stm32wlxx_hal_dma.c ****       /* disable the request gen overrun IT*/
 533:Drivers/STM32WLxx_HAL_Driver/Src/stm32wlxx_hal_dma.c ****       hdma->DMAmuxRequestGen->RGCR &= ~DMAMUX_RGxCR_OIE;
 534:Drivers/STM32WLxx_HAL_Driver/Src/stm32wlxx_hal_dma.c **** 
 535:Drivers/STM32WLxx_HAL_Driver/Src/stm32wlxx_hal_dma.c ****       /* Clear the DMAMUX request generator overrun flag */
 536:Drivers/STM32WLxx_HAL_Driver/Src/stm32wlxx_hal_dma.c ****       hdma->DMAmuxRequestGenStatus->RGCFR = hdma->DMAmuxRequestGenStatusMask;
 537:Drivers/STM32WLxx_HAL_Driver/Src/stm32wlxx_hal_dma.c ****     }
 538:Drivers/STM32WLxx_HAL_Driver/Src/stm32wlxx_hal_dma.c **** 
 539:Drivers/STM32WLxx_HAL_Driver/Src/stm32wlxx_hal_dma.c ****     /* Change the DMA state */
 540:Drivers/STM32WLxx_HAL_Driver/Src/stm32wlxx_hal_dma.c ****     hdma->State = HAL_DMA_STATE_READY;
 541:Drivers/STM32WLxx_HAL_Driver/Src/stm32wlxx_hal_dma.c **** 
 542:Drivers/STM32WLxx_HAL_Driver/Src/stm32wlxx_hal_dma.c ****     /* Process Unlocked */
 543:Drivers/STM32WLxx_HAL_Driver/Src/stm32wlxx_hal_dma.c ****     __HAL_UNLOCK(hdma);
 544:Drivers/STM32WLxx_HAL_Driver/Src/stm32wlxx_hal_dma.c ****   }
 545:Drivers/STM32WLxx_HAL_Driver/Src/stm32wlxx_hal_dma.c **** 
ARM GAS  /var/folders/9y/n02fl3g16gnf7ppy14xghdy80000gn/T//cckqCF9e.s 			page 11


 546:Drivers/STM32WLxx_HAL_Driver/Src/stm32wlxx_hal_dma.c ****   return HAL_OK;
 547:Drivers/STM32WLxx_HAL_Driver/Src/stm32wlxx_hal_dma.c **** }
 548:Drivers/STM32WLxx_HAL_Driver/Src/stm32wlxx_hal_dma.c **** 
 549:Drivers/STM32WLxx_HAL_Driver/Src/stm32wlxx_hal_dma.c **** /**
 550:Drivers/STM32WLxx_HAL_Driver/Src/stm32wlxx_hal_dma.c ****   * @brief Aborts the DMA Transfer in Interrupt mode.
 551:Drivers/STM32WLxx_HAL_Driver/Src/stm32wlxx_hal_dma.c ****   * @param hdma Pointer to a DMA_HandleTypeDef structure that contains
 552:Drivers/STM32WLxx_HAL_Driver/Src/stm32wlxx_hal_dma.c ****   *             the configuration information for the specified DMA Channel.
 553:Drivers/STM32WLxx_HAL_Driver/Src/stm32wlxx_hal_dma.c ****   * @retval HAL status
 554:Drivers/STM32WLxx_HAL_Driver/Src/stm32wlxx_hal_dma.c ****   */
 555:Drivers/STM32WLxx_HAL_Driver/Src/stm32wlxx_hal_dma.c **** HAL_StatusTypeDef HAL_DMA_Abort_IT(DMA_HandleTypeDef *hdma)
 556:Drivers/STM32WLxx_HAL_Driver/Src/stm32wlxx_hal_dma.c **** {
 557:Drivers/STM32WLxx_HAL_Driver/Src/stm32wlxx_hal_dma.c ****   HAL_StatusTypeDef status = HAL_OK;
 558:Drivers/STM32WLxx_HAL_Driver/Src/stm32wlxx_hal_dma.c **** 
 559:Drivers/STM32WLxx_HAL_Driver/Src/stm32wlxx_hal_dma.c ****   if (hdma->State != HAL_DMA_STATE_BUSY)
 560:Drivers/STM32WLxx_HAL_Driver/Src/stm32wlxx_hal_dma.c ****   {
 561:Drivers/STM32WLxx_HAL_Driver/Src/stm32wlxx_hal_dma.c ****     /* no transfer ongoing */
 562:Drivers/STM32WLxx_HAL_Driver/Src/stm32wlxx_hal_dma.c ****     hdma->ErrorCode = HAL_DMA_ERROR_NO_XFER;
 563:Drivers/STM32WLxx_HAL_Driver/Src/stm32wlxx_hal_dma.c **** 
 564:Drivers/STM32WLxx_HAL_Driver/Src/stm32wlxx_hal_dma.c ****     status = HAL_ERROR;
 565:Drivers/STM32WLxx_HAL_Driver/Src/stm32wlxx_hal_dma.c ****   }
 566:Drivers/STM32WLxx_HAL_Driver/Src/stm32wlxx_hal_dma.c ****   else
 567:Drivers/STM32WLxx_HAL_Driver/Src/stm32wlxx_hal_dma.c ****   {
 568:Drivers/STM32WLxx_HAL_Driver/Src/stm32wlxx_hal_dma.c ****     /* Disable DMA IT */
 569:Drivers/STM32WLxx_HAL_Driver/Src/stm32wlxx_hal_dma.c ****     __HAL_DMA_DISABLE_IT(hdma, (DMA_IT_TC | DMA_IT_HT | DMA_IT_TE));
 570:Drivers/STM32WLxx_HAL_Driver/Src/stm32wlxx_hal_dma.c **** 
 571:Drivers/STM32WLxx_HAL_Driver/Src/stm32wlxx_hal_dma.c ****     /* Disable the channel */
 572:Drivers/STM32WLxx_HAL_Driver/Src/stm32wlxx_hal_dma.c ****     __HAL_DMA_DISABLE(hdma);
 573:Drivers/STM32WLxx_HAL_Driver/Src/stm32wlxx_hal_dma.c **** 
 574:Drivers/STM32WLxx_HAL_Driver/Src/stm32wlxx_hal_dma.c ****     /* disable the DMAMUX sync overrun IT*/
 575:Drivers/STM32WLxx_HAL_Driver/Src/stm32wlxx_hal_dma.c ****     hdma->DMAmuxChannel->CCR &= ~DMAMUX_CxCR_SOIE;
 576:Drivers/STM32WLxx_HAL_Driver/Src/stm32wlxx_hal_dma.c **** 
 577:Drivers/STM32WLxx_HAL_Driver/Src/stm32wlxx_hal_dma.c ****     /* Clear all flags */
 578:Drivers/STM32WLxx_HAL_Driver/Src/stm32wlxx_hal_dma.c ****     hdma->DmaBaseAddress->IFCR = (DMA_ISR_GIF1 << (hdma->ChannelIndex & 0x1CU));
 579:Drivers/STM32WLxx_HAL_Driver/Src/stm32wlxx_hal_dma.c **** 
 580:Drivers/STM32WLxx_HAL_Driver/Src/stm32wlxx_hal_dma.c ****     /* Clear the DMAMUX synchro overrun flag */
 581:Drivers/STM32WLxx_HAL_Driver/Src/stm32wlxx_hal_dma.c ****     hdma->DMAmuxChannelStatus->CFR = hdma->DMAmuxChannelStatusMask;
 582:Drivers/STM32WLxx_HAL_Driver/Src/stm32wlxx_hal_dma.c **** 
 583:Drivers/STM32WLxx_HAL_Driver/Src/stm32wlxx_hal_dma.c ****     if (hdma->DMAmuxRequestGen != 0U)
 584:Drivers/STM32WLxx_HAL_Driver/Src/stm32wlxx_hal_dma.c ****     {
 585:Drivers/STM32WLxx_HAL_Driver/Src/stm32wlxx_hal_dma.c ****       /* if using DMAMUX request generator, disable the DMAMUX request generator overrun IT*/
 586:Drivers/STM32WLxx_HAL_Driver/Src/stm32wlxx_hal_dma.c ****       /* disable the request gen overrun IT*/
 587:Drivers/STM32WLxx_HAL_Driver/Src/stm32wlxx_hal_dma.c ****       hdma->DMAmuxRequestGen->RGCR &= ~DMAMUX_RGxCR_OIE;
 588:Drivers/STM32WLxx_HAL_Driver/Src/stm32wlxx_hal_dma.c **** 
 589:Drivers/STM32WLxx_HAL_Driver/Src/stm32wlxx_hal_dma.c ****       /* Clear the DMAMUX request generator overrun flag */
 590:Drivers/STM32WLxx_HAL_Driver/Src/stm32wlxx_hal_dma.c ****       hdma->DMAmuxRequestGenStatus->RGCFR = hdma->DMAmuxRequestGenStatusMask;
 591:Drivers/STM32WLxx_HAL_Driver/Src/stm32wlxx_hal_dma.c ****     }
 592:Drivers/STM32WLxx_HAL_Driver/Src/stm32wlxx_hal_dma.c **** 
 593:Drivers/STM32WLxx_HAL_Driver/Src/stm32wlxx_hal_dma.c ****     /* Change the DMA state */
 594:Drivers/STM32WLxx_HAL_Driver/Src/stm32wlxx_hal_dma.c ****     hdma->State = HAL_DMA_STATE_READY;
 595:Drivers/STM32WLxx_HAL_Driver/Src/stm32wlxx_hal_dma.c **** 
 596:Drivers/STM32WLxx_HAL_Driver/Src/stm32wlxx_hal_dma.c ****     /* Process Unlocked */
 597:Drivers/STM32WLxx_HAL_Driver/Src/stm32wlxx_hal_dma.c ****     __HAL_UNLOCK(hdma);
 598:Drivers/STM32WLxx_HAL_Driver/Src/stm32wlxx_hal_dma.c **** 
 599:Drivers/STM32WLxx_HAL_Driver/Src/stm32wlxx_hal_dma.c ****     /* Call User Abort callback */
 600:Drivers/STM32WLxx_HAL_Driver/Src/stm32wlxx_hal_dma.c ****     if (hdma->XferAbortCallback != NULL)
 601:Drivers/STM32WLxx_HAL_Driver/Src/stm32wlxx_hal_dma.c ****     {
 602:Drivers/STM32WLxx_HAL_Driver/Src/stm32wlxx_hal_dma.c ****       hdma->XferAbortCallback(hdma);
ARM GAS  /var/folders/9y/n02fl3g16gnf7ppy14xghdy80000gn/T//cckqCF9e.s 			page 12


 603:Drivers/STM32WLxx_HAL_Driver/Src/stm32wlxx_hal_dma.c ****     }
 604:Drivers/STM32WLxx_HAL_Driver/Src/stm32wlxx_hal_dma.c ****   }
 605:Drivers/STM32WLxx_HAL_Driver/Src/stm32wlxx_hal_dma.c ****   return status;
 606:Drivers/STM32WLxx_HAL_Driver/Src/stm32wlxx_hal_dma.c **** }
 607:Drivers/STM32WLxx_HAL_Driver/Src/stm32wlxx_hal_dma.c **** 
 608:Drivers/STM32WLxx_HAL_Driver/Src/stm32wlxx_hal_dma.c **** /**
 609:Drivers/STM32WLxx_HAL_Driver/Src/stm32wlxx_hal_dma.c ****   * @brief Polling for transfer complete.
 610:Drivers/STM32WLxx_HAL_Driver/Src/stm32wlxx_hal_dma.c ****   * @param hdma Pointer to a DMA_HandleTypeDef structure that contains
 611:Drivers/STM32WLxx_HAL_Driver/Src/stm32wlxx_hal_dma.c ****   *             the configuration information for the specified DMA Channel.
 612:Drivers/STM32WLxx_HAL_Driver/Src/stm32wlxx_hal_dma.c ****   * @param CompleteLevel Specifies the DMA level complete.
 613:Drivers/STM32WLxx_HAL_Driver/Src/stm32wlxx_hal_dma.c ****   * @param Timeout Timeout duration.
 614:Drivers/STM32WLxx_HAL_Driver/Src/stm32wlxx_hal_dma.c ****   * @retval HAL status
 615:Drivers/STM32WLxx_HAL_Driver/Src/stm32wlxx_hal_dma.c ****   */
 616:Drivers/STM32WLxx_HAL_Driver/Src/stm32wlxx_hal_dma.c **** HAL_StatusTypeDef HAL_DMA_PollForTransfer(DMA_HandleTypeDef *hdma, HAL_DMA_LevelCompleteTypeDef Com
 617:Drivers/STM32WLxx_HAL_Driver/Src/stm32wlxx_hal_dma.c **** {
 618:Drivers/STM32WLxx_HAL_Driver/Src/stm32wlxx_hal_dma.c ****   uint32_t temp;
 619:Drivers/STM32WLxx_HAL_Driver/Src/stm32wlxx_hal_dma.c ****   uint32_t tickstart;
 620:Drivers/STM32WLxx_HAL_Driver/Src/stm32wlxx_hal_dma.c **** 
 621:Drivers/STM32WLxx_HAL_Driver/Src/stm32wlxx_hal_dma.c ****   if (hdma->State != HAL_DMA_STATE_BUSY)
 622:Drivers/STM32WLxx_HAL_Driver/Src/stm32wlxx_hal_dma.c ****   {
 623:Drivers/STM32WLxx_HAL_Driver/Src/stm32wlxx_hal_dma.c ****     /* no transfer ongoing */
 624:Drivers/STM32WLxx_HAL_Driver/Src/stm32wlxx_hal_dma.c ****     hdma->ErrorCode = HAL_DMA_ERROR_NO_XFER;
 625:Drivers/STM32WLxx_HAL_Driver/Src/stm32wlxx_hal_dma.c ****     __HAL_UNLOCK(hdma);
 626:Drivers/STM32WLxx_HAL_Driver/Src/stm32wlxx_hal_dma.c ****     return HAL_ERROR;
 627:Drivers/STM32WLxx_HAL_Driver/Src/stm32wlxx_hal_dma.c ****   }
 628:Drivers/STM32WLxx_HAL_Driver/Src/stm32wlxx_hal_dma.c **** 
 629:Drivers/STM32WLxx_HAL_Driver/Src/stm32wlxx_hal_dma.c ****   /* Polling mode not supported in circular mode */
 630:Drivers/STM32WLxx_HAL_Driver/Src/stm32wlxx_hal_dma.c ****   if ((hdma->Instance->CCR & DMA_CCR_CIRC) != 0U)
 631:Drivers/STM32WLxx_HAL_Driver/Src/stm32wlxx_hal_dma.c ****   {
 632:Drivers/STM32WLxx_HAL_Driver/Src/stm32wlxx_hal_dma.c ****     hdma->ErrorCode = HAL_DMA_ERROR_NOT_SUPPORTED;
 633:Drivers/STM32WLxx_HAL_Driver/Src/stm32wlxx_hal_dma.c ****     return HAL_ERROR;
 634:Drivers/STM32WLxx_HAL_Driver/Src/stm32wlxx_hal_dma.c ****   }
 635:Drivers/STM32WLxx_HAL_Driver/Src/stm32wlxx_hal_dma.c **** 
 636:Drivers/STM32WLxx_HAL_Driver/Src/stm32wlxx_hal_dma.c ****   /* Get the level transfer complete flag */
 637:Drivers/STM32WLxx_HAL_Driver/Src/stm32wlxx_hal_dma.c ****   if (HAL_DMA_FULL_TRANSFER == CompleteLevel)
 638:Drivers/STM32WLxx_HAL_Driver/Src/stm32wlxx_hal_dma.c ****   {
 639:Drivers/STM32WLxx_HAL_Driver/Src/stm32wlxx_hal_dma.c ****     /* Transfer Complete flag */
 640:Drivers/STM32WLxx_HAL_Driver/Src/stm32wlxx_hal_dma.c ****     temp = DMA_FLAG_TC1 << (hdma->ChannelIndex & 0x1CU);
 641:Drivers/STM32WLxx_HAL_Driver/Src/stm32wlxx_hal_dma.c ****   }
 642:Drivers/STM32WLxx_HAL_Driver/Src/stm32wlxx_hal_dma.c ****   else
 643:Drivers/STM32WLxx_HAL_Driver/Src/stm32wlxx_hal_dma.c ****   {
 644:Drivers/STM32WLxx_HAL_Driver/Src/stm32wlxx_hal_dma.c ****     /* Half Transfer Complete flag */
 645:Drivers/STM32WLxx_HAL_Driver/Src/stm32wlxx_hal_dma.c ****     temp = DMA_FLAG_HT1 << (hdma->ChannelIndex & 0x1CU);
 646:Drivers/STM32WLxx_HAL_Driver/Src/stm32wlxx_hal_dma.c ****   }
 647:Drivers/STM32WLxx_HAL_Driver/Src/stm32wlxx_hal_dma.c **** 
 648:Drivers/STM32WLxx_HAL_Driver/Src/stm32wlxx_hal_dma.c ****   /* Get tick */
 649:Drivers/STM32WLxx_HAL_Driver/Src/stm32wlxx_hal_dma.c ****   tickstart = HAL_GetTick();
 650:Drivers/STM32WLxx_HAL_Driver/Src/stm32wlxx_hal_dma.c **** 
 651:Drivers/STM32WLxx_HAL_Driver/Src/stm32wlxx_hal_dma.c ****   while ((hdma->DmaBaseAddress->ISR & temp) == 0U)
 652:Drivers/STM32WLxx_HAL_Driver/Src/stm32wlxx_hal_dma.c ****   {
 653:Drivers/STM32WLxx_HAL_Driver/Src/stm32wlxx_hal_dma.c ****     if ((hdma->DmaBaseAddress->ISR & (DMA_FLAG_TE1 << (hdma->ChannelIndex & 0x1CU))) != 0U)
 654:Drivers/STM32WLxx_HAL_Driver/Src/stm32wlxx_hal_dma.c ****     {
 655:Drivers/STM32WLxx_HAL_Driver/Src/stm32wlxx_hal_dma.c ****       /* When a DMA transfer error occurs */
 656:Drivers/STM32WLxx_HAL_Driver/Src/stm32wlxx_hal_dma.c ****       /* A hardware clear of its EN bits is performed */
 657:Drivers/STM32WLxx_HAL_Driver/Src/stm32wlxx_hal_dma.c ****       /* Clear all flags */
 658:Drivers/STM32WLxx_HAL_Driver/Src/stm32wlxx_hal_dma.c ****       hdma->DmaBaseAddress->IFCR = (DMA_ISR_GIF1 << (hdma->ChannelIndex & 0x1CU));
 659:Drivers/STM32WLxx_HAL_Driver/Src/stm32wlxx_hal_dma.c **** 
ARM GAS  /var/folders/9y/n02fl3g16gnf7ppy14xghdy80000gn/T//cckqCF9e.s 			page 13


 660:Drivers/STM32WLxx_HAL_Driver/Src/stm32wlxx_hal_dma.c ****       /* Update error code */
 661:Drivers/STM32WLxx_HAL_Driver/Src/stm32wlxx_hal_dma.c ****       hdma->ErrorCode = HAL_DMA_ERROR_TE;
 662:Drivers/STM32WLxx_HAL_Driver/Src/stm32wlxx_hal_dma.c **** 
 663:Drivers/STM32WLxx_HAL_Driver/Src/stm32wlxx_hal_dma.c ****       /* Change the DMA state */
 664:Drivers/STM32WLxx_HAL_Driver/Src/stm32wlxx_hal_dma.c ****       hdma->State = HAL_DMA_STATE_READY;
 665:Drivers/STM32WLxx_HAL_Driver/Src/stm32wlxx_hal_dma.c **** 
 666:Drivers/STM32WLxx_HAL_Driver/Src/stm32wlxx_hal_dma.c ****       /* Process Unlocked */
 667:Drivers/STM32WLxx_HAL_Driver/Src/stm32wlxx_hal_dma.c ****       __HAL_UNLOCK(hdma);
 668:Drivers/STM32WLxx_HAL_Driver/Src/stm32wlxx_hal_dma.c **** 
 669:Drivers/STM32WLxx_HAL_Driver/Src/stm32wlxx_hal_dma.c ****       return HAL_ERROR;
 670:Drivers/STM32WLxx_HAL_Driver/Src/stm32wlxx_hal_dma.c ****     }
 671:Drivers/STM32WLxx_HAL_Driver/Src/stm32wlxx_hal_dma.c ****     /* Check for the Timeout */
 672:Drivers/STM32WLxx_HAL_Driver/Src/stm32wlxx_hal_dma.c ****     if (Timeout != HAL_MAX_DELAY)
 673:Drivers/STM32WLxx_HAL_Driver/Src/stm32wlxx_hal_dma.c ****     {
 674:Drivers/STM32WLxx_HAL_Driver/Src/stm32wlxx_hal_dma.c ****       if (((HAL_GetTick() - tickstart) > Timeout) || (Timeout == 0U))
 675:Drivers/STM32WLxx_HAL_Driver/Src/stm32wlxx_hal_dma.c ****       {
 676:Drivers/STM32WLxx_HAL_Driver/Src/stm32wlxx_hal_dma.c ****         /* Update error code */
 677:Drivers/STM32WLxx_HAL_Driver/Src/stm32wlxx_hal_dma.c ****         hdma->ErrorCode = HAL_DMA_ERROR_TIMEOUT;
 678:Drivers/STM32WLxx_HAL_Driver/Src/stm32wlxx_hal_dma.c **** 
 679:Drivers/STM32WLxx_HAL_Driver/Src/stm32wlxx_hal_dma.c ****         /* Change the DMA state */
 680:Drivers/STM32WLxx_HAL_Driver/Src/stm32wlxx_hal_dma.c ****         hdma->State = HAL_DMA_STATE_READY;
 681:Drivers/STM32WLxx_HAL_Driver/Src/stm32wlxx_hal_dma.c **** 
 682:Drivers/STM32WLxx_HAL_Driver/Src/stm32wlxx_hal_dma.c ****         /* Process Unlocked */
 683:Drivers/STM32WLxx_HAL_Driver/Src/stm32wlxx_hal_dma.c ****         __HAL_UNLOCK(hdma);
 684:Drivers/STM32WLxx_HAL_Driver/Src/stm32wlxx_hal_dma.c **** 
 685:Drivers/STM32WLxx_HAL_Driver/Src/stm32wlxx_hal_dma.c ****         return HAL_ERROR;
 686:Drivers/STM32WLxx_HAL_Driver/Src/stm32wlxx_hal_dma.c ****       }
 687:Drivers/STM32WLxx_HAL_Driver/Src/stm32wlxx_hal_dma.c ****     }
 688:Drivers/STM32WLxx_HAL_Driver/Src/stm32wlxx_hal_dma.c ****   }
 689:Drivers/STM32WLxx_HAL_Driver/Src/stm32wlxx_hal_dma.c **** 
 690:Drivers/STM32WLxx_HAL_Driver/Src/stm32wlxx_hal_dma.c ****   /*Check for DMAMUX Request generator (if used) overrun status */
 691:Drivers/STM32WLxx_HAL_Driver/Src/stm32wlxx_hal_dma.c ****   if (hdma->DMAmuxRequestGen != 0U)
 692:Drivers/STM32WLxx_HAL_Driver/Src/stm32wlxx_hal_dma.c ****   {
 693:Drivers/STM32WLxx_HAL_Driver/Src/stm32wlxx_hal_dma.c ****     /* if using DMAMUX request generator Check for DMAMUX request generator overrun */
 694:Drivers/STM32WLxx_HAL_Driver/Src/stm32wlxx_hal_dma.c ****     if ((hdma->DMAmuxRequestGenStatus->RGSR & hdma->DMAmuxRequestGenStatusMask) != 0U)
 695:Drivers/STM32WLxx_HAL_Driver/Src/stm32wlxx_hal_dma.c ****     {
 696:Drivers/STM32WLxx_HAL_Driver/Src/stm32wlxx_hal_dma.c ****       /* Disable the request gen overrun interrupt */
 697:Drivers/STM32WLxx_HAL_Driver/Src/stm32wlxx_hal_dma.c ****       hdma->DMAmuxRequestGen->RGCR |= DMAMUX_RGxCR_OIE;
 698:Drivers/STM32WLxx_HAL_Driver/Src/stm32wlxx_hal_dma.c **** 
 699:Drivers/STM32WLxx_HAL_Driver/Src/stm32wlxx_hal_dma.c ****       /* Clear the DMAMUX request generator overrun flag */
 700:Drivers/STM32WLxx_HAL_Driver/Src/stm32wlxx_hal_dma.c ****       hdma->DMAmuxRequestGenStatus->RGCFR = hdma->DMAmuxRequestGenStatusMask;
 701:Drivers/STM32WLxx_HAL_Driver/Src/stm32wlxx_hal_dma.c **** 
 702:Drivers/STM32WLxx_HAL_Driver/Src/stm32wlxx_hal_dma.c ****       /* Update error code */
 703:Drivers/STM32WLxx_HAL_Driver/Src/stm32wlxx_hal_dma.c ****       hdma->ErrorCode |= HAL_DMA_ERROR_REQGEN;
 704:Drivers/STM32WLxx_HAL_Driver/Src/stm32wlxx_hal_dma.c ****     }
 705:Drivers/STM32WLxx_HAL_Driver/Src/stm32wlxx_hal_dma.c ****   }
 706:Drivers/STM32WLxx_HAL_Driver/Src/stm32wlxx_hal_dma.c **** 
 707:Drivers/STM32WLxx_HAL_Driver/Src/stm32wlxx_hal_dma.c ****   /* Check for DMAMUX Synchronization overrun */
 708:Drivers/STM32WLxx_HAL_Driver/Src/stm32wlxx_hal_dma.c ****   if ((hdma->DMAmuxChannelStatus->CSR & hdma->DMAmuxChannelStatusMask) != 0U)
 709:Drivers/STM32WLxx_HAL_Driver/Src/stm32wlxx_hal_dma.c ****   {
 710:Drivers/STM32WLxx_HAL_Driver/Src/stm32wlxx_hal_dma.c ****     /* Clear the DMAMUX synchro overrun flag */
 711:Drivers/STM32WLxx_HAL_Driver/Src/stm32wlxx_hal_dma.c ****     hdma->DMAmuxChannelStatus->CFR = hdma->DMAmuxChannelStatusMask;
 712:Drivers/STM32WLxx_HAL_Driver/Src/stm32wlxx_hal_dma.c **** 
 713:Drivers/STM32WLxx_HAL_Driver/Src/stm32wlxx_hal_dma.c ****     /* Update error code */
 714:Drivers/STM32WLxx_HAL_Driver/Src/stm32wlxx_hal_dma.c ****     hdma->ErrorCode |= HAL_DMA_ERROR_SYNC;
 715:Drivers/STM32WLxx_HAL_Driver/Src/stm32wlxx_hal_dma.c ****   }
 716:Drivers/STM32WLxx_HAL_Driver/Src/stm32wlxx_hal_dma.c **** 
ARM GAS  /var/folders/9y/n02fl3g16gnf7ppy14xghdy80000gn/T//cckqCF9e.s 			page 14


 717:Drivers/STM32WLxx_HAL_Driver/Src/stm32wlxx_hal_dma.c ****   if (HAL_DMA_FULL_TRANSFER == CompleteLevel)
 718:Drivers/STM32WLxx_HAL_Driver/Src/stm32wlxx_hal_dma.c ****   {
 719:Drivers/STM32WLxx_HAL_Driver/Src/stm32wlxx_hal_dma.c ****     /* Clear the transfer complete flag */
 720:Drivers/STM32WLxx_HAL_Driver/Src/stm32wlxx_hal_dma.c ****     hdma->DmaBaseAddress->IFCR = (DMA_FLAG_TC1 << (hdma->ChannelIndex & 0x1CU));
 721:Drivers/STM32WLxx_HAL_Driver/Src/stm32wlxx_hal_dma.c **** 
 722:Drivers/STM32WLxx_HAL_Driver/Src/stm32wlxx_hal_dma.c ****     /* Process unlocked */
 723:Drivers/STM32WLxx_HAL_Driver/Src/stm32wlxx_hal_dma.c ****     __HAL_UNLOCK(hdma);
 724:Drivers/STM32WLxx_HAL_Driver/Src/stm32wlxx_hal_dma.c **** 
 725:Drivers/STM32WLxx_HAL_Driver/Src/stm32wlxx_hal_dma.c ****     /* The selected Channelx EN bit is cleared (DMA is disabled and
 726:Drivers/STM32WLxx_HAL_Driver/Src/stm32wlxx_hal_dma.c ****     all transfers are complete) */
 727:Drivers/STM32WLxx_HAL_Driver/Src/stm32wlxx_hal_dma.c ****     hdma->State = HAL_DMA_STATE_READY;
 728:Drivers/STM32WLxx_HAL_Driver/Src/stm32wlxx_hal_dma.c ****   }
 729:Drivers/STM32WLxx_HAL_Driver/Src/stm32wlxx_hal_dma.c ****   else
 730:Drivers/STM32WLxx_HAL_Driver/Src/stm32wlxx_hal_dma.c ****   {
 731:Drivers/STM32WLxx_HAL_Driver/Src/stm32wlxx_hal_dma.c ****     /* Clear the half transfer complete flag */
 732:Drivers/STM32WLxx_HAL_Driver/Src/stm32wlxx_hal_dma.c ****     hdma->DmaBaseAddress->IFCR = (DMA_FLAG_HT1 << (hdma->ChannelIndex & 0x1CU));
 733:Drivers/STM32WLxx_HAL_Driver/Src/stm32wlxx_hal_dma.c ****   }
 734:Drivers/STM32WLxx_HAL_Driver/Src/stm32wlxx_hal_dma.c **** 
 735:Drivers/STM32WLxx_HAL_Driver/Src/stm32wlxx_hal_dma.c ****   return HAL_OK;
 736:Drivers/STM32WLxx_HAL_Driver/Src/stm32wlxx_hal_dma.c **** }
 737:Drivers/STM32WLxx_HAL_Driver/Src/stm32wlxx_hal_dma.c **** 
 738:Drivers/STM32WLxx_HAL_Driver/Src/stm32wlxx_hal_dma.c **** /**
 739:Drivers/STM32WLxx_HAL_Driver/Src/stm32wlxx_hal_dma.c ****   * @brief Handle DMA interrupt request.
 740:Drivers/STM32WLxx_HAL_Driver/Src/stm32wlxx_hal_dma.c ****   * @param hdma Pointer to a DMA_HandleTypeDef structure that contains
 741:Drivers/STM32WLxx_HAL_Driver/Src/stm32wlxx_hal_dma.c ****   *             the configuration information for the specified DMA Channel.
 742:Drivers/STM32WLxx_HAL_Driver/Src/stm32wlxx_hal_dma.c ****   * @retval None
 743:Drivers/STM32WLxx_HAL_Driver/Src/stm32wlxx_hal_dma.c ****   */
 744:Drivers/STM32WLxx_HAL_Driver/Src/stm32wlxx_hal_dma.c **** void HAL_DMA_IRQHandler(DMA_HandleTypeDef *hdma)
 745:Drivers/STM32WLxx_HAL_Driver/Src/stm32wlxx_hal_dma.c **** {
 746:Drivers/STM32WLxx_HAL_Driver/Src/stm32wlxx_hal_dma.c ****   uint32_t flag_it = hdma->DmaBaseAddress->ISR;
 747:Drivers/STM32WLxx_HAL_Driver/Src/stm32wlxx_hal_dma.c ****   uint32_t source_it = hdma->Instance->CCR;
 748:Drivers/STM32WLxx_HAL_Driver/Src/stm32wlxx_hal_dma.c **** 
 749:Drivers/STM32WLxx_HAL_Driver/Src/stm32wlxx_hal_dma.c ****   /* Half Transfer Complete Interrupt management ******************************/
 750:Drivers/STM32WLxx_HAL_Driver/Src/stm32wlxx_hal_dma.c ****   if (((flag_it & (DMA_FLAG_HT1 << (hdma->ChannelIndex & 0x1CU))) != 0U) && ((source_it & DMA_IT_HT
 751:Drivers/STM32WLxx_HAL_Driver/Src/stm32wlxx_hal_dma.c ****   {
 752:Drivers/STM32WLxx_HAL_Driver/Src/stm32wlxx_hal_dma.c ****       /* Disable the half transfer interrupt if the DMA mode is not CIRCULAR */
 753:Drivers/STM32WLxx_HAL_Driver/Src/stm32wlxx_hal_dma.c ****       if ((hdma->Instance->CCR & DMA_CCR_CIRC) == 0U)
 754:Drivers/STM32WLxx_HAL_Driver/Src/stm32wlxx_hal_dma.c ****       {
 755:Drivers/STM32WLxx_HAL_Driver/Src/stm32wlxx_hal_dma.c ****         /* Disable the half transfer interrupt */
 756:Drivers/STM32WLxx_HAL_Driver/Src/stm32wlxx_hal_dma.c ****         __HAL_DMA_DISABLE_IT(hdma, DMA_IT_HT);
 757:Drivers/STM32WLxx_HAL_Driver/Src/stm32wlxx_hal_dma.c ****       }
 758:Drivers/STM32WLxx_HAL_Driver/Src/stm32wlxx_hal_dma.c ****       /* Clear the half transfer complete flag */
 759:Drivers/STM32WLxx_HAL_Driver/Src/stm32wlxx_hal_dma.c ****       hdma->DmaBaseAddress->IFCR = DMA_ISR_HTIF1 << (hdma->ChannelIndex & 0x1CU);
 760:Drivers/STM32WLxx_HAL_Driver/Src/stm32wlxx_hal_dma.c **** 
 761:Drivers/STM32WLxx_HAL_Driver/Src/stm32wlxx_hal_dma.c ****       /* DMA peripheral state is not updated in Half Transfer */
 762:Drivers/STM32WLxx_HAL_Driver/Src/stm32wlxx_hal_dma.c ****       /* but in Transfer Complete case */
 763:Drivers/STM32WLxx_HAL_Driver/Src/stm32wlxx_hal_dma.c **** 
 764:Drivers/STM32WLxx_HAL_Driver/Src/stm32wlxx_hal_dma.c ****       if (hdma->XferHalfCpltCallback != NULL)
 765:Drivers/STM32WLxx_HAL_Driver/Src/stm32wlxx_hal_dma.c ****       {
 766:Drivers/STM32WLxx_HAL_Driver/Src/stm32wlxx_hal_dma.c ****         /* Half transfer callback */
 767:Drivers/STM32WLxx_HAL_Driver/Src/stm32wlxx_hal_dma.c ****         hdma->XferHalfCpltCallback(hdma);
 768:Drivers/STM32WLxx_HAL_Driver/Src/stm32wlxx_hal_dma.c ****       }
 769:Drivers/STM32WLxx_HAL_Driver/Src/stm32wlxx_hal_dma.c ****   }
 770:Drivers/STM32WLxx_HAL_Driver/Src/stm32wlxx_hal_dma.c **** 
 771:Drivers/STM32WLxx_HAL_Driver/Src/stm32wlxx_hal_dma.c ****   /* Transfer Complete Interrupt management ***********************************/
 772:Drivers/STM32WLxx_HAL_Driver/Src/stm32wlxx_hal_dma.c ****   else if ((0U != (flag_it & (DMA_FLAG_TC1 << (hdma->ChannelIndex & 0x1CU)))) && (0U != (source_it 
 773:Drivers/STM32WLxx_HAL_Driver/Src/stm32wlxx_hal_dma.c ****   {
ARM GAS  /var/folders/9y/n02fl3g16gnf7ppy14xghdy80000gn/T//cckqCF9e.s 			page 15


 774:Drivers/STM32WLxx_HAL_Driver/Src/stm32wlxx_hal_dma.c ****       if ((hdma->Instance->CCR & DMA_CCR_CIRC) == 0U)
 775:Drivers/STM32WLxx_HAL_Driver/Src/stm32wlxx_hal_dma.c ****       {
 776:Drivers/STM32WLxx_HAL_Driver/Src/stm32wlxx_hal_dma.c ****         /* Disable the transfer complete and error interrupt */
 777:Drivers/STM32WLxx_HAL_Driver/Src/stm32wlxx_hal_dma.c ****         __HAL_DMA_DISABLE_IT(hdma, DMA_IT_TE | DMA_IT_TC);
 778:Drivers/STM32WLxx_HAL_Driver/Src/stm32wlxx_hal_dma.c **** 
 779:Drivers/STM32WLxx_HAL_Driver/Src/stm32wlxx_hal_dma.c ****         /* Change the DMA state */
 780:Drivers/STM32WLxx_HAL_Driver/Src/stm32wlxx_hal_dma.c ****         hdma->State = HAL_DMA_STATE_READY;
 781:Drivers/STM32WLxx_HAL_Driver/Src/stm32wlxx_hal_dma.c ****       }
 782:Drivers/STM32WLxx_HAL_Driver/Src/stm32wlxx_hal_dma.c ****       /* Clear the transfer complete flag */
 783:Drivers/STM32WLxx_HAL_Driver/Src/stm32wlxx_hal_dma.c ****       __HAL_DMA_CLEAR_FLAG(hdma, (DMA_FLAG_TC1 << (hdma->ChannelIndex & 0x1CU)));
 784:Drivers/STM32WLxx_HAL_Driver/Src/stm32wlxx_hal_dma.c **** 
 785:Drivers/STM32WLxx_HAL_Driver/Src/stm32wlxx_hal_dma.c ****       /* Process Unlocked */
 786:Drivers/STM32WLxx_HAL_Driver/Src/stm32wlxx_hal_dma.c ****       __HAL_UNLOCK(hdma);
 787:Drivers/STM32WLxx_HAL_Driver/Src/stm32wlxx_hal_dma.c **** 
 788:Drivers/STM32WLxx_HAL_Driver/Src/stm32wlxx_hal_dma.c ****       if (hdma->XferCpltCallback != NULL)
 789:Drivers/STM32WLxx_HAL_Driver/Src/stm32wlxx_hal_dma.c ****       {
 790:Drivers/STM32WLxx_HAL_Driver/Src/stm32wlxx_hal_dma.c ****         /* Transfer complete callback */
 791:Drivers/STM32WLxx_HAL_Driver/Src/stm32wlxx_hal_dma.c ****         hdma->XferCpltCallback(hdma);
 792:Drivers/STM32WLxx_HAL_Driver/Src/stm32wlxx_hal_dma.c ****       }
 793:Drivers/STM32WLxx_HAL_Driver/Src/stm32wlxx_hal_dma.c ****   }
 794:Drivers/STM32WLxx_HAL_Driver/Src/stm32wlxx_hal_dma.c **** 
 795:Drivers/STM32WLxx_HAL_Driver/Src/stm32wlxx_hal_dma.c ****   /* Transfer Error Interrupt management **************************************/
 796:Drivers/STM32WLxx_HAL_Driver/Src/stm32wlxx_hal_dma.c ****   else if (((flag_it & (DMA_FLAG_TE1 << (hdma->ChannelIndex & 0x1CU))) != 0U) && ((source_it & DMA_
 797:Drivers/STM32WLxx_HAL_Driver/Src/stm32wlxx_hal_dma.c ****   {
 798:Drivers/STM32WLxx_HAL_Driver/Src/stm32wlxx_hal_dma.c ****     /* When a DMA transfer error occurs */
 799:Drivers/STM32WLxx_HAL_Driver/Src/stm32wlxx_hal_dma.c ****     /* A hardware clear of its EN bits is performed */
 800:Drivers/STM32WLxx_HAL_Driver/Src/stm32wlxx_hal_dma.c ****     /* Disable ALL DMA IT */
 801:Drivers/STM32WLxx_HAL_Driver/Src/stm32wlxx_hal_dma.c ****     __HAL_DMA_DISABLE_IT(hdma, (DMA_IT_TC | DMA_IT_HT | DMA_IT_TE));
 802:Drivers/STM32WLxx_HAL_Driver/Src/stm32wlxx_hal_dma.c **** 
 803:Drivers/STM32WLxx_HAL_Driver/Src/stm32wlxx_hal_dma.c ****     /* Clear all flags */
 804:Drivers/STM32WLxx_HAL_Driver/Src/stm32wlxx_hal_dma.c ****     hdma->DmaBaseAddress->IFCR = (DMA_ISR_GIF1 << (hdma->ChannelIndex & 0x1CU));
 805:Drivers/STM32WLxx_HAL_Driver/Src/stm32wlxx_hal_dma.c **** 
 806:Drivers/STM32WLxx_HAL_Driver/Src/stm32wlxx_hal_dma.c ****     /* Update error code */
 807:Drivers/STM32WLxx_HAL_Driver/Src/stm32wlxx_hal_dma.c ****     hdma->ErrorCode = HAL_DMA_ERROR_TE;
 808:Drivers/STM32WLxx_HAL_Driver/Src/stm32wlxx_hal_dma.c **** 
 809:Drivers/STM32WLxx_HAL_Driver/Src/stm32wlxx_hal_dma.c ****     /* Change the DMA state */
 810:Drivers/STM32WLxx_HAL_Driver/Src/stm32wlxx_hal_dma.c ****     hdma->State = HAL_DMA_STATE_READY;
 811:Drivers/STM32WLxx_HAL_Driver/Src/stm32wlxx_hal_dma.c **** 
 812:Drivers/STM32WLxx_HAL_Driver/Src/stm32wlxx_hal_dma.c ****     /* Process Unlocked */
 813:Drivers/STM32WLxx_HAL_Driver/Src/stm32wlxx_hal_dma.c ****     __HAL_UNLOCK(hdma);
 814:Drivers/STM32WLxx_HAL_Driver/Src/stm32wlxx_hal_dma.c **** 
 815:Drivers/STM32WLxx_HAL_Driver/Src/stm32wlxx_hal_dma.c ****     if (hdma->XferErrorCallback != NULL)
 816:Drivers/STM32WLxx_HAL_Driver/Src/stm32wlxx_hal_dma.c ****     {
 817:Drivers/STM32WLxx_HAL_Driver/Src/stm32wlxx_hal_dma.c ****       /* Transfer error callback */
 818:Drivers/STM32WLxx_HAL_Driver/Src/stm32wlxx_hal_dma.c ****       hdma->XferErrorCallback(hdma);
 819:Drivers/STM32WLxx_HAL_Driver/Src/stm32wlxx_hal_dma.c ****     }
 820:Drivers/STM32WLxx_HAL_Driver/Src/stm32wlxx_hal_dma.c ****   }
 821:Drivers/STM32WLxx_HAL_Driver/Src/stm32wlxx_hal_dma.c ****   else
 822:Drivers/STM32WLxx_HAL_Driver/Src/stm32wlxx_hal_dma.c ****   {
 823:Drivers/STM32WLxx_HAL_Driver/Src/stm32wlxx_hal_dma.c ****     /* Nothing To Do */
 824:Drivers/STM32WLxx_HAL_Driver/Src/stm32wlxx_hal_dma.c ****   }
 825:Drivers/STM32WLxx_HAL_Driver/Src/stm32wlxx_hal_dma.c ****   return;
 826:Drivers/STM32WLxx_HAL_Driver/Src/stm32wlxx_hal_dma.c **** }
 827:Drivers/STM32WLxx_HAL_Driver/Src/stm32wlxx_hal_dma.c **** 
 828:Drivers/STM32WLxx_HAL_Driver/Src/stm32wlxx_hal_dma.c **** /**
 829:Drivers/STM32WLxx_HAL_Driver/Src/stm32wlxx_hal_dma.c ****   * @brief Register callbacks
 830:Drivers/STM32WLxx_HAL_Driver/Src/stm32wlxx_hal_dma.c ****   * @param hdma Pointer to a DMA_HandleTypeDef structure that contains
ARM GAS  /var/folders/9y/n02fl3g16gnf7ppy14xghdy80000gn/T//cckqCF9e.s 			page 16


 831:Drivers/STM32WLxx_HAL_Driver/Src/stm32wlxx_hal_dma.c ****   *             the configuration information for the specified DMA Channel.
 832:Drivers/STM32WLxx_HAL_Driver/Src/stm32wlxx_hal_dma.c ****   * @param CallbackID User Callback identifier
 833:Drivers/STM32WLxx_HAL_Driver/Src/stm32wlxx_hal_dma.c ****   *                   a HAL_DMA_CallbackIDTypeDef ENUM as parameter.
 834:Drivers/STM32WLxx_HAL_Driver/Src/stm32wlxx_hal_dma.c ****   * @param pCallback Pointer to private callback function which has pointer to
 835:Drivers/STM32WLxx_HAL_Driver/Src/stm32wlxx_hal_dma.c ****   *                  a DMA_HandleTypeDef structure as parameter.
 836:Drivers/STM32WLxx_HAL_Driver/Src/stm32wlxx_hal_dma.c ****   * @retval HAL status
 837:Drivers/STM32WLxx_HAL_Driver/Src/stm32wlxx_hal_dma.c ****   */
 838:Drivers/STM32WLxx_HAL_Driver/Src/stm32wlxx_hal_dma.c **** HAL_StatusTypeDef HAL_DMA_RegisterCallback(DMA_HandleTypeDef *hdma, HAL_DMA_CallbackIDTypeDef Callb
 839:Drivers/STM32WLxx_HAL_Driver/Src/stm32wlxx_hal_dma.c **** {
 840:Drivers/STM32WLxx_HAL_Driver/Src/stm32wlxx_hal_dma.c ****   HAL_StatusTypeDef status = HAL_OK;
 841:Drivers/STM32WLxx_HAL_Driver/Src/stm32wlxx_hal_dma.c **** 
 842:Drivers/STM32WLxx_HAL_Driver/Src/stm32wlxx_hal_dma.c ****   /* Process locked */
 843:Drivers/STM32WLxx_HAL_Driver/Src/stm32wlxx_hal_dma.c ****   __HAL_LOCK(hdma);
 844:Drivers/STM32WLxx_HAL_Driver/Src/stm32wlxx_hal_dma.c **** 
 845:Drivers/STM32WLxx_HAL_Driver/Src/stm32wlxx_hal_dma.c ****   if (hdma->State == HAL_DMA_STATE_READY)
 846:Drivers/STM32WLxx_HAL_Driver/Src/stm32wlxx_hal_dma.c ****   {
 847:Drivers/STM32WLxx_HAL_Driver/Src/stm32wlxx_hal_dma.c ****     switch (CallbackID)
 848:Drivers/STM32WLxx_HAL_Driver/Src/stm32wlxx_hal_dma.c ****     {
 849:Drivers/STM32WLxx_HAL_Driver/Src/stm32wlxx_hal_dma.c ****       case  HAL_DMA_XFER_CPLT_CB_ID:
 850:Drivers/STM32WLxx_HAL_Driver/Src/stm32wlxx_hal_dma.c ****         hdma->XferCpltCallback = pCallback;
 851:Drivers/STM32WLxx_HAL_Driver/Src/stm32wlxx_hal_dma.c ****         break;
 852:Drivers/STM32WLxx_HAL_Driver/Src/stm32wlxx_hal_dma.c **** 
 853:Drivers/STM32WLxx_HAL_Driver/Src/stm32wlxx_hal_dma.c ****       case  HAL_DMA_XFER_HALFCPLT_CB_ID:
 854:Drivers/STM32WLxx_HAL_Driver/Src/stm32wlxx_hal_dma.c ****         hdma->XferHalfCpltCallback = pCallback;
 855:Drivers/STM32WLxx_HAL_Driver/Src/stm32wlxx_hal_dma.c ****         break;
 856:Drivers/STM32WLxx_HAL_Driver/Src/stm32wlxx_hal_dma.c **** 
 857:Drivers/STM32WLxx_HAL_Driver/Src/stm32wlxx_hal_dma.c ****       case  HAL_DMA_XFER_ERROR_CB_ID:
 858:Drivers/STM32WLxx_HAL_Driver/Src/stm32wlxx_hal_dma.c ****         hdma->XferErrorCallback = pCallback;
 859:Drivers/STM32WLxx_HAL_Driver/Src/stm32wlxx_hal_dma.c ****         break;
 860:Drivers/STM32WLxx_HAL_Driver/Src/stm32wlxx_hal_dma.c **** 
 861:Drivers/STM32WLxx_HAL_Driver/Src/stm32wlxx_hal_dma.c ****       case  HAL_DMA_XFER_ABORT_CB_ID:
 862:Drivers/STM32WLxx_HAL_Driver/Src/stm32wlxx_hal_dma.c ****         hdma->XferAbortCallback = pCallback;
 863:Drivers/STM32WLxx_HAL_Driver/Src/stm32wlxx_hal_dma.c ****         break;
 864:Drivers/STM32WLxx_HAL_Driver/Src/stm32wlxx_hal_dma.c **** 
 865:Drivers/STM32WLxx_HAL_Driver/Src/stm32wlxx_hal_dma.c ****       default:
 866:Drivers/STM32WLxx_HAL_Driver/Src/stm32wlxx_hal_dma.c ****         status = HAL_ERROR;
 867:Drivers/STM32WLxx_HAL_Driver/Src/stm32wlxx_hal_dma.c ****         break;
 868:Drivers/STM32WLxx_HAL_Driver/Src/stm32wlxx_hal_dma.c ****     }
 869:Drivers/STM32WLxx_HAL_Driver/Src/stm32wlxx_hal_dma.c ****   }
 870:Drivers/STM32WLxx_HAL_Driver/Src/stm32wlxx_hal_dma.c ****   else
 871:Drivers/STM32WLxx_HAL_Driver/Src/stm32wlxx_hal_dma.c ****   {
 872:Drivers/STM32WLxx_HAL_Driver/Src/stm32wlxx_hal_dma.c ****     status = HAL_ERROR;
 873:Drivers/STM32WLxx_HAL_Driver/Src/stm32wlxx_hal_dma.c ****   }
 874:Drivers/STM32WLxx_HAL_Driver/Src/stm32wlxx_hal_dma.c **** 
 875:Drivers/STM32WLxx_HAL_Driver/Src/stm32wlxx_hal_dma.c ****   /* Release Lock */
 876:Drivers/STM32WLxx_HAL_Driver/Src/stm32wlxx_hal_dma.c ****   __HAL_UNLOCK(hdma);
 877:Drivers/STM32WLxx_HAL_Driver/Src/stm32wlxx_hal_dma.c **** 
 878:Drivers/STM32WLxx_HAL_Driver/Src/stm32wlxx_hal_dma.c ****   return status;
 879:Drivers/STM32WLxx_HAL_Driver/Src/stm32wlxx_hal_dma.c **** }
 880:Drivers/STM32WLxx_HAL_Driver/Src/stm32wlxx_hal_dma.c **** 
 881:Drivers/STM32WLxx_HAL_Driver/Src/stm32wlxx_hal_dma.c **** /**
 882:Drivers/STM32WLxx_HAL_Driver/Src/stm32wlxx_hal_dma.c ****   * @brief UnRegister callbacks
 883:Drivers/STM32WLxx_HAL_Driver/Src/stm32wlxx_hal_dma.c ****   * @param hdma Pointer to a DMA_HandleTypeDef structure that contains
 884:Drivers/STM32WLxx_HAL_Driver/Src/stm32wlxx_hal_dma.c ****   *             the configuration information for the specified DMA Channel.
 885:Drivers/STM32WLxx_HAL_Driver/Src/stm32wlxx_hal_dma.c ****   * @param CallbackID User Callback identifier
 886:Drivers/STM32WLxx_HAL_Driver/Src/stm32wlxx_hal_dma.c ****   *                   a HAL_DMA_CallbackIDTypeDef ENUM as parameter.
 887:Drivers/STM32WLxx_HAL_Driver/Src/stm32wlxx_hal_dma.c ****   * @retval HAL status
ARM GAS  /var/folders/9y/n02fl3g16gnf7ppy14xghdy80000gn/T//cckqCF9e.s 			page 17


 888:Drivers/STM32WLxx_HAL_Driver/Src/stm32wlxx_hal_dma.c ****   */
 889:Drivers/STM32WLxx_HAL_Driver/Src/stm32wlxx_hal_dma.c **** HAL_StatusTypeDef HAL_DMA_UnRegisterCallback(DMA_HandleTypeDef *hdma, HAL_DMA_CallbackIDTypeDef Cal
 890:Drivers/STM32WLxx_HAL_Driver/Src/stm32wlxx_hal_dma.c **** {
 891:Drivers/STM32WLxx_HAL_Driver/Src/stm32wlxx_hal_dma.c ****   HAL_StatusTypeDef status = HAL_OK;
 892:Drivers/STM32WLxx_HAL_Driver/Src/stm32wlxx_hal_dma.c **** 
 893:Drivers/STM32WLxx_HAL_Driver/Src/stm32wlxx_hal_dma.c ****   /* Process locked */
 894:Drivers/STM32WLxx_HAL_Driver/Src/stm32wlxx_hal_dma.c ****   __HAL_LOCK(hdma);
 895:Drivers/STM32WLxx_HAL_Driver/Src/stm32wlxx_hal_dma.c **** 
 896:Drivers/STM32WLxx_HAL_Driver/Src/stm32wlxx_hal_dma.c ****   if (hdma->State == HAL_DMA_STATE_READY)
 897:Drivers/STM32WLxx_HAL_Driver/Src/stm32wlxx_hal_dma.c ****   {
 898:Drivers/STM32WLxx_HAL_Driver/Src/stm32wlxx_hal_dma.c ****     switch (CallbackID)
 899:Drivers/STM32WLxx_HAL_Driver/Src/stm32wlxx_hal_dma.c ****     {
 900:Drivers/STM32WLxx_HAL_Driver/Src/stm32wlxx_hal_dma.c ****       case  HAL_DMA_XFER_CPLT_CB_ID:
 901:Drivers/STM32WLxx_HAL_Driver/Src/stm32wlxx_hal_dma.c ****         hdma->XferCpltCallback = NULL;
 902:Drivers/STM32WLxx_HAL_Driver/Src/stm32wlxx_hal_dma.c ****         break;
 903:Drivers/STM32WLxx_HAL_Driver/Src/stm32wlxx_hal_dma.c **** 
 904:Drivers/STM32WLxx_HAL_Driver/Src/stm32wlxx_hal_dma.c ****       case  HAL_DMA_XFER_HALFCPLT_CB_ID:
 905:Drivers/STM32WLxx_HAL_Driver/Src/stm32wlxx_hal_dma.c ****         hdma->XferHalfCpltCallback = NULL;
 906:Drivers/STM32WLxx_HAL_Driver/Src/stm32wlxx_hal_dma.c ****         break;
 907:Drivers/STM32WLxx_HAL_Driver/Src/stm32wlxx_hal_dma.c **** 
 908:Drivers/STM32WLxx_HAL_Driver/Src/stm32wlxx_hal_dma.c ****       case  HAL_DMA_XFER_ERROR_CB_ID:
 909:Drivers/STM32WLxx_HAL_Driver/Src/stm32wlxx_hal_dma.c ****         hdma->XferErrorCallback = NULL;
 910:Drivers/STM32WLxx_HAL_Driver/Src/stm32wlxx_hal_dma.c ****         break;
 911:Drivers/STM32WLxx_HAL_Driver/Src/stm32wlxx_hal_dma.c **** 
 912:Drivers/STM32WLxx_HAL_Driver/Src/stm32wlxx_hal_dma.c ****       case  HAL_DMA_XFER_ABORT_CB_ID:
 913:Drivers/STM32WLxx_HAL_Driver/Src/stm32wlxx_hal_dma.c ****         hdma->XferAbortCallback = NULL;
 914:Drivers/STM32WLxx_HAL_Driver/Src/stm32wlxx_hal_dma.c ****         break;
 915:Drivers/STM32WLxx_HAL_Driver/Src/stm32wlxx_hal_dma.c **** 
 916:Drivers/STM32WLxx_HAL_Driver/Src/stm32wlxx_hal_dma.c ****       case   HAL_DMA_XFER_ALL_CB_ID:
 917:Drivers/STM32WLxx_HAL_Driver/Src/stm32wlxx_hal_dma.c ****         hdma->XferCpltCallback = NULL;
 918:Drivers/STM32WLxx_HAL_Driver/Src/stm32wlxx_hal_dma.c ****         hdma->XferHalfCpltCallback = NULL;
 919:Drivers/STM32WLxx_HAL_Driver/Src/stm32wlxx_hal_dma.c ****         hdma->XferErrorCallback = NULL;
 920:Drivers/STM32WLxx_HAL_Driver/Src/stm32wlxx_hal_dma.c ****         hdma->XferAbortCallback = NULL;
 921:Drivers/STM32WLxx_HAL_Driver/Src/stm32wlxx_hal_dma.c ****         break;
 922:Drivers/STM32WLxx_HAL_Driver/Src/stm32wlxx_hal_dma.c **** 
 923:Drivers/STM32WLxx_HAL_Driver/Src/stm32wlxx_hal_dma.c ****       default:
 924:Drivers/STM32WLxx_HAL_Driver/Src/stm32wlxx_hal_dma.c ****         status = HAL_ERROR;
 925:Drivers/STM32WLxx_HAL_Driver/Src/stm32wlxx_hal_dma.c ****         break;
 926:Drivers/STM32WLxx_HAL_Driver/Src/stm32wlxx_hal_dma.c ****     }
 927:Drivers/STM32WLxx_HAL_Driver/Src/stm32wlxx_hal_dma.c ****   }
 928:Drivers/STM32WLxx_HAL_Driver/Src/stm32wlxx_hal_dma.c ****   else
 929:Drivers/STM32WLxx_HAL_Driver/Src/stm32wlxx_hal_dma.c ****   {
 930:Drivers/STM32WLxx_HAL_Driver/Src/stm32wlxx_hal_dma.c ****     status = HAL_ERROR;
 931:Drivers/STM32WLxx_HAL_Driver/Src/stm32wlxx_hal_dma.c ****   }
 932:Drivers/STM32WLxx_HAL_Driver/Src/stm32wlxx_hal_dma.c **** 
 933:Drivers/STM32WLxx_HAL_Driver/Src/stm32wlxx_hal_dma.c ****   /* Release Lock */
 934:Drivers/STM32WLxx_HAL_Driver/Src/stm32wlxx_hal_dma.c ****   __HAL_UNLOCK(hdma);
 935:Drivers/STM32WLxx_HAL_Driver/Src/stm32wlxx_hal_dma.c **** 
 936:Drivers/STM32WLxx_HAL_Driver/Src/stm32wlxx_hal_dma.c ****   return status;
 937:Drivers/STM32WLxx_HAL_Driver/Src/stm32wlxx_hal_dma.c **** }
 938:Drivers/STM32WLxx_HAL_Driver/Src/stm32wlxx_hal_dma.c **** 
 939:Drivers/STM32WLxx_HAL_Driver/Src/stm32wlxx_hal_dma.c **** /**
 940:Drivers/STM32WLxx_HAL_Driver/Src/stm32wlxx_hal_dma.c ****   * @}
 941:Drivers/STM32WLxx_HAL_Driver/Src/stm32wlxx_hal_dma.c ****   */
 942:Drivers/STM32WLxx_HAL_Driver/Src/stm32wlxx_hal_dma.c **** 
 943:Drivers/STM32WLxx_HAL_Driver/Src/stm32wlxx_hal_dma.c **** 
 944:Drivers/STM32WLxx_HAL_Driver/Src/stm32wlxx_hal_dma.c **** 
ARM GAS  /var/folders/9y/n02fl3g16gnf7ppy14xghdy80000gn/T//cckqCF9e.s 			page 18


 945:Drivers/STM32WLxx_HAL_Driver/Src/stm32wlxx_hal_dma.c **** /** @defgroup DMA_Exported_Functions_Group3 Peripheral State and Errors functions
 946:Drivers/STM32WLxx_HAL_Driver/Src/stm32wlxx_hal_dma.c ****  *  @brief    Peripheral State and Errors functions
 947:Drivers/STM32WLxx_HAL_Driver/Src/stm32wlxx_hal_dma.c ****  *
 948:Drivers/STM32WLxx_HAL_Driver/Src/stm32wlxx_hal_dma.c **** @verbatim
 949:Drivers/STM32WLxx_HAL_Driver/Src/stm32wlxx_hal_dma.c ****  ===============================================================================
 950:Drivers/STM32WLxx_HAL_Driver/Src/stm32wlxx_hal_dma.c ****             ##### Peripheral State and Errors functions #####
 951:Drivers/STM32WLxx_HAL_Driver/Src/stm32wlxx_hal_dma.c ****  ===============================================================================
 952:Drivers/STM32WLxx_HAL_Driver/Src/stm32wlxx_hal_dma.c ****     [..]
 953:Drivers/STM32WLxx_HAL_Driver/Src/stm32wlxx_hal_dma.c ****     This subsection provides functions allowing to
 954:Drivers/STM32WLxx_HAL_Driver/Src/stm32wlxx_hal_dma.c ****       (+) Check the DMA state
 955:Drivers/STM32WLxx_HAL_Driver/Src/stm32wlxx_hal_dma.c ****       (+) Get error code
 956:Drivers/STM32WLxx_HAL_Driver/Src/stm32wlxx_hal_dma.c **** 
 957:Drivers/STM32WLxx_HAL_Driver/Src/stm32wlxx_hal_dma.c **** @endverbatim
 958:Drivers/STM32WLxx_HAL_Driver/Src/stm32wlxx_hal_dma.c ****   * @{
 959:Drivers/STM32WLxx_HAL_Driver/Src/stm32wlxx_hal_dma.c ****   */
 960:Drivers/STM32WLxx_HAL_Driver/Src/stm32wlxx_hal_dma.c **** 
 961:Drivers/STM32WLxx_HAL_Driver/Src/stm32wlxx_hal_dma.c **** /**
 962:Drivers/STM32WLxx_HAL_Driver/Src/stm32wlxx_hal_dma.c ****   * @brief Return the DMA handle state.
 963:Drivers/STM32WLxx_HAL_Driver/Src/stm32wlxx_hal_dma.c ****   * @param hdma Pointer to a DMA_HandleTypeDef structure that contains
 964:Drivers/STM32WLxx_HAL_Driver/Src/stm32wlxx_hal_dma.c ****   *             the configuration information for the specified DMA Channel.
 965:Drivers/STM32WLxx_HAL_Driver/Src/stm32wlxx_hal_dma.c ****   * @retval HAL state
 966:Drivers/STM32WLxx_HAL_Driver/Src/stm32wlxx_hal_dma.c ****   */
 967:Drivers/STM32WLxx_HAL_Driver/Src/stm32wlxx_hal_dma.c **** HAL_DMA_StateTypeDef HAL_DMA_GetState(DMA_HandleTypeDef *hdma)
 968:Drivers/STM32WLxx_HAL_Driver/Src/stm32wlxx_hal_dma.c **** {
 969:Drivers/STM32WLxx_HAL_Driver/Src/stm32wlxx_hal_dma.c ****   /* Return DMA handle state */
 970:Drivers/STM32WLxx_HAL_Driver/Src/stm32wlxx_hal_dma.c ****   return hdma->State;
 971:Drivers/STM32WLxx_HAL_Driver/Src/stm32wlxx_hal_dma.c **** }
 972:Drivers/STM32WLxx_HAL_Driver/Src/stm32wlxx_hal_dma.c **** 
 973:Drivers/STM32WLxx_HAL_Driver/Src/stm32wlxx_hal_dma.c **** /**
 974:Drivers/STM32WLxx_HAL_Driver/Src/stm32wlxx_hal_dma.c ****   * @brief Return the DMA error code.
 975:Drivers/STM32WLxx_HAL_Driver/Src/stm32wlxx_hal_dma.c ****   * @param hdma Pointer to a DMA_HandleTypeDef structure that contains
 976:Drivers/STM32WLxx_HAL_Driver/Src/stm32wlxx_hal_dma.c ****   *             the configuration information for the specified DMA Channel.
 977:Drivers/STM32WLxx_HAL_Driver/Src/stm32wlxx_hal_dma.c ****   * @retval DMA Error Code
 978:Drivers/STM32WLxx_HAL_Driver/Src/stm32wlxx_hal_dma.c ****   */
 979:Drivers/STM32WLxx_HAL_Driver/Src/stm32wlxx_hal_dma.c **** uint32_t HAL_DMA_GetError(DMA_HandleTypeDef *hdma)
 980:Drivers/STM32WLxx_HAL_Driver/Src/stm32wlxx_hal_dma.c **** {
 981:Drivers/STM32WLxx_HAL_Driver/Src/stm32wlxx_hal_dma.c ****   /* Return the DMA error code */
 982:Drivers/STM32WLxx_HAL_Driver/Src/stm32wlxx_hal_dma.c ****   return hdma->ErrorCode;
 983:Drivers/STM32WLxx_HAL_Driver/Src/stm32wlxx_hal_dma.c **** }
 984:Drivers/STM32WLxx_HAL_Driver/Src/stm32wlxx_hal_dma.c **** 
 985:Drivers/STM32WLxx_HAL_Driver/Src/stm32wlxx_hal_dma.c **** /**
 986:Drivers/STM32WLxx_HAL_Driver/Src/stm32wlxx_hal_dma.c ****   * @}
 987:Drivers/STM32WLxx_HAL_Driver/Src/stm32wlxx_hal_dma.c ****   */
 988:Drivers/STM32WLxx_HAL_Driver/Src/stm32wlxx_hal_dma.c **** 
 989:Drivers/STM32WLxx_HAL_Driver/Src/stm32wlxx_hal_dma.c **** /**
 990:Drivers/STM32WLxx_HAL_Driver/Src/stm32wlxx_hal_dma.c ****   * @}
 991:Drivers/STM32WLxx_HAL_Driver/Src/stm32wlxx_hal_dma.c ****   */
 992:Drivers/STM32WLxx_HAL_Driver/Src/stm32wlxx_hal_dma.c **** 
 993:Drivers/STM32WLxx_HAL_Driver/Src/stm32wlxx_hal_dma.c **** #if defined(DMA_CCR_SECM) && defined(DMA_CCR_PRIV)
 994:Drivers/STM32WLxx_HAL_Driver/Src/stm32wlxx_hal_dma.c **** /** @defgroup DMA_Exported_Functions_Group4 Attributes management functions
 995:Drivers/STM32WLxx_HAL_Driver/Src/stm32wlxx_hal_dma.c ****  *  @brief    Attributes management functions
 996:Drivers/STM32WLxx_HAL_Driver/Src/stm32wlxx_hal_dma.c ****  *
 997:Drivers/STM32WLxx_HAL_Driver/Src/stm32wlxx_hal_dma.c **** @verbatim
 998:Drivers/STM32WLxx_HAL_Driver/Src/stm32wlxx_hal_dma.c ****  ===============================================================================
 999:Drivers/STM32WLxx_HAL_Driver/Src/stm32wlxx_hal_dma.c ****             ##### Attributes management functions #####
1000:Drivers/STM32WLxx_HAL_Driver/Src/stm32wlxx_hal_dma.c ****  ===============================================================================
1001:Drivers/STM32WLxx_HAL_Driver/Src/stm32wlxx_hal_dma.c ****     [..]
ARM GAS  /var/folders/9y/n02fl3g16gnf7ppy14xghdy80000gn/T//cckqCF9e.s 			page 19


1002:Drivers/STM32WLxx_HAL_Driver/Src/stm32wlxx_hal_dma.c ****     This subsection provides functions allowing to
1003:Drivers/STM32WLxx_HAL_Driver/Src/stm32wlxx_hal_dma.c ****       (+) Configure the DMA channel(s) privilege and non-privilege attributes
1004:Drivers/STM32WLxx_HAL_Driver/Src/stm32wlxx_hal_dma.c ****       (+) Configure the DMA channel(s) secure and non-secure attributes from
1005:Drivers/STM32WLxx_HAL_Driver/Src/stm32wlxx_hal_dma.c ****           secure world when the system implements the security (ESE=1)
1006:Drivers/STM32WLxx_HAL_Driver/Src/stm32wlxx_hal_dma.c ****       (+) Get the DMA channel(s) attributes
1007:Drivers/STM32WLxx_HAL_Driver/Src/stm32wlxx_hal_dma.c **** 
1008:Drivers/STM32WLxx_HAL_Driver/Src/stm32wlxx_hal_dma.c **** @endverbatim
1009:Drivers/STM32WLxx_HAL_Driver/Src/stm32wlxx_hal_dma.c ****   * @{
1010:Drivers/STM32WLxx_HAL_Driver/Src/stm32wlxx_hal_dma.c ****   */
1011:Drivers/STM32WLxx_HAL_Driver/Src/stm32wlxx_hal_dma.c **** 
1012:Drivers/STM32WLxx_HAL_Driver/Src/stm32wlxx_hal_dma.c **** /**
1013:Drivers/STM32WLxx_HAL_Driver/Src/stm32wlxx_hal_dma.c ****   * @brief Configure the DMA channel attribute(s).
1014:Drivers/STM32WLxx_HAL_Driver/Src/stm32wlxx_hal_dma.c ****   * @note  Available attributes are security and privilege protection.
1015:Drivers/STM32WLxx_HAL_Driver/Src/stm32wlxx_hal_dma.c ****   *        Each field can be set independently. Not allowed configurations
1016:Drivers/STM32WLxx_HAL_Driver/Src/stm32wlxx_hal_dma.c ****   *        are not taken into account & HAL_ERROR returned.
1017:Drivers/STM32WLxx_HAL_Driver/Src/stm32wlxx_hal_dma.c ****   * @param hdma Pointer to a DMA_HandleTypeDef structure that contains
1018:Drivers/STM32WLxx_HAL_Driver/Src/stm32wlxx_hal_dma.c ****   *             the configuration information for the specified DMA Channel.
1019:Drivers/STM32WLxx_HAL_Driver/Src/stm32wlxx_hal_dma.c ****   * @param ChannelAttributes specifies the DMA channel secure/privilege attributes.
1020:Drivers/STM32WLxx_HAL_Driver/Src/stm32wlxx_hal_dma.c ****   *        This parameter can be a one or a combination of @ref DMA_Channel_Attributes
1021:Drivers/STM32WLxx_HAL_Driver/Src/stm32wlxx_hal_dma.c ****   * @retval HAL Status
1022:Drivers/STM32WLxx_HAL_Driver/Src/stm32wlxx_hal_dma.c ****   */
1023:Drivers/STM32WLxx_HAL_Driver/Src/stm32wlxx_hal_dma.c **** HAL_StatusTypeDef HAL_DMA_ConfigChannelAttributes(DMA_HandleTypeDef *hdma, uint32_t ChannelAttribut
1024:Drivers/STM32WLxx_HAL_Driver/Src/stm32wlxx_hal_dma.c **** {
1025:Drivers/STM32WLxx_HAL_Driver/Src/stm32wlxx_hal_dma.c ****   HAL_StatusTypeDef status = HAL_OK;
1026:Drivers/STM32WLxx_HAL_Driver/Src/stm32wlxx_hal_dma.c ****   uint32_t ccr;
1027:Drivers/STM32WLxx_HAL_Driver/Src/stm32wlxx_hal_dma.c **** 
1028:Drivers/STM32WLxx_HAL_Driver/Src/stm32wlxx_hal_dma.c **** #if defined (CORE_CM0PLUS)
1029:Drivers/STM32WLxx_HAL_Driver/Src/stm32wlxx_hal_dma.c ****   uint32_t ccr_SECM;
1030:Drivers/STM32WLxx_HAL_Driver/Src/stm32wlxx_hal_dma.c **** #endif /* CORE_CM0PLUS */
1031:Drivers/STM32WLxx_HAL_Driver/Src/stm32wlxx_hal_dma.c **** 
1032:Drivers/STM32WLxx_HAL_Driver/Src/stm32wlxx_hal_dma.c ****   /* Check the DMA peripheral handle */
1033:Drivers/STM32WLxx_HAL_Driver/Src/stm32wlxx_hal_dma.c ****   if (hdma == NULL)
1034:Drivers/STM32WLxx_HAL_Driver/Src/stm32wlxx_hal_dma.c ****   {
1035:Drivers/STM32WLxx_HAL_Driver/Src/stm32wlxx_hal_dma.c ****     status = HAL_ERROR;
1036:Drivers/STM32WLxx_HAL_Driver/Src/stm32wlxx_hal_dma.c ****     return status;
1037:Drivers/STM32WLxx_HAL_Driver/Src/stm32wlxx_hal_dma.c ****   }
1038:Drivers/STM32WLxx_HAL_Driver/Src/stm32wlxx_hal_dma.c **** 
1039:Drivers/STM32WLxx_HAL_Driver/Src/stm32wlxx_hal_dma.c ****   /* Check the parameters */
1040:Drivers/STM32WLxx_HAL_Driver/Src/stm32wlxx_hal_dma.c ****   assert_param(IS_DMA_ATTRIBUTES(ChannelAttributes));
1041:Drivers/STM32WLxx_HAL_Driver/Src/stm32wlxx_hal_dma.c **** 
1042:Drivers/STM32WLxx_HAL_Driver/Src/stm32wlxx_hal_dma.c ****   /* Read CCR register */
1043:Drivers/STM32WLxx_HAL_Driver/Src/stm32wlxx_hal_dma.c ****   ccr = READ_REG(hdma->Instance->CCR);
1044:Drivers/STM32WLxx_HAL_Driver/Src/stm32wlxx_hal_dma.c **** 
1045:Drivers/STM32WLxx_HAL_Driver/Src/stm32wlxx_hal_dma.c ****   /* Apply any requested privilege/non-privilege attributes */
1046:Drivers/STM32WLxx_HAL_Driver/Src/stm32wlxx_hal_dma.c ****   if ((ChannelAttributes & DMA_CHANNEL_ATTR_PRIV_MASK) != 0U)
1047:Drivers/STM32WLxx_HAL_Driver/Src/stm32wlxx_hal_dma.c ****   {
1048:Drivers/STM32WLxx_HAL_Driver/Src/stm32wlxx_hal_dma.c ****     if ((ChannelAttributes & DMA_CCR_PRIV) != 0U)
1049:Drivers/STM32WLxx_HAL_Driver/Src/stm32wlxx_hal_dma.c ****     {
1050:Drivers/STM32WLxx_HAL_Driver/Src/stm32wlxx_hal_dma.c ****       SET_BIT(ccr, DMA_CCR_PRIV);
1051:Drivers/STM32WLxx_HAL_Driver/Src/stm32wlxx_hal_dma.c ****     }
1052:Drivers/STM32WLxx_HAL_Driver/Src/stm32wlxx_hal_dma.c ****     else
1053:Drivers/STM32WLxx_HAL_Driver/Src/stm32wlxx_hal_dma.c ****     {
1054:Drivers/STM32WLxx_HAL_Driver/Src/stm32wlxx_hal_dma.c ****       CLEAR_BIT(ccr, DMA_CCR_PRIV);
1055:Drivers/STM32WLxx_HAL_Driver/Src/stm32wlxx_hal_dma.c ****     }
1056:Drivers/STM32WLxx_HAL_Driver/Src/stm32wlxx_hal_dma.c ****   }
1057:Drivers/STM32WLxx_HAL_Driver/Src/stm32wlxx_hal_dma.c **** 
1058:Drivers/STM32WLxx_HAL_Driver/Src/stm32wlxx_hal_dma.c **** #if defined (CORE_CM0PLUS)
ARM GAS  /var/folders/9y/n02fl3g16gnf7ppy14xghdy80000gn/T//cckqCF9e.s 			page 20


1059:Drivers/STM32WLxx_HAL_Driver/Src/stm32wlxx_hal_dma.c ****   /* Channel */
1060:Drivers/STM32WLxx_HAL_Driver/Src/stm32wlxx_hal_dma.c ****   /* Check what is the current SECM status */
1061:Drivers/STM32WLxx_HAL_Driver/Src/stm32wlxx_hal_dma.c ****   if ((hdma->Instance->CCR & DMA_CCR_SECM) == DMA_CCR_SECM)
1062:Drivers/STM32WLxx_HAL_Driver/Src/stm32wlxx_hal_dma.c ****   {
1063:Drivers/STM32WLxx_HAL_Driver/Src/stm32wlxx_hal_dma.c ****     /* Channel is currently secure */
1064:Drivers/STM32WLxx_HAL_Driver/Src/stm32wlxx_hal_dma.c ****     ccr_SECM = DMA_CCR_SECM;
1065:Drivers/STM32WLxx_HAL_Driver/Src/stm32wlxx_hal_dma.c ****   }
1066:Drivers/STM32WLxx_HAL_Driver/Src/stm32wlxx_hal_dma.c ****   else
1067:Drivers/STM32WLxx_HAL_Driver/Src/stm32wlxx_hal_dma.c ****   {
1068:Drivers/STM32WLxx_HAL_Driver/Src/stm32wlxx_hal_dma.c ****     /* Channel is currently non-secure */
1069:Drivers/STM32WLxx_HAL_Driver/Src/stm32wlxx_hal_dma.c ****     ccr_SECM = 0U;
1070:Drivers/STM32WLxx_HAL_Driver/Src/stm32wlxx_hal_dma.c ****   }
1071:Drivers/STM32WLxx_HAL_Driver/Src/stm32wlxx_hal_dma.c **** 
1072:Drivers/STM32WLxx_HAL_Driver/Src/stm32wlxx_hal_dma.c ****   if ((ChannelAttributes & DMA_CHANNEL_ATTR_SEC_MASK) != 0U)
1073:Drivers/STM32WLxx_HAL_Driver/Src/stm32wlxx_hal_dma.c ****   {
1074:Drivers/STM32WLxx_HAL_Driver/Src/stm32wlxx_hal_dma.c ****     if ((ChannelAttributes & DMA_CCR_SECM) != 0U)
1075:Drivers/STM32WLxx_HAL_Driver/Src/stm32wlxx_hal_dma.c ****     {
1076:Drivers/STM32WLxx_HAL_Driver/Src/stm32wlxx_hal_dma.c ****       SET_BIT(ccr, DMA_CCR_SECM);
1077:Drivers/STM32WLxx_HAL_Driver/Src/stm32wlxx_hal_dma.c ****       /* Channel changed to secure */
1078:Drivers/STM32WLxx_HAL_Driver/Src/stm32wlxx_hal_dma.c ****       ccr_SECM = DMA_CCR_SECM;
1079:Drivers/STM32WLxx_HAL_Driver/Src/stm32wlxx_hal_dma.c ****     }
1080:Drivers/STM32WLxx_HAL_Driver/Src/stm32wlxx_hal_dma.c ****     else
1081:Drivers/STM32WLxx_HAL_Driver/Src/stm32wlxx_hal_dma.c ****     {
1082:Drivers/STM32WLxx_HAL_Driver/Src/stm32wlxx_hal_dma.c ****       CLEAR_BIT(ccr, DMA_CCR_SECM);
1083:Drivers/STM32WLxx_HAL_Driver/Src/stm32wlxx_hal_dma.c ****       /* Channel changed to non-secure */
1084:Drivers/STM32WLxx_HAL_Driver/Src/stm32wlxx_hal_dma.c ****       ccr_SECM = 0U;
1085:Drivers/STM32WLxx_HAL_Driver/Src/stm32wlxx_hal_dma.c ****     }
1086:Drivers/STM32WLxx_HAL_Driver/Src/stm32wlxx_hal_dma.c ****   }
1087:Drivers/STM32WLxx_HAL_Driver/Src/stm32wlxx_hal_dma.c **** 
1088:Drivers/STM32WLxx_HAL_Driver/Src/stm32wlxx_hal_dma.c ****   /* Channel source */
1089:Drivers/STM32WLxx_HAL_Driver/Src/stm32wlxx_hal_dma.c ****   if ((ChannelAttributes & DMA_CHANNEL_ATTR_SEC_SRC_MASK) != 0U)
1090:Drivers/STM32WLxx_HAL_Driver/Src/stm32wlxx_hal_dma.c ****   {
1091:Drivers/STM32WLxx_HAL_Driver/Src/stm32wlxx_hal_dma.c ****     /* Configure Source security attributes */
1092:Drivers/STM32WLxx_HAL_Driver/Src/stm32wlxx_hal_dma.c ****     if ((ChannelAttributes & DMA_CCR_SSEC) != 0x0U)
1093:Drivers/STM32WLxx_HAL_Driver/Src/stm32wlxx_hal_dma.c ****     {
1094:Drivers/STM32WLxx_HAL_Driver/Src/stm32wlxx_hal_dma.c ****       /* SSEC can only be set if channel is secure */
1095:Drivers/STM32WLxx_HAL_Driver/Src/stm32wlxx_hal_dma.c ****       /* Otherwise configuration is not taken into account */
1096:Drivers/STM32WLxx_HAL_Driver/Src/stm32wlxx_hal_dma.c ****       if (ccr_SECM == 0U)
1097:Drivers/STM32WLxx_HAL_Driver/Src/stm32wlxx_hal_dma.c ****       {
1098:Drivers/STM32WLxx_HAL_Driver/Src/stm32wlxx_hal_dma.c ****         status = HAL_ERROR;
1099:Drivers/STM32WLxx_HAL_Driver/Src/stm32wlxx_hal_dma.c ****       }
1100:Drivers/STM32WLxx_HAL_Driver/Src/stm32wlxx_hal_dma.c ****       else
1101:Drivers/STM32WLxx_HAL_Driver/Src/stm32wlxx_hal_dma.c ****       {
1102:Drivers/STM32WLxx_HAL_Driver/Src/stm32wlxx_hal_dma.c ****         SET_BIT(ccr, DMA_CCR_SSEC);
1103:Drivers/STM32WLxx_HAL_Driver/Src/stm32wlxx_hal_dma.c ****       }
1104:Drivers/STM32WLxx_HAL_Driver/Src/stm32wlxx_hal_dma.c ****     }
1105:Drivers/STM32WLxx_HAL_Driver/Src/stm32wlxx_hal_dma.c ****     else
1106:Drivers/STM32WLxx_HAL_Driver/Src/stm32wlxx_hal_dma.c ****     {
1107:Drivers/STM32WLxx_HAL_Driver/Src/stm32wlxx_hal_dma.c ****       CLEAR_BIT(ccr, DMA_CCR_SSEC);
1108:Drivers/STM32WLxx_HAL_Driver/Src/stm32wlxx_hal_dma.c ****     }
1109:Drivers/STM32WLxx_HAL_Driver/Src/stm32wlxx_hal_dma.c ****   }
1110:Drivers/STM32WLxx_HAL_Driver/Src/stm32wlxx_hal_dma.c **** 
1111:Drivers/STM32WLxx_HAL_Driver/Src/stm32wlxx_hal_dma.c ****   /* Channel destination */
1112:Drivers/STM32WLxx_HAL_Driver/Src/stm32wlxx_hal_dma.c ****   if ((ChannelAttributes & DMA_CHANNEL_ATTR_SEC_DEST_MASK) != 0U)
1113:Drivers/STM32WLxx_HAL_Driver/Src/stm32wlxx_hal_dma.c ****   {
1114:Drivers/STM32WLxx_HAL_Driver/Src/stm32wlxx_hal_dma.c ****     /* Configure Destination security attributes */
1115:Drivers/STM32WLxx_HAL_Driver/Src/stm32wlxx_hal_dma.c ****     if ((ChannelAttributes & DMA_CCR_DSEC) != 0U)
ARM GAS  /var/folders/9y/n02fl3g16gnf7ppy14xghdy80000gn/T//cckqCF9e.s 			page 21


1116:Drivers/STM32WLxx_HAL_Driver/Src/stm32wlxx_hal_dma.c ****     {
1117:Drivers/STM32WLxx_HAL_Driver/Src/stm32wlxx_hal_dma.c ****       if (ccr_SECM == 0U)
1118:Drivers/STM32WLxx_HAL_Driver/Src/stm32wlxx_hal_dma.c ****       {
1119:Drivers/STM32WLxx_HAL_Driver/Src/stm32wlxx_hal_dma.c ****         /* DSEC can only be set if channel is secure */
1120:Drivers/STM32WLxx_HAL_Driver/Src/stm32wlxx_hal_dma.c ****         /* Destination channel is non secure */
1121:Drivers/STM32WLxx_HAL_Driver/Src/stm32wlxx_hal_dma.c ****         status = HAL_ERROR;
1122:Drivers/STM32WLxx_HAL_Driver/Src/stm32wlxx_hal_dma.c ****       }
1123:Drivers/STM32WLxx_HAL_Driver/Src/stm32wlxx_hal_dma.c ****       else
1124:Drivers/STM32WLxx_HAL_Driver/Src/stm32wlxx_hal_dma.c ****       {
1125:Drivers/STM32WLxx_HAL_Driver/Src/stm32wlxx_hal_dma.c ****         SET_BIT(ccr, DMA_CCR_DSEC);
1126:Drivers/STM32WLxx_HAL_Driver/Src/stm32wlxx_hal_dma.c ****       }
1127:Drivers/STM32WLxx_HAL_Driver/Src/stm32wlxx_hal_dma.c ****     }
1128:Drivers/STM32WLxx_HAL_Driver/Src/stm32wlxx_hal_dma.c ****     else
1129:Drivers/STM32WLxx_HAL_Driver/Src/stm32wlxx_hal_dma.c ****     {
1130:Drivers/STM32WLxx_HAL_Driver/Src/stm32wlxx_hal_dma.c ****       CLEAR_BIT(ccr, DMA_CCR_DSEC);
1131:Drivers/STM32WLxx_HAL_Driver/Src/stm32wlxx_hal_dma.c ****     }
1132:Drivers/STM32WLxx_HAL_Driver/Src/stm32wlxx_hal_dma.c ****   }
1133:Drivers/STM32WLxx_HAL_Driver/Src/stm32wlxx_hal_dma.c **** 
1134:Drivers/STM32WLxx_HAL_Driver/Src/stm32wlxx_hal_dma.c **** #endif /* CORE_CM0PLUS */
1135:Drivers/STM32WLxx_HAL_Driver/Src/stm32wlxx_hal_dma.c **** 
1136:Drivers/STM32WLxx_HAL_Driver/Src/stm32wlxx_hal_dma.c ****   /* Update CCR Register: PRIV, SECM, SCEC, DSEC bits */
1137:Drivers/STM32WLxx_HAL_Driver/Src/stm32wlxx_hal_dma.c ****   WRITE_REG(hdma->Instance->CCR, ccr);
1138:Drivers/STM32WLxx_HAL_Driver/Src/stm32wlxx_hal_dma.c **** 
1139:Drivers/STM32WLxx_HAL_Driver/Src/stm32wlxx_hal_dma.c ****   return status;
1140:Drivers/STM32WLxx_HAL_Driver/Src/stm32wlxx_hal_dma.c **** }
1141:Drivers/STM32WLxx_HAL_Driver/Src/stm32wlxx_hal_dma.c **** 
1142:Drivers/STM32WLxx_HAL_Driver/Src/stm32wlxx_hal_dma.c **** /**
1143:Drivers/STM32WLxx_HAL_Driver/Src/stm32wlxx_hal_dma.c ****   * @brief Get the attribute of a DMA channel.
1144:Drivers/STM32WLxx_HAL_Driver/Src/stm32wlxx_hal_dma.c ****   * @note  Secure and non-secure attributes are only available from secure state
1145:Drivers/STM32WLxx_HAL_Driver/Src/stm32wlxx_hal_dma.c ****   *        when the system implements the security (ESE=1)
1146:Drivers/STM32WLxx_HAL_Driver/Src/stm32wlxx_hal_dma.c ****   * @param hdma Pointer to a DMA_HandleTypeDef structure that contains
1147:Drivers/STM32WLxx_HAL_Driver/Src/stm32wlxx_hal_dma.c ****   *             the configuration information for the specified DMA Channel.
1148:Drivers/STM32WLxx_HAL_Driver/Src/stm32wlxx_hal_dma.c ****   * @param ChannelAttributes pointer to return the attributes.
1149:Drivers/STM32WLxx_HAL_Driver/Src/stm32wlxx_hal_dma.c ****   * @retval HAL Status.
1150:Drivers/STM32WLxx_HAL_Driver/Src/stm32wlxx_hal_dma.c ****   */
1151:Drivers/STM32WLxx_HAL_Driver/Src/stm32wlxx_hal_dma.c **** HAL_StatusTypeDef HAL_DMA_GetConfigChannelAttributes(DMA_HandleTypeDef *hdma, uint32_t *ChannelAttr
1152:Drivers/STM32WLxx_HAL_Driver/Src/stm32wlxx_hal_dma.c **** {
1153:Drivers/STM32WLxx_HAL_Driver/Src/stm32wlxx_hal_dma.c ****   uint32_t read_attributes;
1154:Drivers/STM32WLxx_HAL_Driver/Src/stm32wlxx_hal_dma.c ****   uint32_t attributes;
1155:Drivers/STM32WLxx_HAL_Driver/Src/stm32wlxx_hal_dma.c **** 
1156:Drivers/STM32WLxx_HAL_Driver/Src/stm32wlxx_hal_dma.c ****   /* Check the DMA peripheral handle and pointer to returned value */
1157:Drivers/STM32WLxx_HAL_Driver/Src/stm32wlxx_hal_dma.c ****   if ((hdma == NULL) || (ChannelAttributes == NULL))
1158:Drivers/STM32WLxx_HAL_Driver/Src/stm32wlxx_hal_dma.c ****   {
1159:Drivers/STM32WLxx_HAL_Driver/Src/stm32wlxx_hal_dma.c ****     return HAL_ERROR;
1160:Drivers/STM32WLxx_HAL_Driver/Src/stm32wlxx_hal_dma.c ****   }
1161:Drivers/STM32WLxx_HAL_Driver/Src/stm32wlxx_hal_dma.c **** 
1162:Drivers/STM32WLxx_HAL_Driver/Src/stm32wlxx_hal_dma.c **** #if defined (CORE_CM0PLUS)
1163:Drivers/STM32WLxx_HAL_Driver/Src/stm32wlxx_hal_dma.c ****   /* Get secure or non-secure attributes */
1164:Drivers/STM32WLxx_HAL_Driver/Src/stm32wlxx_hal_dma.c ****   read_attributes = READ_BIT(hdma->Instance->CCR, DMA_CCR_PRIV | DMA_CCR_SECM | DMA_CCR_SSEC | DMA_
1165:Drivers/STM32WLxx_HAL_Driver/Src/stm32wlxx_hal_dma.c **** 
1166:Drivers/STM32WLxx_HAL_Driver/Src/stm32wlxx_hal_dma.c ****   /* Get privilege attributes */
1167:Drivers/STM32WLxx_HAL_Driver/Src/stm32wlxx_hal_dma.c ****   attributes = ((read_attributes & DMA_CCR_PRIV) == 0U) ? DMA_CHANNEL_NPRIV : DMA_CHANNEL_PRIV;
1168:Drivers/STM32WLxx_HAL_Driver/Src/stm32wlxx_hal_dma.c **** 
1169:Drivers/STM32WLxx_HAL_Driver/Src/stm32wlxx_hal_dma.c ****   /* Get security attributes */
1170:Drivers/STM32WLxx_HAL_Driver/Src/stm32wlxx_hal_dma.c ****   attributes |= ((read_attributes & DMA_CCR_SECM) == 0U) ? DMA_CHANNEL_NSEC : DMA_CHANNEL_SEC;
1171:Drivers/STM32WLxx_HAL_Driver/Src/stm32wlxx_hal_dma.c **** 
1172:Drivers/STM32WLxx_HAL_Driver/Src/stm32wlxx_hal_dma.c ****   /* Get security attributes of the source */
ARM GAS  /var/folders/9y/n02fl3g16gnf7ppy14xghdy80000gn/T//cckqCF9e.s 			page 22


1173:Drivers/STM32WLxx_HAL_Driver/Src/stm32wlxx_hal_dma.c ****   attributes |= ((read_attributes & DMA_CCR_SSEC) == 0U) ? DMA_CHANNEL_SRC_NSEC : DMA_CHANNEL_SRC_S
1174:Drivers/STM32WLxx_HAL_Driver/Src/stm32wlxx_hal_dma.c **** 
1175:Drivers/STM32WLxx_HAL_Driver/Src/stm32wlxx_hal_dma.c ****   /* Get security attributes of the destination */
1176:Drivers/STM32WLxx_HAL_Driver/Src/stm32wlxx_hal_dma.c ****   attributes |= ((read_attributes & DMA_CCR_DSEC) == 0U) ? DMA_CHANNEL_DEST_NSEC : DMA_CHANNEL_DEST
1177:Drivers/STM32WLxx_HAL_Driver/Src/stm32wlxx_hal_dma.c **** 
1178:Drivers/STM32WLxx_HAL_Driver/Src/stm32wlxx_hal_dma.c **** #else
1179:Drivers/STM32WLxx_HAL_Driver/Src/stm32wlxx_hal_dma.c **** 
1180:Drivers/STM32WLxx_HAL_Driver/Src/stm32wlxx_hal_dma.c ****   /* Get secure or non-secure attributes */
1181:Drivers/STM32WLxx_HAL_Driver/Src/stm32wlxx_hal_dma.c ****   read_attributes = READ_BIT(hdma->Instance->CCR, DMA_CCR_PRIV | DMA_CCR_SECM);
1182:Drivers/STM32WLxx_HAL_Driver/Src/stm32wlxx_hal_dma.c **** 
1183:Drivers/STM32WLxx_HAL_Driver/Src/stm32wlxx_hal_dma.c ****   /* Get privilege attributes */
1184:Drivers/STM32WLxx_HAL_Driver/Src/stm32wlxx_hal_dma.c ****   attributes = ((read_attributes & DMA_CCR_PRIV) == 0U) ? DMA_CHANNEL_NPRIV : DMA_CHANNEL_PRIV;
1185:Drivers/STM32WLxx_HAL_Driver/Src/stm32wlxx_hal_dma.c **** 
1186:Drivers/STM32WLxx_HAL_Driver/Src/stm32wlxx_hal_dma.c ****   /* Get security attributes */
1187:Drivers/STM32WLxx_HAL_Driver/Src/stm32wlxx_hal_dma.c ****   attributes |= ((read_attributes & DMA_CCR_SECM) == 0U) ? DMA_CHANNEL_NSEC : DMA_CHANNEL_SEC;
1188:Drivers/STM32WLxx_HAL_Driver/Src/stm32wlxx_hal_dma.c **** #endif /* CORE_CM0PLUS */
1189:Drivers/STM32WLxx_HAL_Driver/Src/stm32wlxx_hal_dma.c **** 
1190:Drivers/STM32WLxx_HAL_Driver/Src/stm32wlxx_hal_dma.c ****   /* return value */
1191:Drivers/STM32WLxx_HAL_Driver/Src/stm32wlxx_hal_dma.c ****   *ChannelAttributes = attributes;
1192:Drivers/STM32WLxx_HAL_Driver/Src/stm32wlxx_hal_dma.c **** 
1193:Drivers/STM32WLxx_HAL_Driver/Src/stm32wlxx_hal_dma.c ****   return HAL_OK;
1194:Drivers/STM32WLxx_HAL_Driver/Src/stm32wlxx_hal_dma.c **** }
1195:Drivers/STM32WLxx_HAL_Driver/Src/stm32wlxx_hal_dma.c **** #endif /* DMA_SECURE_SWITCH */
1196:Drivers/STM32WLxx_HAL_Driver/Src/stm32wlxx_hal_dma.c **** /** @addtogroup DMA_Private_Functions
1197:Drivers/STM32WLxx_HAL_Driver/Src/stm32wlxx_hal_dma.c ****   * @{
1198:Drivers/STM32WLxx_HAL_Driver/Src/stm32wlxx_hal_dma.c ****   */
1199:Drivers/STM32WLxx_HAL_Driver/Src/stm32wlxx_hal_dma.c **** 
1200:Drivers/STM32WLxx_HAL_Driver/Src/stm32wlxx_hal_dma.c **** /**
1201:Drivers/STM32WLxx_HAL_Driver/Src/stm32wlxx_hal_dma.c ****   * @brief Sets the DMA Transfer parameter.
1202:Drivers/STM32WLxx_HAL_Driver/Src/stm32wlxx_hal_dma.c ****   * @param hdma Pointer to a DMA_HandleTypeDef structure that contains
1203:Drivers/STM32WLxx_HAL_Driver/Src/stm32wlxx_hal_dma.c ****   *             the configuration information for the specified DMA Channel.
1204:Drivers/STM32WLxx_HAL_Driver/Src/stm32wlxx_hal_dma.c ****   * @param SrcAddress The source memory Buffer address
1205:Drivers/STM32WLxx_HAL_Driver/Src/stm32wlxx_hal_dma.c ****   * @param DstAddress The destination memory Buffer address
1206:Drivers/STM32WLxx_HAL_Driver/Src/stm32wlxx_hal_dma.c ****   * @param DataLength The length of data to be transferred from source to destination
1207:Drivers/STM32WLxx_HAL_Driver/Src/stm32wlxx_hal_dma.c ****   * @retval HAL status
1208:Drivers/STM32WLxx_HAL_Driver/Src/stm32wlxx_hal_dma.c ****   */
1209:Drivers/STM32WLxx_HAL_Driver/Src/stm32wlxx_hal_dma.c **** static void DMA_SetConfig(DMA_HandleTypeDef *hdma, uint32_t SrcAddress, uint32_t DstAddress, uint32
1210:Drivers/STM32WLxx_HAL_Driver/Src/stm32wlxx_hal_dma.c **** {
  27              		.loc 1 1210 1 view -0
  28              		.cfi_startproc
  29              		@ args = 0, pretend = 0, frame = 0
  30              		@ frame_needed = 0, uses_anonymous_args = 0
  31              		@ link register save eliminated.
  32              		.loc 1 1210 1 is_stmt 0 view .LVU1
  33 0000 10B4     		push	{r4}
  34              		.cfi_def_cfa_offset 4
  35              		.cfi_offset 4, -4
1211:Drivers/STM32WLxx_HAL_Driver/Src/stm32wlxx_hal_dma.c ****   /* Clear the DMAMUX synchro overrun flag */
1212:Drivers/STM32WLxx_HAL_Driver/Src/stm32wlxx_hal_dma.c ****   hdma->DMAmuxChannelStatus->CFR = hdma->DMAmuxChannelStatusMask;
  36              		.loc 1 1212 3 is_stmt 1 view .LVU2
  37              		.loc 1 1212 7 is_stmt 0 view .LVU3
  38 0002 C46C     		ldr	r4, [r0, #76]
  39              		.loc 1 1212 34 view .LVU4
  40 0004 D0F850C0 		ldr	ip, [r0, #80]
  41 0008 C4F804C0 		str	ip, [r4, #4]
1213:Drivers/STM32WLxx_HAL_Driver/Src/stm32wlxx_hal_dma.c **** 
1214:Drivers/STM32WLxx_HAL_Driver/Src/stm32wlxx_hal_dma.c ****   if (hdma->DMAmuxRequestGen != 0U)
ARM GAS  /var/folders/9y/n02fl3g16gnf7ppy14xghdy80000gn/T//cckqCF9e.s 			page 23


  42              		.loc 1 1214 3 is_stmt 1 view .LVU5
  43              		.loc 1 1214 11 is_stmt 0 view .LVU6
  44 000c 446D     		ldr	r4, [r0, #84]
  45              		.loc 1 1214 6 view .LVU7
  46 000e 24B1     		cbz	r4, .L2
1215:Drivers/STM32WLxx_HAL_Driver/Src/stm32wlxx_hal_dma.c ****   {
1216:Drivers/STM32WLxx_HAL_Driver/Src/stm32wlxx_hal_dma.c ****     /* Clear the DMAMUX request generator overrun flag */
1217:Drivers/STM32WLxx_HAL_Driver/Src/stm32wlxx_hal_dma.c ****     hdma->DMAmuxRequestGenStatus->RGCFR = hdma->DMAmuxRequestGenStatusMask;
  47              		.loc 1 1217 5 is_stmt 1 view .LVU8
  48              		.loc 1 1217 9 is_stmt 0 view .LVU9
  49 0010 846D     		ldr	r4, [r0, #88]
  50              		.loc 1 1217 41 view .LVU10
  51 0012 D0F85CC0 		ldr	ip, [r0, #92]
  52 0016 C4F804C0 		str	ip, [r4, #4]
  53              	.L2:
1218:Drivers/STM32WLxx_HAL_Driver/Src/stm32wlxx_hal_dma.c ****   }
1219:Drivers/STM32WLxx_HAL_Driver/Src/stm32wlxx_hal_dma.c **** 
1220:Drivers/STM32WLxx_HAL_Driver/Src/stm32wlxx_hal_dma.c ****   /* Clear all flags */
1221:Drivers/STM32WLxx_HAL_Driver/Src/stm32wlxx_hal_dma.c ****   hdma->DmaBaseAddress->IFCR = (DMA_ISR_GIF1 << (hdma->ChannelIndex & 0x1CU));
  54              		.loc 1 1221 3 is_stmt 1 view .LVU11
  55              		.loc 1 1221 54 is_stmt 0 view .LVU12
  56 001a 446C     		ldr	r4, [r0, #68]
  57              		.loc 1 1221 69 view .LVU13
  58 001c 04F01C0C 		and	ip, r4, #28
  59              		.loc 1 1221 46 view .LVU14
  60 0020 0124     		movs	r4, #1
  61 0022 04FA0CF4 		lsl	r4, r4, ip
  62              		.loc 1 1221 30 view .LVU15
  63 0026 D0F840C0 		ldr	ip, [r0, #64]
  64 002a CCF80440 		str	r4, [ip, #4]
1222:Drivers/STM32WLxx_HAL_Driver/Src/stm32wlxx_hal_dma.c **** 
1223:Drivers/STM32WLxx_HAL_Driver/Src/stm32wlxx_hal_dma.c ****   /* Configure DMA Channel data length */
1224:Drivers/STM32WLxx_HAL_Driver/Src/stm32wlxx_hal_dma.c ****   hdma->Instance->CNDTR = DataLength;
  65              		.loc 1 1224 3 is_stmt 1 view .LVU16
  66              		.loc 1 1224 7 is_stmt 0 view .LVU17
  67 002e 0468     		ldr	r4, [r0]
  68              		.loc 1 1224 25 view .LVU18
  69 0030 6360     		str	r3, [r4, #4]
1225:Drivers/STM32WLxx_HAL_Driver/Src/stm32wlxx_hal_dma.c **** 
1226:Drivers/STM32WLxx_HAL_Driver/Src/stm32wlxx_hal_dma.c ****   /* Memory to Peripheral */
1227:Drivers/STM32WLxx_HAL_Driver/Src/stm32wlxx_hal_dma.c ****   if ((hdma->Init.Direction) == DMA_MEMORY_TO_PERIPH)
  70              		.loc 1 1227 3 is_stmt 1 view .LVU19
  71              		.loc 1 1227 18 is_stmt 0 view .LVU20
  72 0032 8368     		ldr	r3, [r0, #8]
  73              	.LVL1:
  74              		.loc 1 1227 6 view .LVU21
  75 0034 102B     		cmp	r3, #16
  76 0036 05D0     		beq	.L6
1228:Drivers/STM32WLxx_HAL_Driver/Src/stm32wlxx_hal_dma.c ****   {
1229:Drivers/STM32WLxx_HAL_Driver/Src/stm32wlxx_hal_dma.c ****     /* Configure DMA Channel destination address */
1230:Drivers/STM32WLxx_HAL_Driver/Src/stm32wlxx_hal_dma.c ****     hdma->Instance->CPAR = DstAddress;
1231:Drivers/STM32WLxx_HAL_Driver/Src/stm32wlxx_hal_dma.c **** 
1232:Drivers/STM32WLxx_HAL_Driver/Src/stm32wlxx_hal_dma.c ****     /* Configure DMA Channel source address */
1233:Drivers/STM32WLxx_HAL_Driver/Src/stm32wlxx_hal_dma.c ****     hdma->Instance->CMAR = SrcAddress;
1234:Drivers/STM32WLxx_HAL_Driver/Src/stm32wlxx_hal_dma.c ****   }
1235:Drivers/STM32WLxx_HAL_Driver/Src/stm32wlxx_hal_dma.c ****   /* Peripheral to Memory */
1236:Drivers/STM32WLxx_HAL_Driver/Src/stm32wlxx_hal_dma.c ****   else
ARM GAS  /var/folders/9y/n02fl3g16gnf7ppy14xghdy80000gn/T//cckqCF9e.s 			page 24


1237:Drivers/STM32WLxx_HAL_Driver/Src/stm32wlxx_hal_dma.c ****   {
1238:Drivers/STM32WLxx_HAL_Driver/Src/stm32wlxx_hal_dma.c ****     /* Configure DMA Channel source address */
1239:Drivers/STM32WLxx_HAL_Driver/Src/stm32wlxx_hal_dma.c ****     hdma->Instance->CPAR = SrcAddress;
  77              		.loc 1 1239 5 is_stmt 1 view .LVU22
  78              		.loc 1 1239 9 is_stmt 0 view .LVU23
  79 0038 0368     		ldr	r3, [r0]
  80              		.loc 1 1239 26 view .LVU24
  81 003a 9960     		str	r1, [r3, #8]
  82              	.LVL2:
1240:Drivers/STM32WLxx_HAL_Driver/Src/stm32wlxx_hal_dma.c **** 
1241:Drivers/STM32WLxx_HAL_Driver/Src/stm32wlxx_hal_dma.c ****     /* Configure DMA Channel destination address */
1242:Drivers/STM32WLxx_HAL_Driver/Src/stm32wlxx_hal_dma.c ****     hdma->Instance->CMAR = DstAddress;
  83              		.loc 1 1242 5 is_stmt 1 view .LVU25
  84              		.loc 1 1242 9 is_stmt 0 view .LVU26
  85 003c 0368     		ldr	r3, [r0]
  86              		.loc 1 1242 26 view .LVU27
  87 003e DA60     		str	r2, [r3, #12]
  88              	.L1:
1243:Drivers/STM32WLxx_HAL_Driver/Src/stm32wlxx_hal_dma.c ****   }
1244:Drivers/STM32WLxx_HAL_Driver/Src/stm32wlxx_hal_dma.c **** }
  89              		.loc 1 1244 1 view .LVU28
  90 0040 10BC     		pop	{r4}
  91              		.cfi_remember_state
  92              		.cfi_restore 4
  93              		.cfi_def_cfa_offset 0
  94 0042 7047     		bx	lr
  95              	.LVL3:
  96              	.L6:
  97              		.cfi_restore_state
1230:Drivers/STM32WLxx_HAL_Driver/Src/stm32wlxx_hal_dma.c **** 
  98              		.loc 1 1230 5 is_stmt 1 view .LVU29
1230:Drivers/STM32WLxx_HAL_Driver/Src/stm32wlxx_hal_dma.c **** 
  99              		.loc 1 1230 9 is_stmt 0 view .LVU30
 100 0044 0368     		ldr	r3, [r0]
1230:Drivers/STM32WLxx_HAL_Driver/Src/stm32wlxx_hal_dma.c **** 
 101              		.loc 1 1230 26 view .LVU31
 102 0046 9A60     		str	r2, [r3, #8]
 103              	.LVL4:
1233:Drivers/STM32WLxx_HAL_Driver/Src/stm32wlxx_hal_dma.c ****   }
 104              		.loc 1 1233 5 is_stmt 1 view .LVU32
1233:Drivers/STM32WLxx_HAL_Driver/Src/stm32wlxx_hal_dma.c ****   }
 105              		.loc 1 1233 9 is_stmt 0 view .LVU33
 106 0048 0368     		ldr	r3, [r0]
1233:Drivers/STM32WLxx_HAL_Driver/Src/stm32wlxx_hal_dma.c ****   }
 107              		.loc 1 1233 26 view .LVU34
 108 004a D960     		str	r1, [r3, #12]
 109 004c F8E7     		b	.L1
 110              		.cfi_endproc
 111              	.LFE856:
 113              		.section	.text.DMA_CalcDMAMUXChannelBaseAndMask,"ax",%progbits
 114              		.align	1
 115              		.syntax unified
 116              		.thumb
 117              		.thumb_func
 118              		.fpu softvfp
 120              	DMA_CalcDMAMUXChannelBaseAndMask:
 121              	.LVL5:
ARM GAS  /var/folders/9y/n02fl3g16gnf7ppy14xghdy80000gn/T//cckqCF9e.s 			page 25


 122              	.LFB857:
1245:Drivers/STM32WLxx_HAL_Driver/Src/stm32wlxx_hal_dma.c **** 
1246:Drivers/STM32WLxx_HAL_Driver/Src/stm32wlxx_hal_dma.c **** /**
1247:Drivers/STM32WLxx_HAL_Driver/Src/stm32wlxx_hal_dma.c ****   * @brief Updates the DMA handle with the DMAMUX  channel and status mask depending on channel num
1248:Drivers/STM32WLxx_HAL_Driver/Src/stm32wlxx_hal_dma.c ****   * @param hdma Pointer to a DMA_HandleTypeDef structure that contains
1249:Drivers/STM32WLxx_HAL_Driver/Src/stm32wlxx_hal_dma.c ****   *             the configuration information for the specified DMA Channel.
1250:Drivers/STM32WLxx_HAL_Driver/Src/stm32wlxx_hal_dma.c ****   * @retval None
1251:Drivers/STM32WLxx_HAL_Driver/Src/stm32wlxx_hal_dma.c ****   */
1252:Drivers/STM32WLxx_HAL_Driver/Src/stm32wlxx_hal_dma.c **** static void DMA_CalcDMAMUXChannelBaseAndMask(DMA_HandleTypeDef *hdma)
1253:Drivers/STM32WLxx_HAL_Driver/Src/stm32wlxx_hal_dma.c **** {
 123              		.loc 1 1253 1 is_stmt 1 view -0
 124              		.cfi_startproc
 125              		@ args = 0, pretend = 0, frame = 0
 126              		@ frame_needed = 0, uses_anonymous_args = 0
 127              		@ link register save eliminated.
1254:Drivers/STM32WLxx_HAL_Driver/Src/stm32wlxx_hal_dma.c ****   uint32_t channel_number;
 128              		.loc 1 1254 3 view .LVU36
1255:Drivers/STM32WLxx_HAL_Driver/Src/stm32wlxx_hal_dma.c **** 
1256:Drivers/STM32WLxx_HAL_Driver/Src/stm32wlxx_hal_dma.c ****   /* check if instance is not outside the DMA channel range */
1257:Drivers/STM32WLxx_HAL_Driver/Src/stm32wlxx_hal_dma.c ****   if ((uint32_t)hdma->Instance < (uint32_t)DMA2_Channel1)
 129              		.loc 1 1257 3 view .LVU37
 130              		.loc 1 1257 21 is_stmt 0 view .LVU38
 131 0000 0368     		ldr	r3, [r0]
 132              		.loc 1 1257 6 view .LVU39
 133 0002 144A     		ldr	r2, .L10
 134 0004 9342     		cmp	r3, r2
 135 0006 16D8     		bhi	.L8
1258:Drivers/STM32WLxx_HAL_Driver/Src/stm32wlxx_hal_dma.c ****   {
1259:Drivers/STM32WLxx_HAL_Driver/Src/stm32wlxx_hal_dma.c ****     /* DMA1 */
1260:Drivers/STM32WLxx_HAL_Driver/Src/stm32wlxx_hal_dma.c ****     /* Associate a DMA Channel to a DMAMUX channel */
1261:Drivers/STM32WLxx_HAL_Driver/Src/stm32wlxx_hal_dma.c ****     hdma->DMAmuxChannel = (DMAMUX1_Channel0 + (hdma->ChannelIndex >> 2U));
 136              		.loc 1 1261 5 is_stmt 1 view .LVU40
 137              		.loc 1 1261 52 is_stmt 0 view .LVU41
 138 0008 426C     		ldr	r2, [r0, #68]
 139              		.loc 1 1261 45 view .LVU42
 140 000a 22F00302 		bic	r2, r2, #3
 141 000e 02F18042 		add	r2, r2, #1073741824
 142 0012 02F50232 		add	r2, r2, #133120
 143              		.loc 1 1261 25 view .LVU43
 144 0016 8264     		str	r2, [r0, #72]
1262:Drivers/STM32WLxx_HAL_Driver/Src/stm32wlxx_hal_dma.c **** 
1263:Drivers/STM32WLxx_HAL_Driver/Src/stm32wlxx_hal_dma.c ****     /* Prepare channel_number used for DMAmuxChannelStatusMask computation */
1264:Drivers/STM32WLxx_HAL_Driver/Src/stm32wlxx_hal_dma.c ****     channel_number = (((uint32_t)hdma->Instance & 0xFFU) - 8U) / 20U;
 145              		.loc 1 1264 5 is_stmt 1 view .LVU44
 146              		.loc 1 1264 49 is_stmt 0 view .LVU45
 147 0018 DBB2     		uxtb	r3, r3
 148              		.loc 1 1264 58 view .LVU46
 149 001a 083B     		subs	r3, r3, #8
 150              		.loc 1 1264 20 view .LVU47
 151 001c 0E4A     		ldr	r2, .L10+4
 152 001e A2FB0323 		umull	r2, r3, r2, r3
 153 0022 1B09     		lsrs	r3, r3, #4
 154              	.LVL6:
 155              	.L9:
1265:Drivers/STM32WLxx_HAL_Driver/Src/stm32wlxx_hal_dma.c ****   }
1266:Drivers/STM32WLxx_HAL_Driver/Src/stm32wlxx_hal_dma.c ****   else
1267:Drivers/STM32WLxx_HAL_Driver/Src/stm32wlxx_hal_dma.c ****   {
ARM GAS  /var/folders/9y/n02fl3g16gnf7ppy14xghdy80000gn/T//cckqCF9e.s 			page 26


1268:Drivers/STM32WLxx_HAL_Driver/Src/stm32wlxx_hal_dma.c ****     /* DMA2 */
1269:Drivers/STM32WLxx_HAL_Driver/Src/stm32wlxx_hal_dma.c ****     /* Associate a DMA Channel to a DMAMUX channel */
1270:Drivers/STM32WLxx_HAL_Driver/Src/stm32wlxx_hal_dma.c ****     hdma->DMAmuxChannel = (DMAMUX1_Channel7 + (hdma->ChannelIndex >> 2U));
1271:Drivers/STM32WLxx_HAL_Driver/Src/stm32wlxx_hal_dma.c **** 
1272:Drivers/STM32WLxx_HAL_Driver/Src/stm32wlxx_hal_dma.c ****     /* Prepare channel_number used for DMAmuxChannelStatusMask computation */
1273:Drivers/STM32WLxx_HAL_Driver/Src/stm32wlxx_hal_dma.c ****     channel_number = (((((uint32_t)hdma->Instance & 0xFFU) - 8U) / 20U) + 7U);
1274:Drivers/STM32WLxx_HAL_Driver/Src/stm32wlxx_hal_dma.c ****   }
1275:Drivers/STM32WLxx_HAL_Driver/Src/stm32wlxx_hal_dma.c **** 
1276:Drivers/STM32WLxx_HAL_Driver/Src/stm32wlxx_hal_dma.c ****   /* Initialize the field DMAmuxChannelStatus to DMAMUX1_ChannelStatus base */
1277:Drivers/STM32WLxx_HAL_Driver/Src/stm32wlxx_hal_dma.c ****   hdma->DMAmuxChannelStatus = DMAMUX1_ChannelStatus;
 156              		.loc 1 1277 3 is_stmt 1 view .LVU48
 157              		.loc 1 1277 29 is_stmt 0 view .LVU49
 158 0024 0D4A     		ldr	r2, .L10+8
 159 0026 C264     		str	r2, [r0, #76]
1278:Drivers/STM32WLxx_HAL_Driver/Src/stm32wlxx_hal_dma.c **** 
1279:Drivers/STM32WLxx_HAL_Driver/Src/stm32wlxx_hal_dma.c ****   /* Initialize the field DMAmuxChannelStatusMask with the corresponding index of the DMAMUX channe
1280:Drivers/STM32WLxx_HAL_Driver/Src/stm32wlxx_hal_dma.c ****   hdma->DMAmuxChannelStatusMask = 1UL << (channel_number & 0x1FU);
 160              		.loc 1 1280 3 is_stmt 1 view .LVU50
 161              		.loc 1 1280 58 is_stmt 0 view .LVU51
 162 0028 03F01F03 		and	r3, r3, #31
 163              	.LVL7:
 164              		.loc 1 1280 39 view .LVU52
 165 002c 0122     		movs	r2, #1
 166 002e 02FA03F3 		lsl	r3, r2, r3
 167              		.loc 1 1280 33 view .LVU53
 168 0032 0365     		str	r3, [r0, #80]
1281:Drivers/STM32WLxx_HAL_Driver/Src/stm32wlxx_hal_dma.c **** }
 169              		.loc 1 1281 1 view .LVU54
 170 0034 7047     		bx	lr
 171              	.L8:
1270:Drivers/STM32WLxx_HAL_Driver/Src/stm32wlxx_hal_dma.c **** 
 172              		.loc 1 1270 5 is_stmt 1 view .LVU55
1270:Drivers/STM32WLxx_HAL_Driver/Src/stm32wlxx_hal_dma.c **** 
 173              		.loc 1 1270 52 is_stmt 0 view .LVU56
 174 0036 426C     		ldr	r2, [r0, #68]
1270:Drivers/STM32WLxx_HAL_Driver/Src/stm32wlxx_hal_dma.c **** 
 175              		.loc 1 1270 45 view .LVU57
 176 0038 22F00301 		bic	r1, r2, #3
 177 003c 084A     		ldr	r2, .L10+12
 178 003e 0A44     		add	r2, r2, r1
1270:Drivers/STM32WLxx_HAL_Driver/Src/stm32wlxx_hal_dma.c **** 
 179              		.loc 1 1270 25 view .LVU58
 180 0040 8264     		str	r2, [r0, #72]
1273:Drivers/STM32WLxx_HAL_Driver/Src/stm32wlxx_hal_dma.c ****   }
 181              		.loc 1 1273 5 is_stmt 1 view .LVU59
1273:Drivers/STM32WLxx_HAL_Driver/Src/stm32wlxx_hal_dma.c ****   }
 182              		.loc 1 1273 51 is_stmt 0 view .LVU60
 183 0042 DBB2     		uxtb	r3, r3
1273:Drivers/STM32WLxx_HAL_Driver/Src/stm32wlxx_hal_dma.c ****   }
 184              		.loc 1 1273 60 view .LVU61
 185 0044 083B     		subs	r3, r3, #8
1273:Drivers/STM32WLxx_HAL_Driver/Src/stm32wlxx_hal_dma.c ****   }
 186              		.loc 1 1273 66 view .LVU62
 187 0046 044A     		ldr	r2, .L10+4
 188 0048 A2FB0323 		umull	r2, r3, r2, r3
 189 004c 1B09     		lsrs	r3, r3, #4
1273:Drivers/STM32WLxx_HAL_Driver/Src/stm32wlxx_hal_dma.c ****   }
ARM GAS  /var/folders/9y/n02fl3g16gnf7ppy14xghdy80000gn/T//cckqCF9e.s 			page 27


 190              		.loc 1 1273 20 view .LVU63
 191 004e 0733     		adds	r3, r3, #7
 192              	.LVL8:
1273:Drivers/STM32WLxx_HAL_Driver/Src/stm32wlxx_hal_dma.c ****   }
 193              		.loc 1 1273 20 view .LVU64
 194 0050 E8E7     		b	.L9
 195              	.L11:
 196 0052 00BF     		.align	2
 197              	.L10:
 198 0054 07040240 		.word	1073873927
 199 0058 CDCCCCCC 		.word	-858993459
 200 005c 80080240 		.word	1073875072
 201 0060 1C080240 		.word	1073874972
 202              		.cfi_endproc
 203              	.LFE857:
 205              		.section	.text.DMA_CalcDMAMUXRequestGenBaseAndMask,"ax",%progbits
 206              		.align	1
 207              		.syntax unified
 208              		.thumb
 209              		.thumb_func
 210              		.fpu softvfp
 212              	DMA_CalcDMAMUXRequestGenBaseAndMask:
 213              	.LVL9:
 214              	.LFB858:
1282:Drivers/STM32WLxx_HAL_Driver/Src/stm32wlxx_hal_dma.c **** 
1283:Drivers/STM32WLxx_HAL_Driver/Src/stm32wlxx_hal_dma.c **** /**
1284:Drivers/STM32WLxx_HAL_Driver/Src/stm32wlxx_hal_dma.c ****   * @brief Updates the DMA handle with the DMAMUX  request generator params
1285:Drivers/STM32WLxx_HAL_Driver/Src/stm32wlxx_hal_dma.c ****   * @param hdma Pointer to a DMA_HandleTypeDef structure that contains
1286:Drivers/STM32WLxx_HAL_Driver/Src/stm32wlxx_hal_dma.c ****   *             the configuration information for the specified DMA Channel.
1287:Drivers/STM32WLxx_HAL_Driver/Src/stm32wlxx_hal_dma.c ****   * @retval None
1288:Drivers/STM32WLxx_HAL_Driver/Src/stm32wlxx_hal_dma.c ****   */
1289:Drivers/STM32WLxx_HAL_Driver/Src/stm32wlxx_hal_dma.c **** 
1290:Drivers/STM32WLxx_HAL_Driver/Src/stm32wlxx_hal_dma.c **** static void DMA_CalcDMAMUXRequestGenBaseAndMask(DMA_HandleTypeDef *hdma)
1291:Drivers/STM32WLxx_HAL_Driver/Src/stm32wlxx_hal_dma.c **** {
 215              		.loc 1 1291 1 is_stmt 1 view -0
 216              		.cfi_startproc
 217              		@ args = 0, pretend = 0, frame = 0
 218              		@ frame_needed = 0, uses_anonymous_args = 0
 219              		@ link register save eliminated.
1292:Drivers/STM32WLxx_HAL_Driver/Src/stm32wlxx_hal_dma.c ****   uint32_t request =  hdma->Init.Request & DMAMUX_CxCR_DMAREQ_ID;
 220              		.loc 1 1292 3 view .LVU66
 221              		.loc 1 1292 33 is_stmt 0 view .LVU67
 222 0000 4368     		ldr	r3, [r0, #4]
 223              		.loc 1 1292 12 view .LVU68
 224 0002 03F07F03 		and	r3, r3, #127
 225              	.LVL10:
1293:Drivers/STM32WLxx_HAL_Driver/Src/stm32wlxx_hal_dma.c **** 
1294:Drivers/STM32WLxx_HAL_Driver/Src/stm32wlxx_hal_dma.c ****   /* DMA Channels are connected to DMAMUX1 request generator blocks*/
1295:Drivers/STM32WLxx_HAL_Driver/Src/stm32wlxx_hal_dma.c ****   hdma->DMAmuxRequestGen = (DMAMUX_RequestGen_TypeDef *)((uint32_t)(((uint32_t)DMAMUX1_RequestGener
 226              		.loc 1 1295 3 is_stmt 1 view .LVU69
 227              		.loc 1 1295 58 is_stmt 0 view .LVU70
 228 0006 074A     		ldr	r2, .L13
 229 0008 1A44     		add	r2, r2, r3
 230 000a 9200     		lsls	r2, r2, #2
 231              		.loc 1 1295 26 view .LVU71
 232 000c 4265     		str	r2, [r0, #84]
1296:Drivers/STM32WLxx_HAL_Driver/Src/stm32wlxx_hal_dma.c **** 
ARM GAS  /var/folders/9y/n02fl3g16gnf7ppy14xghdy80000gn/T//cckqCF9e.s 			page 28


1297:Drivers/STM32WLxx_HAL_Driver/Src/stm32wlxx_hal_dma.c ****   hdma->DMAmuxRequestGenStatus = DMAMUX1_RequestGenStatus;
 233              		.loc 1 1297 3 is_stmt 1 view .LVU72
 234              		.loc 1 1297 32 is_stmt 0 view .LVU73
 235 000e 064A     		ldr	r2, .L13+4
 236 0010 8265     		str	r2, [r0, #88]
1298:Drivers/STM32WLxx_HAL_Driver/Src/stm32wlxx_hal_dma.c **** 
1299:Drivers/STM32WLxx_HAL_Driver/Src/stm32wlxx_hal_dma.c ****   /* here "Request" is either DMA_REQUEST_GENERATOR0 to DMA_REQUEST_GENERATOR3, i.e. <= 4*/
1300:Drivers/STM32WLxx_HAL_Driver/Src/stm32wlxx_hal_dma.c ****   hdma->DMAmuxRequestGenStatusMask = 1UL << ((request - 1U) & 0x3U);
 237              		.loc 1 1300 3 is_stmt 1 view .LVU74
 238              		.loc 1 1300 55 is_stmt 0 view .LVU75
 239 0012 013B     		subs	r3, r3, #1
 240              	.LVL11:
 241              		.loc 1 1300 61 view .LVU76
 242 0014 03F00303 		and	r3, r3, #3
 243              	.LVL12:
 244              		.loc 1 1300 42 view .LVU77
 245 0018 0122     		movs	r2, #1
 246 001a 02FA03F3 		lsl	r3, r2, r3
 247              		.loc 1 1300 36 view .LVU78
 248 001e C365     		str	r3, [r0, #92]
1301:Drivers/STM32WLxx_HAL_Driver/Src/stm32wlxx_hal_dma.c **** }
 249              		.loc 1 1301 1 view .LVU79
 250 0020 7047     		bx	lr
 251              	.L14:
 252 0022 00BF     		.align	2
 253              	.L13:
 254 0024 3F820010 		.word	268468799
 255 0028 40090240 		.word	1073875264
 256              		.cfi_endproc
 257              	.LFE858:
 259              		.section	.text.HAL_DMA_Init,"ax",%progbits
 260              		.align	1
 261              		.global	HAL_DMA_Init
 262              		.syntax unified
 263              		.thumb
 264              		.thumb_func
 265              		.fpu softvfp
 267              	HAL_DMA_Init:
 268              	.LVL13:
 269              	.LFB844:
 153:Drivers/STM32WLxx_HAL_Driver/Src/stm32wlxx_hal_dma.c ****   /* Check the DMA handle allocation */
 270              		.loc 1 153 1 is_stmt 1 view -0
 271              		.cfi_startproc
 272              		@ args = 0, pretend = 0, frame = 0
 273              		@ frame_needed = 0, uses_anonymous_args = 0
 155:Drivers/STM32WLxx_HAL_Driver/Src/stm32wlxx_hal_dma.c ****   {
 274              		.loc 1 155 3 view .LVU81
 155:Drivers/STM32WLxx_HAL_Driver/Src/stm32wlxx_hal_dma.c ****   {
 275              		.loc 1 155 6 is_stmt 0 view .LVU82
 276 0000 0028     		cmp	r0, #0
 277 0002 60D0     		beq	.L22
 153:Drivers/STM32WLxx_HAL_Driver/Src/stm32wlxx_hal_dma.c ****   /* Check the DMA handle allocation */
 278              		.loc 1 153 1 view .LVU83
 279 0004 10B5     		push	{r4, lr}
 280              		.cfi_def_cfa_offset 8
 281              		.cfi_offset 4, -8
 282              		.cfi_offset 14, -4
ARM GAS  /var/folders/9y/n02fl3g16gnf7ppy14xghdy80000gn/T//cckqCF9e.s 			page 29


 283 0006 0446     		mov	r4, r0
 161:Drivers/STM32WLxx_HAL_Driver/Src/stm32wlxx_hal_dma.c ****   assert_param(IS_DMA_DIRECTION(hdma->Init.Direction));
 284              		.loc 1 161 3 is_stmt 1 view .LVU84
 162:Drivers/STM32WLxx_HAL_Driver/Src/stm32wlxx_hal_dma.c ****   assert_param(IS_DMA_PERIPHERAL_INC_STATE(hdma->Init.PeriphInc));
 285              		.loc 1 162 3 view .LVU85
 163:Drivers/STM32WLxx_HAL_Driver/Src/stm32wlxx_hal_dma.c ****   assert_param(IS_DMA_MEMORY_INC_STATE(hdma->Init.MemInc));
 286              		.loc 1 163 3 view .LVU86
 164:Drivers/STM32WLxx_HAL_Driver/Src/stm32wlxx_hal_dma.c ****   assert_param(IS_DMA_PERIPHERAL_DATA_SIZE(hdma->Init.PeriphDataAlignment));
 287              		.loc 1 164 3 view .LVU87
 165:Drivers/STM32WLxx_HAL_Driver/Src/stm32wlxx_hal_dma.c ****   assert_param(IS_DMA_MEMORY_DATA_SIZE(hdma->Init.MemDataAlignment));
 288              		.loc 1 165 3 view .LVU88
 166:Drivers/STM32WLxx_HAL_Driver/Src/stm32wlxx_hal_dma.c ****   assert_param(IS_DMA_MODE(hdma->Init.Mode));
 289              		.loc 1 166 3 view .LVU89
 167:Drivers/STM32WLxx_HAL_Driver/Src/stm32wlxx_hal_dma.c ****   assert_param(IS_DMA_PRIORITY(hdma->Init.Priority));
 290              		.loc 1 167 3 view .LVU90
 168:Drivers/STM32WLxx_HAL_Driver/Src/stm32wlxx_hal_dma.c **** 
 291              		.loc 1 168 3 view .LVU91
 170:Drivers/STM32WLxx_HAL_Driver/Src/stm32wlxx_hal_dma.c **** 
 292              		.loc 1 170 3 view .LVU92
 173:Drivers/STM32WLxx_HAL_Driver/Src/stm32wlxx_hal_dma.c ****   {
 293              		.loc 1 173 3 view .LVU93
 173:Drivers/STM32WLxx_HAL_Driver/Src/stm32wlxx_hal_dma.c ****   {
 294              		.loc 1 173 22 is_stmt 0 view .LVU94
 295 0008 0268     		ldr	r2, [r0]
 173:Drivers/STM32WLxx_HAL_Driver/Src/stm32wlxx_hal_dma.c ****   {
 296              		.loc 1 173 6 view .LVU95
 297 000a 304B     		ldr	r3, .L29
 298 000c 9A42     		cmp	r2, r3
 299 000e 42D8     		bhi	.L17
 176:Drivers/STM32WLxx_HAL_Driver/Src/stm32wlxx_hal_dma.c ****     hdma->DmaBaseAddress = DMA1;
 300              		.loc 1 176 5 is_stmt 1 view .LVU96
 176:Drivers/STM32WLxx_HAL_Driver/Src/stm32wlxx_hal_dma.c ****     hdma->DmaBaseAddress = DMA1;
 301              		.loc 1 176 53 is_stmt 0 view .LVU97
 302 0010 2F4B     		ldr	r3, .L29+4
 303 0012 1344     		add	r3, r3, r2
 176:Drivers/STM32WLxx_HAL_Driver/Src/stm32wlxx_hal_dma.c ****     hdma->DmaBaseAddress = DMA1;
 304              		.loc 1 176 80 view .LVU98
 305 0014 2F49     		ldr	r1, .L29+8
 306 0016 A1FB0313 		umull	r1, r3, r1, r3
 307 001a 1B09     		lsrs	r3, r3, #4
 176:Drivers/STM32WLxx_HAL_Driver/Src/stm32wlxx_hal_dma.c ****     hdma->DmaBaseAddress = DMA1;
 308              		.loc 1 176 135 view .LVU99
 309 001c 9B00     		lsls	r3, r3, #2
 176:Drivers/STM32WLxx_HAL_Driver/Src/stm32wlxx_hal_dma.c ****     hdma->DmaBaseAddress = DMA1;
 310              		.loc 1 176 24 view .LVU100
 311 001e 4364     		str	r3, [r0, #68]
 177:Drivers/STM32WLxx_HAL_Driver/Src/stm32wlxx_hal_dma.c ****   }
 312              		.loc 1 177 5 is_stmt 1 view .LVU101
 177:Drivers/STM32WLxx_HAL_Driver/Src/stm32wlxx_hal_dma.c ****   }
 313              		.loc 1 177 26 is_stmt 0 view .LVU102
 314 0020 2D4B     		ldr	r3, .L29+12
 315 0022 0364     		str	r3, [r0, #64]
 316              	.L18:
 187:Drivers/STM32WLxx_HAL_Driver/Src/stm32wlxx_hal_dma.c **** 
 317              		.loc 1 187 3 is_stmt 1 view .LVU103
 187:Drivers/STM32WLxx_HAL_Driver/Src/stm32wlxx_hal_dma.c **** 
 318              		.loc 1 187 15 is_stmt 0 view .LVU104
ARM GAS  /var/folders/9y/n02fl3g16gnf7ppy14xghdy80000gn/T//cckqCF9e.s 			page 30


 319 0024 0223     		movs	r3, #2
 320 0026 84F82530 		strb	r3, [r4, #37]
 190:Drivers/STM32WLxx_HAL_Driver/Src/stm32wlxx_hal_dma.c ****                                   DMA_CCR_MINC  | DMA_CCR_PINC   | DMA_CCR_CIRC   | \
 321              		.loc 1 190 3 is_stmt 1 view .LVU105
 322 002a 1368     		ldr	r3, [r2]
 323 002c 23F4FF43 		bic	r3, r3, #32640
 324 0030 23F07003 		bic	r3, r3, #112
 325 0034 1360     		str	r3, [r2]
 195:Drivers/STM32WLxx_HAL_Driver/Src/stm32wlxx_hal_dma.c ****                                 hdma->Init.PeriphInc           | hdma->Init.MemInc           | \
 326              		.loc 1 195 3 view .LVU106
 327 0036 2168     		ldr	r1, [r4]
 328 0038 0A68     		ldr	r2, [r1]
 329 003a A368     		ldr	r3, [r4, #8]
 330 003c E068     		ldr	r0, [r4, #12]
 331              	.LVL14:
 195:Drivers/STM32WLxx_HAL_Driver/Src/stm32wlxx_hal_dma.c ****                                 hdma->Init.PeriphInc           | hdma->Init.MemInc           | \
 332              		.loc 1 195 3 is_stmt 0 view .LVU107
 333 003e 0343     		orrs	r3, r3, r0
 334 0040 2069     		ldr	r0, [r4, #16]
 335 0042 0343     		orrs	r3, r3, r0
 336 0044 6069     		ldr	r0, [r4, #20]
 337 0046 0343     		orrs	r3, r3, r0
 338 0048 A069     		ldr	r0, [r4, #24]
 339 004a 0343     		orrs	r3, r3, r0
 340 004c E069     		ldr	r0, [r4, #28]
 341 004e 0343     		orrs	r3, r3, r0
 342 0050 206A     		ldr	r0, [r4, #32]
 343 0052 0343     		orrs	r3, r3, r0
 344 0054 1343     		orrs	r3, r3, r2
 345 0056 0B60     		str	r3, [r1]
 203:Drivers/STM32WLxx_HAL_Driver/Src/stm32wlxx_hal_dma.c **** 
 346              		.loc 1 203 3 is_stmt 1 view .LVU108
 347 0058 2046     		mov	r0, r4
 348 005a FFF7FEFF 		bl	DMA_CalcDMAMUXChannelBaseAndMask
 349              	.LVL15:
 205:Drivers/STM32WLxx_HAL_Driver/Src/stm32wlxx_hal_dma.c ****   {
 350              		.loc 1 205 3 view .LVU109
 205:Drivers/STM32WLxx_HAL_Driver/Src/stm32wlxx_hal_dma.c ****   {
 351              		.loc 1 205 17 is_stmt 0 view .LVU110
 352 005e A368     		ldr	r3, [r4, #8]
 205:Drivers/STM32WLxx_HAL_Driver/Src/stm32wlxx_hal_dma.c ****   {
 353              		.loc 1 205 6 view .LVU111
 354 0060 B3F5804F 		cmp	r3, #16384
 355 0064 22D0     		beq	.L27
 356              	.L19:
 212:Drivers/STM32WLxx_HAL_Driver/Src/stm32wlxx_hal_dma.c **** 
 357              		.loc 1 212 3 is_stmt 1 view .LVU112
 212:Drivers/STM32WLxx_HAL_Driver/Src/stm32wlxx_hal_dma.c **** 
 358              		.loc 1 212 41 is_stmt 0 view .LVU113
 359 0066 6368     		ldr	r3, [r4, #4]
 212:Drivers/STM32WLxx_HAL_Driver/Src/stm32wlxx_hal_dma.c **** 
 360              		.loc 1 212 7 view .LVU114
 361 0068 A26C     		ldr	r2, [r4, #72]
 212:Drivers/STM32WLxx_HAL_Driver/Src/stm32wlxx_hal_dma.c **** 
 362              		.loc 1 212 50 view .LVU115
 363 006a 03F07F03 		and	r3, r3, #127
 212:Drivers/STM32WLxx_HAL_Driver/Src/stm32wlxx_hal_dma.c **** 
ARM GAS  /var/folders/9y/n02fl3g16gnf7ppy14xghdy80000gn/T//cckqCF9e.s 			page 31


 364              		.loc 1 212 28 view .LVU116
 365 006e 1360     		str	r3, [r2]
 215:Drivers/STM32WLxx_HAL_Driver/Src/stm32wlxx_hal_dma.c **** 
 366              		.loc 1 215 3 is_stmt 1 view .LVU117
 215:Drivers/STM32WLxx_HAL_Driver/Src/stm32wlxx_hal_dma.c **** 
 367              		.loc 1 215 7 is_stmt 0 view .LVU118
 368 0070 E36C     		ldr	r3, [r4, #76]
 215:Drivers/STM32WLxx_HAL_Driver/Src/stm32wlxx_hal_dma.c **** 
 369              		.loc 1 215 40 view .LVU119
 370 0072 226D     		ldr	r2, [r4, #80]
 215:Drivers/STM32WLxx_HAL_Driver/Src/stm32wlxx_hal_dma.c **** 
 371              		.loc 1 215 34 view .LVU120
 372 0074 5A60     		str	r2, [r3, #4]
 217:Drivers/STM32WLxx_HAL_Driver/Src/stm32wlxx_hal_dma.c ****   {
 373              		.loc 1 217 3 is_stmt 1 view .LVU121
 217:Drivers/STM32WLxx_HAL_Driver/Src/stm32wlxx_hal_dma.c ****   {
 374              		.loc 1 217 19 is_stmt 0 view .LVU122
 375 0076 6368     		ldr	r3, [r4, #4]
 217:Drivers/STM32WLxx_HAL_Driver/Src/stm32wlxx_hal_dma.c ****   {
 376              		.loc 1 217 36 view .LVU123
 377 0078 013B     		subs	r3, r3, #1
 217:Drivers/STM32WLxx_HAL_Driver/Src/stm32wlxx_hal_dma.c ****   {
 378              		.loc 1 217 6 view .LVU124
 379 007a 032B     		cmp	r3, #3
 380 007c 19D9     		bls	.L28
 232:Drivers/STM32WLxx_HAL_Driver/Src/stm32wlxx_hal_dma.c ****     hdma->DMAmuxRequestGenStatus = 0U;
 381              		.loc 1 232 5 is_stmt 1 view .LVU125
 232:Drivers/STM32WLxx_HAL_Driver/Src/stm32wlxx_hal_dma.c ****     hdma->DMAmuxRequestGenStatus = 0U;
 382              		.loc 1 232 28 is_stmt 0 view .LVU126
 383 007e 0023     		movs	r3, #0
 384 0080 6365     		str	r3, [r4, #84]
 233:Drivers/STM32WLxx_HAL_Driver/Src/stm32wlxx_hal_dma.c ****     hdma->DMAmuxRequestGenStatusMask = 0U;
 385              		.loc 1 233 5 is_stmt 1 view .LVU127
 233:Drivers/STM32WLxx_HAL_Driver/Src/stm32wlxx_hal_dma.c ****     hdma->DMAmuxRequestGenStatusMask = 0U;
 386              		.loc 1 233 34 is_stmt 0 view .LVU128
 387 0082 A365     		str	r3, [r4, #88]
 234:Drivers/STM32WLxx_HAL_Driver/Src/stm32wlxx_hal_dma.c ****   }
 388              		.loc 1 234 5 is_stmt 1 view .LVU129
 234:Drivers/STM32WLxx_HAL_Driver/Src/stm32wlxx_hal_dma.c ****   }
 389              		.loc 1 234 38 is_stmt 0 view .LVU130
 390 0084 E365     		str	r3, [r4, #92]
 391              	.L21:
 238:Drivers/STM32WLxx_HAL_Driver/Src/stm32wlxx_hal_dma.c **** 
 392              		.loc 1 238 3 is_stmt 1 view .LVU131
 238:Drivers/STM32WLxx_HAL_Driver/Src/stm32wlxx_hal_dma.c **** 
 393              		.loc 1 238 19 is_stmt 0 view .LVU132
 394 0086 0020     		movs	r0, #0
 395 0088 E063     		str	r0, [r4, #60]
 241:Drivers/STM32WLxx_HAL_Driver/Src/stm32wlxx_hal_dma.c **** 
 396              		.loc 1 241 3 is_stmt 1 view .LVU133
 241:Drivers/STM32WLxx_HAL_Driver/Src/stm32wlxx_hal_dma.c **** 
 397              		.loc 1 241 15 is_stmt 0 view .LVU134
 398 008a 0123     		movs	r3, #1
 399 008c 84F82530 		strb	r3, [r4, #37]
 244:Drivers/STM32WLxx_HAL_Driver/Src/stm32wlxx_hal_dma.c **** 
 400              		.loc 1 244 3 is_stmt 1 view .LVU135
 244:Drivers/STM32WLxx_HAL_Driver/Src/stm32wlxx_hal_dma.c **** 
ARM GAS  /var/folders/9y/n02fl3g16gnf7ppy14xghdy80000gn/T//cckqCF9e.s 			page 32


 401              		.loc 1 244 3 view .LVU136
 402 0090 84F82400 		strb	r0, [r4, #36]
 244:Drivers/STM32WLxx_HAL_Driver/Src/stm32wlxx_hal_dma.c **** 
 403              		.loc 1 244 3 view .LVU137
 246:Drivers/STM32WLxx_HAL_Driver/Src/stm32wlxx_hal_dma.c **** }
 404              		.loc 1 246 3 view .LVU138
 247:Drivers/STM32WLxx_HAL_Driver/Src/stm32wlxx_hal_dma.c **** 
 405              		.loc 1 247 1 is_stmt 0 view .LVU139
 406 0094 10BD     		pop	{r4, pc}
 407              	.LVL16:
 408              	.L17:
 182:Drivers/STM32WLxx_HAL_Driver/Src/stm32wlxx_hal_dma.c ****     hdma->DmaBaseAddress = DMA2;
 409              		.loc 1 182 5 is_stmt 1 view .LVU140
 182:Drivers/STM32WLxx_HAL_Driver/Src/stm32wlxx_hal_dma.c ****     hdma->DmaBaseAddress = DMA2;
 410              		.loc 1 182 53 is_stmt 0 view .LVU141
 411 0096 114B     		ldr	r3, .L29+16
 412 0098 1344     		add	r3, r3, r2
 182:Drivers/STM32WLxx_HAL_Driver/Src/stm32wlxx_hal_dma.c ****     hdma->DmaBaseAddress = DMA2;
 413              		.loc 1 182 80 view .LVU142
 414 009a 0E49     		ldr	r1, .L29+8
 415 009c A1FB0313 		umull	r1, r3, r1, r3
 416 00a0 1B09     		lsrs	r3, r3, #4
 182:Drivers/STM32WLxx_HAL_Driver/Src/stm32wlxx_hal_dma.c ****     hdma->DmaBaseAddress = DMA2;
 417              		.loc 1 182 135 view .LVU143
 418 00a2 9B00     		lsls	r3, r3, #2
 182:Drivers/STM32WLxx_HAL_Driver/Src/stm32wlxx_hal_dma.c ****     hdma->DmaBaseAddress = DMA2;
 419              		.loc 1 182 24 view .LVU144
 420 00a4 4364     		str	r3, [r0, #68]
 183:Drivers/STM32WLxx_HAL_Driver/Src/stm32wlxx_hal_dma.c ****   }
 421              		.loc 1 183 5 is_stmt 1 view .LVU145
 183:Drivers/STM32WLxx_HAL_Driver/Src/stm32wlxx_hal_dma.c ****   }
 422              		.loc 1 183 26 is_stmt 0 view .LVU146
 423 00a6 0E4B     		ldr	r3, .L29+20
 424 00a8 0364     		str	r3, [r0, #64]
 425 00aa BBE7     		b	.L18
 426              	.LVL17:
 427              	.L27:
 208:Drivers/STM32WLxx_HAL_Driver/Src/stm32wlxx_hal_dma.c ****   }
 428              		.loc 1 208 5 is_stmt 1 view .LVU147
 208:Drivers/STM32WLxx_HAL_Driver/Src/stm32wlxx_hal_dma.c ****   }
 429              		.loc 1 208 24 is_stmt 0 view .LVU148
 430 00ac 0023     		movs	r3, #0
 431 00ae 6360     		str	r3, [r4, #4]
 432 00b0 D9E7     		b	.L19
 433              	.L28:
 222:Drivers/STM32WLxx_HAL_Driver/Src/stm32wlxx_hal_dma.c **** 
 434              		.loc 1 222 5 is_stmt 1 view .LVU149
 435 00b2 2046     		mov	r0, r4
 436 00b4 FFF7FEFF 		bl	DMA_CalcDMAMUXRequestGenBaseAndMask
 437              	.LVL18:
 225:Drivers/STM32WLxx_HAL_Driver/Src/stm32wlxx_hal_dma.c **** 
 438              		.loc 1 225 5 view .LVU150
 225:Drivers/STM32WLxx_HAL_Driver/Src/stm32wlxx_hal_dma.c **** 
 439              		.loc 1 225 9 is_stmt 0 view .LVU151
 440 00b8 636D     		ldr	r3, [r4, #84]
 225:Drivers/STM32WLxx_HAL_Driver/Src/stm32wlxx_hal_dma.c **** 
 441              		.loc 1 225 34 view .LVU152
ARM GAS  /var/folders/9y/n02fl3g16gnf7ppy14xghdy80000gn/T//cckqCF9e.s 			page 33


 442 00ba 0022     		movs	r2, #0
 443 00bc 1A60     		str	r2, [r3]
 228:Drivers/STM32WLxx_HAL_Driver/Src/stm32wlxx_hal_dma.c ****   }
 444              		.loc 1 228 5 is_stmt 1 view .LVU153
 228:Drivers/STM32WLxx_HAL_Driver/Src/stm32wlxx_hal_dma.c ****   }
 445              		.loc 1 228 9 is_stmt 0 view .LVU154
 446 00be A36D     		ldr	r3, [r4, #88]
 228:Drivers/STM32WLxx_HAL_Driver/Src/stm32wlxx_hal_dma.c ****   }
 447              		.loc 1 228 47 view .LVU155
 448 00c0 E26D     		ldr	r2, [r4, #92]
 228:Drivers/STM32WLxx_HAL_Driver/Src/stm32wlxx_hal_dma.c ****   }
 449              		.loc 1 228 41 view .LVU156
 450 00c2 5A60     		str	r2, [r3, #4]
 451 00c4 DFE7     		b	.L21
 452              	.LVL19:
 453              	.L22:
 454              		.cfi_def_cfa_offset 0
 455              		.cfi_restore 4
 456              		.cfi_restore 14
 157:Drivers/STM32WLxx_HAL_Driver/Src/stm32wlxx_hal_dma.c ****   }
 457              		.loc 1 157 12 view .LVU157
 458 00c6 0120     		movs	r0, #1
 459              	.LVL20:
 247:Drivers/STM32WLxx_HAL_Driver/Src/stm32wlxx_hal_dma.c **** 
 460              		.loc 1 247 1 view .LVU158
 461 00c8 7047     		bx	lr
 462              	.L30:
 463 00ca 00BF     		.align	2
 464              	.L29:
 465 00cc 07040240 		.word	1073873927
 466 00d0 F8FFFDBF 		.word	-1073872904
 467 00d4 CDCCCCCC 		.word	-858993459
 468 00d8 00000240 		.word	1073872896
 469 00dc F8FBFDBF 		.word	-1073873928
 470 00e0 00040240 		.word	1073873920
 471              		.cfi_endproc
 472              	.LFE844:
 474              		.section	.text.HAL_DMA_DeInit,"ax",%progbits
 475              		.align	1
 476              		.global	HAL_DMA_DeInit
 477              		.syntax unified
 478              		.thumb
 479              		.thumb_func
 480              		.fpu softvfp
 482              	HAL_DMA_DeInit:
 483              	.LVL21:
 484              	.LFB845:
 256:Drivers/STM32WLxx_HAL_Driver/Src/stm32wlxx_hal_dma.c ****   /* Check the DMA handle allocation */
 485              		.loc 1 256 1 is_stmt 1 view -0
 486              		.cfi_startproc
 487              		@ args = 0, pretend = 0, frame = 0
 488              		@ frame_needed = 0, uses_anonymous_args = 0
 258:Drivers/STM32WLxx_HAL_Driver/Src/stm32wlxx_hal_dma.c ****   {
 489              		.loc 1 258 3 view .LVU160
 258:Drivers/STM32WLxx_HAL_Driver/Src/stm32wlxx_hal_dma.c ****   {
 490              		.loc 1 258 6 is_stmt 0 view .LVU161
 491 0000 0028     		cmp	r0, #0
ARM GAS  /var/folders/9y/n02fl3g16gnf7ppy14xghdy80000gn/T//cckqCF9e.s 			page 34


 492 0002 4BD0     		beq	.L36
 256:Drivers/STM32WLxx_HAL_Driver/Src/stm32wlxx_hal_dma.c ****   /* Check the DMA handle allocation */
 493              		.loc 1 256 1 view .LVU162
 494 0004 38B5     		push	{r3, r4, r5, lr}
 495              		.cfi_def_cfa_offset 16
 496              		.cfi_offset 3, -16
 497              		.cfi_offset 4, -12
 498              		.cfi_offset 5, -8
 499              		.cfi_offset 14, -4
 500 0006 0446     		mov	r4, r0
 264:Drivers/STM32WLxx_HAL_Driver/Src/stm32wlxx_hal_dma.c **** 
 501              		.loc 1 264 3 is_stmt 1 view .LVU163
 267:Drivers/STM32WLxx_HAL_Driver/Src/stm32wlxx_hal_dma.c **** 
 502              		.loc 1 267 3 view .LVU164
 503 0008 0268     		ldr	r2, [r0]
 504 000a 1368     		ldr	r3, [r2]
 505 000c 23F00103 		bic	r3, r3, #1
 506 0010 1360     		str	r3, [r2]
 270:Drivers/STM32WLxx_HAL_Driver/Src/stm32wlxx_hal_dma.c ****   {
 507              		.loc 1 270 3 view .LVU165
 270:Drivers/STM32WLxx_HAL_Driver/Src/stm32wlxx_hal_dma.c ****   {
 508              		.loc 1 270 22 is_stmt 0 view .LVU166
 509 0012 0268     		ldr	r2, [r0]
 270:Drivers/STM32WLxx_HAL_Driver/Src/stm32wlxx_hal_dma.c ****   {
 510              		.loc 1 270 6 view .LVU167
 511 0014 224B     		ldr	r3, .L42
 512 0016 9A42     		cmp	r2, r3
 513 0018 2CD8     		bhi	.L33
 273:Drivers/STM32WLxx_HAL_Driver/Src/stm32wlxx_hal_dma.c ****     hdma->DmaBaseAddress = DMA1;
 514              		.loc 1 273 5 is_stmt 1 view .LVU168
 273:Drivers/STM32WLxx_HAL_Driver/Src/stm32wlxx_hal_dma.c ****     hdma->DmaBaseAddress = DMA1;
 515              		.loc 1 273 53 is_stmt 0 view .LVU169
 516 001a 224B     		ldr	r3, .L42+4
 517 001c 1344     		add	r3, r3, r2
 273:Drivers/STM32WLxx_HAL_Driver/Src/stm32wlxx_hal_dma.c ****     hdma->DmaBaseAddress = DMA1;
 518              		.loc 1 273 80 view .LVU170
 519 001e 2249     		ldr	r1, .L42+8
 520 0020 A1FB0313 		umull	r1, r3, r1, r3
 521 0024 1B09     		lsrs	r3, r3, #4
 273:Drivers/STM32WLxx_HAL_Driver/Src/stm32wlxx_hal_dma.c ****     hdma->DmaBaseAddress = DMA1;
 522              		.loc 1 273 135 view .LVU171
 523 0026 9B00     		lsls	r3, r3, #2
 273:Drivers/STM32WLxx_HAL_Driver/Src/stm32wlxx_hal_dma.c ****     hdma->DmaBaseAddress = DMA1;
 524              		.loc 1 273 24 view .LVU172
 525 0028 4364     		str	r3, [r0, #68]
 274:Drivers/STM32WLxx_HAL_Driver/Src/stm32wlxx_hal_dma.c ****   }
 526              		.loc 1 274 5 is_stmt 1 view .LVU173
 274:Drivers/STM32WLxx_HAL_Driver/Src/stm32wlxx_hal_dma.c ****   }
 527              		.loc 1 274 26 is_stmt 0 view .LVU174
 528 002a 204B     		ldr	r3, .L42+12
 529 002c 0364     		str	r3, [r0, #64]
 530              	.L34:
 284:Drivers/STM32WLxx_HAL_Driver/Src/stm32wlxx_hal_dma.c **** 
 531              		.loc 1 284 3 is_stmt 1 view .LVU175
 284:Drivers/STM32WLxx_HAL_Driver/Src/stm32wlxx_hal_dma.c **** 
 532              		.loc 1 284 23 is_stmt 0 view .LVU176
 533 002e 0025     		movs	r5, #0
ARM GAS  /var/folders/9y/n02fl3g16gnf7ppy14xghdy80000gn/T//cckqCF9e.s 			page 35


 534 0030 1560     		str	r5, [r2]
 287:Drivers/STM32WLxx_HAL_Driver/Src/stm32wlxx_hal_dma.c **** 
 535              		.loc 1 287 3 is_stmt 1 view .LVU177
 287:Drivers/STM32WLxx_HAL_Driver/Src/stm32wlxx_hal_dma.c **** 
 536              		.loc 1 287 54 is_stmt 0 view .LVU178
 537 0032 636C     		ldr	r3, [r4, #68]
 287:Drivers/STM32WLxx_HAL_Driver/Src/stm32wlxx_hal_dma.c **** 
 538              		.loc 1 287 69 view .LVU179
 539 0034 03F01C02 		and	r2, r3, #28
 287:Drivers/STM32WLxx_HAL_Driver/Src/stm32wlxx_hal_dma.c **** 
 540              		.loc 1 287 7 view .LVU180
 541 0038 216C     		ldr	r1, [r4, #64]
 287:Drivers/STM32WLxx_HAL_Driver/Src/stm32wlxx_hal_dma.c **** 
 542              		.loc 1 287 46 view .LVU181
 543 003a 0123     		movs	r3, #1
 544 003c 9340     		lsls	r3, r3, r2
 287:Drivers/STM32WLxx_HAL_Driver/Src/stm32wlxx_hal_dma.c **** 
 545              		.loc 1 287 30 view .LVU182
 546 003e 4B60     		str	r3, [r1, #4]
 292:Drivers/STM32WLxx_HAL_Driver/Src/stm32wlxx_hal_dma.c **** 
 547              		.loc 1 292 3 is_stmt 1 view .LVU183
 548 0040 2046     		mov	r0, r4
 549              	.LVL22:
 292:Drivers/STM32WLxx_HAL_Driver/Src/stm32wlxx_hal_dma.c **** 
 550              		.loc 1 292 3 is_stmt 0 view .LVU184
 551 0042 FFF7FEFF 		bl	DMA_CalcDMAMUXChannelBaseAndMask
 552              	.LVL23:
 295:Drivers/STM32WLxx_HAL_Driver/Src/stm32wlxx_hal_dma.c **** 
 553              		.loc 1 295 3 is_stmt 1 view .LVU185
 295:Drivers/STM32WLxx_HAL_Driver/Src/stm32wlxx_hal_dma.c **** 
 554              		.loc 1 295 7 is_stmt 0 view .LVU186
 555 0046 A36C     		ldr	r3, [r4, #72]
 295:Drivers/STM32WLxx_HAL_Driver/Src/stm32wlxx_hal_dma.c **** 
 556              		.loc 1 295 28 view .LVU187
 557 0048 1D60     		str	r5, [r3]
 298:Drivers/STM32WLxx_HAL_Driver/Src/stm32wlxx_hal_dma.c **** 
 558              		.loc 1 298 3 is_stmt 1 view .LVU188
 298:Drivers/STM32WLxx_HAL_Driver/Src/stm32wlxx_hal_dma.c **** 
 559              		.loc 1 298 7 is_stmt 0 view .LVU189
 560 004a E36C     		ldr	r3, [r4, #76]
 298:Drivers/STM32WLxx_HAL_Driver/Src/stm32wlxx_hal_dma.c **** 
 561              		.loc 1 298 40 view .LVU190
 562 004c 226D     		ldr	r2, [r4, #80]
 298:Drivers/STM32WLxx_HAL_Driver/Src/stm32wlxx_hal_dma.c **** 
 563              		.loc 1 298 34 view .LVU191
 564 004e 5A60     		str	r2, [r3, #4]
 301:Drivers/STM32WLxx_HAL_Driver/Src/stm32wlxx_hal_dma.c ****   {
 565              		.loc 1 301 3 is_stmt 1 view .LVU192
 301:Drivers/STM32WLxx_HAL_Driver/Src/stm32wlxx_hal_dma.c ****   {
 566              		.loc 1 301 19 is_stmt 0 view .LVU193
 567 0050 6368     		ldr	r3, [r4, #4]
 301:Drivers/STM32WLxx_HAL_Driver/Src/stm32wlxx_hal_dma.c ****   {
 568              		.loc 1 301 36 view .LVU194
 569 0052 013B     		subs	r3, r3, #1
 301:Drivers/STM32WLxx_HAL_Driver/Src/stm32wlxx_hal_dma.c ****   {
 570              		.loc 1 301 6 view .LVU195
 571 0054 032B     		cmp	r3, #3
ARM GAS  /var/folders/9y/n02fl3g16gnf7ppy14xghdy80000gn/T//cckqCF9e.s 			page 36


 572 0056 18D9     		bls	.L41
 573              	.L35:
 315:Drivers/STM32WLxx_HAL_Driver/Src/stm32wlxx_hal_dma.c ****   hdma->DMAmuxRequestGenStatus = 0U;
 574              		.loc 1 315 3 is_stmt 1 view .LVU196
 315:Drivers/STM32WLxx_HAL_Driver/Src/stm32wlxx_hal_dma.c ****   hdma->DMAmuxRequestGenStatus = 0U;
 575              		.loc 1 315 26 is_stmt 0 view .LVU197
 576 0058 0020     		movs	r0, #0
 577 005a 6065     		str	r0, [r4, #84]
 316:Drivers/STM32WLxx_HAL_Driver/Src/stm32wlxx_hal_dma.c ****   hdma->DMAmuxRequestGenStatusMask = 0U;
 578              		.loc 1 316 3 is_stmt 1 view .LVU198
 316:Drivers/STM32WLxx_HAL_Driver/Src/stm32wlxx_hal_dma.c ****   hdma->DMAmuxRequestGenStatusMask = 0U;
 579              		.loc 1 316 32 is_stmt 0 view .LVU199
 580 005c A065     		str	r0, [r4, #88]
 317:Drivers/STM32WLxx_HAL_Driver/Src/stm32wlxx_hal_dma.c **** 
 581              		.loc 1 317 3 is_stmt 1 view .LVU200
 317:Drivers/STM32WLxx_HAL_Driver/Src/stm32wlxx_hal_dma.c **** 
 582              		.loc 1 317 36 is_stmt 0 view .LVU201
 583 005e E065     		str	r0, [r4, #92]
 320:Drivers/STM32WLxx_HAL_Driver/Src/stm32wlxx_hal_dma.c ****   hdma->XferHalfCpltCallback = NULL;
 584              		.loc 1 320 3 is_stmt 1 view .LVU202
 320:Drivers/STM32WLxx_HAL_Driver/Src/stm32wlxx_hal_dma.c ****   hdma->XferHalfCpltCallback = NULL;
 585              		.loc 1 320 26 is_stmt 0 view .LVU203
 586 0060 E062     		str	r0, [r4, #44]
 321:Drivers/STM32WLxx_HAL_Driver/Src/stm32wlxx_hal_dma.c ****   hdma->XferErrorCallback = NULL;
 587              		.loc 1 321 3 is_stmt 1 view .LVU204
 321:Drivers/STM32WLxx_HAL_Driver/Src/stm32wlxx_hal_dma.c ****   hdma->XferErrorCallback = NULL;
 588              		.loc 1 321 30 is_stmt 0 view .LVU205
 589 0062 2063     		str	r0, [r4, #48]
 322:Drivers/STM32WLxx_HAL_Driver/Src/stm32wlxx_hal_dma.c ****   hdma->XferAbortCallback = NULL;
 590              		.loc 1 322 3 is_stmt 1 view .LVU206
 322:Drivers/STM32WLxx_HAL_Driver/Src/stm32wlxx_hal_dma.c ****   hdma->XferAbortCallback = NULL;
 591              		.loc 1 322 27 is_stmt 0 view .LVU207
 592 0064 6063     		str	r0, [r4, #52]
 323:Drivers/STM32WLxx_HAL_Driver/Src/stm32wlxx_hal_dma.c **** 
 593              		.loc 1 323 3 is_stmt 1 view .LVU208
 323:Drivers/STM32WLxx_HAL_Driver/Src/stm32wlxx_hal_dma.c **** 
 594              		.loc 1 323 27 is_stmt 0 view .LVU209
 595 0066 A063     		str	r0, [r4, #56]
 326:Drivers/STM32WLxx_HAL_Driver/Src/stm32wlxx_hal_dma.c **** 
 596              		.loc 1 326 3 is_stmt 1 view .LVU210
 326:Drivers/STM32WLxx_HAL_Driver/Src/stm32wlxx_hal_dma.c **** 
 597              		.loc 1 326 19 is_stmt 0 view .LVU211
 598 0068 E063     		str	r0, [r4, #60]
 329:Drivers/STM32WLxx_HAL_Driver/Src/stm32wlxx_hal_dma.c **** 
 599              		.loc 1 329 3 is_stmt 1 view .LVU212
 329:Drivers/STM32WLxx_HAL_Driver/Src/stm32wlxx_hal_dma.c **** 
 600              		.loc 1 329 15 is_stmt 0 view .LVU213
 601 006a 84F82500 		strb	r0, [r4, #37]
 332:Drivers/STM32WLxx_HAL_Driver/Src/stm32wlxx_hal_dma.c **** 
 602              		.loc 1 332 3 is_stmt 1 view .LVU214
 332:Drivers/STM32WLxx_HAL_Driver/Src/stm32wlxx_hal_dma.c **** 
 603              		.loc 1 332 3 view .LVU215
 604 006e 84F82400 		strb	r0, [r4, #36]
 332:Drivers/STM32WLxx_HAL_Driver/Src/stm32wlxx_hal_dma.c **** 
 605              		.loc 1 332 3 view .LVU216
 334:Drivers/STM32WLxx_HAL_Driver/Src/stm32wlxx_hal_dma.c **** }
 606              		.loc 1 334 3 view .LVU217
ARM GAS  /var/folders/9y/n02fl3g16gnf7ppy14xghdy80000gn/T//cckqCF9e.s 			page 37


 335:Drivers/STM32WLxx_HAL_Driver/Src/stm32wlxx_hal_dma.c **** 
 607              		.loc 1 335 1 is_stmt 0 view .LVU218
 608 0072 38BD     		pop	{r3, r4, r5, pc}
 609              	.LVL24:
 610              	.L33:
 279:Drivers/STM32WLxx_HAL_Driver/Src/stm32wlxx_hal_dma.c ****     hdma->DmaBaseAddress = DMA2;
 611              		.loc 1 279 5 is_stmt 1 view .LVU219
 279:Drivers/STM32WLxx_HAL_Driver/Src/stm32wlxx_hal_dma.c ****     hdma->DmaBaseAddress = DMA2;
 612              		.loc 1 279 53 is_stmt 0 view .LVU220
 613 0074 0E4B     		ldr	r3, .L42+16
 614 0076 1344     		add	r3, r3, r2
 279:Drivers/STM32WLxx_HAL_Driver/Src/stm32wlxx_hal_dma.c ****     hdma->DmaBaseAddress = DMA2;
 615              		.loc 1 279 80 view .LVU221
 616 0078 0B49     		ldr	r1, .L42+8
 617 007a A1FB0313 		umull	r1, r3, r1, r3
 618 007e 1B09     		lsrs	r3, r3, #4
 279:Drivers/STM32WLxx_HAL_Driver/Src/stm32wlxx_hal_dma.c ****     hdma->DmaBaseAddress = DMA2;
 619              		.loc 1 279 135 view .LVU222
 620 0080 9B00     		lsls	r3, r3, #2
 279:Drivers/STM32WLxx_HAL_Driver/Src/stm32wlxx_hal_dma.c ****     hdma->DmaBaseAddress = DMA2;
 621              		.loc 1 279 24 view .LVU223
 622 0082 4364     		str	r3, [r0, #68]
 280:Drivers/STM32WLxx_HAL_Driver/Src/stm32wlxx_hal_dma.c ****   }
 623              		.loc 1 280 5 is_stmt 1 view .LVU224
 280:Drivers/STM32WLxx_HAL_Driver/Src/stm32wlxx_hal_dma.c ****   }
 624              		.loc 1 280 26 is_stmt 0 view .LVU225
 625 0084 0B4B     		ldr	r3, .L42+20
 626 0086 0364     		str	r3, [r0, #64]
 627 0088 D1E7     		b	.L34
 628              	.LVL25:
 629              	.L41:
 306:Drivers/STM32WLxx_HAL_Driver/Src/stm32wlxx_hal_dma.c **** 
 630              		.loc 1 306 5 is_stmt 1 view .LVU226
 631 008a 2046     		mov	r0, r4
 632 008c FFF7FEFF 		bl	DMA_CalcDMAMUXRequestGenBaseAndMask
 633              	.LVL26:
 309:Drivers/STM32WLxx_HAL_Driver/Src/stm32wlxx_hal_dma.c **** 
 634              		.loc 1 309 5 view .LVU227
 309:Drivers/STM32WLxx_HAL_Driver/Src/stm32wlxx_hal_dma.c **** 
 635              		.loc 1 309 9 is_stmt 0 view .LVU228
 636 0090 636D     		ldr	r3, [r4, #84]
 309:Drivers/STM32WLxx_HAL_Driver/Src/stm32wlxx_hal_dma.c **** 
 637              		.loc 1 309 34 view .LVU229
 638 0092 1D60     		str	r5, [r3]
 312:Drivers/STM32WLxx_HAL_Driver/Src/stm32wlxx_hal_dma.c ****   }
 639              		.loc 1 312 5 is_stmt 1 view .LVU230
 312:Drivers/STM32WLxx_HAL_Driver/Src/stm32wlxx_hal_dma.c ****   }
 640              		.loc 1 312 9 is_stmt 0 view .LVU231
 641 0094 A36D     		ldr	r3, [r4, #88]
 312:Drivers/STM32WLxx_HAL_Driver/Src/stm32wlxx_hal_dma.c ****   }
 642              		.loc 1 312 47 view .LVU232
 643 0096 E26D     		ldr	r2, [r4, #92]
 312:Drivers/STM32WLxx_HAL_Driver/Src/stm32wlxx_hal_dma.c ****   }
 644              		.loc 1 312 41 view .LVU233
 645 0098 5A60     		str	r2, [r3, #4]
 646 009a DDE7     		b	.L35
 647              	.LVL27:
ARM GAS  /var/folders/9y/n02fl3g16gnf7ppy14xghdy80000gn/T//cckqCF9e.s 			page 38


 648              	.L36:
 649              		.cfi_def_cfa_offset 0
 650              		.cfi_restore 3
 651              		.cfi_restore 4
 652              		.cfi_restore 5
 653              		.cfi_restore 14
 260:Drivers/STM32WLxx_HAL_Driver/Src/stm32wlxx_hal_dma.c ****   }
 654              		.loc 1 260 12 view .LVU234
 655 009c 0120     		movs	r0, #1
 656              	.LVL28:
 335:Drivers/STM32WLxx_HAL_Driver/Src/stm32wlxx_hal_dma.c **** 
 657              		.loc 1 335 1 view .LVU235
 658 009e 7047     		bx	lr
 659              	.L43:
 660              		.align	2
 661              	.L42:
 662 00a0 07040240 		.word	1073873927
 663 00a4 F8FFFDBF 		.word	-1073872904
 664 00a8 CDCCCCCC 		.word	-858993459
 665 00ac 00000240 		.word	1073872896
 666 00b0 F8FBFDBF 		.word	-1073873928
 667 00b4 00040240 		.word	1073873920
 668              		.cfi_endproc
 669              	.LFE845:
 671              		.section	.text.HAL_DMA_Start,"ax",%progbits
 672              		.align	1
 673              		.global	HAL_DMA_Start
 674              		.syntax unified
 675              		.thumb
 676              		.thumb_func
 677              		.fpu softvfp
 679              	HAL_DMA_Start:
 680              	.LVL29:
 681              	.LFB846:
 371:Drivers/STM32WLxx_HAL_Driver/Src/stm32wlxx_hal_dma.c ****   HAL_StatusTypeDef status = HAL_OK;
 682              		.loc 1 371 1 is_stmt 1 view -0
 683              		.cfi_startproc
 684              		@ args = 0, pretend = 0, frame = 0
 685              		@ frame_needed = 0, uses_anonymous_args = 0
 371:Drivers/STM32WLxx_HAL_Driver/Src/stm32wlxx_hal_dma.c ****   HAL_StatusTypeDef status = HAL_OK;
 686              		.loc 1 371 1 is_stmt 0 view .LVU237
 687 0000 70B5     		push	{r4, r5, r6, lr}
 688              		.cfi_def_cfa_offset 16
 689              		.cfi_offset 4, -16
 690              		.cfi_offset 5, -12
 691              		.cfi_offset 6, -8
 692              		.cfi_offset 14, -4
 693 0002 0446     		mov	r4, r0
 372:Drivers/STM32WLxx_HAL_Driver/Src/stm32wlxx_hal_dma.c **** 
 694              		.loc 1 372 3 is_stmt 1 view .LVU238
 695              	.LVL30:
 375:Drivers/STM32WLxx_HAL_Driver/Src/stm32wlxx_hal_dma.c **** 
 696              		.loc 1 375 3 view .LVU239
 378:Drivers/STM32WLxx_HAL_Driver/Src/stm32wlxx_hal_dma.c **** 
 697              		.loc 1 378 3 view .LVU240
 378:Drivers/STM32WLxx_HAL_Driver/Src/stm32wlxx_hal_dma.c **** 
 698              		.loc 1 378 3 view .LVU241
ARM GAS  /var/folders/9y/n02fl3g16gnf7ppy14xghdy80000gn/T//cckqCF9e.s 			page 39


 699 0004 90F82400 		ldrb	r0, [r0, #36]	@ zero_extendqisi2
 700              	.LVL31:
 378:Drivers/STM32WLxx_HAL_Driver/Src/stm32wlxx_hal_dma.c **** 
 701              		.loc 1 378 3 is_stmt 0 view .LVU242
 702 0008 0128     		cmp	r0, #1
 703 000a 22D0     		beq	.L47
 378:Drivers/STM32WLxx_HAL_Driver/Src/stm32wlxx_hal_dma.c **** 
 704              		.loc 1 378 3 is_stmt 1 discriminator 2 view .LVU243
 705 000c 0120     		movs	r0, #1
 706 000e 84F82400 		strb	r0, [r4, #36]
 378:Drivers/STM32WLxx_HAL_Driver/Src/stm32wlxx_hal_dma.c **** 
 707              		.loc 1 378 3 discriminator 2 view .LVU244
 380:Drivers/STM32WLxx_HAL_Driver/Src/stm32wlxx_hal_dma.c ****   {
 708              		.loc 1 380 3 discriminator 2 view .LVU245
 380:Drivers/STM32WLxx_HAL_Driver/Src/stm32wlxx_hal_dma.c ****   {
 709              		.loc 1 380 11 is_stmt 0 discriminator 2 view .LVU246
 710 0012 94F82500 		ldrb	r0, [r4, #37]	@ zero_extendqisi2
 711 0016 C0B2     		uxtb	r0, r0
 380:Drivers/STM32WLxx_HAL_Driver/Src/stm32wlxx_hal_dma.c ****   {
 712              		.loc 1 380 6 discriminator 2 view .LVU247
 713 0018 0128     		cmp	r0, #1
 714 001a 06D0     		beq	.L49
 400:Drivers/STM32WLxx_HAL_Driver/Src/stm32wlxx_hal_dma.c **** 
 715              		.loc 1 400 5 is_stmt 1 view .LVU248
 400:Drivers/STM32WLxx_HAL_Driver/Src/stm32wlxx_hal_dma.c **** 
 716              		.loc 1 400 21 is_stmt 0 view .LVU249
 717 001c 8023     		movs	r3, #128
 718              	.LVL32:
 400:Drivers/STM32WLxx_HAL_Driver/Src/stm32wlxx_hal_dma.c **** 
 719              		.loc 1 400 21 view .LVU250
 720 001e E363     		str	r3, [r4, #60]
 403:Drivers/STM32WLxx_HAL_Driver/Src/stm32wlxx_hal_dma.c **** 
 721              		.loc 1 403 5 is_stmt 1 view .LVU251
 403:Drivers/STM32WLxx_HAL_Driver/Src/stm32wlxx_hal_dma.c **** 
 722              		.loc 1 403 5 view .LVU252
 723 0020 0023     		movs	r3, #0
 724 0022 84F82430 		strb	r3, [r4, #36]
 403:Drivers/STM32WLxx_HAL_Driver/Src/stm32wlxx_hal_dma.c **** 
 725              		.loc 1 403 5 view .LVU253
 406:Drivers/STM32WLxx_HAL_Driver/Src/stm32wlxx_hal_dma.c ****   }
 726              		.loc 1 406 5 view .LVU254
 727              	.LVL33:
 406:Drivers/STM32WLxx_HAL_Driver/Src/stm32wlxx_hal_dma.c ****   }
 728              		.loc 1 406 12 is_stmt 0 view .LVU255
 729 0026 0120     		movs	r0, #1
 730              	.LVL34:
 731              	.L45:
 410:Drivers/STM32WLxx_HAL_Driver/Src/stm32wlxx_hal_dma.c **** 
 732              		.loc 1 410 1 view .LVU256
 733 0028 70BD     		pop	{r4, r5, r6, pc}
 734              	.LVL35:
 735              	.L49:
 383:Drivers/STM32WLxx_HAL_Driver/Src/stm32wlxx_hal_dma.c **** 
 736              		.loc 1 383 5 is_stmt 1 view .LVU257
 383:Drivers/STM32WLxx_HAL_Driver/Src/stm32wlxx_hal_dma.c **** 
 737              		.loc 1 383 17 is_stmt 0 view .LVU258
 738 002a 0220     		movs	r0, #2
ARM GAS  /var/folders/9y/n02fl3g16gnf7ppy14xghdy80000gn/T//cckqCF9e.s 			page 40


 739 002c 84F82500 		strb	r0, [r4, #37]
 386:Drivers/STM32WLxx_HAL_Driver/Src/stm32wlxx_hal_dma.c **** 
 740              		.loc 1 386 5 is_stmt 1 view .LVU259
 386:Drivers/STM32WLxx_HAL_Driver/Src/stm32wlxx_hal_dma.c **** 
 741              		.loc 1 386 21 is_stmt 0 view .LVU260
 742 0030 0025     		movs	r5, #0
 743 0032 E563     		str	r5, [r4, #60]
 389:Drivers/STM32WLxx_HAL_Driver/Src/stm32wlxx_hal_dma.c **** 
 744              		.loc 1 389 5 is_stmt 1 view .LVU261
 745 0034 2668     		ldr	r6, [r4]
 746 0036 3068     		ldr	r0, [r6]
 747 0038 20F00100 		bic	r0, r0, #1
 748 003c 3060     		str	r0, [r6]
 392:Drivers/STM32WLxx_HAL_Driver/Src/stm32wlxx_hal_dma.c **** 
 749              		.loc 1 392 5 view .LVU262
 750 003e 2046     		mov	r0, r4
 751 0040 FFF7FEFF 		bl	DMA_SetConfig
 752              	.LVL36:
 395:Drivers/STM32WLxx_HAL_Driver/Src/stm32wlxx_hal_dma.c ****   }
 753              		.loc 1 395 5 view .LVU263
 754 0044 2268     		ldr	r2, [r4]
 755 0046 1368     		ldr	r3, [r2]
 756 0048 43F00103 		orr	r3, r3, #1
 757 004c 1360     		str	r3, [r2]
 372:Drivers/STM32WLxx_HAL_Driver/Src/stm32wlxx_hal_dma.c **** 
 758              		.loc 1 372 21 is_stmt 0 view .LVU264
 759 004e 2846     		mov	r0, r5
 760 0050 EAE7     		b	.L45
 761              	.LVL37:
 762              	.L47:
 378:Drivers/STM32WLxx_HAL_Driver/Src/stm32wlxx_hal_dma.c **** 
 763              		.loc 1 378 3 view .LVU265
 764 0052 0220     		movs	r0, #2
 765 0054 E8E7     		b	.L45
 766              		.cfi_endproc
 767              	.LFE846:
 769              		.section	.text.HAL_DMA_Start_IT,"ax",%progbits
 770              		.align	1
 771              		.global	HAL_DMA_Start_IT
 772              		.syntax unified
 773              		.thumb
 774              		.thumb_func
 775              		.fpu softvfp
 777              	HAL_DMA_Start_IT:
 778              	.LVL38:
 779              	.LFB847:
 422:Drivers/STM32WLxx_HAL_Driver/Src/stm32wlxx_hal_dma.c ****   HAL_StatusTypeDef status = HAL_OK;
 780              		.loc 1 422 1 is_stmt 1 view -0
 781              		.cfi_startproc
 782              		@ args = 0, pretend = 0, frame = 0
 783              		@ frame_needed = 0, uses_anonymous_args = 0
 422:Drivers/STM32WLxx_HAL_Driver/Src/stm32wlxx_hal_dma.c ****   HAL_StatusTypeDef status = HAL_OK;
 784              		.loc 1 422 1 is_stmt 0 view .LVU267
 785 0000 38B5     		push	{r3, r4, r5, lr}
 786              		.cfi_def_cfa_offset 16
 787              		.cfi_offset 3, -16
 788              		.cfi_offset 4, -12
ARM GAS  /var/folders/9y/n02fl3g16gnf7ppy14xghdy80000gn/T//cckqCF9e.s 			page 41


 789              		.cfi_offset 5, -8
 790              		.cfi_offset 14, -4
 791 0002 0446     		mov	r4, r0
 423:Drivers/STM32WLxx_HAL_Driver/Src/stm32wlxx_hal_dma.c **** 
 792              		.loc 1 423 3 is_stmt 1 view .LVU268
 793              	.LVL39:
 426:Drivers/STM32WLxx_HAL_Driver/Src/stm32wlxx_hal_dma.c **** 
 794              		.loc 1 426 3 view .LVU269
 429:Drivers/STM32WLxx_HAL_Driver/Src/stm32wlxx_hal_dma.c **** 
 795              		.loc 1 429 3 view .LVU270
 429:Drivers/STM32WLxx_HAL_Driver/Src/stm32wlxx_hal_dma.c **** 
 796              		.loc 1 429 3 view .LVU271
 797 0004 90F82400 		ldrb	r0, [r0, #36]	@ zero_extendqisi2
 798              	.LVL40:
 429:Drivers/STM32WLxx_HAL_Driver/Src/stm32wlxx_hal_dma.c **** 
 799              		.loc 1 429 3 is_stmt 0 view .LVU272
 800 0008 0128     		cmp	r0, #1
 801 000a 43D0     		beq	.L57
 429:Drivers/STM32WLxx_HAL_Driver/Src/stm32wlxx_hal_dma.c **** 
 802              		.loc 1 429 3 is_stmt 1 discriminator 2 view .LVU273
 803 000c 0120     		movs	r0, #1
 804 000e 84F82400 		strb	r0, [r4, #36]
 429:Drivers/STM32WLxx_HAL_Driver/Src/stm32wlxx_hal_dma.c **** 
 805              		.loc 1 429 3 discriminator 2 view .LVU274
 431:Drivers/STM32WLxx_HAL_Driver/Src/stm32wlxx_hal_dma.c ****   {
 806              		.loc 1 431 3 discriminator 2 view .LVU275
 431:Drivers/STM32WLxx_HAL_Driver/Src/stm32wlxx_hal_dma.c ****   {
 807              		.loc 1 431 11 is_stmt 0 discriminator 2 view .LVU276
 808 0012 94F82500 		ldrb	r0, [r4, #37]	@ zero_extendqisi2
 809 0016 C0B2     		uxtb	r0, r0
 431:Drivers/STM32WLxx_HAL_Driver/Src/stm32wlxx_hal_dma.c ****   {
 810              		.loc 1 431 6 discriminator 2 view .LVU277
 811 0018 0128     		cmp	r0, #1
 812 001a 06D0     		beq	.L59
 476:Drivers/STM32WLxx_HAL_Driver/Src/stm32wlxx_hal_dma.c **** 
 813              		.loc 1 476 5 is_stmt 1 view .LVU278
 476:Drivers/STM32WLxx_HAL_Driver/Src/stm32wlxx_hal_dma.c **** 
 814              		.loc 1 476 21 is_stmt 0 view .LVU279
 815 001c 8023     		movs	r3, #128
 816              	.LVL41:
 476:Drivers/STM32WLxx_HAL_Driver/Src/stm32wlxx_hal_dma.c **** 
 817              		.loc 1 476 21 view .LVU280
 818 001e E363     		str	r3, [r4, #60]
 479:Drivers/STM32WLxx_HAL_Driver/Src/stm32wlxx_hal_dma.c **** 
 819              		.loc 1 479 5 is_stmt 1 view .LVU281
 479:Drivers/STM32WLxx_HAL_Driver/Src/stm32wlxx_hal_dma.c **** 
 820              		.loc 1 479 5 view .LVU282
 821 0020 0023     		movs	r3, #0
 822 0022 84F82430 		strb	r3, [r4, #36]
 479:Drivers/STM32WLxx_HAL_Driver/Src/stm32wlxx_hal_dma.c **** 
 823              		.loc 1 479 5 view .LVU283
 482:Drivers/STM32WLxx_HAL_Driver/Src/stm32wlxx_hal_dma.c ****   }
 824              		.loc 1 482 5 view .LVU284
 825              	.LVL42:
 482:Drivers/STM32WLxx_HAL_Driver/Src/stm32wlxx_hal_dma.c ****   }
 826              		.loc 1 482 12 is_stmt 0 view .LVU285
 827 0026 0120     		movs	r0, #1
ARM GAS  /var/folders/9y/n02fl3g16gnf7ppy14xghdy80000gn/T//cckqCF9e.s 			page 42


 828              	.LVL43:
 829              	.L51:
 486:Drivers/STM32WLxx_HAL_Driver/Src/stm32wlxx_hal_dma.c **** 
 830              		.loc 1 486 1 view .LVU286
 831 0028 38BD     		pop	{r3, r4, r5, pc}
 832              	.LVL44:
 833              	.L59:
 434:Drivers/STM32WLxx_HAL_Driver/Src/stm32wlxx_hal_dma.c ****     hdma->ErrorCode = HAL_DMA_ERROR_NONE;
 834              		.loc 1 434 5 is_stmt 1 view .LVU287
 434:Drivers/STM32WLxx_HAL_Driver/Src/stm32wlxx_hal_dma.c ****     hdma->ErrorCode = HAL_DMA_ERROR_NONE;
 835              		.loc 1 434 17 is_stmt 0 view .LVU288
 836 002a 0220     		movs	r0, #2
 837 002c 84F82500 		strb	r0, [r4, #37]
 435:Drivers/STM32WLxx_HAL_Driver/Src/stm32wlxx_hal_dma.c **** 
 838              		.loc 1 435 5 is_stmt 1 view .LVU289
 435:Drivers/STM32WLxx_HAL_Driver/Src/stm32wlxx_hal_dma.c **** 
 839              		.loc 1 435 21 is_stmt 0 view .LVU290
 840 0030 0020     		movs	r0, #0
 841 0032 E063     		str	r0, [r4, #60]
 438:Drivers/STM32WLxx_HAL_Driver/Src/stm32wlxx_hal_dma.c **** 
 842              		.loc 1 438 5 is_stmt 1 view .LVU291
 843 0034 2568     		ldr	r5, [r4]
 844 0036 2868     		ldr	r0, [r5]
 845 0038 20F00100 		bic	r0, r0, #1
 846 003c 2860     		str	r0, [r5]
 441:Drivers/STM32WLxx_HAL_Driver/Src/stm32wlxx_hal_dma.c **** 
 847              		.loc 1 441 5 view .LVU292
 848 003e 2046     		mov	r0, r4
 849 0040 FFF7FEFF 		bl	DMA_SetConfig
 850              	.LVL45:
 445:Drivers/STM32WLxx_HAL_Driver/Src/stm32wlxx_hal_dma.c ****     {
 851              		.loc 1 445 5 view .LVU293
 445:Drivers/STM32WLxx_HAL_Driver/Src/stm32wlxx_hal_dma.c ****     {
 852              		.loc 1 445 21 is_stmt 0 view .LVU294
 853 0044 236B     		ldr	r3, [r4, #48]
 445:Drivers/STM32WLxx_HAL_Driver/Src/stm32wlxx_hal_dma.c ****     {
 854              		.loc 1 445 8 view .LVU295
 855 0046 D3B1     		cbz	r3, .L53
 448:Drivers/STM32WLxx_HAL_Driver/Src/stm32wlxx_hal_dma.c ****     }
 856              		.loc 1 448 7 is_stmt 1 view .LVU296
 857 0048 2268     		ldr	r2, [r4]
 858 004a 1368     		ldr	r3, [r2]
 859 004c 43F00E03 		orr	r3, r3, #14
 860 0050 1360     		str	r3, [r2]
 861              	.L54:
 457:Drivers/STM32WLxx_HAL_Driver/Src/stm32wlxx_hal_dma.c ****     {
 862              		.loc 1 457 5 view .LVU297
 457:Drivers/STM32WLxx_HAL_Driver/Src/stm32wlxx_hal_dma.c ****     {
 863              		.loc 1 457 14 is_stmt 0 view .LVU298
 864 0052 A36C     		ldr	r3, [r4, #72]
 457:Drivers/STM32WLxx_HAL_Driver/Src/stm32wlxx_hal_dma.c ****     {
 865              		.loc 1 457 29 view .LVU299
 866 0054 1A68     		ldr	r2, [r3]
 457:Drivers/STM32WLxx_HAL_Driver/Src/stm32wlxx_hal_dma.c ****     {
 867              		.loc 1 457 8 view .LVU300
 868 0056 12F4803F 		tst	r2, #65536
 869 005a 03D0     		beq	.L55
ARM GAS  /var/folders/9y/n02fl3g16gnf7ppy14xghdy80000gn/T//cckqCF9e.s 			page 43


 460:Drivers/STM32WLxx_HAL_Driver/Src/stm32wlxx_hal_dma.c ****     }
 870              		.loc 1 460 7 is_stmt 1 view .LVU301
 460:Drivers/STM32WLxx_HAL_Driver/Src/stm32wlxx_hal_dma.c ****     }
 871              		.loc 1 460 32 is_stmt 0 view .LVU302
 872 005c 1A68     		ldr	r2, [r3]
 873 005e 42F48072 		orr	r2, r2, #256
 874 0062 1A60     		str	r2, [r3]
 875              	.L55:
 463:Drivers/STM32WLxx_HAL_Driver/Src/stm32wlxx_hal_dma.c ****     {
 876              		.loc 1 463 5 is_stmt 1 view .LVU303
 463:Drivers/STM32WLxx_HAL_Driver/Src/stm32wlxx_hal_dma.c ****     {
 877              		.loc 1 463 13 is_stmt 0 view .LVU304
 878 0064 636D     		ldr	r3, [r4, #84]
 463:Drivers/STM32WLxx_HAL_Driver/Src/stm32wlxx_hal_dma.c ****     {
 879              		.loc 1 463 8 view .LVU305
 880 0066 1BB1     		cbz	r3, .L56
 467:Drivers/STM32WLxx_HAL_Driver/Src/stm32wlxx_hal_dma.c ****     }
 881              		.loc 1 467 7 is_stmt 1 view .LVU306
 467:Drivers/STM32WLxx_HAL_Driver/Src/stm32wlxx_hal_dma.c ****     }
 882              		.loc 1 467 36 is_stmt 0 view .LVU307
 883 0068 1A68     		ldr	r2, [r3]
 884 006a 42F48072 		orr	r2, r2, #256
 885 006e 1A60     		str	r2, [r3]
 886              	.L56:
 471:Drivers/STM32WLxx_HAL_Driver/Src/stm32wlxx_hal_dma.c ****   }
 887              		.loc 1 471 5 is_stmt 1 view .LVU308
 888 0070 2268     		ldr	r2, [r4]
 889 0072 1368     		ldr	r3, [r2]
 890 0074 43F00103 		orr	r3, r3, #1
 891 0078 1360     		str	r3, [r2]
 423:Drivers/STM32WLxx_HAL_Driver/Src/stm32wlxx_hal_dma.c **** 
 892              		.loc 1 423 21 is_stmt 0 view .LVU309
 893 007a 0020     		movs	r0, #0
 894 007c D4E7     		b	.L51
 895              	.L53:
 452:Drivers/STM32WLxx_HAL_Driver/Src/stm32wlxx_hal_dma.c ****       __HAL_DMA_ENABLE_IT(hdma, (DMA_IT_TC | DMA_IT_TE));
 896              		.loc 1 452 7 is_stmt 1 view .LVU310
 897 007e 2268     		ldr	r2, [r4]
 898 0080 1368     		ldr	r3, [r2]
 899 0082 23F00403 		bic	r3, r3, #4
 900 0086 1360     		str	r3, [r2]
 453:Drivers/STM32WLxx_HAL_Driver/Src/stm32wlxx_hal_dma.c ****     }
 901              		.loc 1 453 7 view .LVU311
 902 0088 2268     		ldr	r2, [r4]
 903 008a 1368     		ldr	r3, [r2]
 904 008c 43F00A03 		orr	r3, r3, #10
 905 0090 1360     		str	r3, [r2]
 906 0092 DEE7     		b	.L54
 907              	.LVL46:
 908              	.L57:
 429:Drivers/STM32WLxx_HAL_Driver/Src/stm32wlxx_hal_dma.c **** 
 909              		.loc 1 429 3 is_stmt 0 view .LVU312
 910 0094 0220     		movs	r0, #2
 911 0096 C7E7     		b	.L51
 912              		.cfi_endproc
 913              	.LFE847:
 915              		.section	.text.HAL_DMA_Abort,"ax",%progbits
ARM GAS  /var/folders/9y/n02fl3g16gnf7ppy14xghdy80000gn/T//cckqCF9e.s 			page 44


 916              		.align	1
 917              		.global	HAL_DMA_Abort
 918              		.syntax unified
 919              		.thumb
 920              		.thumb_func
 921              		.fpu softvfp
 923              	HAL_DMA_Abort:
 924              	.LVL47:
 925              	.LFB848:
 495:Drivers/STM32WLxx_HAL_Driver/Src/stm32wlxx_hal_dma.c ****   /* Check the DMA peripheral handle */
 926              		.loc 1 495 1 is_stmt 1 view -0
 927              		.cfi_startproc
 928              		@ args = 0, pretend = 0, frame = 0
 929              		@ frame_needed = 0, uses_anonymous_args = 0
 930              		@ link register save eliminated.
 497:Drivers/STM32WLxx_HAL_Driver/Src/stm32wlxx_hal_dma.c ****   {
 931              		.loc 1 497 3 view .LVU314
 497:Drivers/STM32WLxx_HAL_Driver/Src/stm32wlxx_hal_dma.c ****   {
 932              		.loc 1 497 6 is_stmt 0 view .LVU315
 933 0000 0346     		mov	r3, r0
 934 0002 0028     		cmp	r0, #0
 935 0004 34D0     		beq	.L64
 503:Drivers/STM32WLxx_HAL_Driver/Src/stm32wlxx_hal_dma.c ****   {
 936              		.loc 1 503 3 is_stmt 1 view .LVU316
 503:Drivers/STM32WLxx_HAL_Driver/Src/stm32wlxx_hal_dma.c ****   {
 937              		.loc 1 503 11 is_stmt 0 view .LVU317
 938 0006 90F82520 		ldrb	r2, [r0, #37]	@ zero_extendqisi2
 939 000a D2B2     		uxtb	r2, r2
 503:Drivers/STM32WLxx_HAL_Driver/Src/stm32wlxx_hal_dma.c ****   {
 940              		.loc 1 503 6 view .LVU318
 941 000c 022A     		cmp	r2, #2
 942 000e 06D0     		beq	.L62
 505:Drivers/STM32WLxx_HAL_Driver/Src/stm32wlxx_hal_dma.c **** 
 943              		.loc 1 505 5 is_stmt 1 view .LVU319
 505:Drivers/STM32WLxx_HAL_Driver/Src/stm32wlxx_hal_dma.c **** 
 944              		.loc 1 505 21 is_stmt 0 view .LVU320
 945 0010 0422     		movs	r2, #4
 946 0012 C263     		str	r2, [r0, #60]
 508:Drivers/STM32WLxx_HAL_Driver/Src/stm32wlxx_hal_dma.c **** 
 947              		.loc 1 508 5 is_stmt 1 view .LVU321
 508:Drivers/STM32WLxx_HAL_Driver/Src/stm32wlxx_hal_dma.c **** 
 948              		.loc 1 508 5 view .LVU322
 949 0014 0022     		movs	r2, #0
 950 0016 80F82420 		strb	r2, [r0, #36]
 508:Drivers/STM32WLxx_HAL_Driver/Src/stm32wlxx_hal_dma.c **** 
 951              		.loc 1 508 5 view .LVU323
 510:Drivers/STM32WLxx_HAL_Driver/Src/stm32wlxx_hal_dma.c ****   }
 952              		.loc 1 510 5 view .LVU324
 510:Drivers/STM32WLxx_HAL_Driver/Src/stm32wlxx_hal_dma.c ****   }
 953              		.loc 1 510 12 is_stmt 0 view .LVU325
 954 001a 0120     		movs	r0, #1
 955              	.LVL48:
 510:Drivers/STM32WLxx_HAL_Driver/Src/stm32wlxx_hal_dma.c ****   }
 956              		.loc 1 510 12 view .LVU326
 957 001c 7047     		bx	lr
 958              	.LVL49:
 959              	.L62:
ARM GAS  /var/folders/9y/n02fl3g16gnf7ppy14xghdy80000gn/T//cckqCF9e.s 			page 45


 515:Drivers/STM32WLxx_HAL_Driver/Src/stm32wlxx_hal_dma.c **** 
 960              		.loc 1 515 5 is_stmt 1 view .LVU327
 961 001e 0168     		ldr	r1, [r0]
 962 0020 0A68     		ldr	r2, [r1]
 963 0022 22F00E02 		bic	r2, r2, #14
 964 0026 0A60     		str	r2, [r1]
 518:Drivers/STM32WLxx_HAL_Driver/Src/stm32wlxx_hal_dma.c **** 
 965              		.loc 1 518 5 view .LVU328
 518:Drivers/STM32WLxx_HAL_Driver/Src/stm32wlxx_hal_dma.c **** 
 966              		.loc 1 518 9 is_stmt 0 view .LVU329
 967 0028 816C     		ldr	r1, [r0, #72]
 518:Drivers/STM32WLxx_HAL_Driver/Src/stm32wlxx_hal_dma.c **** 
 968              		.loc 1 518 30 view .LVU330
 969 002a 0A68     		ldr	r2, [r1]
 970 002c 22F48072 		bic	r2, r2, #256
 971 0030 0A60     		str	r2, [r1]
 521:Drivers/STM32WLxx_HAL_Driver/Src/stm32wlxx_hal_dma.c **** 
 972              		.loc 1 521 5 is_stmt 1 view .LVU331
 973 0032 0168     		ldr	r1, [r0]
 974 0034 0A68     		ldr	r2, [r1]
 975 0036 22F00102 		bic	r2, r2, #1
 976 003a 0A60     		str	r2, [r1]
 524:Drivers/STM32WLxx_HAL_Driver/Src/stm32wlxx_hal_dma.c **** 
 977              		.loc 1 524 5 view .LVU332
 524:Drivers/STM32WLxx_HAL_Driver/Src/stm32wlxx_hal_dma.c **** 
 978              		.loc 1 524 56 is_stmt 0 view .LVU333
 979 003c 426C     		ldr	r2, [r0, #68]
 524:Drivers/STM32WLxx_HAL_Driver/Src/stm32wlxx_hal_dma.c **** 
 980              		.loc 1 524 71 view .LVU334
 981 003e 02F01C01 		and	r1, r2, #28
 524:Drivers/STM32WLxx_HAL_Driver/Src/stm32wlxx_hal_dma.c **** 
 982              		.loc 1 524 9 view .LVU335
 983 0042 006C     		ldr	r0, [r0, #64]
 984              	.LVL50:
 524:Drivers/STM32WLxx_HAL_Driver/Src/stm32wlxx_hal_dma.c **** 
 985              		.loc 1 524 48 view .LVU336
 986 0044 0122     		movs	r2, #1
 987 0046 8A40     		lsls	r2, r2, r1
 524:Drivers/STM32WLxx_HAL_Driver/Src/stm32wlxx_hal_dma.c **** 
 988              		.loc 1 524 32 view .LVU337
 989 0048 4260     		str	r2, [r0, #4]
 527:Drivers/STM32WLxx_HAL_Driver/Src/stm32wlxx_hal_dma.c **** 
 990              		.loc 1 527 5 is_stmt 1 view .LVU338
 527:Drivers/STM32WLxx_HAL_Driver/Src/stm32wlxx_hal_dma.c **** 
 991              		.loc 1 527 9 is_stmt 0 view .LVU339
 992 004a DA6C     		ldr	r2, [r3, #76]
 527:Drivers/STM32WLxx_HAL_Driver/Src/stm32wlxx_hal_dma.c **** 
 993              		.loc 1 527 42 view .LVU340
 994 004c 196D     		ldr	r1, [r3, #80]
 527:Drivers/STM32WLxx_HAL_Driver/Src/stm32wlxx_hal_dma.c **** 
 995              		.loc 1 527 36 view .LVU341
 996 004e 5160     		str	r1, [r2, #4]
 529:Drivers/STM32WLxx_HAL_Driver/Src/stm32wlxx_hal_dma.c ****     {
 997              		.loc 1 529 5 is_stmt 1 view .LVU342
 529:Drivers/STM32WLxx_HAL_Driver/Src/stm32wlxx_hal_dma.c ****     {
 998              		.loc 1 529 13 is_stmt 0 view .LVU343
 999 0050 5A6D     		ldr	r2, [r3, #84]
ARM GAS  /var/folders/9y/n02fl3g16gnf7ppy14xghdy80000gn/T//cckqCF9e.s 			page 46


 529:Drivers/STM32WLxx_HAL_Driver/Src/stm32wlxx_hal_dma.c ****     {
 1000              		.loc 1 529 8 view .LVU344
 1001 0052 32B1     		cbz	r2, .L63
 533:Drivers/STM32WLxx_HAL_Driver/Src/stm32wlxx_hal_dma.c **** 
 1002              		.loc 1 533 7 is_stmt 1 view .LVU345
 533:Drivers/STM32WLxx_HAL_Driver/Src/stm32wlxx_hal_dma.c **** 
 1003              		.loc 1 533 36 is_stmt 0 view .LVU346
 1004 0054 1168     		ldr	r1, [r2]
 1005 0056 21F48071 		bic	r1, r1, #256
 1006 005a 1160     		str	r1, [r2]
 536:Drivers/STM32WLxx_HAL_Driver/Src/stm32wlxx_hal_dma.c ****     }
 1007              		.loc 1 536 7 is_stmt 1 view .LVU347
 536:Drivers/STM32WLxx_HAL_Driver/Src/stm32wlxx_hal_dma.c ****     }
 1008              		.loc 1 536 11 is_stmt 0 view .LVU348
 1009 005c 9A6D     		ldr	r2, [r3, #88]
 536:Drivers/STM32WLxx_HAL_Driver/Src/stm32wlxx_hal_dma.c ****     }
 1010              		.loc 1 536 49 view .LVU349
 1011 005e D96D     		ldr	r1, [r3, #92]
 536:Drivers/STM32WLxx_HAL_Driver/Src/stm32wlxx_hal_dma.c ****     }
 1012              		.loc 1 536 43 view .LVU350
 1013 0060 5160     		str	r1, [r2, #4]
 1014              	.L63:
 540:Drivers/STM32WLxx_HAL_Driver/Src/stm32wlxx_hal_dma.c **** 
 1015              		.loc 1 540 5 is_stmt 1 view .LVU351
 540:Drivers/STM32WLxx_HAL_Driver/Src/stm32wlxx_hal_dma.c **** 
 1016              		.loc 1 540 17 is_stmt 0 view .LVU352
 1017 0062 0122     		movs	r2, #1
 1018 0064 83F82520 		strb	r2, [r3, #37]
 543:Drivers/STM32WLxx_HAL_Driver/Src/stm32wlxx_hal_dma.c ****   }
 1019              		.loc 1 543 5 is_stmt 1 view .LVU353
 543:Drivers/STM32WLxx_HAL_Driver/Src/stm32wlxx_hal_dma.c ****   }
 1020              		.loc 1 543 5 view .LVU354
 1021 0068 0020     		movs	r0, #0
 1022 006a 83F82400 		strb	r0, [r3, #36]
 543:Drivers/STM32WLxx_HAL_Driver/Src/stm32wlxx_hal_dma.c ****   }
 1023              		.loc 1 543 5 view .LVU355
 546:Drivers/STM32WLxx_HAL_Driver/Src/stm32wlxx_hal_dma.c **** }
 1024              		.loc 1 546 3 view .LVU356
 546:Drivers/STM32WLxx_HAL_Driver/Src/stm32wlxx_hal_dma.c **** }
 1025              		.loc 1 546 10 is_stmt 0 view .LVU357
 1026 006e 7047     		bx	lr
 1027              	.LVL51:
 1028              	.L64:
 499:Drivers/STM32WLxx_HAL_Driver/Src/stm32wlxx_hal_dma.c ****   }
 1029              		.loc 1 499 12 view .LVU358
 1030 0070 0120     		movs	r0, #1
 1031              	.LVL52:
 547:Drivers/STM32WLxx_HAL_Driver/Src/stm32wlxx_hal_dma.c **** 
 1032              		.loc 1 547 1 view .LVU359
 1033 0072 7047     		bx	lr
 1034              		.cfi_endproc
 1035              	.LFE848:
 1037              		.section	.text.HAL_DMA_Abort_IT,"ax",%progbits
 1038              		.align	1
 1039              		.global	HAL_DMA_Abort_IT
 1040              		.syntax unified
 1041              		.thumb
ARM GAS  /var/folders/9y/n02fl3g16gnf7ppy14xghdy80000gn/T//cckqCF9e.s 			page 47


 1042              		.thumb_func
 1043              		.fpu softvfp
 1045              	HAL_DMA_Abort_IT:
 1046              	.LVL53:
 1047              	.LFB849:
 556:Drivers/STM32WLxx_HAL_Driver/Src/stm32wlxx_hal_dma.c ****   HAL_StatusTypeDef status = HAL_OK;
 1048              		.loc 1 556 1 is_stmt 1 view -0
 1049              		.cfi_startproc
 1050              		@ args = 0, pretend = 0, frame = 0
 1051              		@ frame_needed = 0, uses_anonymous_args = 0
 556:Drivers/STM32WLxx_HAL_Driver/Src/stm32wlxx_hal_dma.c ****   HAL_StatusTypeDef status = HAL_OK;
 1052              		.loc 1 556 1 is_stmt 0 view .LVU361
 1053 0000 08B5     		push	{r3, lr}
 1054              		.cfi_def_cfa_offset 8
 1055              		.cfi_offset 3, -8
 1056              		.cfi_offset 14, -4
 557:Drivers/STM32WLxx_HAL_Driver/Src/stm32wlxx_hal_dma.c **** 
 1057              		.loc 1 557 3 is_stmt 1 view .LVU362
 1058              	.LVL54:
 559:Drivers/STM32WLxx_HAL_Driver/Src/stm32wlxx_hal_dma.c ****   {
 1059              		.loc 1 559 3 view .LVU363
 559:Drivers/STM32WLxx_HAL_Driver/Src/stm32wlxx_hal_dma.c ****   {
 1060              		.loc 1 559 11 is_stmt 0 view .LVU364
 1061 0002 90F82530 		ldrb	r3, [r0, #37]	@ zero_extendqisi2
 1062 0006 DBB2     		uxtb	r3, r3
 559:Drivers/STM32WLxx_HAL_Driver/Src/stm32wlxx_hal_dma.c ****   {
 1063              		.loc 1 559 6 view .LVU365
 1064 0008 022B     		cmp	r3, #2
 1065 000a 03D0     		beq	.L66
 562:Drivers/STM32WLxx_HAL_Driver/Src/stm32wlxx_hal_dma.c **** 
 1066              		.loc 1 562 5 is_stmt 1 view .LVU366
 562:Drivers/STM32WLxx_HAL_Driver/Src/stm32wlxx_hal_dma.c **** 
 1067              		.loc 1 562 21 is_stmt 0 view .LVU367
 1068 000c 0423     		movs	r3, #4
 1069 000e C363     		str	r3, [r0, #60]
 564:Drivers/STM32WLxx_HAL_Driver/Src/stm32wlxx_hal_dma.c ****   }
 1070              		.loc 1 564 5 is_stmt 1 view .LVU368
 1071              	.LVL55:
 564:Drivers/STM32WLxx_HAL_Driver/Src/stm32wlxx_hal_dma.c ****   }
 1072              		.loc 1 564 12 is_stmt 0 view .LVU369
 1073 0010 0120     		movs	r0, #1
 1074              	.LVL56:
 1075              	.L67:
 605:Drivers/STM32WLxx_HAL_Driver/Src/stm32wlxx_hal_dma.c **** }
 1076              		.loc 1 605 3 is_stmt 1 view .LVU370
 606:Drivers/STM32WLxx_HAL_Driver/Src/stm32wlxx_hal_dma.c **** 
 1077              		.loc 1 606 1 is_stmt 0 view .LVU371
 1078 0012 08BD     		pop	{r3, pc}
 1079              	.LVL57:
 1080              	.L66:
 569:Drivers/STM32WLxx_HAL_Driver/Src/stm32wlxx_hal_dma.c **** 
 1081              		.loc 1 569 5 is_stmt 1 view .LVU372
 1082 0014 0268     		ldr	r2, [r0]
 1083 0016 1368     		ldr	r3, [r2]
 1084 0018 23F00E03 		bic	r3, r3, #14
 1085 001c 1360     		str	r3, [r2]
 572:Drivers/STM32WLxx_HAL_Driver/Src/stm32wlxx_hal_dma.c **** 
ARM GAS  /var/folders/9y/n02fl3g16gnf7ppy14xghdy80000gn/T//cckqCF9e.s 			page 48


 1086              		.loc 1 572 5 view .LVU373
 1087 001e 0268     		ldr	r2, [r0]
 1088 0020 1368     		ldr	r3, [r2]
 1089 0022 23F00103 		bic	r3, r3, #1
 1090 0026 1360     		str	r3, [r2]
 575:Drivers/STM32WLxx_HAL_Driver/Src/stm32wlxx_hal_dma.c **** 
 1091              		.loc 1 575 5 view .LVU374
 575:Drivers/STM32WLxx_HAL_Driver/Src/stm32wlxx_hal_dma.c **** 
 1092              		.loc 1 575 9 is_stmt 0 view .LVU375
 1093 0028 826C     		ldr	r2, [r0, #72]
 575:Drivers/STM32WLxx_HAL_Driver/Src/stm32wlxx_hal_dma.c **** 
 1094              		.loc 1 575 30 view .LVU376
 1095 002a 1368     		ldr	r3, [r2]
 1096 002c 23F48073 		bic	r3, r3, #256
 1097 0030 1360     		str	r3, [r2]
 578:Drivers/STM32WLxx_HAL_Driver/Src/stm32wlxx_hal_dma.c **** 
 1098              		.loc 1 578 5 is_stmt 1 view .LVU377
 578:Drivers/STM32WLxx_HAL_Driver/Src/stm32wlxx_hal_dma.c **** 
 1099              		.loc 1 578 56 is_stmt 0 view .LVU378
 1100 0032 436C     		ldr	r3, [r0, #68]
 578:Drivers/STM32WLxx_HAL_Driver/Src/stm32wlxx_hal_dma.c **** 
 1101              		.loc 1 578 71 view .LVU379
 1102 0034 03F01C02 		and	r2, r3, #28
 578:Drivers/STM32WLxx_HAL_Driver/Src/stm32wlxx_hal_dma.c **** 
 1103              		.loc 1 578 9 view .LVU380
 1104 0038 016C     		ldr	r1, [r0, #64]
 578:Drivers/STM32WLxx_HAL_Driver/Src/stm32wlxx_hal_dma.c **** 
 1105              		.loc 1 578 48 view .LVU381
 1106 003a 0123     		movs	r3, #1
 1107 003c 9340     		lsls	r3, r3, r2
 578:Drivers/STM32WLxx_HAL_Driver/Src/stm32wlxx_hal_dma.c **** 
 1108              		.loc 1 578 32 view .LVU382
 1109 003e 4B60     		str	r3, [r1, #4]
 581:Drivers/STM32WLxx_HAL_Driver/Src/stm32wlxx_hal_dma.c **** 
 1110              		.loc 1 581 5 is_stmt 1 view .LVU383
 581:Drivers/STM32WLxx_HAL_Driver/Src/stm32wlxx_hal_dma.c **** 
 1111              		.loc 1 581 9 is_stmt 0 view .LVU384
 1112 0040 C36C     		ldr	r3, [r0, #76]
 581:Drivers/STM32WLxx_HAL_Driver/Src/stm32wlxx_hal_dma.c **** 
 1113              		.loc 1 581 42 view .LVU385
 1114 0042 026D     		ldr	r2, [r0, #80]
 581:Drivers/STM32WLxx_HAL_Driver/Src/stm32wlxx_hal_dma.c **** 
 1115              		.loc 1 581 36 view .LVU386
 1116 0044 5A60     		str	r2, [r3, #4]
 583:Drivers/STM32WLxx_HAL_Driver/Src/stm32wlxx_hal_dma.c ****     {
 1117              		.loc 1 583 5 is_stmt 1 view .LVU387
 583:Drivers/STM32WLxx_HAL_Driver/Src/stm32wlxx_hal_dma.c ****     {
 1118              		.loc 1 583 13 is_stmt 0 view .LVU388
 1119 0046 436D     		ldr	r3, [r0, #84]
 583:Drivers/STM32WLxx_HAL_Driver/Src/stm32wlxx_hal_dma.c ****     {
 1120              		.loc 1 583 8 view .LVU389
 1121 0048 33B1     		cbz	r3, .L68
 587:Drivers/STM32WLxx_HAL_Driver/Src/stm32wlxx_hal_dma.c **** 
 1122              		.loc 1 587 7 is_stmt 1 view .LVU390
 587:Drivers/STM32WLxx_HAL_Driver/Src/stm32wlxx_hal_dma.c **** 
 1123              		.loc 1 587 36 is_stmt 0 view .LVU391
 1124 004a 1A68     		ldr	r2, [r3]
ARM GAS  /var/folders/9y/n02fl3g16gnf7ppy14xghdy80000gn/T//cckqCF9e.s 			page 49


 1125 004c 22F48072 		bic	r2, r2, #256
 1126 0050 1A60     		str	r2, [r3]
 590:Drivers/STM32WLxx_HAL_Driver/Src/stm32wlxx_hal_dma.c ****     }
 1127              		.loc 1 590 7 is_stmt 1 view .LVU392
 590:Drivers/STM32WLxx_HAL_Driver/Src/stm32wlxx_hal_dma.c ****     }
 1128              		.loc 1 590 11 is_stmt 0 view .LVU393
 1129 0052 836D     		ldr	r3, [r0, #88]
 590:Drivers/STM32WLxx_HAL_Driver/Src/stm32wlxx_hal_dma.c ****     }
 1130              		.loc 1 590 49 view .LVU394
 1131 0054 C26D     		ldr	r2, [r0, #92]
 590:Drivers/STM32WLxx_HAL_Driver/Src/stm32wlxx_hal_dma.c ****     }
 1132              		.loc 1 590 43 view .LVU395
 1133 0056 5A60     		str	r2, [r3, #4]
 1134              	.L68:
 594:Drivers/STM32WLxx_HAL_Driver/Src/stm32wlxx_hal_dma.c **** 
 1135              		.loc 1 594 5 is_stmt 1 view .LVU396
 594:Drivers/STM32WLxx_HAL_Driver/Src/stm32wlxx_hal_dma.c **** 
 1136              		.loc 1 594 17 is_stmt 0 view .LVU397
 1137 0058 0123     		movs	r3, #1
 1138 005a 80F82530 		strb	r3, [r0, #37]
 597:Drivers/STM32WLxx_HAL_Driver/Src/stm32wlxx_hal_dma.c **** 
 1139              		.loc 1 597 5 is_stmt 1 view .LVU398
 597:Drivers/STM32WLxx_HAL_Driver/Src/stm32wlxx_hal_dma.c **** 
 1140              		.loc 1 597 5 view .LVU399
 1141 005e 0023     		movs	r3, #0
 1142 0060 80F82430 		strb	r3, [r0, #36]
 597:Drivers/STM32WLxx_HAL_Driver/Src/stm32wlxx_hal_dma.c **** 
 1143              		.loc 1 597 5 view .LVU400
 600:Drivers/STM32WLxx_HAL_Driver/Src/stm32wlxx_hal_dma.c ****     {
 1144              		.loc 1 600 5 view .LVU401
 600:Drivers/STM32WLxx_HAL_Driver/Src/stm32wlxx_hal_dma.c ****     {
 1145              		.loc 1 600 13 is_stmt 0 view .LVU402
 1146 0064 836B     		ldr	r3, [r0, #56]
 600:Drivers/STM32WLxx_HAL_Driver/Src/stm32wlxx_hal_dma.c ****     {
 1147              		.loc 1 600 8 view .LVU403
 1148 0066 13B1     		cbz	r3, .L69
 602:Drivers/STM32WLxx_HAL_Driver/Src/stm32wlxx_hal_dma.c ****     }
 1149              		.loc 1 602 7 is_stmt 1 view .LVU404
 1150 0068 9847     		blx	r3
 1151              	.LVL58:
 557:Drivers/STM32WLxx_HAL_Driver/Src/stm32wlxx_hal_dma.c **** 
 1152              		.loc 1 557 21 is_stmt 0 view .LVU405
 1153 006a 0020     		movs	r0, #0
 1154 006c D1E7     		b	.L67
 1155              	.LVL59:
 1156              	.L69:
 557:Drivers/STM32WLxx_HAL_Driver/Src/stm32wlxx_hal_dma.c **** 
 1157              		.loc 1 557 21 view .LVU406
 1158 006e 0020     		movs	r0, #0
 1159              	.LVL60:
 557:Drivers/STM32WLxx_HAL_Driver/Src/stm32wlxx_hal_dma.c **** 
 1160              		.loc 1 557 21 view .LVU407
 1161 0070 CFE7     		b	.L67
 1162              		.cfi_endproc
 1163              	.LFE849:
 1165              		.section	.text.HAL_DMA_PollForTransfer,"ax",%progbits
 1166              		.align	1
ARM GAS  /var/folders/9y/n02fl3g16gnf7ppy14xghdy80000gn/T//cckqCF9e.s 			page 50


 1167              		.global	HAL_DMA_PollForTransfer
 1168              		.syntax unified
 1169              		.thumb
 1170              		.thumb_func
 1171              		.fpu softvfp
 1173              	HAL_DMA_PollForTransfer:
 1174              	.LVL61:
 1175              	.LFB850:
 617:Drivers/STM32WLxx_HAL_Driver/Src/stm32wlxx_hal_dma.c ****   uint32_t temp;
 1176              		.loc 1 617 1 is_stmt 1 view -0
 1177              		.cfi_startproc
 1178              		@ args = 0, pretend = 0, frame = 0
 1179              		@ frame_needed = 0, uses_anonymous_args = 0
 617:Drivers/STM32WLxx_HAL_Driver/Src/stm32wlxx_hal_dma.c ****   uint32_t temp;
 1180              		.loc 1 617 1 is_stmt 0 view .LVU409
 1181 0000 2DE9F041 		push	{r4, r5, r6, r7, r8, lr}
 1182              		.cfi_def_cfa_offset 24
 1183              		.cfi_offset 4, -24
 1184              		.cfi_offset 5, -20
 1185              		.cfi_offset 6, -16
 1186              		.cfi_offset 7, -12
 1187              		.cfi_offset 8, -8
 1188              		.cfi_offset 14, -4
 1189 0004 0446     		mov	r4, r0
 618:Drivers/STM32WLxx_HAL_Driver/Src/stm32wlxx_hal_dma.c ****   uint32_t tickstart;
 1190              		.loc 1 618 3 is_stmt 1 view .LVU410
 619:Drivers/STM32WLxx_HAL_Driver/Src/stm32wlxx_hal_dma.c **** 
 1191              		.loc 1 619 3 view .LVU411
 621:Drivers/STM32WLxx_HAL_Driver/Src/stm32wlxx_hal_dma.c ****   {
 1192              		.loc 1 621 3 view .LVU412
 621:Drivers/STM32WLxx_HAL_Driver/Src/stm32wlxx_hal_dma.c ****   {
 1193              		.loc 1 621 11 is_stmt 0 view .LVU413
 1194 0006 90F82530 		ldrb	r3, [r0, #37]	@ zero_extendqisi2
 1195 000a DBB2     		uxtb	r3, r3
 621:Drivers/STM32WLxx_HAL_Driver/Src/stm32wlxx_hal_dma.c ****   {
 1196              		.loc 1 621 6 view .LVU414
 1197 000c 022B     		cmp	r3, #2
 1198 000e 07D0     		beq	.L72
 624:Drivers/STM32WLxx_HAL_Driver/Src/stm32wlxx_hal_dma.c ****     __HAL_UNLOCK(hdma);
 1199              		.loc 1 624 5 is_stmt 1 view .LVU415
 624:Drivers/STM32WLxx_HAL_Driver/Src/stm32wlxx_hal_dma.c ****     __HAL_UNLOCK(hdma);
 1200              		.loc 1 624 21 is_stmt 0 view .LVU416
 1201 0010 0423     		movs	r3, #4
 1202 0012 C363     		str	r3, [r0, #60]
 625:Drivers/STM32WLxx_HAL_Driver/Src/stm32wlxx_hal_dma.c ****     return HAL_ERROR;
 1203              		.loc 1 625 5 is_stmt 1 view .LVU417
 625:Drivers/STM32WLxx_HAL_Driver/Src/stm32wlxx_hal_dma.c ****     return HAL_ERROR;
 1204              		.loc 1 625 5 view .LVU418
 1205 0014 0023     		movs	r3, #0
 1206 0016 80F82430 		strb	r3, [r0, #36]
 625:Drivers/STM32WLxx_HAL_Driver/Src/stm32wlxx_hal_dma.c ****     return HAL_ERROR;
 1207              		.loc 1 625 5 view .LVU419
 626:Drivers/STM32WLxx_HAL_Driver/Src/stm32wlxx_hal_dma.c ****   }
 1208              		.loc 1 626 5 view .LVU420
 626:Drivers/STM32WLxx_HAL_Driver/Src/stm32wlxx_hal_dma.c ****   }
 1209              		.loc 1 626 12 is_stmt 0 view .LVU421
 1210 001a 0120     		movs	r0, #1
ARM GAS  /var/folders/9y/n02fl3g16gnf7ppy14xghdy80000gn/T//cckqCF9e.s 			page 51


 1211              	.LVL62:
 1212              	.L73:
 736:Drivers/STM32WLxx_HAL_Driver/Src/stm32wlxx_hal_dma.c **** 
 1213              		.loc 1 736 1 view .LVU422
 1214 001c BDE8F081 		pop	{r4, r5, r6, r7, r8, pc}
 1215              	.LVL63:
 1216              	.L72:
 736:Drivers/STM32WLxx_HAL_Driver/Src/stm32wlxx_hal_dma.c **** 
 1217              		.loc 1 736 1 view .LVU423
 1218 0020 0E46     		mov	r6, r1
 1219 0022 1546     		mov	r5, r2
 630:Drivers/STM32WLxx_HAL_Driver/Src/stm32wlxx_hal_dma.c ****   {
 1220              		.loc 1 630 3 is_stmt 1 view .LVU424
 630:Drivers/STM32WLxx_HAL_Driver/Src/stm32wlxx_hal_dma.c ****   {
 1221              		.loc 1 630 12 is_stmt 0 view .LVU425
 1222 0024 0368     		ldr	r3, [r0]
 630:Drivers/STM32WLxx_HAL_Driver/Src/stm32wlxx_hal_dma.c ****   {
 1223              		.loc 1 630 22 view .LVU426
 1224 0026 1B68     		ldr	r3, [r3]
 630:Drivers/STM32WLxx_HAL_Driver/Src/stm32wlxx_hal_dma.c ****   {
 1225              		.loc 1 630 6 view .LVU427
 1226 0028 13F0200F 		tst	r3, #32
 1227 002c 2CD1     		bne	.L86
 637:Drivers/STM32WLxx_HAL_Driver/Src/stm32wlxx_hal_dma.c ****   {
 1228              		.loc 1 637 3 is_stmt 1 view .LVU428
 637:Drivers/STM32WLxx_HAL_Driver/Src/stm32wlxx_hal_dma.c ****   {
 1229              		.loc 1 637 6 is_stmt 0 view .LVU429
 1230 002e 81BB     		cbnz	r1, .L75
 640:Drivers/STM32WLxx_HAL_Driver/Src/stm32wlxx_hal_dma.c ****   }
 1231              		.loc 1 640 5 is_stmt 1 view .LVU430
 640:Drivers/STM32WLxx_HAL_Driver/Src/stm32wlxx_hal_dma.c ****   }
 1232              		.loc 1 640 33 is_stmt 0 view .LVU431
 1233 0030 476C     		ldr	r7, [r0, #68]
 640:Drivers/STM32WLxx_HAL_Driver/Src/stm32wlxx_hal_dma.c ****   }
 1234              		.loc 1 640 48 view .LVU432
 1235 0032 07F01C07 		and	r7, r7, #28
 640:Drivers/STM32WLxx_HAL_Driver/Src/stm32wlxx_hal_dma.c ****   }
 1236              		.loc 1 640 10 view .LVU433
 1237 0036 0223     		movs	r3, #2
 1238 0038 03FA07F7 		lsl	r7, r3, r7
 1239              	.LVL64:
 1240              	.L76:
 649:Drivers/STM32WLxx_HAL_Driver/Src/stm32wlxx_hal_dma.c **** 
 1241              		.loc 1 649 3 is_stmt 1 view .LVU434
 649:Drivers/STM32WLxx_HAL_Driver/Src/stm32wlxx_hal_dma.c **** 
 1242              		.loc 1 649 15 is_stmt 0 view .LVU435
 1243 003c FFF7FEFF 		bl	HAL_GetTick
 1244              	.LVL65:
 649:Drivers/STM32WLxx_HAL_Driver/Src/stm32wlxx_hal_dma.c **** 
 1245              		.loc 1 649 15 view .LVU436
 1246 0040 8046     		mov	r8, r0
 1247              	.LVL66:
 651:Drivers/STM32WLxx_HAL_Driver/Src/stm32wlxx_hal_dma.c ****   {
 1248              		.loc 1 651 3 is_stmt 1 view .LVU437
 1249              	.L79:
 651:Drivers/STM32WLxx_HAL_Driver/Src/stm32wlxx_hal_dma.c ****   {
 1250              		.loc 1 651 9 view .LVU438
ARM GAS  /var/folders/9y/n02fl3g16gnf7ppy14xghdy80000gn/T//cckqCF9e.s 			page 52


 651:Drivers/STM32WLxx_HAL_Driver/Src/stm32wlxx_hal_dma.c ****   {
 1251              		.loc 1 651 15 is_stmt 0 view .LVU439
 1252 0042 226C     		ldr	r2, [r4, #64]
 651:Drivers/STM32WLxx_HAL_Driver/Src/stm32wlxx_hal_dma.c ****   {
 1253              		.loc 1 651 31 view .LVU440
 1254 0044 1368     		ldr	r3, [r2]
 651:Drivers/STM32WLxx_HAL_Driver/Src/stm32wlxx_hal_dma.c ****   {
 1255              		.loc 1 651 9 view .LVU441
 1256 0046 3B42     		tst	r3, r7
 1257 0048 35D1     		bne	.L87
 653:Drivers/STM32WLxx_HAL_Driver/Src/stm32wlxx_hal_dma.c ****     {
 1258              		.loc 1 653 5 is_stmt 1 view .LVU442
 653:Drivers/STM32WLxx_HAL_Driver/Src/stm32wlxx_hal_dma.c ****     {
 1259              		.loc 1 653 30 is_stmt 0 view .LVU443
 1260 004a 1168     		ldr	r1, [r2]
 653:Drivers/STM32WLxx_HAL_Driver/Src/stm32wlxx_hal_dma.c ****     {
 1261              		.loc 1 653 60 view .LVU444
 1262 004c 636C     		ldr	r3, [r4, #68]
 653:Drivers/STM32WLxx_HAL_Driver/Src/stm32wlxx_hal_dma.c ****     {
 1263              		.loc 1 653 75 view .LVU445
 1264 004e 03F01C03 		and	r3, r3, #28
 653:Drivers/STM32WLxx_HAL_Driver/Src/stm32wlxx_hal_dma.c ****     {
 1265              		.loc 1 653 52 view .LVU446
 1266 0052 4FF0080C 		mov	ip, #8
 1267 0056 0CFA03FC 		lsl	ip, ip, r3
 653:Drivers/STM32WLxx_HAL_Driver/Src/stm32wlxx_hal_dma.c ****     {
 1268              		.loc 1 653 8 view .LVU447
 1269 005a 11EA0C0F 		tst	r1, ip
 1270 005e 1FD1     		bne	.L88
 672:Drivers/STM32WLxx_HAL_Driver/Src/stm32wlxx_hal_dma.c ****     {
 1271              		.loc 1 672 5 is_stmt 1 view .LVU448
 672:Drivers/STM32WLxx_HAL_Driver/Src/stm32wlxx_hal_dma.c ****     {
 1272              		.loc 1 672 8 is_stmt 0 view .LVU449
 1273 0060 B5F1FF3F 		cmp	r5, #-1
 1274 0064 EDD0     		beq	.L79
 674:Drivers/STM32WLxx_HAL_Driver/Src/stm32wlxx_hal_dma.c ****       {
 1275              		.loc 1 674 7 is_stmt 1 view .LVU450
 674:Drivers/STM32WLxx_HAL_Driver/Src/stm32wlxx_hal_dma.c ****       {
 1276              		.loc 1 674 13 is_stmt 0 view .LVU451
 1277 0066 FFF7FEFF 		bl	HAL_GetTick
 1278              	.LVL67:
 674:Drivers/STM32WLxx_HAL_Driver/Src/stm32wlxx_hal_dma.c ****       {
 1279              		.loc 1 674 27 view .LVU452
 1280 006a A0EB0800 		sub	r0, r0, r8
 674:Drivers/STM32WLxx_HAL_Driver/Src/stm32wlxx_hal_dma.c ****       {
 1281              		.loc 1 674 10 view .LVU453
 1282 006e A842     		cmp	r0, r5
 1283 0070 01D8     		bhi	.L80
 674:Drivers/STM32WLxx_HAL_Driver/Src/stm32wlxx_hal_dma.c ****       {
 1284              		.loc 1 674 51 discriminator 1 view .LVU454
 1285 0072 002D     		cmp	r5, #0
 1286 0074 E5D1     		bne	.L79
 1287              	.L80:
 677:Drivers/STM32WLxx_HAL_Driver/Src/stm32wlxx_hal_dma.c **** 
 1288              		.loc 1 677 9 is_stmt 1 view .LVU455
 677:Drivers/STM32WLxx_HAL_Driver/Src/stm32wlxx_hal_dma.c **** 
 1289              		.loc 1 677 25 is_stmt 0 view .LVU456
ARM GAS  /var/folders/9y/n02fl3g16gnf7ppy14xghdy80000gn/T//cckqCF9e.s 			page 53


 1290 0076 2023     		movs	r3, #32
 1291 0078 E363     		str	r3, [r4, #60]
 680:Drivers/STM32WLxx_HAL_Driver/Src/stm32wlxx_hal_dma.c **** 
 1292              		.loc 1 680 9 is_stmt 1 view .LVU457
 680:Drivers/STM32WLxx_HAL_Driver/Src/stm32wlxx_hal_dma.c **** 
 1293              		.loc 1 680 21 is_stmt 0 view .LVU458
 1294 007a 0120     		movs	r0, #1
 1295 007c 84F82500 		strb	r0, [r4, #37]
 683:Drivers/STM32WLxx_HAL_Driver/Src/stm32wlxx_hal_dma.c **** 
 1296              		.loc 1 683 9 is_stmt 1 view .LVU459
 683:Drivers/STM32WLxx_HAL_Driver/Src/stm32wlxx_hal_dma.c **** 
 1297              		.loc 1 683 9 view .LVU460
 1298 0080 0023     		movs	r3, #0
 1299 0082 84F82430 		strb	r3, [r4, #36]
 683:Drivers/STM32WLxx_HAL_Driver/Src/stm32wlxx_hal_dma.c **** 
 1300              		.loc 1 683 9 view .LVU461
 685:Drivers/STM32WLxx_HAL_Driver/Src/stm32wlxx_hal_dma.c ****       }
 1301              		.loc 1 685 9 view .LVU462
 685:Drivers/STM32WLxx_HAL_Driver/Src/stm32wlxx_hal_dma.c ****       }
 1302              		.loc 1 685 16 is_stmt 0 view .LVU463
 1303 0086 C9E7     		b	.L73
 1304              	.LVL68:
 1305              	.L86:
 632:Drivers/STM32WLxx_HAL_Driver/Src/stm32wlxx_hal_dma.c ****     return HAL_ERROR;
 1306              		.loc 1 632 5 is_stmt 1 view .LVU464
 632:Drivers/STM32WLxx_HAL_Driver/Src/stm32wlxx_hal_dma.c ****     return HAL_ERROR;
 1307              		.loc 1 632 21 is_stmt 0 view .LVU465
 1308 0088 4FF48073 		mov	r3, #256
 1309 008c C363     		str	r3, [r0, #60]
 633:Drivers/STM32WLxx_HAL_Driver/Src/stm32wlxx_hal_dma.c ****   }
 1310              		.loc 1 633 5 is_stmt 1 view .LVU466
 633:Drivers/STM32WLxx_HAL_Driver/Src/stm32wlxx_hal_dma.c ****   }
 1311              		.loc 1 633 12 is_stmt 0 view .LVU467
 1312 008e 0120     		movs	r0, #1
 1313              	.LVL69:
 633:Drivers/STM32WLxx_HAL_Driver/Src/stm32wlxx_hal_dma.c ****   }
 1314              		.loc 1 633 12 view .LVU468
 1315 0090 C4E7     		b	.L73
 1316              	.LVL70:
 1317              	.L75:
 645:Drivers/STM32WLxx_HAL_Driver/Src/stm32wlxx_hal_dma.c ****   }
 1318              		.loc 1 645 5 is_stmt 1 view .LVU469
 645:Drivers/STM32WLxx_HAL_Driver/Src/stm32wlxx_hal_dma.c ****   }
 1319              		.loc 1 645 33 is_stmt 0 view .LVU470
 1320 0092 476C     		ldr	r7, [r0, #68]
 645:Drivers/STM32WLxx_HAL_Driver/Src/stm32wlxx_hal_dma.c ****   }
 1321              		.loc 1 645 48 view .LVU471
 1322 0094 07F01C07 		and	r7, r7, #28
 645:Drivers/STM32WLxx_HAL_Driver/Src/stm32wlxx_hal_dma.c ****   }
 1323              		.loc 1 645 10 view .LVU472
 1324 0098 0423     		movs	r3, #4
 1325 009a 03FA07F7 		lsl	r7, r3, r7
 1326              	.LVL71:
 645:Drivers/STM32WLxx_HAL_Driver/Src/stm32wlxx_hal_dma.c ****   }
 1327              		.loc 1 645 10 view .LVU473
 1328 009e CDE7     		b	.L76
 1329              	.LVL72:
ARM GAS  /var/folders/9y/n02fl3g16gnf7ppy14xghdy80000gn/T//cckqCF9e.s 			page 54


 1330              	.L88:
 658:Drivers/STM32WLxx_HAL_Driver/Src/stm32wlxx_hal_dma.c **** 
 1331              		.loc 1 658 7 is_stmt 1 view .LVU474
 658:Drivers/STM32WLxx_HAL_Driver/Src/stm32wlxx_hal_dma.c **** 
 1332              		.loc 1 658 50 is_stmt 0 view .LVU475
 1333 00a0 0120     		movs	r0, #1
 1334 00a2 00FA03F3 		lsl	r3, r0, r3
 658:Drivers/STM32WLxx_HAL_Driver/Src/stm32wlxx_hal_dma.c **** 
 1335              		.loc 1 658 34 view .LVU476
 1336 00a6 5360     		str	r3, [r2, #4]
 661:Drivers/STM32WLxx_HAL_Driver/Src/stm32wlxx_hal_dma.c **** 
 1337              		.loc 1 661 7 is_stmt 1 view .LVU477
 661:Drivers/STM32WLxx_HAL_Driver/Src/stm32wlxx_hal_dma.c **** 
 1338              		.loc 1 661 23 is_stmt 0 view .LVU478
 1339 00a8 E063     		str	r0, [r4, #60]
 664:Drivers/STM32WLxx_HAL_Driver/Src/stm32wlxx_hal_dma.c **** 
 1340              		.loc 1 664 7 is_stmt 1 view .LVU479
 664:Drivers/STM32WLxx_HAL_Driver/Src/stm32wlxx_hal_dma.c **** 
 1341              		.loc 1 664 19 is_stmt 0 view .LVU480
 1342 00aa 84F82500 		strb	r0, [r4, #37]
 667:Drivers/STM32WLxx_HAL_Driver/Src/stm32wlxx_hal_dma.c **** 
 1343              		.loc 1 667 7 is_stmt 1 view .LVU481
 667:Drivers/STM32WLxx_HAL_Driver/Src/stm32wlxx_hal_dma.c **** 
 1344              		.loc 1 667 7 view .LVU482
 1345 00ae 0023     		movs	r3, #0
 1346 00b0 84F82430 		strb	r3, [r4, #36]
 667:Drivers/STM32WLxx_HAL_Driver/Src/stm32wlxx_hal_dma.c **** 
 1347              		.loc 1 667 7 view .LVU483
 669:Drivers/STM32WLxx_HAL_Driver/Src/stm32wlxx_hal_dma.c ****     }
 1348              		.loc 1 669 7 view .LVU484
 669:Drivers/STM32WLxx_HAL_Driver/Src/stm32wlxx_hal_dma.c ****     }
 1349              		.loc 1 669 14 is_stmt 0 view .LVU485
 1350 00b4 B2E7     		b	.L73
 1351              	.L87:
 691:Drivers/STM32WLxx_HAL_Driver/Src/stm32wlxx_hal_dma.c ****   {
 1352              		.loc 1 691 3 is_stmt 1 view .LVU486
 691:Drivers/STM32WLxx_HAL_Driver/Src/stm32wlxx_hal_dma.c ****   {
 1353              		.loc 1 691 11 is_stmt 0 view .LVU487
 1354 00b6 636D     		ldr	r3, [r4, #84]
 691:Drivers/STM32WLxx_HAL_Driver/Src/stm32wlxx_hal_dma.c ****   {
 1355              		.loc 1 691 6 view .LVU488
 1356 00b8 7BB1     		cbz	r3, .L82
 694:Drivers/STM32WLxx_HAL_Driver/Src/stm32wlxx_hal_dma.c ****     {
 1357              		.loc 1 694 5 is_stmt 1 view .LVU489
 694:Drivers/STM32WLxx_HAL_Driver/Src/stm32wlxx_hal_dma.c ****     {
 1358              		.loc 1 694 14 is_stmt 0 view .LVU490
 1359 00ba A26D     		ldr	r2, [r4, #88]
 694:Drivers/STM32WLxx_HAL_Driver/Src/stm32wlxx_hal_dma.c ****     {
 1360              		.loc 1 694 38 view .LVU491
 1361 00bc 1168     		ldr	r1, [r2]
 694:Drivers/STM32WLxx_HAL_Driver/Src/stm32wlxx_hal_dma.c ****     {
 1362              		.loc 1 694 51 view .LVU492
 1363 00be E26D     		ldr	r2, [r4, #92]
 694:Drivers/STM32WLxx_HAL_Driver/Src/stm32wlxx_hal_dma.c ****     {
 1364              		.loc 1 694 8 view .LVU493
 1365 00c0 1142     		tst	r1, r2
 1366 00c2 0AD0     		beq	.L82
ARM GAS  /var/folders/9y/n02fl3g16gnf7ppy14xghdy80000gn/T//cckqCF9e.s 			page 55


 697:Drivers/STM32WLxx_HAL_Driver/Src/stm32wlxx_hal_dma.c **** 
 1367              		.loc 1 697 7 is_stmt 1 view .LVU494
 697:Drivers/STM32WLxx_HAL_Driver/Src/stm32wlxx_hal_dma.c **** 
 1368              		.loc 1 697 36 is_stmt 0 view .LVU495
 1369 00c4 1A68     		ldr	r2, [r3]
 1370 00c6 42F48072 		orr	r2, r2, #256
 1371 00ca 1A60     		str	r2, [r3]
 700:Drivers/STM32WLxx_HAL_Driver/Src/stm32wlxx_hal_dma.c **** 
 1372              		.loc 1 700 7 is_stmt 1 view .LVU496
 700:Drivers/STM32WLxx_HAL_Driver/Src/stm32wlxx_hal_dma.c **** 
 1373              		.loc 1 700 11 is_stmt 0 view .LVU497
 1374 00cc A36D     		ldr	r3, [r4, #88]
 700:Drivers/STM32WLxx_HAL_Driver/Src/stm32wlxx_hal_dma.c **** 
 1375              		.loc 1 700 49 view .LVU498
 1376 00ce E26D     		ldr	r2, [r4, #92]
 700:Drivers/STM32WLxx_HAL_Driver/Src/stm32wlxx_hal_dma.c **** 
 1377              		.loc 1 700 43 view .LVU499
 1378 00d0 5A60     		str	r2, [r3, #4]
 703:Drivers/STM32WLxx_HAL_Driver/Src/stm32wlxx_hal_dma.c ****     }
 1379              		.loc 1 703 7 is_stmt 1 view .LVU500
 703:Drivers/STM32WLxx_HAL_Driver/Src/stm32wlxx_hal_dma.c ****     }
 1380              		.loc 1 703 23 is_stmt 0 view .LVU501
 1381 00d2 E36B     		ldr	r3, [r4, #60]
 1382 00d4 43F48063 		orr	r3, r3, #1024
 1383 00d8 E363     		str	r3, [r4, #60]
 1384              	.L82:
 708:Drivers/STM32WLxx_HAL_Driver/Src/stm32wlxx_hal_dma.c ****   {
 1385              		.loc 1 708 3 is_stmt 1 view .LVU502
 708:Drivers/STM32WLxx_HAL_Driver/Src/stm32wlxx_hal_dma.c ****   {
 1386              		.loc 1 708 12 is_stmt 0 view .LVU503
 1387 00da E36C     		ldr	r3, [r4, #76]
 708:Drivers/STM32WLxx_HAL_Driver/Src/stm32wlxx_hal_dma.c ****   {
 1388              		.loc 1 708 33 view .LVU504
 1389 00dc 1968     		ldr	r1, [r3]
 708:Drivers/STM32WLxx_HAL_Driver/Src/stm32wlxx_hal_dma.c ****   {
 1390              		.loc 1 708 45 view .LVU505
 1391 00de 226D     		ldr	r2, [r4, #80]
 708:Drivers/STM32WLxx_HAL_Driver/Src/stm32wlxx_hal_dma.c ****   {
 1392              		.loc 1 708 6 view .LVU506
 1393 00e0 1142     		tst	r1, r2
 1394 00e2 04D0     		beq	.L83
 711:Drivers/STM32WLxx_HAL_Driver/Src/stm32wlxx_hal_dma.c **** 
 1395              		.loc 1 711 5 is_stmt 1 view .LVU507
 711:Drivers/STM32WLxx_HAL_Driver/Src/stm32wlxx_hal_dma.c **** 
 1396              		.loc 1 711 36 is_stmt 0 view .LVU508
 1397 00e4 5A60     		str	r2, [r3, #4]
 714:Drivers/STM32WLxx_HAL_Driver/Src/stm32wlxx_hal_dma.c ****   }
 1398              		.loc 1 714 5 is_stmt 1 view .LVU509
 714:Drivers/STM32WLxx_HAL_Driver/Src/stm32wlxx_hal_dma.c ****   }
 1399              		.loc 1 714 21 is_stmt 0 view .LVU510
 1400 00e6 E36B     		ldr	r3, [r4, #60]
 1401 00e8 43F40073 		orr	r3, r3, #512
 1402 00ec E363     		str	r3, [r4, #60]
 1403              	.L83:
 717:Drivers/STM32WLxx_HAL_Driver/Src/stm32wlxx_hal_dma.c ****   {
 1404              		.loc 1 717 3 is_stmt 1 view .LVU511
 717:Drivers/STM32WLxx_HAL_Driver/Src/stm32wlxx_hal_dma.c ****   {
ARM GAS  /var/folders/9y/n02fl3g16gnf7ppy14xghdy80000gn/T//cckqCF9e.s 			page 56


 1405              		.loc 1 717 6 is_stmt 0 view .LVU512
 1406 00ee 76B9     		cbnz	r6, .L84
 720:Drivers/STM32WLxx_HAL_Driver/Src/stm32wlxx_hal_dma.c **** 
 1407              		.loc 1 720 5 is_stmt 1 view .LVU513
 720:Drivers/STM32WLxx_HAL_Driver/Src/stm32wlxx_hal_dma.c **** 
 1408              		.loc 1 720 56 is_stmt 0 view .LVU514
 1409 00f0 636C     		ldr	r3, [r4, #68]
 720:Drivers/STM32WLxx_HAL_Driver/Src/stm32wlxx_hal_dma.c **** 
 1410              		.loc 1 720 71 view .LVU515
 1411 00f2 03F01C02 		and	r2, r3, #28
 720:Drivers/STM32WLxx_HAL_Driver/Src/stm32wlxx_hal_dma.c **** 
 1412              		.loc 1 720 9 view .LVU516
 1413 00f6 216C     		ldr	r1, [r4, #64]
 720:Drivers/STM32WLxx_HAL_Driver/Src/stm32wlxx_hal_dma.c **** 
 1414              		.loc 1 720 48 view .LVU517
 1415 00f8 0223     		movs	r3, #2
 1416 00fa 9340     		lsls	r3, r3, r2
 720:Drivers/STM32WLxx_HAL_Driver/Src/stm32wlxx_hal_dma.c **** 
 1417              		.loc 1 720 32 view .LVU518
 1418 00fc 4B60     		str	r3, [r1, #4]
 723:Drivers/STM32WLxx_HAL_Driver/Src/stm32wlxx_hal_dma.c **** 
 1419              		.loc 1 723 5 is_stmt 1 view .LVU519
 723:Drivers/STM32WLxx_HAL_Driver/Src/stm32wlxx_hal_dma.c **** 
 1420              		.loc 1 723 5 view .LVU520
 1421 00fe 0023     		movs	r3, #0
 1422 0100 84F82430 		strb	r3, [r4, #36]
 723:Drivers/STM32WLxx_HAL_Driver/Src/stm32wlxx_hal_dma.c **** 
 1423              		.loc 1 723 5 view .LVU521
 727:Drivers/STM32WLxx_HAL_Driver/Src/stm32wlxx_hal_dma.c ****   }
 1424              		.loc 1 727 5 view .LVU522
 727:Drivers/STM32WLxx_HAL_Driver/Src/stm32wlxx_hal_dma.c ****   }
 1425              		.loc 1 727 17 is_stmt 0 view .LVU523
 1426 0104 0123     		movs	r3, #1
 1427 0106 84F82530 		strb	r3, [r4, #37]
 735:Drivers/STM32WLxx_HAL_Driver/Src/stm32wlxx_hal_dma.c **** }
 1428              		.loc 1 735 10 view .LVU524
 1429 010a 3046     		mov	r0, r6
 1430 010c 86E7     		b	.L73
 1431              	.L84:
 732:Drivers/STM32WLxx_HAL_Driver/Src/stm32wlxx_hal_dma.c ****   }
 1432              		.loc 1 732 5 is_stmt 1 view .LVU525
 732:Drivers/STM32WLxx_HAL_Driver/Src/stm32wlxx_hal_dma.c ****   }
 1433              		.loc 1 732 56 is_stmt 0 view .LVU526
 1434 010e 636C     		ldr	r3, [r4, #68]
 732:Drivers/STM32WLxx_HAL_Driver/Src/stm32wlxx_hal_dma.c ****   }
 1435              		.loc 1 732 71 view .LVU527
 1436 0110 03F01C02 		and	r2, r3, #28
 732:Drivers/STM32WLxx_HAL_Driver/Src/stm32wlxx_hal_dma.c ****   }
 1437              		.loc 1 732 9 view .LVU528
 1438 0114 216C     		ldr	r1, [r4, #64]
 732:Drivers/STM32WLxx_HAL_Driver/Src/stm32wlxx_hal_dma.c ****   }
 1439              		.loc 1 732 48 view .LVU529
 1440 0116 0423     		movs	r3, #4
 1441 0118 9340     		lsls	r3, r3, r2
 732:Drivers/STM32WLxx_HAL_Driver/Src/stm32wlxx_hal_dma.c ****   }
 1442              		.loc 1 732 32 view .LVU530
 1443 011a 4B60     		str	r3, [r1, #4]
ARM GAS  /var/folders/9y/n02fl3g16gnf7ppy14xghdy80000gn/T//cckqCF9e.s 			page 57


 735:Drivers/STM32WLxx_HAL_Driver/Src/stm32wlxx_hal_dma.c **** }
 1444              		.loc 1 735 10 view .LVU531
 1445 011c 0020     		movs	r0, #0
 1446 011e 7DE7     		b	.L73
 1447              		.cfi_endproc
 1448              	.LFE850:
 1450              		.section	.text.HAL_DMA_IRQHandler,"ax",%progbits
 1451              		.align	1
 1452              		.global	HAL_DMA_IRQHandler
 1453              		.syntax unified
 1454              		.thumb
 1455              		.thumb_func
 1456              		.fpu softvfp
 1458              	HAL_DMA_IRQHandler:
 1459              	.LVL73:
 1460              	.LFB851:
 745:Drivers/STM32WLxx_HAL_Driver/Src/stm32wlxx_hal_dma.c ****   uint32_t flag_it = hdma->DmaBaseAddress->ISR;
 1461              		.loc 1 745 1 is_stmt 1 view -0
 1462              		.cfi_startproc
 1463              		@ args = 0, pretend = 0, frame = 0
 1464              		@ frame_needed = 0, uses_anonymous_args = 0
 745:Drivers/STM32WLxx_HAL_Driver/Src/stm32wlxx_hal_dma.c ****   uint32_t flag_it = hdma->DmaBaseAddress->ISR;
 1465              		.loc 1 745 1 is_stmt 0 view .LVU533
 1466 0000 38B5     		push	{r3, r4, r5, lr}
 1467              		.cfi_def_cfa_offset 16
 1468              		.cfi_offset 3, -16
 1469              		.cfi_offset 4, -12
 1470              		.cfi_offset 5, -8
 1471              		.cfi_offset 14, -4
 746:Drivers/STM32WLxx_HAL_Driver/Src/stm32wlxx_hal_dma.c ****   uint32_t source_it = hdma->Instance->CCR;
 1472              		.loc 1 746 3 is_stmt 1 view .LVU534
 746:Drivers/STM32WLxx_HAL_Driver/Src/stm32wlxx_hal_dma.c ****   uint32_t source_it = hdma->Instance->CCR;
 1473              		.loc 1 746 26 is_stmt 0 view .LVU535
 1474 0002 036C     		ldr	r3, [r0, #64]
 746:Drivers/STM32WLxx_HAL_Driver/Src/stm32wlxx_hal_dma.c ****   uint32_t source_it = hdma->Instance->CCR;
 1475              		.loc 1 746 12 view .LVU536
 1476 0004 1968     		ldr	r1, [r3]
 1477              	.LVL74:
 747:Drivers/STM32WLxx_HAL_Driver/Src/stm32wlxx_hal_dma.c **** 
 1478              		.loc 1 747 3 is_stmt 1 view .LVU537
 747:Drivers/STM32WLxx_HAL_Driver/Src/stm32wlxx_hal_dma.c **** 
 1479              		.loc 1 747 28 is_stmt 0 view .LVU538
 1480 0006 0468     		ldr	r4, [r0]
 747:Drivers/STM32WLxx_HAL_Driver/Src/stm32wlxx_hal_dma.c **** 
 1481              		.loc 1 747 12 view .LVU539
 1482 0008 2568     		ldr	r5, [r4]
 1483              	.LVL75:
 750:Drivers/STM32WLxx_HAL_Driver/Src/stm32wlxx_hal_dma.c ****   {
 1484              		.loc 1 750 3 is_stmt 1 view .LVU540
 750:Drivers/STM32WLxx_HAL_Driver/Src/stm32wlxx_hal_dma.c ****   {
 1485              		.loc 1 750 41 is_stmt 0 view .LVU541
 1486 000a 436C     		ldr	r3, [r0, #68]
 750:Drivers/STM32WLxx_HAL_Driver/Src/stm32wlxx_hal_dma.c ****   {
 1487              		.loc 1 750 56 view .LVU542
 1488 000c 03F01C03 		and	r3, r3, #28
 750:Drivers/STM32WLxx_HAL_Driver/Src/stm32wlxx_hal_dma.c ****   {
 1489              		.loc 1 750 33 view .LVU543
ARM GAS  /var/folders/9y/n02fl3g16gnf7ppy14xghdy80000gn/T//cckqCF9e.s 			page 58


 1490 0010 0422     		movs	r2, #4
 1491 0012 9A40     		lsls	r2, r2, r3
 750:Drivers/STM32WLxx_HAL_Driver/Src/stm32wlxx_hal_dma.c ****   {
 1492              		.loc 1 750 6 view .LVU544
 1493 0014 0A42     		tst	r2, r1
 1494 0016 15D0     		beq	.L90
 750:Drivers/STM32WLxx_HAL_Driver/Src/stm32wlxx_hal_dma.c ****   {
 1495              		.loc 1 750 74 discriminator 1 view .LVU545
 1496 0018 15F0040F 		tst	r5, #4
 1497 001c 12D0     		beq	.L90
 753:Drivers/STM32WLxx_HAL_Driver/Src/stm32wlxx_hal_dma.c ****       {
 1498              		.loc 1 753 7 is_stmt 1 view .LVU546
 753:Drivers/STM32WLxx_HAL_Driver/Src/stm32wlxx_hal_dma.c ****       {
 1499              		.loc 1 753 26 is_stmt 0 view .LVU547
 1500 001e 2368     		ldr	r3, [r4]
 753:Drivers/STM32WLxx_HAL_Driver/Src/stm32wlxx_hal_dma.c ****       {
 1501              		.loc 1 753 10 view .LVU548
 1502 0020 13F0200F 		tst	r3, #32
 1503 0024 03D1     		bne	.L91
 756:Drivers/STM32WLxx_HAL_Driver/Src/stm32wlxx_hal_dma.c ****       }
 1504              		.loc 1 756 9 is_stmt 1 view .LVU549
 1505 0026 2368     		ldr	r3, [r4]
 1506 0028 23F00403 		bic	r3, r3, #4
 1507 002c 2360     		str	r3, [r4]
 1508              	.L91:
 759:Drivers/STM32WLxx_HAL_Driver/Src/stm32wlxx_hal_dma.c **** 
 1509              		.loc 1 759 7 view .LVU550
 759:Drivers/STM32WLxx_HAL_Driver/Src/stm32wlxx_hal_dma.c **** 
 1510              		.loc 1 759 58 is_stmt 0 view .LVU551
 1511 002e 436C     		ldr	r3, [r0, #68]
 759:Drivers/STM32WLxx_HAL_Driver/Src/stm32wlxx_hal_dma.c **** 
 1512              		.loc 1 759 73 view .LVU552
 1513 0030 03F01C02 		and	r2, r3, #28
 759:Drivers/STM32WLxx_HAL_Driver/Src/stm32wlxx_hal_dma.c **** 
 1514              		.loc 1 759 11 view .LVU553
 1515 0034 016C     		ldr	r1, [r0, #64]
 1516              	.LVL76:
 759:Drivers/STM32WLxx_HAL_Driver/Src/stm32wlxx_hal_dma.c **** 
 1517              		.loc 1 759 50 view .LVU554
 1518 0036 0423     		movs	r3, #4
 1519 0038 9340     		lsls	r3, r3, r2
 759:Drivers/STM32WLxx_HAL_Driver/Src/stm32wlxx_hal_dma.c **** 
 1520              		.loc 1 759 34 view .LVU555
 1521 003a 4B60     		str	r3, [r1, #4]
 764:Drivers/STM32WLxx_HAL_Driver/Src/stm32wlxx_hal_dma.c ****       {
 1522              		.loc 1 764 7 is_stmt 1 view .LVU556
 764:Drivers/STM32WLxx_HAL_Driver/Src/stm32wlxx_hal_dma.c ****       {
 1523              		.loc 1 764 15 is_stmt 0 view .LVU557
 1524 003c 036B     		ldr	r3, [r0, #48]
 764:Drivers/STM32WLxx_HAL_Driver/Src/stm32wlxx_hal_dma.c ****       {
 1525              		.loc 1 764 10 view .LVU558
 1526 003e 03B1     		cbz	r3, .L89
 767:Drivers/STM32WLxx_HAL_Driver/Src/stm32wlxx_hal_dma.c ****       }
 1527              		.loc 1 767 9 is_stmt 1 view .LVU559
 1528 0040 9847     		blx	r3
 1529              	.LVL77:
 1530              	.L89:
ARM GAS  /var/folders/9y/n02fl3g16gnf7ppy14xghdy80000gn/T//cckqCF9e.s 			page 59


 826:Drivers/STM32WLxx_HAL_Driver/Src/stm32wlxx_hal_dma.c **** 
 1531              		.loc 1 826 1 is_stmt 0 view .LVU560
 1532 0042 38BD     		pop	{r3, r4, r5, pc}
 1533              	.LVL78:
 1534              	.L90:
 772:Drivers/STM32WLxx_HAL_Driver/Src/stm32wlxx_hal_dma.c ****   {
 1535              		.loc 1 772 8 is_stmt 1 view .LVU561
 772:Drivers/STM32WLxx_HAL_Driver/Src/stm32wlxx_hal_dma.c ****   {
 1536              		.loc 1 772 44 is_stmt 0 view .LVU562
 1537 0044 0222     		movs	r2, #2
 1538 0046 9A40     		lsls	r2, r2, r3
 772:Drivers/STM32WLxx_HAL_Driver/Src/stm32wlxx_hal_dma.c ****   {
 1539              		.loc 1 772 11 view .LVU563
 1540 0048 0A42     		tst	r2, r1
 1541 004a 28D0     		beq	.L93
 772:Drivers/STM32WLxx_HAL_Driver/Src/stm32wlxx_hal_dma.c ****   {
 1542              		.loc 1 772 79 discriminator 1 view .LVU564
 1543 004c 15F0020F 		tst	r5, #2
 1544 0050 25D0     		beq	.L93
 774:Drivers/STM32WLxx_HAL_Driver/Src/stm32wlxx_hal_dma.c ****       {
 1545              		.loc 1 774 7 is_stmt 1 view .LVU565
 774:Drivers/STM32WLxx_HAL_Driver/Src/stm32wlxx_hal_dma.c ****       {
 1546              		.loc 1 774 26 is_stmt 0 view .LVU566
 1547 0052 2368     		ldr	r3, [r4]
 774:Drivers/STM32WLxx_HAL_Driver/Src/stm32wlxx_hal_dma.c ****       {
 1548              		.loc 1 774 10 view .LVU567
 1549 0054 13F0200F 		tst	r3, #32
 1550 0058 06D1     		bne	.L94
 777:Drivers/STM32WLxx_HAL_Driver/Src/stm32wlxx_hal_dma.c **** 
 1551              		.loc 1 777 9 is_stmt 1 view .LVU568
 1552 005a 2368     		ldr	r3, [r4]
 1553 005c 23F00A03 		bic	r3, r3, #10
 1554 0060 2360     		str	r3, [r4]
 780:Drivers/STM32WLxx_HAL_Driver/Src/stm32wlxx_hal_dma.c ****       }
 1555              		.loc 1 780 9 view .LVU569
 780:Drivers/STM32WLxx_HAL_Driver/Src/stm32wlxx_hal_dma.c ****       }
 1556              		.loc 1 780 21 is_stmt 0 view .LVU570
 1557 0062 0123     		movs	r3, #1
 1558 0064 80F82530 		strb	r3, [r0, #37]
 1559              	.L94:
 783:Drivers/STM32WLxx_HAL_Driver/Src/stm32wlxx_hal_dma.c **** 
 1560              		.loc 1 783 7 is_stmt 1 view .LVU571
 1561 0068 0268     		ldr	r2, [r0]
 1562 006a 1C4B     		ldr	r3, .L98
 1563 006c 9A42     		cmp	r2, r3
 1564 006e 0ED9     		bls	.L95
 783:Drivers/STM32WLxx_HAL_Driver/Src/stm32wlxx_hal_dma.c **** 
 1565              		.loc 1 783 7 is_stmt 0 discriminator 1 view .LVU572
 1566 0070 436C     		ldr	r3, [r0, #68]
 1567 0072 03F01C02 		and	r2, r3, #28
 1568 0076 0223     		movs	r3, #2
 1569 0078 9340     		lsls	r3, r3, r2
 1570 007a 194A     		ldr	r2, .L98+4
 1571 007c 5360     		str	r3, [r2, #4]
 1572              	.L96:
 786:Drivers/STM32WLxx_HAL_Driver/Src/stm32wlxx_hal_dma.c **** 
 1573              		.loc 1 786 7 is_stmt 1 view .LVU573
ARM GAS  /var/folders/9y/n02fl3g16gnf7ppy14xghdy80000gn/T//cckqCF9e.s 			page 60


 786:Drivers/STM32WLxx_HAL_Driver/Src/stm32wlxx_hal_dma.c **** 
 1574              		.loc 1 786 7 view .LVU574
 1575 007e 0023     		movs	r3, #0
 1576 0080 80F82430 		strb	r3, [r0, #36]
 786:Drivers/STM32WLxx_HAL_Driver/Src/stm32wlxx_hal_dma.c **** 
 1577              		.loc 1 786 7 view .LVU575
 788:Drivers/STM32WLxx_HAL_Driver/Src/stm32wlxx_hal_dma.c ****       {
 1578              		.loc 1 788 7 view .LVU576
 788:Drivers/STM32WLxx_HAL_Driver/Src/stm32wlxx_hal_dma.c ****       {
 1579              		.loc 1 788 15 is_stmt 0 view .LVU577
 1580 0084 C36A     		ldr	r3, [r0, #44]
 788:Drivers/STM32WLxx_HAL_Driver/Src/stm32wlxx_hal_dma.c ****       {
 1581              		.loc 1 788 10 view .LVU578
 1582 0086 002B     		cmp	r3, #0
 1583 0088 DBD0     		beq	.L89
 791:Drivers/STM32WLxx_HAL_Driver/Src/stm32wlxx_hal_dma.c ****       }
 1584              		.loc 1 791 9 is_stmt 1 view .LVU579
 1585 008a 9847     		blx	r3
 1586              	.LVL79:
 791:Drivers/STM32WLxx_HAL_Driver/Src/stm32wlxx_hal_dma.c ****       }
 1587              		.loc 1 791 9 is_stmt 0 view .LVU580
 1588 008c D9E7     		b	.L89
 1589              	.LVL80:
 1590              	.L95:
 783:Drivers/STM32WLxx_HAL_Driver/Src/stm32wlxx_hal_dma.c **** 
 1591              		.loc 1 783 7 discriminator 2 view .LVU581
 1592 008e 436C     		ldr	r3, [r0, #68]
 1593 0090 03F01C02 		and	r2, r3, #28
 1594 0094 0223     		movs	r3, #2
 1595 0096 9340     		lsls	r3, r3, r2
 1596 0098 124A     		ldr	r2, .L98+8
 1597 009a 5360     		str	r3, [r2, #4]
 1598 009c EFE7     		b	.L96
 1599              	.L93:
 796:Drivers/STM32WLxx_HAL_Driver/Src/stm32wlxx_hal_dma.c ****   {
 1600              		.loc 1 796 8 is_stmt 1 view .LVU582
 796:Drivers/STM32WLxx_HAL_Driver/Src/stm32wlxx_hal_dma.c ****   {
 1601              		.loc 1 796 38 is_stmt 0 view .LVU583
 1602 009e 0822     		movs	r2, #8
 1603 00a0 02FA03F3 		lsl	r3, r2, r3
 796:Drivers/STM32WLxx_HAL_Driver/Src/stm32wlxx_hal_dma.c ****   {
 1604              		.loc 1 796 11 view .LVU584
 1605 00a4 0B42     		tst	r3, r1
 1606 00a6 CCD0     		beq	.L89
 796:Drivers/STM32WLxx_HAL_Driver/Src/stm32wlxx_hal_dma.c ****   {
 1607              		.loc 1 796 79 discriminator 1 view .LVU585
 1608 00a8 15F0080F 		tst	r5, #8
 1609 00ac C9D0     		beq	.L89
 801:Drivers/STM32WLxx_HAL_Driver/Src/stm32wlxx_hal_dma.c **** 
 1610              		.loc 1 801 5 is_stmt 1 view .LVU586
 1611 00ae 2368     		ldr	r3, [r4]
 1612 00b0 23F00E03 		bic	r3, r3, #14
 1613 00b4 2360     		str	r3, [r4]
 804:Drivers/STM32WLxx_HAL_Driver/Src/stm32wlxx_hal_dma.c **** 
 1614              		.loc 1 804 5 view .LVU587
 804:Drivers/STM32WLxx_HAL_Driver/Src/stm32wlxx_hal_dma.c **** 
 1615              		.loc 1 804 56 is_stmt 0 view .LVU588
ARM GAS  /var/folders/9y/n02fl3g16gnf7ppy14xghdy80000gn/T//cckqCF9e.s 			page 61


 1616 00b6 436C     		ldr	r3, [r0, #68]
 804:Drivers/STM32WLxx_HAL_Driver/Src/stm32wlxx_hal_dma.c **** 
 1617              		.loc 1 804 71 view .LVU589
 1618 00b8 03F01C03 		and	r3, r3, #28
 804:Drivers/STM32WLxx_HAL_Driver/Src/stm32wlxx_hal_dma.c **** 
 1619              		.loc 1 804 9 view .LVU590
 1620 00bc 016C     		ldr	r1, [r0, #64]
 1621              	.LVL81:
 804:Drivers/STM32WLxx_HAL_Driver/Src/stm32wlxx_hal_dma.c **** 
 1622              		.loc 1 804 48 view .LVU591
 1623 00be 0122     		movs	r2, #1
 1624 00c0 02FA03F3 		lsl	r3, r2, r3
 804:Drivers/STM32WLxx_HAL_Driver/Src/stm32wlxx_hal_dma.c **** 
 1625              		.loc 1 804 32 view .LVU592
 1626 00c4 4B60     		str	r3, [r1, #4]
 807:Drivers/STM32WLxx_HAL_Driver/Src/stm32wlxx_hal_dma.c **** 
 1627              		.loc 1 807 5 is_stmt 1 view .LVU593
 807:Drivers/STM32WLxx_HAL_Driver/Src/stm32wlxx_hal_dma.c **** 
 1628              		.loc 1 807 21 is_stmt 0 view .LVU594
 1629 00c6 C263     		str	r2, [r0, #60]
 810:Drivers/STM32WLxx_HAL_Driver/Src/stm32wlxx_hal_dma.c **** 
 1630              		.loc 1 810 5 is_stmt 1 view .LVU595
 810:Drivers/STM32WLxx_HAL_Driver/Src/stm32wlxx_hal_dma.c **** 
 1631              		.loc 1 810 17 is_stmt 0 view .LVU596
 1632 00c8 80F82520 		strb	r2, [r0, #37]
 813:Drivers/STM32WLxx_HAL_Driver/Src/stm32wlxx_hal_dma.c **** 
 1633              		.loc 1 813 5 is_stmt 1 view .LVU597
 813:Drivers/STM32WLxx_HAL_Driver/Src/stm32wlxx_hal_dma.c **** 
 1634              		.loc 1 813 5 view .LVU598
 1635 00cc 0023     		movs	r3, #0
 1636 00ce 80F82430 		strb	r3, [r0, #36]
 813:Drivers/STM32WLxx_HAL_Driver/Src/stm32wlxx_hal_dma.c **** 
 1637              		.loc 1 813 5 view .LVU599
 815:Drivers/STM32WLxx_HAL_Driver/Src/stm32wlxx_hal_dma.c ****     {
 1638              		.loc 1 815 5 view .LVU600
 815:Drivers/STM32WLxx_HAL_Driver/Src/stm32wlxx_hal_dma.c ****     {
 1639              		.loc 1 815 13 is_stmt 0 view .LVU601
 1640 00d2 436B     		ldr	r3, [r0, #52]
 815:Drivers/STM32WLxx_HAL_Driver/Src/stm32wlxx_hal_dma.c ****     {
 1641              		.loc 1 815 8 view .LVU602
 1642 00d4 002B     		cmp	r3, #0
 1643 00d6 B4D0     		beq	.L89
 818:Drivers/STM32WLxx_HAL_Driver/Src/stm32wlxx_hal_dma.c ****     }
 1644              		.loc 1 818 7 is_stmt 1 view .LVU603
 1645 00d8 9847     		blx	r3
 1646              	.LVL82:
 824:Drivers/STM32WLxx_HAL_Driver/Src/stm32wlxx_hal_dma.c ****   return;
 1647              		.loc 1 824 3 view .LVU604
 825:Drivers/STM32WLxx_HAL_Driver/Src/stm32wlxx_hal_dma.c **** }
 1648              		.loc 1 825 3 view .LVU605
 1649 00da B2E7     		b	.L89
 1650              	.L99:
 1651              		.align	2
 1652              	.L98:
 1653 00dc 80000240 		.word	1073873024
 1654 00e0 00040240 		.word	1073873920
 1655 00e4 00000240 		.word	1073872896
ARM GAS  /var/folders/9y/n02fl3g16gnf7ppy14xghdy80000gn/T//cckqCF9e.s 			page 62


 1656              		.cfi_endproc
 1657              	.LFE851:
 1659              		.section	.text.HAL_DMA_RegisterCallback,"ax",%progbits
 1660              		.align	1
 1661              		.global	HAL_DMA_RegisterCallback
 1662              		.syntax unified
 1663              		.thumb
 1664              		.thumb_func
 1665              		.fpu softvfp
 1667              	HAL_DMA_RegisterCallback:
 1668              	.LVL83:
 1669              	.LFB852:
 839:Drivers/STM32WLxx_HAL_Driver/Src/stm32wlxx_hal_dma.c ****   HAL_StatusTypeDef status = HAL_OK;
 1670              		.loc 1 839 1 view -0
 1671              		.cfi_startproc
 1672              		@ args = 0, pretend = 0, frame = 0
 1673              		@ frame_needed = 0, uses_anonymous_args = 0
 1674              		@ link register save eliminated.
 839:Drivers/STM32WLxx_HAL_Driver/Src/stm32wlxx_hal_dma.c ****   HAL_StatusTypeDef status = HAL_OK;
 1675              		.loc 1 839 1 is_stmt 0 view .LVU607
 1676 0000 0346     		mov	r3, r0
 840:Drivers/STM32WLxx_HAL_Driver/Src/stm32wlxx_hal_dma.c **** 
 1677              		.loc 1 840 3 is_stmt 1 view .LVU608
 1678              	.LVL84:
 843:Drivers/STM32WLxx_HAL_Driver/Src/stm32wlxx_hal_dma.c **** 
 1679              		.loc 1 843 3 view .LVU609
 843:Drivers/STM32WLxx_HAL_Driver/Src/stm32wlxx_hal_dma.c **** 
 1680              		.loc 1 843 3 view .LVU610
 1681 0002 90F82400 		ldrb	r0, [r0, #36]	@ zero_extendqisi2
 1682              	.LVL85:
 843:Drivers/STM32WLxx_HAL_Driver/Src/stm32wlxx_hal_dma.c **** 
 1683              		.loc 1 843 3 is_stmt 0 view .LVU611
 1684 0006 0128     		cmp	r0, #1
 1685 0008 1ED0     		beq	.L108
 843:Drivers/STM32WLxx_HAL_Driver/Src/stm32wlxx_hal_dma.c **** 
 1686              		.loc 1 843 3 is_stmt 1 discriminator 2 view .LVU612
 1687 000a 0120     		movs	r0, #1
 1688 000c 83F82400 		strb	r0, [r3, #36]
 843:Drivers/STM32WLxx_HAL_Driver/Src/stm32wlxx_hal_dma.c **** 
 1689              		.loc 1 843 3 discriminator 2 view .LVU613
 845:Drivers/STM32WLxx_HAL_Driver/Src/stm32wlxx_hal_dma.c ****   {
 1690              		.loc 1 845 3 discriminator 2 view .LVU614
 845:Drivers/STM32WLxx_HAL_Driver/Src/stm32wlxx_hal_dma.c ****   {
 1691              		.loc 1 845 11 is_stmt 0 discriminator 2 view .LVU615
 1692 0010 93F82500 		ldrb	r0, [r3, #37]	@ zero_extendqisi2
 1693 0014 C0B2     		uxtb	r0, r0
 845:Drivers/STM32WLxx_HAL_Driver/Src/stm32wlxx_hal_dma.c ****   {
 1694              		.loc 1 845 6 discriminator 2 view .LVU616
 1695 0016 0128     		cmp	r0, #1
 1696 0018 04D0     		beq	.L110
 872:Drivers/STM32WLxx_HAL_Driver/Src/stm32wlxx_hal_dma.c ****   }
 1697              		.loc 1 872 12 view .LVU617
 1698 001a 0120     		movs	r0, #1
 1699              	.L102:
 1700              	.LVL86:
 876:Drivers/STM32WLxx_HAL_Driver/Src/stm32wlxx_hal_dma.c **** 
 1701              		.loc 1 876 3 is_stmt 1 view .LVU618
ARM GAS  /var/folders/9y/n02fl3g16gnf7ppy14xghdy80000gn/T//cckqCF9e.s 			page 63


 876:Drivers/STM32WLxx_HAL_Driver/Src/stm32wlxx_hal_dma.c **** 
 1702              		.loc 1 876 3 view .LVU619
 1703 001c 0022     		movs	r2, #0
 1704              	.LVL87:
 876:Drivers/STM32WLxx_HAL_Driver/Src/stm32wlxx_hal_dma.c **** 
 1705              		.loc 1 876 3 is_stmt 0 view .LVU620
 1706 001e 83F82420 		strb	r2, [r3, #36]
 876:Drivers/STM32WLxx_HAL_Driver/Src/stm32wlxx_hal_dma.c **** 
 1707              		.loc 1 876 3 is_stmt 1 view .LVU621
 878:Drivers/STM32WLxx_HAL_Driver/Src/stm32wlxx_hal_dma.c **** }
 1708              		.loc 1 878 3 view .LVU622
 878:Drivers/STM32WLxx_HAL_Driver/Src/stm32wlxx_hal_dma.c **** }
 1709              		.loc 1 878 10 is_stmt 0 view .LVU623
 1710 0022 7047     		bx	lr
 1711              	.LVL88:
 1712              	.L110:
 847:Drivers/STM32WLxx_HAL_Driver/Src/stm32wlxx_hal_dma.c ****     {
 1713              		.loc 1 847 5 is_stmt 1 view .LVU624
 1714 0024 0329     		cmp	r1, #3
 1715 0026 F9D8     		bhi	.L102
 1716 0028 DFE801F0 		tbb	[pc, r1]
 1717              	.L104:
 1718 002c 02       		.byte	(.L107-.L104)/2
 1719 002d 05       		.byte	(.L106-.L104)/2
 1720 002e 08       		.byte	(.L105-.L104)/2
 1721 002f 0B       		.byte	(.L103-.L104)/2
 1722              		.p2align 1
 1723              	.L107:
 850:Drivers/STM32WLxx_HAL_Driver/Src/stm32wlxx_hal_dma.c ****         break;
 1724              		.loc 1 850 9 view .LVU625
 850:Drivers/STM32WLxx_HAL_Driver/Src/stm32wlxx_hal_dma.c ****         break;
 1725              		.loc 1 850 32 is_stmt 0 view .LVU626
 1726 0030 DA62     		str	r2, [r3, #44]
 851:Drivers/STM32WLxx_HAL_Driver/Src/stm32wlxx_hal_dma.c **** 
 1727              		.loc 1 851 9 is_stmt 1 view .LVU627
 840:Drivers/STM32WLxx_HAL_Driver/Src/stm32wlxx_hal_dma.c **** 
 1728              		.loc 1 840 21 is_stmt 0 view .LVU628
 1729 0032 0846     		mov	r0, r1
 851:Drivers/STM32WLxx_HAL_Driver/Src/stm32wlxx_hal_dma.c **** 
 1730              		.loc 1 851 9 view .LVU629
 1731 0034 F2E7     		b	.L102
 1732              	.L106:
 854:Drivers/STM32WLxx_HAL_Driver/Src/stm32wlxx_hal_dma.c ****         break;
 1733              		.loc 1 854 9 is_stmt 1 view .LVU630
 854:Drivers/STM32WLxx_HAL_Driver/Src/stm32wlxx_hal_dma.c ****         break;
 1734              		.loc 1 854 36 is_stmt 0 view .LVU631
 1735 0036 1A63     		str	r2, [r3, #48]
 855:Drivers/STM32WLxx_HAL_Driver/Src/stm32wlxx_hal_dma.c **** 
 1736              		.loc 1 855 9 is_stmt 1 view .LVU632
 840:Drivers/STM32WLxx_HAL_Driver/Src/stm32wlxx_hal_dma.c **** 
 1737              		.loc 1 840 21 is_stmt 0 view .LVU633
 1738 0038 0020     		movs	r0, #0
 855:Drivers/STM32WLxx_HAL_Driver/Src/stm32wlxx_hal_dma.c **** 
 1739              		.loc 1 855 9 view .LVU634
 1740 003a EFE7     		b	.L102
 1741              	.L105:
 858:Drivers/STM32WLxx_HAL_Driver/Src/stm32wlxx_hal_dma.c ****         break;
ARM GAS  /var/folders/9y/n02fl3g16gnf7ppy14xghdy80000gn/T//cckqCF9e.s 			page 64


 1742              		.loc 1 858 9 is_stmt 1 view .LVU635
 858:Drivers/STM32WLxx_HAL_Driver/Src/stm32wlxx_hal_dma.c ****         break;
 1743              		.loc 1 858 33 is_stmt 0 view .LVU636
 1744 003c 5A63     		str	r2, [r3, #52]
 859:Drivers/STM32WLxx_HAL_Driver/Src/stm32wlxx_hal_dma.c **** 
 1745              		.loc 1 859 9 is_stmt 1 view .LVU637
 840:Drivers/STM32WLxx_HAL_Driver/Src/stm32wlxx_hal_dma.c **** 
 1746              		.loc 1 840 21 is_stmt 0 view .LVU638
 1747 003e 0020     		movs	r0, #0
 859:Drivers/STM32WLxx_HAL_Driver/Src/stm32wlxx_hal_dma.c **** 
 1748              		.loc 1 859 9 view .LVU639
 1749 0040 ECE7     		b	.L102
 1750              	.L103:
 862:Drivers/STM32WLxx_HAL_Driver/Src/stm32wlxx_hal_dma.c ****         break;
 1751              		.loc 1 862 9 is_stmt 1 view .LVU640
 862:Drivers/STM32WLxx_HAL_Driver/Src/stm32wlxx_hal_dma.c ****         break;
 1752              		.loc 1 862 33 is_stmt 0 view .LVU641
 1753 0042 9A63     		str	r2, [r3, #56]
 863:Drivers/STM32WLxx_HAL_Driver/Src/stm32wlxx_hal_dma.c **** 
 1754              		.loc 1 863 9 is_stmt 1 view .LVU642
 840:Drivers/STM32WLxx_HAL_Driver/Src/stm32wlxx_hal_dma.c **** 
 1755              		.loc 1 840 21 is_stmt 0 view .LVU643
 1756 0044 0020     		movs	r0, #0
 863:Drivers/STM32WLxx_HAL_Driver/Src/stm32wlxx_hal_dma.c **** 
 1757              		.loc 1 863 9 view .LVU644
 1758 0046 E9E7     		b	.L102
 1759              	.L108:
 843:Drivers/STM32WLxx_HAL_Driver/Src/stm32wlxx_hal_dma.c **** 
 1760              		.loc 1 843 3 view .LVU645
 1761 0048 0220     		movs	r0, #2
 879:Drivers/STM32WLxx_HAL_Driver/Src/stm32wlxx_hal_dma.c **** 
 1762              		.loc 1 879 1 view .LVU646
 1763 004a 7047     		bx	lr
 1764              		.cfi_endproc
 1765              	.LFE852:
 1767              		.section	.text.HAL_DMA_UnRegisterCallback,"ax",%progbits
 1768              		.align	1
 1769              		.global	HAL_DMA_UnRegisterCallback
 1770              		.syntax unified
 1771              		.thumb
 1772              		.thumb_func
 1773              		.fpu softvfp
 1775              	HAL_DMA_UnRegisterCallback:
 1776              	.LVL89:
 1777              	.LFB853:
 890:Drivers/STM32WLxx_HAL_Driver/Src/stm32wlxx_hal_dma.c ****   HAL_StatusTypeDef status = HAL_OK;
 1778              		.loc 1 890 1 is_stmt 1 view -0
 1779              		.cfi_startproc
 1780              		@ args = 0, pretend = 0, frame = 0
 1781              		@ frame_needed = 0, uses_anonymous_args = 0
 1782              		@ link register save eliminated.
 890:Drivers/STM32WLxx_HAL_Driver/Src/stm32wlxx_hal_dma.c ****   HAL_StatusTypeDef status = HAL_OK;
 1783              		.loc 1 890 1 is_stmt 0 view .LVU648
 1784 0000 0346     		mov	r3, r0
 891:Drivers/STM32WLxx_HAL_Driver/Src/stm32wlxx_hal_dma.c **** 
 1785              		.loc 1 891 3 is_stmt 1 view .LVU649
 1786              	.LVL90:
ARM GAS  /var/folders/9y/n02fl3g16gnf7ppy14xghdy80000gn/T//cckqCF9e.s 			page 65


 894:Drivers/STM32WLxx_HAL_Driver/Src/stm32wlxx_hal_dma.c **** 
 1787              		.loc 1 894 3 view .LVU650
 894:Drivers/STM32WLxx_HAL_Driver/Src/stm32wlxx_hal_dma.c **** 
 1788              		.loc 1 894 3 view .LVU651
 1789 0002 90F82420 		ldrb	r2, [r0, #36]	@ zero_extendqisi2
 1790 0006 012A     		cmp	r2, #1
 1791 0008 26D0     		beq	.L120
 894:Drivers/STM32WLxx_HAL_Driver/Src/stm32wlxx_hal_dma.c **** 
 1792              		.loc 1 894 3 discriminator 2 view .LVU652
 1793 000a 0122     		movs	r2, #1
 1794 000c 80F82420 		strb	r2, [r0, #36]
 894:Drivers/STM32WLxx_HAL_Driver/Src/stm32wlxx_hal_dma.c **** 
 1795              		.loc 1 894 3 discriminator 2 view .LVU653
 896:Drivers/STM32WLxx_HAL_Driver/Src/stm32wlxx_hal_dma.c ****   {
 1796              		.loc 1 896 3 discriminator 2 view .LVU654
 896:Drivers/STM32WLxx_HAL_Driver/Src/stm32wlxx_hal_dma.c ****   {
 1797              		.loc 1 896 11 is_stmt 0 discriminator 2 view .LVU655
 1798 0010 90F82500 		ldrb	r0, [r0, #37]	@ zero_extendqisi2
 1799              	.LVL91:
 896:Drivers/STM32WLxx_HAL_Driver/Src/stm32wlxx_hal_dma.c ****   {
 1800              		.loc 1 896 11 discriminator 2 view .LVU656
 1801 0014 C0B2     		uxtb	r0, r0
 896:Drivers/STM32WLxx_HAL_Driver/Src/stm32wlxx_hal_dma.c ****   {
 1802              		.loc 1 896 6 discriminator 2 view .LVU657
 1803 0016 9042     		cmp	r0, r2
 1804 0018 04D0     		beq	.L122
 930:Drivers/STM32WLxx_HAL_Driver/Src/stm32wlxx_hal_dma.c ****   }
 1805              		.loc 1 930 12 view .LVU658
 1806 001a 0120     		movs	r0, #1
 1807              	.L113:
 1808              	.LVL92:
 934:Drivers/STM32WLxx_HAL_Driver/Src/stm32wlxx_hal_dma.c **** 
 1809              		.loc 1 934 3 is_stmt 1 view .LVU659
 934:Drivers/STM32WLxx_HAL_Driver/Src/stm32wlxx_hal_dma.c **** 
 1810              		.loc 1 934 3 view .LVU660
 1811 001c 0022     		movs	r2, #0
 1812 001e 83F82420 		strb	r2, [r3, #36]
 934:Drivers/STM32WLxx_HAL_Driver/Src/stm32wlxx_hal_dma.c **** 
 1813              		.loc 1 934 3 view .LVU661
 936:Drivers/STM32WLxx_HAL_Driver/Src/stm32wlxx_hal_dma.c **** }
 1814              		.loc 1 936 3 view .LVU662
 936:Drivers/STM32WLxx_HAL_Driver/Src/stm32wlxx_hal_dma.c **** }
 1815              		.loc 1 936 10 is_stmt 0 view .LVU663
 1816 0022 7047     		bx	lr
 1817              	.LVL93:
 1818              	.L122:
 898:Drivers/STM32WLxx_HAL_Driver/Src/stm32wlxx_hal_dma.c ****     {
 1819              		.loc 1 898 5 is_stmt 1 view .LVU664
 1820 0024 0429     		cmp	r1, #4
 1821 0026 F9D8     		bhi	.L113
 1822 0028 DFE801F0 		tbb	[pc, r1]
 1823              	.L115:
 1824 002c 03       		.byte	(.L119-.L115)/2
 1825 002d 07       		.byte	(.L118-.L115)/2
 1826 002e 0A       		.byte	(.L117-.L115)/2
 1827 002f 0D       		.byte	(.L116-.L115)/2
 1828 0030 10       		.byte	(.L114-.L115)/2
ARM GAS  /var/folders/9y/n02fl3g16gnf7ppy14xghdy80000gn/T//cckqCF9e.s 			page 66


 1829 0031 00       		.p2align 1
 1830              	.L119:
 901:Drivers/STM32WLxx_HAL_Driver/Src/stm32wlxx_hal_dma.c ****         break;
 1831              		.loc 1 901 9 view .LVU665
 901:Drivers/STM32WLxx_HAL_Driver/Src/stm32wlxx_hal_dma.c ****         break;
 1832              		.loc 1 901 32 is_stmt 0 view .LVU666
 1833 0032 0022     		movs	r2, #0
 1834 0034 DA62     		str	r2, [r3, #44]
 902:Drivers/STM32WLxx_HAL_Driver/Src/stm32wlxx_hal_dma.c **** 
 1835              		.loc 1 902 9 is_stmt 1 view .LVU667
 891:Drivers/STM32WLxx_HAL_Driver/Src/stm32wlxx_hal_dma.c **** 
 1836              		.loc 1 891 21 is_stmt 0 view .LVU668
 1837 0036 0846     		mov	r0, r1
 902:Drivers/STM32WLxx_HAL_Driver/Src/stm32wlxx_hal_dma.c **** 
 1838              		.loc 1 902 9 view .LVU669
 1839 0038 F0E7     		b	.L113
 1840              	.L118:
 905:Drivers/STM32WLxx_HAL_Driver/Src/stm32wlxx_hal_dma.c ****         break;
 1841              		.loc 1 905 9 is_stmt 1 view .LVU670
 905:Drivers/STM32WLxx_HAL_Driver/Src/stm32wlxx_hal_dma.c ****         break;
 1842              		.loc 1 905 36 is_stmt 0 view .LVU671
 1843 003a 0020     		movs	r0, #0
 1844 003c 1863     		str	r0, [r3, #48]
 906:Drivers/STM32WLxx_HAL_Driver/Src/stm32wlxx_hal_dma.c **** 
 1845              		.loc 1 906 9 is_stmt 1 view .LVU672
 1846 003e EDE7     		b	.L113
 1847              	.L117:
 909:Drivers/STM32WLxx_HAL_Driver/Src/stm32wlxx_hal_dma.c ****         break;
 1848              		.loc 1 909 9 view .LVU673
 909:Drivers/STM32WLxx_HAL_Driver/Src/stm32wlxx_hal_dma.c ****         break;
 1849              		.loc 1 909 33 is_stmt 0 view .LVU674
 1850 0040 0020     		movs	r0, #0
 1851 0042 5863     		str	r0, [r3, #52]
 910:Drivers/STM32WLxx_HAL_Driver/Src/stm32wlxx_hal_dma.c **** 
 1852              		.loc 1 910 9 is_stmt 1 view .LVU675
 1853 0044 EAE7     		b	.L113
 1854              	.L116:
 913:Drivers/STM32WLxx_HAL_Driver/Src/stm32wlxx_hal_dma.c ****         break;
 1855              		.loc 1 913 9 view .LVU676
 913:Drivers/STM32WLxx_HAL_Driver/Src/stm32wlxx_hal_dma.c ****         break;
 1856              		.loc 1 913 33 is_stmt 0 view .LVU677
 1857 0046 0020     		movs	r0, #0
 1858 0048 9863     		str	r0, [r3, #56]
 914:Drivers/STM32WLxx_HAL_Driver/Src/stm32wlxx_hal_dma.c **** 
 1859              		.loc 1 914 9 is_stmt 1 view .LVU678
 1860 004a E7E7     		b	.L113
 1861              	.L114:
 917:Drivers/STM32WLxx_HAL_Driver/Src/stm32wlxx_hal_dma.c ****         hdma->XferHalfCpltCallback = NULL;
 1862              		.loc 1 917 9 view .LVU679
 917:Drivers/STM32WLxx_HAL_Driver/Src/stm32wlxx_hal_dma.c ****         hdma->XferHalfCpltCallback = NULL;
 1863              		.loc 1 917 32 is_stmt 0 view .LVU680
 1864 004c 0020     		movs	r0, #0
 1865 004e D862     		str	r0, [r3, #44]
 918:Drivers/STM32WLxx_HAL_Driver/Src/stm32wlxx_hal_dma.c ****         hdma->XferErrorCallback = NULL;
 1866              		.loc 1 918 9 is_stmt 1 view .LVU681
 918:Drivers/STM32WLxx_HAL_Driver/Src/stm32wlxx_hal_dma.c ****         hdma->XferErrorCallback = NULL;
 1867              		.loc 1 918 36 is_stmt 0 view .LVU682
ARM GAS  /var/folders/9y/n02fl3g16gnf7ppy14xghdy80000gn/T//cckqCF9e.s 			page 67


 1868 0050 1863     		str	r0, [r3, #48]
 919:Drivers/STM32WLxx_HAL_Driver/Src/stm32wlxx_hal_dma.c ****         hdma->XferAbortCallback = NULL;
 1869              		.loc 1 919 9 is_stmt 1 view .LVU683
 919:Drivers/STM32WLxx_HAL_Driver/Src/stm32wlxx_hal_dma.c ****         hdma->XferAbortCallback = NULL;
 1870              		.loc 1 919 33 is_stmt 0 view .LVU684
 1871 0052 5863     		str	r0, [r3, #52]
 920:Drivers/STM32WLxx_HAL_Driver/Src/stm32wlxx_hal_dma.c ****         break;
 1872              		.loc 1 920 9 is_stmt 1 view .LVU685
 920:Drivers/STM32WLxx_HAL_Driver/Src/stm32wlxx_hal_dma.c ****         break;
 1873              		.loc 1 920 33 is_stmt 0 view .LVU686
 1874 0054 9863     		str	r0, [r3, #56]
 921:Drivers/STM32WLxx_HAL_Driver/Src/stm32wlxx_hal_dma.c **** 
 1875              		.loc 1 921 9 is_stmt 1 view .LVU687
 1876 0056 E1E7     		b	.L113
 1877              	.LVL94:
 1878              	.L120:
 894:Drivers/STM32WLxx_HAL_Driver/Src/stm32wlxx_hal_dma.c **** 
 1879              		.loc 1 894 3 is_stmt 0 view .LVU688
 1880 0058 0220     		movs	r0, #2
 1881              	.LVL95:
 937:Drivers/STM32WLxx_HAL_Driver/Src/stm32wlxx_hal_dma.c **** 
 1882              		.loc 1 937 1 view .LVU689
 1883 005a 7047     		bx	lr
 1884              		.cfi_endproc
 1885              	.LFE853:
 1887              		.section	.text.HAL_DMA_GetState,"ax",%progbits
 1888              		.align	1
 1889              		.global	HAL_DMA_GetState
 1890              		.syntax unified
 1891              		.thumb
 1892              		.thumb_func
 1893              		.fpu softvfp
 1895              	HAL_DMA_GetState:
 1896              	.LVL96:
 1897              	.LFB854:
 968:Drivers/STM32WLxx_HAL_Driver/Src/stm32wlxx_hal_dma.c ****   /* Return DMA handle state */
 1898              		.loc 1 968 1 is_stmt 1 view -0
 1899              		.cfi_startproc
 1900              		@ args = 0, pretend = 0, frame = 0
 1901              		@ frame_needed = 0, uses_anonymous_args = 0
 1902              		@ link register save eliminated.
 970:Drivers/STM32WLxx_HAL_Driver/Src/stm32wlxx_hal_dma.c **** }
 1903              		.loc 1 970 3 view .LVU691
 970:Drivers/STM32WLxx_HAL_Driver/Src/stm32wlxx_hal_dma.c **** }
 1904              		.loc 1 970 14 is_stmt 0 view .LVU692
 1905 0000 90F82500 		ldrb	r0, [r0, #37]	@ zero_extendqisi2
 1906              	.LVL97:
 971:Drivers/STM32WLxx_HAL_Driver/Src/stm32wlxx_hal_dma.c **** 
 1907              		.loc 1 971 1 view .LVU693
 1908 0004 7047     		bx	lr
 1909              		.cfi_endproc
 1910              	.LFE854:
 1912              		.section	.text.HAL_DMA_GetError,"ax",%progbits
 1913              		.align	1
 1914              		.global	HAL_DMA_GetError
 1915              		.syntax unified
 1916              		.thumb
ARM GAS  /var/folders/9y/n02fl3g16gnf7ppy14xghdy80000gn/T//cckqCF9e.s 			page 68


 1917              		.thumb_func
 1918              		.fpu softvfp
 1920              	HAL_DMA_GetError:
 1921              	.LVL98:
 1922              	.LFB855:
 980:Drivers/STM32WLxx_HAL_Driver/Src/stm32wlxx_hal_dma.c ****   /* Return the DMA error code */
 1923              		.loc 1 980 1 is_stmt 1 view -0
 1924              		.cfi_startproc
 1925              		@ args = 0, pretend = 0, frame = 0
 1926              		@ frame_needed = 0, uses_anonymous_args = 0
 1927              		@ link register save eliminated.
 982:Drivers/STM32WLxx_HAL_Driver/Src/stm32wlxx_hal_dma.c **** }
 1928              		.loc 1 982 3 view .LVU695
 982:Drivers/STM32WLxx_HAL_Driver/Src/stm32wlxx_hal_dma.c **** }
 1929              		.loc 1 982 14 is_stmt 0 view .LVU696
 1930 0000 C06B     		ldr	r0, [r0, #60]
 1931              	.LVL99:
 983:Drivers/STM32WLxx_HAL_Driver/Src/stm32wlxx_hal_dma.c **** 
 1932              		.loc 1 983 1 view .LVU697
 1933 0002 7047     		bx	lr
 1934              		.cfi_endproc
 1935              	.LFE855:
 1937              		.text
 1938              	.Letext0:
 1939              		.file 2 "/opt/homebrew/Cellar/arm-none-eabi-gcc/10.3-2021.07/gcc/arm-none-eabi/include/machine/_de
 1940              		.file 3 "/opt/homebrew/Cellar/arm-none-eabi-gcc/10.3-2021.07/gcc/arm-none-eabi/include/sys/_stdint
 1941              		.file 4 "Drivers/CMSIS/Device/ST/STM32WLxx/Include/stm32wle5xx.h"
 1942              		.file 5 "Drivers/STM32WLxx_HAL_Driver/Inc/stm32wlxx_hal_def.h"
 1943              		.file 6 "Drivers/STM32WLxx_HAL_Driver/Inc/stm32wlxx_hal_dma.h"
 1944              		.file 7 "Drivers/STM32WLxx_HAL_Driver/Inc/stm32wlxx_ll_dma.h"
 1945              		.file 8 "Drivers/STM32WLxx_HAL_Driver/Inc/stm32wlxx_hal.h"
ARM GAS  /var/folders/9y/n02fl3g16gnf7ppy14xghdy80000gn/T//cckqCF9e.s 			page 69


DEFINED SYMBOLS
                            *ABS*:0000000000000000 stm32wlxx_hal_dma.c
/var/folders/9y/n02fl3g16gnf7ppy14xghdy80000gn/T//cckqCF9e.s:16     .text.DMA_SetConfig:0000000000000000 $t
/var/folders/9y/n02fl3g16gnf7ppy14xghdy80000gn/T//cckqCF9e.s:23     .text.DMA_SetConfig:0000000000000000 DMA_SetConfig
/var/folders/9y/n02fl3g16gnf7ppy14xghdy80000gn/T//cckqCF9e.s:114    .text.DMA_CalcDMAMUXChannelBaseAndMask:0000000000000000 $t
/var/folders/9y/n02fl3g16gnf7ppy14xghdy80000gn/T//cckqCF9e.s:120    .text.DMA_CalcDMAMUXChannelBaseAndMask:0000000000000000 DMA_CalcDMAMUXChannelBaseAndMask
/var/folders/9y/n02fl3g16gnf7ppy14xghdy80000gn/T//cckqCF9e.s:198    .text.DMA_CalcDMAMUXChannelBaseAndMask:0000000000000054 $d
/var/folders/9y/n02fl3g16gnf7ppy14xghdy80000gn/T//cckqCF9e.s:206    .text.DMA_CalcDMAMUXRequestGenBaseAndMask:0000000000000000 $t
/var/folders/9y/n02fl3g16gnf7ppy14xghdy80000gn/T//cckqCF9e.s:212    .text.DMA_CalcDMAMUXRequestGenBaseAndMask:0000000000000000 DMA_CalcDMAMUXRequestGenBaseAndMask
/var/folders/9y/n02fl3g16gnf7ppy14xghdy80000gn/T//cckqCF9e.s:254    .text.DMA_CalcDMAMUXRequestGenBaseAndMask:0000000000000024 $d
/var/folders/9y/n02fl3g16gnf7ppy14xghdy80000gn/T//cckqCF9e.s:260    .text.HAL_DMA_Init:0000000000000000 $t
/var/folders/9y/n02fl3g16gnf7ppy14xghdy80000gn/T//cckqCF9e.s:267    .text.HAL_DMA_Init:0000000000000000 HAL_DMA_Init
/var/folders/9y/n02fl3g16gnf7ppy14xghdy80000gn/T//cckqCF9e.s:465    .text.HAL_DMA_Init:00000000000000cc $d
/var/folders/9y/n02fl3g16gnf7ppy14xghdy80000gn/T//cckqCF9e.s:475    .text.HAL_DMA_DeInit:0000000000000000 $t
/var/folders/9y/n02fl3g16gnf7ppy14xghdy80000gn/T//cckqCF9e.s:482    .text.HAL_DMA_DeInit:0000000000000000 HAL_DMA_DeInit
/var/folders/9y/n02fl3g16gnf7ppy14xghdy80000gn/T//cckqCF9e.s:662    .text.HAL_DMA_DeInit:00000000000000a0 $d
/var/folders/9y/n02fl3g16gnf7ppy14xghdy80000gn/T//cckqCF9e.s:672    .text.HAL_DMA_Start:0000000000000000 $t
/var/folders/9y/n02fl3g16gnf7ppy14xghdy80000gn/T//cckqCF9e.s:679    .text.HAL_DMA_Start:0000000000000000 HAL_DMA_Start
/var/folders/9y/n02fl3g16gnf7ppy14xghdy80000gn/T//cckqCF9e.s:770    .text.HAL_DMA_Start_IT:0000000000000000 $t
/var/folders/9y/n02fl3g16gnf7ppy14xghdy80000gn/T//cckqCF9e.s:777    .text.HAL_DMA_Start_IT:0000000000000000 HAL_DMA_Start_IT
/var/folders/9y/n02fl3g16gnf7ppy14xghdy80000gn/T//cckqCF9e.s:916    .text.HAL_DMA_Abort:0000000000000000 $t
/var/folders/9y/n02fl3g16gnf7ppy14xghdy80000gn/T//cckqCF9e.s:923    .text.HAL_DMA_Abort:0000000000000000 HAL_DMA_Abort
/var/folders/9y/n02fl3g16gnf7ppy14xghdy80000gn/T//cckqCF9e.s:1038   .text.HAL_DMA_Abort_IT:0000000000000000 $t
/var/folders/9y/n02fl3g16gnf7ppy14xghdy80000gn/T//cckqCF9e.s:1045   .text.HAL_DMA_Abort_IT:0000000000000000 HAL_DMA_Abort_IT
/var/folders/9y/n02fl3g16gnf7ppy14xghdy80000gn/T//cckqCF9e.s:1166   .text.HAL_DMA_PollForTransfer:0000000000000000 $t
/var/folders/9y/n02fl3g16gnf7ppy14xghdy80000gn/T//cckqCF9e.s:1173   .text.HAL_DMA_PollForTransfer:0000000000000000 HAL_DMA_PollForTransfer
/var/folders/9y/n02fl3g16gnf7ppy14xghdy80000gn/T//cckqCF9e.s:1451   .text.HAL_DMA_IRQHandler:0000000000000000 $t
/var/folders/9y/n02fl3g16gnf7ppy14xghdy80000gn/T//cckqCF9e.s:1458   .text.HAL_DMA_IRQHandler:0000000000000000 HAL_DMA_IRQHandler
/var/folders/9y/n02fl3g16gnf7ppy14xghdy80000gn/T//cckqCF9e.s:1653   .text.HAL_DMA_IRQHandler:00000000000000dc $d
/var/folders/9y/n02fl3g16gnf7ppy14xghdy80000gn/T//cckqCF9e.s:1660   .text.HAL_DMA_RegisterCallback:0000000000000000 $t
/var/folders/9y/n02fl3g16gnf7ppy14xghdy80000gn/T//cckqCF9e.s:1667   .text.HAL_DMA_RegisterCallback:0000000000000000 HAL_DMA_RegisterCallback
/var/folders/9y/n02fl3g16gnf7ppy14xghdy80000gn/T//cckqCF9e.s:1718   .text.HAL_DMA_RegisterCallback:000000000000002c $d
/var/folders/9y/n02fl3g16gnf7ppy14xghdy80000gn/T//cckqCF9e.s:1722   .text.HAL_DMA_RegisterCallback:0000000000000030 $t
/var/folders/9y/n02fl3g16gnf7ppy14xghdy80000gn/T//cckqCF9e.s:1768   .text.HAL_DMA_UnRegisterCallback:0000000000000000 $t
/var/folders/9y/n02fl3g16gnf7ppy14xghdy80000gn/T//cckqCF9e.s:1775   .text.HAL_DMA_UnRegisterCallback:0000000000000000 HAL_DMA_UnRegisterCallback
/var/folders/9y/n02fl3g16gnf7ppy14xghdy80000gn/T//cckqCF9e.s:1824   .text.HAL_DMA_UnRegisterCallback:000000000000002c $d
/var/folders/9y/n02fl3g16gnf7ppy14xghdy80000gn/T//cckqCF9e.s:1888   .text.HAL_DMA_GetState:0000000000000000 $t
/var/folders/9y/n02fl3g16gnf7ppy14xghdy80000gn/T//cckqCF9e.s:1895   .text.HAL_DMA_GetState:0000000000000000 HAL_DMA_GetState
/var/folders/9y/n02fl3g16gnf7ppy14xghdy80000gn/T//cckqCF9e.s:1913   .text.HAL_DMA_GetError:0000000000000000 $t
/var/folders/9y/n02fl3g16gnf7ppy14xghdy80000gn/T//cckqCF9e.s:1920   .text.HAL_DMA_GetError:0000000000000000 HAL_DMA_GetError
/var/folders/9y/n02fl3g16gnf7ppy14xghdy80000gn/T//cckqCF9e.s:1829   .text.HAL_DMA_UnRegisterCallback:0000000000000031 $d
/var/folders/9y/n02fl3g16gnf7ppy14xghdy80000gn/T//cckqCF9e.s:1829   .text.HAL_DMA_UnRegisterCallback:0000000000000032 $t

UNDEFINED SYMBOLS
HAL_GetTick
