ARM GAS  /var/folders/9y/n02fl3g16gnf7ppy14xghdy80000gn/T//cckWqezL.s 			page 1


   1              		.cpu cortex-m4
   2              		.eabi_attribute 20, 1
   3              		.eabi_attribute 21, 1
   4              		.eabi_attribute 23, 3
   5              		.eabi_attribute 24, 1
   6              		.eabi_attribute 25, 1
   7              		.eabi_attribute 26, 1
   8              		.eabi_attribute 30, 1
   9              		.eabi_attribute 34, 1
  10              		.eabi_attribute 18, 4
  11              		.file	"sys_app.c"
  12              		.text
  13              	.Ltext0:
  14              		.cfi_sections	.debug_frame
  15              		.section	.text.tiny_snprintf_like,"ax",%progbits
  16              		.align	1
  17              		.arch armv7e-m
  18              		.syntax unified
  19              		.thumb
  20              		.thumb_func
  21              		.fpu softvfp
  23              	tiny_snprintf_like:
  24              	.LVL0:
  25              	.LFB1168:
  26              		.file 1 "Core/Src/sys_app.c"
   1:Core/Src/sys_app.c **** /* USER CODE BEGIN Header */
   2:Core/Src/sys_app.c **** /**
   3:Core/Src/sys_app.c ****   ******************************************************************************
   4:Core/Src/sys_app.c ****   * @file    sys_app.c
   5:Core/Src/sys_app.c ****   * @author  MCD Application Team
   6:Core/Src/sys_app.c ****   * @brief   Initializes HW and SW system entities (not related to the radio)
   7:Core/Src/sys_app.c ****   ******************************************************************************
   8:Core/Src/sys_app.c ****   * @attention
   9:Core/Src/sys_app.c ****   *
  10:Core/Src/sys_app.c ****   * Copyright (c) 2022 STMicroelectronics.
  11:Core/Src/sys_app.c ****   * All rights reserved.
  12:Core/Src/sys_app.c ****   *
  13:Core/Src/sys_app.c ****   * This software is licensed under terms that can be found in the LICENSE file
  14:Core/Src/sys_app.c ****   * in the root directory of this software component.
  15:Core/Src/sys_app.c ****   * If no LICENSE file comes with this software, it is provided AS-IS.
  16:Core/Src/sys_app.c ****   *
  17:Core/Src/sys_app.c ****   ******************************************************************************
  18:Core/Src/sys_app.c ****   */
  19:Core/Src/sys_app.c **** /* USER CODE END Header */
  20:Core/Src/sys_app.c **** 
  21:Core/Src/sys_app.c **** /* Includes ------------------------------------------------------------------*/
  22:Core/Src/sys_app.c **** #include <stdio.h>
  23:Core/Src/sys_app.c **** #include "platform.h"
  24:Core/Src/sys_app.c **** #include "sys_app.h"
  25:Core/Src/sys_app.c **** #include "stm32_seq.h"
  26:Core/Src/sys_app.c **** #include "stm32_systime.h"
  27:Core/Src/sys_app.c **** #include "stm32_lpm.h"
  28:Core/Src/sys_app.c **** #include "timer_if.h"
  29:Core/Src/sys_app.c **** #include "utilities_def.h"
  30:Core/Src/sys_app.c **** #include "sys_debug.h"
  31:Core/Src/sys_app.c **** 
  32:Core/Src/sys_app.c **** /* USER CODE BEGIN Includes */
ARM GAS  /var/folders/9y/n02fl3g16gnf7ppy14xghdy80000gn/T//cckWqezL.s 			page 2


  33:Core/Src/sys_app.c **** 
  34:Core/Src/sys_app.c **** /* USER CODE END Includes */
  35:Core/Src/sys_app.c **** 
  36:Core/Src/sys_app.c **** /* External variables ---------------------------------------------------------*/
  37:Core/Src/sys_app.c **** /* USER CODE BEGIN EV */
  38:Core/Src/sys_app.c **** 
  39:Core/Src/sys_app.c **** /* USER CODE END EV */
  40:Core/Src/sys_app.c **** 
  41:Core/Src/sys_app.c **** /* Private typedef -----------------------------------------------------------*/
  42:Core/Src/sys_app.c **** /* USER CODE BEGIN PTD */
  43:Core/Src/sys_app.c **** 
  44:Core/Src/sys_app.c **** /* USER CODE END PTD */
  45:Core/Src/sys_app.c **** 
  46:Core/Src/sys_app.c **** /* Private define ------------------------------------------------------------*/
  47:Core/Src/sys_app.c **** #define MAX_TS_SIZE (int) 16
  48:Core/Src/sys_app.c **** 
  49:Core/Src/sys_app.c **** /* USER CODE BEGIN PD */
  50:Core/Src/sys_app.c **** 
  51:Core/Src/sys_app.c **** /* USER CODE END PD */
  52:Core/Src/sys_app.c **** 
  53:Core/Src/sys_app.c **** /* Private macro -------------------------------------------------------------*/
  54:Core/Src/sys_app.c **** /* USER CODE BEGIN PM */
  55:Core/Src/sys_app.c **** 
  56:Core/Src/sys_app.c **** /* USER CODE END PM */
  57:Core/Src/sys_app.c **** 
  58:Core/Src/sys_app.c **** /* Private variables ---------------------------------------------------------*/
  59:Core/Src/sys_app.c **** static uint8_t SYS_TimerInitialisedFlag = 0;
  60:Core/Src/sys_app.c **** 
  61:Core/Src/sys_app.c **** /* USER CODE BEGIN PV */
  62:Core/Src/sys_app.c **** 
  63:Core/Src/sys_app.c **** /* USER CODE END PV */
  64:Core/Src/sys_app.c **** 
  65:Core/Src/sys_app.c **** /* Private function prototypes -----------------------------------------------*/
  66:Core/Src/sys_app.c **** /**
  67:Core/Src/sys_app.c ****   * @brief Returns sec and msec based on the systime in use
  68:Core/Src/sys_app.c ****   * @param buff to update with timestamp
  69:Core/Src/sys_app.c ****   * @param size of updated buffer
  70:Core/Src/sys_app.c ****   */
  71:Core/Src/sys_app.c **** static void TimestampNow(uint8_t *buff, uint16_t *size);
  72:Core/Src/sys_app.c **** 
  73:Core/Src/sys_app.c **** /**
  74:Core/Src/sys_app.c ****   * @brief  it calls UTIL_ADV_TRACE_VSNPRINTF
  75:Core/Src/sys_app.c ****   */
  76:Core/Src/sys_app.c **** static void tiny_snprintf_like(char *buf, uint32_t maxsize, const char *strFormat, ...);
  77:Core/Src/sys_app.c **** 
  78:Core/Src/sys_app.c **** /* USER CODE BEGIN PFP */
  79:Core/Src/sys_app.c **** 
  80:Core/Src/sys_app.c **** /* USER CODE END PFP */
  81:Core/Src/sys_app.c **** 
  82:Core/Src/sys_app.c **** /* Exported functions ---------------------------------------------------------*/
  83:Core/Src/sys_app.c **** void SystemApp_Init(void)
  84:Core/Src/sys_app.c **** {
  85:Core/Src/sys_app.c ****   /* USER CODE BEGIN SystemApp_Init_1 */
  86:Core/Src/sys_app.c **** 
  87:Core/Src/sys_app.c ****   /* USER CODE END SystemApp_Init_1 */
  88:Core/Src/sys_app.c **** 
  89:Core/Src/sys_app.c ****   /* Ensure that MSI is wake-up system clock */
ARM GAS  /var/folders/9y/n02fl3g16gnf7ppy14xghdy80000gn/T//cckWqezL.s 			page 3


  90:Core/Src/sys_app.c ****   __HAL_RCC_WAKEUPSTOP_CLK_CONFIG(RCC_STOP_WAKEUPCLOCK_MSI);
  91:Core/Src/sys_app.c **** 
  92:Core/Src/sys_app.c ****   /*Initialize timer and RTC*/
  93:Core/Src/sys_app.c ****   UTIL_TIMER_Init();
  94:Core/Src/sys_app.c ****   SYS_TimerInitialisedFlag = 1;
  95:Core/Src/sys_app.c ****   /* Initializes the SW probes pins and the monitor RF pins via Alternate Function */
  96:Core/Src/sys_app.c ****   DBG_Init();
  97:Core/Src/sys_app.c **** 
  98:Core/Src/sys_app.c ****   /*Initialize the terminal */
  99:Core/Src/sys_app.c ****   UTIL_ADV_TRACE_Init();
 100:Core/Src/sys_app.c ****   UTIL_ADV_TRACE_RegisterTimeStampFunction(TimestampNow);
 101:Core/Src/sys_app.c **** 
 102:Core/Src/sys_app.c ****   /*Set verbose LEVEL*/
 103:Core/Src/sys_app.c ****   UTIL_ADV_TRACE_SetVerboseLevel(VERBOSE_LEVEL);
 104:Core/Src/sys_app.c **** 
 105:Core/Src/sys_app.c ****   /*Init low power manager*/
 106:Core/Src/sys_app.c ****   UTIL_LPM_Init();
 107:Core/Src/sys_app.c ****   /* Disable Stand-by mode */
 108:Core/Src/sys_app.c ****   UTIL_LPM_SetOffMode((1 << CFG_LPM_APPLI_Id), UTIL_LPM_DISABLE);
 109:Core/Src/sys_app.c **** 
 110:Core/Src/sys_app.c **** #if defined (LOW_POWER_DISABLE) && (LOW_POWER_DISABLE == 1)
 111:Core/Src/sys_app.c ****   /* Disable Stop Mode */
 112:Core/Src/sys_app.c ****   UTIL_LPM_SetStopMode((1 << CFG_LPM_APPLI_Id), UTIL_LPM_DISABLE);
 113:Core/Src/sys_app.c **** #elif !defined (LOW_POWER_DISABLE)
 114:Core/Src/sys_app.c **** #error LOW_POWER_DISABLE not defined
 115:Core/Src/sys_app.c **** #endif /* LOW_POWER_DISABLE */
 116:Core/Src/sys_app.c **** 
 117:Core/Src/sys_app.c ****   /* USER CODE BEGIN SystemApp_Init_2 */
 118:Core/Src/sys_app.c **** 
 119:Core/Src/sys_app.c ****   /* USER CODE END SystemApp_Init_2 */
 120:Core/Src/sys_app.c **** }
 121:Core/Src/sys_app.c **** 
 122:Core/Src/sys_app.c **** /**
 123:Core/Src/sys_app.c ****   * @brief redefines __weak function in stm32_seq.c such to enter low power
 124:Core/Src/sys_app.c ****   */
 125:Core/Src/sys_app.c **** void UTIL_SEQ_Idle(void)
 126:Core/Src/sys_app.c **** {
 127:Core/Src/sys_app.c ****   /* USER CODE BEGIN UTIL_SEQ_Idle_1 */
 128:Core/Src/sys_app.c **** 
 129:Core/Src/sys_app.c ****   /* USER CODE END UTIL_SEQ_Idle_1 */
 130:Core/Src/sys_app.c ****   UTIL_LPM_EnterLowPower();
 131:Core/Src/sys_app.c ****   /* USER CODE BEGIN UTIL_SEQ_Idle_2 */
 132:Core/Src/sys_app.c **** 
 133:Core/Src/sys_app.c ****   /* USER CODE END UTIL_SEQ_Idle_2 */
 134:Core/Src/sys_app.c **** }
 135:Core/Src/sys_app.c **** 
 136:Core/Src/sys_app.c **** /* USER CODE BEGIN EF */
 137:Core/Src/sys_app.c **** 
 138:Core/Src/sys_app.c **** /* USER CODE END EF */
 139:Core/Src/sys_app.c **** 
 140:Core/Src/sys_app.c **** /* Private functions ---------------------------------------------------------*/
 141:Core/Src/sys_app.c **** 
 142:Core/Src/sys_app.c **** static void TimestampNow(uint8_t *buff, uint16_t *size)
 143:Core/Src/sys_app.c **** {
 144:Core/Src/sys_app.c ****   /* USER CODE BEGIN TimestampNow_1 */
 145:Core/Src/sys_app.c **** 
 146:Core/Src/sys_app.c ****   /* USER CODE END TimestampNow_1 */
ARM GAS  /var/folders/9y/n02fl3g16gnf7ppy14xghdy80000gn/T//cckWqezL.s 			page 4


 147:Core/Src/sys_app.c ****   SysTime_t curtime = SysTimeGet();
 148:Core/Src/sys_app.c ****   tiny_snprintf_like((char *)buff, MAX_TS_SIZE, "%ds%03d:", curtime.Seconds, curtime.SubSeconds);
 149:Core/Src/sys_app.c ****   *size = strlen((char *)buff);
 150:Core/Src/sys_app.c ****   /* USER CODE BEGIN TimestampNow_2 */
 151:Core/Src/sys_app.c **** 
 152:Core/Src/sys_app.c ****   /* USER CODE END TimestampNow_2 */
 153:Core/Src/sys_app.c **** }
 154:Core/Src/sys_app.c **** 
 155:Core/Src/sys_app.c **** /* Disable StopMode when traces need to be printed */
 156:Core/Src/sys_app.c **** void UTIL_ADV_TRACE_PreSendHook(void)
 157:Core/Src/sys_app.c **** {
 158:Core/Src/sys_app.c ****   /* USER CODE BEGIN UTIL_ADV_TRACE_PreSendHook_1 */
 159:Core/Src/sys_app.c **** 
 160:Core/Src/sys_app.c ****   /* USER CODE END UTIL_ADV_TRACE_PreSendHook_1 */
 161:Core/Src/sys_app.c ****   UTIL_LPM_SetStopMode((1 << CFG_LPM_UART_TX_Id), UTIL_LPM_DISABLE);
 162:Core/Src/sys_app.c ****   /* USER CODE BEGIN UTIL_ADV_TRACE_PreSendHook_2 */
 163:Core/Src/sys_app.c **** 
 164:Core/Src/sys_app.c ****   /* USER CODE END UTIL_ADV_TRACE_PreSendHook_2 */
 165:Core/Src/sys_app.c **** }
 166:Core/Src/sys_app.c **** /* Re-enable StopMode when traces have been printed */
 167:Core/Src/sys_app.c **** void UTIL_ADV_TRACE_PostSendHook(void)
 168:Core/Src/sys_app.c **** {
 169:Core/Src/sys_app.c ****   /* USER CODE BEGIN UTIL_LPM_SetStopMode_1 */
 170:Core/Src/sys_app.c **** 
 171:Core/Src/sys_app.c ****   /* USER CODE END UTIL_LPM_SetStopMode_1 */
 172:Core/Src/sys_app.c ****   UTIL_LPM_SetStopMode((1 << CFG_LPM_UART_TX_Id), UTIL_LPM_ENABLE);
 173:Core/Src/sys_app.c ****   /* USER CODE BEGIN UTIL_LPM_SetStopMode_2 */
 174:Core/Src/sys_app.c **** 
 175:Core/Src/sys_app.c ****   /* USER CODE END UTIL_LPM_SetStopMode_2 */
 176:Core/Src/sys_app.c **** }
 177:Core/Src/sys_app.c **** 
 178:Core/Src/sys_app.c **** static void tiny_snprintf_like(char *buf, uint32_t maxsize, const char *strFormat, ...)
 179:Core/Src/sys_app.c **** {
  27              		.loc 1 179 1 view -0
  28              		.cfi_startproc
  29              		@ args = 4, pretend = 8, frame = 8
  30              		@ frame_needed = 0, uses_anonymous_args = 1
  31              		.loc 1 179 1 is_stmt 0 view .LVU1
  32 0000 0CB4     		push	{r2, r3}
  33              		.cfi_def_cfa_offset 8
  34              		.cfi_offset 2, -8
  35              		.cfi_offset 3, -4
  36 0002 00B5     		push	{lr}
  37              		.cfi_def_cfa_offset 12
  38              		.cfi_offset 14, -12
  39 0004 83B0     		sub	sp, sp, #12
  40              		.cfi_def_cfa_offset 24
  41 0006 04AB     		add	r3, sp, #16
  42 0008 53F8042B 		ldr	r2, [r3], #4
 180:Core/Src/sys_app.c ****   /* USER CODE BEGIN tiny_snprintf_like_1 */
 181:Core/Src/sys_app.c **** 
 182:Core/Src/sys_app.c ****   /* USER CODE END tiny_snprintf_like_1 */
 183:Core/Src/sys_app.c ****   va_list vaArgs;
  43              		.loc 1 183 3 is_stmt 1 view .LVU2
 184:Core/Src/sys_app.c ****   va_start(vaArgs, strFormat);
  44              		.loc 1 184 3 view .LVU3
  45 000c 0193     		str	r3, [sp, #4]
ARM GAS  /var/folders/9y/n02fl3g16gnf7ppy14xghdy80000gn/T//cckWqezL.s 			page 5


 185:Core/Src/sys_app.c ****   UTIL_ADV_TRACE_VSNPRINTF(buf, maxsize, strFormat, vaArgs);
  46              		.loc 1 185 3 view .LVU4
  47 000e FFF7FEFF 		bl	tiny_vsnprintf_like
  48              	.LVL1:
 186:Core/Src/sys_app.c ****   va_end(vaArgs);
  49              		.loc 1 186 3 view .LVU5
 187:Core/Src/sys_app.c ****   /* USER CODE BEGIN tiny_snprintf_like_2 */
 188:Core/Src/sys_app.c **** 
 189:Core/Src/sys_app.c ****   /* USER CODE END tiny_snprintf_like_2 */
 190:Core/Src/sys_app.c **** }
  50              		.loc 1 190 1 is_stmt 0 view .LVU6
  51 0012 03B0     		add	sp, sp, #12
  52              		.cfi_def_cfa_offset 12
  53              		@ sp needed
  54 0014 5DF804EB 		ldr	lr, [sp], #4
  55              		.cfi_restore 14
  56              		.cfi_def_cfa_offset 8
  57 0018 02B0     		add	sp, sp, #8
  58              		.cfi_restore 3
  59              		.cfi_restore 2
  60              		.cfi_def_cfa_offset 0
  61 001a 7047     		bx	lr
  62              		.cfi_endproc
  63              	.LFE1168:
  65              		.section	.rodata.TimestampNow.str1.4,"aMS",%progbits,1
  66              		.align	2
  67              	.LC0:
  68 0000 25647325 		.ascii	"%ds%03d:\000"
  68      3033643A 
  68      00
  69              		.section	.text.TimestampNow,"ax",%progbits
  70              		.align	1
  71              		.syntax unified
  72              		.thumb
  73              		.thumb_func
  74              		.fpu softvfp
  76              	TimestampNow:
  77              	.LVL2:
  78              	.LFB1165:
 143:Core/Src/sys_app.c ****   /* USER CODE BEGIN TimestampNow_1 */
  79              		.loc 1 143 1 is_stmt 1 view -0
  80              		.cfi_startproc
  81              		@ args = 0, pretend = 0, frame = 8
  82              		@ frame_needed = 0, uses_anonymous_args = 0
 143:Core/Src/sys_app.c ****   /* USER CODE BEGIN TimestampNow_1 */
  83              		.loc 1 143 1 is_stmt 0 view .LVU8
  84 0000 30B5     		push	{r4, r5, lr}
  85              		.cfi_def_cfa_offset 12
  86              		.cfi_offset 4, -12
  87              		.cfi_offset 5, -8
  88              		.cfi_offset 14, -4
  89 0002 85B0     		sub	sp, sp, #20
  90              		.cfi_def_cfa_offset 32
  91 0004 0446     		mov	r4, r0
  92 0006 0D46     		mov	r5, r1
 147:Core/Src/sys_app.c ****   tiny_snprintf_like((char *)buff, MAX_TS_SIZE, "%ds%03d:", curtime.Seconds, curtime.SubSeconds);
  93              		.loc 1 147 3 is_stmt 1 view .LVU9
ARM GAS  /var/folders/9y/n02fl3g16gnf7ppy14xghdy80000gn/T//cckWqezL.s 			page 6


 147:Core/Src/sys_app.c ****   tiny_snprintf_like((char *)buff, MAX_TS_SIZE, "%ds%03d:", curtime.Seconds, curtime.SubSeconds);
  94              		.loc 1 147 23 is_stmt 0 view .LVU10
  95 0008 02A8     		add	r0, sp, #8
  96              	.LVL3:
 147:Core/Src/sys_app.c ****   tiny_snprintf_like((char *)buff, MAX_TS_SIZE, "%ds%03d:", curtime.Seconds, curtime.SubSeconds);
  97              		.loc 1 147 23 view .LVU11
  98 000a FFF7FEFF 		bl	SysTimeGet
  99              	.LVL4:
 148:Core/Src/sys_app.c ****   *size = strlen((char *)buff);
 100              		.loc 1 148 3 is_stmt 1 view .LVU12
 148:Core/Src/sys_app.c ****   *size = strlen((char *)buff);
 101              		.loc 1 148 85 is_stmt 0 view .LVU13
 102 000e BDF90C30 		ldrsh	r3, [sp, #12]
 148:Core/Src/sys_app.c ****   *size = strlen((char *)buff);
 103              		.loc 1 148 3 view .LVU14
 104 0012 0093     		str	r3, [sp]
 105 0014 029B     		ldr	r3, [sp, #8]
 106 0016 054A     		ldr	r2, .L5
 107 0018 1021     		movs	r1, #16
 108 001a 2046     		mov	r0, r4
 109 001c FFF7FEFF 		bl	tiny_snprintf_like
 110              	.LVL5:
 149:Core/Src/sys_app.c ****   /* USER CODE BEGIN TimestampNow_2 */
 111              		.loc 1 149 3 is_stmt 1 view .LVU15
 149:Core/Src/sys_app.c ****   /* USER CODE BEGIN TimestampNow_2 */
 112              		.loc 1 149 11 is_stmt 0 view .LVU16
 113 0020 2046     		mov	r0, r4
 114 0022 FFF7FEFF 		bl	strlen
 115              	.LVL6:
 149:Core/Src/sys_app.c ****   /* USER CODE BEGIN TimestampNow_2 */
 116              		.loc 1 149 9 view .LVU17
 117 0026 2880     		strh	r0, [r5]	@ movhi
 153:Core/Src/sys_app.c **** 
 118              		.loc 1 153 1 view .LVU18
 119 0028 05B0     		add	sp, sp, #20
 120              		.cfi_def_cfa_offset 12
 121              		@ sp needed
 122 002a 30BD     		pop	{r4, r5, pc}
 123              	.LVL7:
 124              	.L6:
 153:Core/Src/sys_app.c **** 
 125              		.loc 1 153 1 view .LVU19
 126              		.align	2
 127              	.L5:
 128 002c 00000000 		.word	.LC0
 129              		.cfi_endproc
 130              	.LFE1165:
 132              		.section	.text.SystemApp_Init,"ax",%progbits
 133              		.align	1
 134              		.global	SystemApp_Init
 135              		.syntax unified
 136              		.thumb
 137              		.thumb_func
 138              		.fpu softvfp
 140              	SystemApp_Init:
 141              	.LFB1163:
  84:Core/Src/sys_app.c ****   /* USER CODE BEGIN SystemApp_Init_1 */
ARM GAS  /var/folders/9y/n02fl3g16gnf7ppy14xghdy80000gn/T//cckWqezL.s 			page 7


 142              		.loc 1 84 1 is_stmt 1 view -0
 143              		.cfi_startproc
 144              		@ args = 0, pretend = 0, frame = 0
 145              		@ frame_needed = 0, uses_anonymous_args = 0
 146 0000 10B5     		push	{r4, lr}
 147              		.cfi_def_cfa_offset 8
 148              		.cfi_offset 4, -8
 149              		.cfi_offset 14, -4
  90:Core/Src/sys_app.c **** 
 150              		.loc 1 90 3 view .LVU21
 151              	.LVL8:
 152              	.LBB4:
 153              	.LBI4:
 154              		.file 2 "Drivers/STM32WLxx_HAL_Driver/Inc/stm32wlxx_ll_rcc.h"
   1:Drivers/STM32WLxx_HAL_Driver/Inc/stm32wlxx_ll_rcc.h **** /**
   2:Drivers/STM32WLxx_HAL_Driver/Inc/stm32wlxx_ll_rcc.h ****   ******************************************************************************
   3:Drivers/STM32WLxx_HAL_Driver/Inc/stm32wlxx_ll_rcc.h ****   * @file    stm32wlxx_ll_rcc.h
   4:Drivers/STM32WLxx_HAL_Driver/Inc/stm32wlxx_ll_rcc.h ****   * @author  MCD Application Team
   5:Drivers/STM32WLxx_HAL_Driver/Inc/stm32wlxx_ll_rcc.h ****   * @brief   Header file of RCC LL module.
   6:Drivers/STM32WLxx_HAL_Driver/Inc/stm32wlxx_ll_rcc.h ****   ******************************************************************************
   7:Drivers/STM32WLxx_HAL_Driver/Inc/stm32wlxx_ll_rcc.h ****   * @attention
   8:Drivers/STM32WLxx_HAL_Driver/Inc/stm32wlxx_ll_rcc.h ****   *
   9:Drivers/STM32WLxx_HAL_Driver/Inc/stm32wlxx_ll_rcc.h ****   * Copyright (c) 2020 STMicroelectronics.
  10:Drivers/STM32WLxx_HAL_Driver/Inc/stm32wlxx_ll_rcc.h ****   * All rights reserved.
  11:Drivers/STM32WLxx_HAL_Driver/Inc/stm32wlxx_ll_rcc.h ****   *
  12:Drivers/STM32WLxx_HAL_Driver/Inc/stm32wlxx_ll_rcc.h ****   * This software is licensed under terms that can be found in the LICENSE file
  13:Drivers/STM32WLxx_HAL_Driver/Inc/stm32wlxx_ll_rcc.h ****   * in the root directory of this software component.
  14:Drivers/STM32WLxx_HAL_Driver/Inc/stm32wlxx_ll_rcc.h ****   * If no LICENSE file comes with this software, it is provided AS-IS.
  15:Drivers/STM32WLxx_HAL_Driver/Inc/stm32wlxx_ll_rcc.h ****   *
  16:Drivers/STM32WLxx_HAL_Driver/Inc/stm32wlxx_ll_rcc.h ****   ******************************************************************************
  17:Drivers/STM32WLxx_HAL_Driver/Inc/stm32wlxx_ll_rcc.h ****   */
  18:Drivers/STM32WLxx_HAL_Driver/Inc/stm32wlxx_ll_rcc.h **** 
  19:Drivers/STM32WLxx_HAL_Driver/Inc/stm32wlxx_ll_rcc.h **** /* Define to prevent recursive inclusion -------------------------------------*/
  20:Drivers/STM32WLxx_HAL_Driver/Inc/stm32wlxx_ll_rcc.h **** #ifndef __STM32WLxx_LL_RCC_H
  21:Drivers/STM32WLxx_HAL_Driver/Inc/stm32wlxx_ll_rcc.h **** #define __STM32WLxx_LL_RCC_H
  22:Drivers/STM32WLxx_HAL_Driver/Inc/stm32wlxx_ll_rcc.h **** 
  23:Drivers/STM32WLxx_HAL_Driver/Inc/stm32wlxx_ll_rcc.h **** #ifdef __cplusplus
  24:Drivers/STM32WLxx_HAL_Driver/Inc/stm32wlxx_ll_rcc.h **** extern "C" {
  25:Drivers/STM32WLxx_HAL_Driver/Inc/stm32wlxx_ll_rcc.h **** #endif
  26:Drivers/STM32WLxx_HAL_Driver/Inc/stm32wlxx_ll_rcc.h **** 
  27:Drivers/STM32WLxx_HAL_Driver/Inc/stm32wlxx_ll_rcc.h **** /* Includes ------------------------------------------------------------------*/
  28:Drivers/STM32WLxx_HAL_Driver/Inc/stm32wlxx_ll_rcc.h **** #include "stm32wlxx.h"
  29:Drivers/STM32WLxx_HAL_Driver/Inc/stm32wlxx_ll_rcc.h **** 
  30:Drivers/STM32WLxx_HAL_Driver/Inc/stm32wlxx_ll_rcc.h **** /** @addtogroup STM32WLxx_LL_Driver
  31:Drivers/STM32WLxx_HAL_Driver/Inc/stm32wlxx_ll_rcc.h ****   * @{
  32:Drivers/STM32WLxx_HAL_Driver/Inc/stm32wlxx_ll_rcc.h ****   */
  33:Drivers/STM32WLxx_HAL_Driver/Inc/stm32wlxx_ll_rcc.h **** 
  34:Drivers/STM32WLxx_HAL_Driver/Inc/stm32wlxx_ll_rcc.h **** #if defined(RCC)
  35:Drivers/STM32WLxx_HAL_Driver/Inc/stm32wlxx_ll_rcc.h **** 
  36:Drivers/STM32WLxx_HAL_Driver/Inc/stm32wlxx_ll_rcc.h **** /** @defgroup RCC_LL RCC
  37:Drivers/STM32WLxx_HAL_Driver/Inc/stm32wlxx_ll_rcc.h ****   * @{
  38:Drivers/STM32WLxx_HAL_Driver/Inc/stm32wlxx_ll_rcc.h ****   */
  39:Drivers/STM32WLxx_HAL_Driver/Inc/stm32wlxx_ll_rcc.h **** 
  40:Drivers/STM32WLxx_HAL_Driver/Inc/stm32wlxx_ll_rcc.h **** /* Private types -------------------------------------------------------------*/
  41:Drivers/STM32WLxx_HAL_Driver/Inc/stm32wlxx_ll_rcc.h **** /* Private variables ---------------------------------------------------------*/
  42:Drivers/STM32WLxx_HAL_Driver/Inc/stm32wlxx_ll_rcc.h **** /** @defgroup RCC_LL_Private_Variables RCC Private Variables
  43:Drivers/STM32WLxx_HAL_Driver/Inc/stm32wlxx_ll_rcc.h ****   * @{
ARM GAS  /var/folders/9y/n02fl3g16gnf7ppy14xghdy80000gn/T//cckWqezL.s 			page 8


  44:Drivers/STM32WLxx_HAL_Driver/Inc/stm32wlxx_ll_rcc.h ****   */
  45:Drivers/STM32WLxx_HAL_Driver/Inc/stm32wlxx_ll_rcc.h **** 
  46:Drivers/STM32WLxx_HAL_Driver/Inc/stm32wlxx_ll_rcc.h **** #define HSE_CONTROL_UNLOCK_KEY 0xCAFECAFEU
  47:Drivers/STM32WLxx_HAL_Driver/Inc/stm32wlxx_ll_rcc.h **** 
  48:Drivers/STM32WLxx_HAL_Driver/Inc/stm32wlxx_ll_rcc.h **** /**
  49:Drivers/STM32WLxx_HAL_Driver/Inc/stm32wlxx_ll_rcc.h ****   * @}
  50:Drivers/STM32WLxx_HAL_Driver/Inc/stm32wlxx_ll_rcc.h ****   */
  51:Drivers/STM32WLxx_HAL_Driver/Inc/stm32wlxx_ll_rcc.h **** 
  52:Drivers/STM32WLxx_HAL_Driver/Inc/stm32wlxx_ll_rcc.h **** /* Private constants ---------------------------------------------------------*/
  53:Drivers/STM32WLxx_HAL_Driver/Inc/stm32wlxx_ll_rcc.h **** /* Private macros ------------------------------------------------------------*/
  54:Drivers/STM32WLxx_HAL_Driver/Inc/stm32wlxx_ll_rcc.h **** #if defined(USE_FULL_LL_DRIVER)
  55:Drivers/STM32WLxx_HAL_Driver/Inc/stm32wlxx_ll_rcc.h **** /** @defgroup RCC_LL_Private_Macros RCC Private Macros
  56:Drivers/STM32WLxx_HAL_Driver/Inc/stm32wlxx_ll_rcc.h ****   * @{
  57:Drivers/STM32WLxx_HAL_Driver/Inc/stm32wlxx_ll_rcc.h ****   */
  58:Drivers/STM32WLxx_HAL_Driver/Inc/stm32wlxx_ll_rcc.h **** /**
  59:Drivers/STM32WLxx_HAL_Driver/Inc/stm32wlxx_ll_rcc.h ****   * @}
  60:Drivers/STM32WLxx_HAL_Driver/Inc/stm32wlxx_ll_rcc.h ****   */
  61:Drivers/STM32WLxx_HAL_Driver/Inc/stm32wlxx_ll_rcc.h **** #endif /*USE_FULL_LL_DRIVER*/
  62:Drivers/STM32WLxx_HAL_Driver/Inc/stm32wlxx_ll_rcc.h **** 
  63:Drivers/STM32WLxx_HAL_Driver/Inc/stm32wlxx_ll_rcc.h **** /* Exported types ------------------------------------------------------------*/
  64:Drivers/STM32WLxx_HAL_Driver/Inc/stm32wlxx_ll_rcc.h **** #if defined(USE_FULL_LL_DRIVER)
  65:Drivers/STM32WLxx_HAL_Driver/Inc/stm32wlxx_ll_rcc.h **** /** @defgroup RCC_LL_Exported_Types RCC Exported Types
  66:Drivers/STM32WLxx_HAL_Driver/Inc/stm32wlxx_ll_rcc.h ****   * @{
  67:Drivers/STM32WLxx_HAL_Driver/Inc/stm32wlxx_ll_rcc.h ****   */
  68:Drivers/STM32WLxx_HAL_Driver/Inc/stm32wlxx_ll_rcc.h **** 
  69:Drivers/STM32WLxx_HAL_Driver/Inc/stm32wlxx_ll_rcc.h **** /** @defgroup LL_ES_CLOCK_FREQ Clocks Frequency Structure
  70:Drivers/STM32WLxx_HAL_Driver/Inc/stm32wlxx_ll_rcc.h ****   * @{
  71:Drivers/STM32WLxx_HAL_Driver/Inc/stm32wlxx_ll_rcc.h ****   */
  72:Drivers/STM32WLxx_HAL_Driver/Inc/stm32wlxx_ll_rcc.h **** 
  73:Drivers/STM32WLxx_HAL_Driver/Inc/stm32wlxx_ll_rcc.h **** /**
  74:Drivers/STM32WLxx_HAL_Driver/Inc/stm32wlxx_ll_rcc.h ****   * @brief  RCC Clocks Frequency Structure
  75:Drivers/STM32WLxx_HAL_Driver/Inc/stm32wlxx_ll_rcc.h ****   */
  76:Drivers/STM32WLxx_HAL_Driver/Inc/stm32wlxx_ll_rcc.h **** typedef struct
  77:Drivers/STM32WLxx_HAL_Driver/Inc/stm32wlxx_ll_rcc.h **** {
  78:Drivers/STM32WLxx_HAL_Driver/Inc/stm32wlxx_ll_rcc.h ****   uint32_t SYSCLK_Frequency;         /*!< SYSCLK clock frequency */
  79:Drivers/STM32WLxx_HAL_Driver/Inc/stm32wlxx_ll_rcc.h ****   uint32_t HCLK1_Frequency;          /*!< HCLK1 clock frequency  */
  80:Drivers/STM32WLxx_HAL_Driver/Inc/stm32wlxx_ll_rcc.h **** #if defined(DUAL_CORE)
  81:Drivers/STM32WLxx_HAL_Driver/Inc/stm32wlxx_ll_rcc.h ****   uint32_t HCLK2_Frequency;          /*!< HCLK2 clock frequency  */
  82:Drivers/STM32WLxx_HAL_Driver/Inc/stm32wlxx_ll_rcc.h **** #endif /* DUAL_CORE */
  83:Drivers/STM32WLxx_HAL_Driver/Inc/stm32wlxx_ll_rcc.h ****   uint32_t HCLK3_Frequency;          /*!< HCLK3 clock frequency  */
  84:Drivers/STM32WLxx_HAL_Driver/Inc/stm32wlxx_ll_rcc.h ****   uint32_t PCLK1_Frequency;          /*!< PCLK1 clock frequency  */
  85:Drivers/STM32WLxx_HAL_Driver/Inc/stm32wlxx_ll_rcc.h ****   uint32_t PCLK2_Frequency;          /*!< PCLK2 clock frequency  */
  86:Drivers/STM32WLxx_HAL_Driver/Inc/stm32wlxx_ll_rcc.h **** } LL_RCC_ClocksTypeDef;
  87:Drivers/STM32WLxx_HAL_Driver/Inc/stm32wlxx_ll_rcc.h **** 
  88:Drivers/STM32WLxx_HAL_Driver/Inc/stm32wlxx_ll_rcc.h **** /**
  89:Drivers/STM32WLxx_HAL_Driver/Inc/stm32wlxx_ll_rcc.h ****   * @}
  90:Drivers/STM32WLxx_HAL_Driver/Inc/stm32wlxx_ll_rcc.h ****   */
  91:Drivers/STM32WLxx_HAL_Driver/Inc/stm32wlxx_ll_rcc.h **** 
  92:Drivers/STM32WLxx_HAL_Driver/Inc/stm32wlxx_ll_rcc.h **** /**
  93:Drivers/STM32WLxx_HAL_Driver/Inc/stm32wlxx_ll_rcc.h ****   * @}
  94:Drivers/STM32WLxx_HAL_Driver/Inc/stm32wlxx_ll_rcc.h ****   */
  95:Drivers/STM32WLxx_HAL_Driver/Inc/stm32wlxx_ll_rcc.h **** #endif /* USE_FULL_LL_DRIVER */
  96:Drivers/STM32WLxx_HAL_Driver/Inc/stm32wlxx_ll_rcc.h **** 
  97:Drivers/STM32WLxx_HAL_Driver/Inc/stm32wlxx_ll_rcc.h **** /* Exported constants --------------------------------------------------------*/
  98:Drivers/STM32WLxx_HAL_Driver/Inc/stm32wlxx_ll_rcc.h **** /** @defgroup RCC_LL_Exported_Constants RCC Exported Constants
  99:Drivers/STM32WLxx_HAL_Driver/Inc/stm32wlxx_ll_rcc.h ****   * @{
 100:Drivers/STM32WLxx_HAL_Driver/Inc/stm32wlxx_ll_rcc.h ****   */
ARM GAS  /var/folders/9y/n02fl3g16gnf7ppy14xghdy80000gn/T//cckWqezL.s 			page 9


 101:Drivers/STM32WLxx_HAL_Driver/Inc/stm32wlxx_ll_rcc.h **** 
 102:Drivers/STM32WLxx_HAL_Driver/Inc/stm32wlxx_ll_rcc.h **** /** @defgroup RCC_LL_EC_OSC_VALUES Oscillator Values adaptation
 103:Drivers/STM32WLxx_HAL_Driver/Inc/stm32wlxx_ll_rcc.h ****   * @brief    Defines used to adapt values of different oscillators
 104:Drivers/STM32WLxx_HAL_Driver/Inc/stm32wlxx_ll_rcc.h ****   * @note     These values could be modified in the user environment according to
 105:Drivers/STM32WLxx_HAL_Driver/Inc/stm32wlxx_ll_rcc.h ****   *           HW set-up.
 106:Drivers/STM32WLxx_HAL_Driver/Inc/stm32wlxx_ll_rcc.h ****   * @{
 107:Drivers/STM32WLxx_HAL_Driver/Inc/stm32wlxx_ll_rcc.h ****   */
 108:Drivers/STM32WLxx_HAL_Driver/Inc/stm32wlxx_ll_rcc.h **** #if !defined  (HSE_VALUE)
 109:Drivers/STM32WLxx_HAL_Driver/Inc/stm32wlxx_ll_rcc.h **** #define HSE_VALUE    32000000U  /*!< Value of the HSE oscillator in Hz */
 110:Drivers/STM32WLxx_HAL_Driver/Inc/stm32wlxx_ll_rcc.h **** #endif /* HSE_VALUE */
 111:Drivers/STM32WLxx_HAL_Driver/Inc/stm32wlxx_ll_rcc.h **** 
 112:Drivers/STM32WLxx_HAL_Driver/Inc/stm32wlxx_ll_rcc.h **** #if !defined  (HSI_VALUE)
 113:Drivers/STM32WLxx_HAL_Driver/Inc/stm32wlxx_ll_rcc.h **** #define HSI_VALUE    16000000U  /*!< Value of the HSI oscillator in Hz */
 114:Drivers/STM32WLxx_HAL_Driver/Inc/stm32wlxx_ll_rcc.h **** #endif /* HSI_VALUE */
 115:Drivers/STM32WLxx_HAL_Driver/Inc/stm32wlxx_ll_rcc.h **** 
 116:Drivers/STM32WLxx_HAL_Driver/Inc/stm32wlxx_ll_rcc.h **** #if !defined  (LSE_VALUE)
 117:Drivers/STM32WLxx_HAL_Driver/Inc/stm32wlxx_ll_rcc.h **** #define LSE_VALUE    32768U     /*!< Value of the LSE oscillator in Hz */
 118:Drivers/STM32WLxx_HAL_Driver/Inc/stm32wlxx_ll_rcc.h **** #endif /* LSE_VALUE */
 119:Drivers/STM32WLxx_HAL_Driver/Inc/stm32wlxx_ll_rcc.h **** 
 120:Drivers/STM32WLxx_HAL_Driver/Inc/stm32wlxx_ll_rcc.h **** #if !defined  (LSI_VALUE)
 121:Drivers/STM32WLxx_HAL_Driver/Inc/stm32wlxx_ll_rcc.h **** #define LSI_VALUE    32000U     /*!< Value of the LSI oscillator in Hz */
 122:Drivers/STM32WLxx_HAL_Driver/Inc/stm32wlxx_ll_rcc.h **** #endif /* LSI_VALUE */
 123:Drivers/STM32WLxx_HAL_Driver/Inc/stm32wlxx_ll_rcc.h **** 
 124:Drivers/STM32WLxx_HAL_Driver/Inc/stm32wlxx_ll_rcc.h **** #if !defined  (EXTERNAL_CLOCK_VALUE)
 125:Drivers/STM32WLxx_HAL_Driver/Inc/stm32wlxx_ll_rcc.h **** #define EXTERNAL_CLOCK_VALUE    48000U /*!< Value of the I2S_CKIN external oscillator in Hz */
 126:Drivers/STM32WLxx_HAL_Driver/Inc/stm32wlxx_ll_rcc.h **** #endif /* EXTERNAL_CLOCK_VALUE */
 127:Drivers/STM32WLxx_HAL_Driver/Inc/stm32wlxx_ll_rcc.h **** 
 128:Drivers/STM32WLxx_HAL_Driver/Inc/stm32wlxx_ll_rcc.h **** /**
 129:Drivers/STM32WLxx_HAL_Driver/Inc/stm32wlxx_ll_rcc.h ****   * @}
 130:Drivers/STM32WLxx_HAL_Driver/Inc/stm32wlxx_ll_rcc.h ****   */
 131:Drivers/STM32WLxx_HAL_Driver/Inc/stm32wlxx_ll_rcc.h **** 
 132:Drivers/STM32WLxx_HAL_Driver/Inc/stm32wlxx_ll_rcc.h **** /** @defgroup RCC_LL_EC_CLEAR_FLAG Clear Flags Defines
 133:Drivers/STM32WLxx_HAL_Driver/Inc/stm32wlxx_ll_rcc.h ****   * @brief    Flags defines which can be used with LL_RCC_WriteReg function
 134:Drivers/STM32WLxx_HAL_Driver/Inc/stm32wlxx_ll_rcc.h ****   * @{
 135:Drivers/STM32WLxx_HAL_Driver/Inc/stm32wlxx_ll_rcc.h ****   */
 136:Drivers/STM32WLxx_HAL_Driver/Inc/stm32wlxx_ll_rcc.h **** #define LL_RCC_CICR_LSIRDYC                RCC_CICR_LSIRDYC    /*!< LSI Ready Interrupt Clear */
 137:Drivers/STM32WLxx_HAL_Driver/Inc/stm32wlxx_ll_rcc.h **** #define LL_RCC_CICR_LSERDYC                RCC_CICR_LSERDYC     /*!< LSE Ready Interrupt Clear */
 138:Drivers/STM32WLxx_HAL_Driver/Inc/stm32wlxx_ll_rcc.h **** #define LL_RCC_CICR_MSIRDYC                RCC_CICR_MSIRDYC     /*!< MSI Ready Interrupt Clear */
 139:Drivers/STM32WLxx_HAL_Driver/Inc/stm32wlxx_ll_rcc.h **** #define LL_RCC_CICR_HSIRDYC                RCC_CICR_HSIRDYC     /*!< HSI Ready Interrupt Clear */
 140:Drivers/STM32WLxx_HAL_Driver/Inc/stm32wlxx_ll_rcc.h **** #define LL_RCC_CICR_HSERDYC                RCC_CICR_HSERDYC     /*!< HSE Ready Interrupt Clear */
 141:Drivers/STM32WLxx_HAL_Driver/Inc/stm32wlxx_ll_rcc.h **** #define LL_RCC_CICR_PLLRDYC                RCC_CICR_PLLRDYC     /*!< PLL Ready Interrupt Clear */
 142:Drivers/STM32WLxx_HAL_Driver/Inc/stm32wlxx_ll_rcc.h **** #define LL_RCC_CICR_LSECSSC                RCC_CICR_LSECSSC     /*!< LSE Clock Security System Inte
 143:Drivers/STM32WLxx_HAL_Driver/Inc/stm32wlxx_ll_rcc.h **** #define LL_RCC_CICR_CSSC                   RCC_CICR_CSSC        /*!< Clock Security System Interrup
 144:Drivers/STM32WLxx_HAL_Driver/Inc/stm32wlxx_ll_rcc.h **** /**
 145:Drivers/STM32WLxx_HAL_Driver/Inc/stm32wlxx_ll_rcc.h ****   * @}
 146:Drivers/STM32WLxx_HAL_Driver/Inc/stm32wlxx_ll_rcc.h ****   */
 147:Drivers/STM32WLxx_HAL_Driver/Inc/stm32wlxx_ll_rcc.h **** 
 148:Drivers/STM32WLxx_HAL_Driver/Inc/stm32wlxx_ll_rcc.h **** /** @defgroup RCC_LL_EC_GET_FLAG Get Flags Defines
 149:Drivers/STM32WLxx_HAL_Driver/Inc/stm32wlxx_ll_rcc.h ****   * @brief    Flags defines which can be used with LL_RCC_ReadReg function
 150:Drivers/STM32WLxx_HAL_Driver/Inc/stm32wlxx_ll_rcc.h ****   * @{
 151:Drivers/STM32WLxx_HAL_Driver/Inc/stm32wlxx_ll_rcc.h ****   */
 152:Drivers/STM32WLxx_HAL_Driver/Inc/stm32wlxx_ll_rcc.h **** #define LL_RCC_CIFR_LSIRDYF                RCC_CIFR_LSIRDYF     /*!< LSI Ready Interrupt flag */
 153:Drivers/STM32WLxx_HAL_Driver/Inc/stm32wlxx_ll_rcc.h **** #define LL_RCC_CIFR_LSERDYF                RCC_CIFR_LSERDYF     /*!< LSE Ready Interrupt flag */
 154:Drivers/STM32WLxx_HAL_Driver/Inc/stm32wlxx_ll_rcc.h **** #define LL_RCC_CIFR_MSIRDYF                RCC_CIFR_MSIRDYF     /*!< MSI Ready Interrupt flag */
 155:Drivers/STM32WLxx_HAL_Driver/Inc/stm32wlxx_ll_rcc.h **** #define LL_RCC_CIFR_HSIRDYF                RCC_CIFR_HSIRDYF     /*!< HSI Ready Interrupt flag */
 156:Drivers/STM32WLxx_HAL_Driver/Inc/stm32wlxx_ll_rcc.h **** #define LL_RCC_CIFR_HSERDYF                RCC_CIFR_HSERDYF     /*!< HSE Ready Interrupt flag */
 157:Drivers/STM32WLxx_HAL_Driver/Inc/stm32wlxx_ll_rcc.h **** #define LL_RCC_CIFR_PLLRDYF                RCC_CIFR_PLLRDYF     /*!< PLL Ready Interrupt flag */
ARM GAS  /var/folders/9y/n02fl3g16gnf7ppy14xghdy80000gn/T//cckWqezL.s 			page 10


 158:Drivers/STM32WLxx_HAL_Driver/Inc/stm32wlxx_ll_rcc.h **** #define LL_RCC_CIFR_LSECSSF                RCC_CIFR_LSECSSF     /*!< LSE Clock Security System Inte
 159:Drivers/STM32WLxx_HAL_Driver/Inc/stm32wlxx_ll_rcc.h **** #define LL_RCC_CIFR_CSSF                   RCC_CIFR_CSSF        /*!< Clock Security System Interrup
 160:Drivers/STM32WLxx_HAL_Driver/Inc/stm32wlxx_ll_rcc.h **** #define LL_RCC_CSR_LPWRRSTF                RCC_CSR_LPWRRSTF     /*!< Low-Power reset flag */
 161:Drivers/STM32WLxx_HAL_Driver/Inc/stm32wlxx_ll_rcc.h **** #define LL_RCC_CSR_OBLRSTF                 RCC_CSR_OBLRSTF      /*!< OBL reset flag */
 162:Drivers/STM32WLxx_HAL_Driver/Inc/stm32wlxx_ll_rcc.h **** #define LL_RCC_CSR_PINRSTF                 RCC_CSR_PINRSTF      /*!< PIN reset flag */
 163:Drivers/STM32WLxx_HAL_Driver/Inc/stm32wlxx_ll_rcc.h **** #define LL_RCC_CSR_SFTRSTF                 RCC_CSR_SFTRSTF      /*!< Software Reset flag */
 164:Drivers/STM32WLxx_HAL_Driver/Inc/stm32wlxx_ll_rcc.h **** #define LL_RCC_CSR_IWDGRSTF                RCC_CSR_IWDGRSTF     /*!< Independent Watchdog reset fla
 165:Drivers/STM32WLxx_HAL_Driver/Inc/stm32wlxx_ll_rcc.h **** #define LL_RCC_CSR_WWDGRSTF                RCC_CSR_WWDGRSTF     /*!< Window watchdog reset flag */
 166:Drivers/STM32WLxx_HAL_Driver/Inc/stm32wlxx_ll_rcc.h **** #define LL_RCC_CSR_BORRSTF                 RCC_CSR_BORRSTF      /*!< BOR reset flag */
 167:Drivers/STM32WLxx_HAL_Driver/Inc/stm32wlxx_ll_rcc.h **** #define LL_RCC_CSR_RFILASTF                RCC_CSR_RFILARSTF    /*!< Radio illegal access flag */
 168:Drivers/STM32WLxx_HAL_Driver/Inc/stm32wlxx_ll_rcc.h **** 
 169:Drivers/STM32WLxx_HAL_Driver/Inc/stm32wlxx_ll_rcc.h **** /**
 170:Drivers/STM32WLxx_HAL_Driver/Inc/stm32wlxx_ll_rcc.h ****   * @}
 171:Drivers/STM32WLxx_HAL_Driver/Inc/stm32wlxx_ll_rcc.h ****   */
 172:Drivers/STM32WLxx_HAL_Driver/Inc/stm32wlxx_ll_rcc.h **** 
 173:Drivers/STM32WLxx_HAL_Driver/Inc/stm32wlxx_ll_rcc.h **** /** @defgroup RCC_LL_EC_IT IT Defines
 174:Drivers/STM32WLxx_HAL_Driver/Inc/stm32wlxx_ll_rcc.h ****   * @brief    IT defines which can be used with LL_RCC_ReadReg and  LL_RCC_WriteReg functions
 175:Drivers/STM32WLxx_HAL_Driver/Inc/stm32wlxx_ll_rcc.h ****   * @{
 176:Drivers/STM32WLxx_HAL_Driver/Inc/stm32wlxx_ll_rcc.h ****   */
 177:Drivers/STM32WLxx_HAL_Driver/Inc/stm32wlxx_ll_rcc.h **** #define LL_RCC_CIER_LSIRDYIE               RCC_CIER_LSIRDYIE      /*!< LSI Ready Interrupt Enable *
 178:Drivers/STM32WLxx_HAL_Driver/Inc/stm32wlxx_ll_rcc.h **** #define LL_RCC_CIER_LSERDYIE               RCC_CIER_LSERDYIE      /*!< LSE Ready Interrupt Enable *
 179:Drivers/STM32WLxx_HAL_Driver/Inc/stm32wlxx_ll_rcc.h **** #define LL_RCC_CIER_MSIRDYIE               RCC_CIER_MSIRDYIE      /*!< MSI Ready Interrupt Enable *
 180:Drivers/STM32WLxx_HAL_Driver/Inc/stm32wlxx_ll_rcc.h **** #define LL_RCC_CIER_HSIRDYIE               RCC_CIER_HSIRDYIE      /*!< HSI Ready Interrupt Enable *
 181:Drivers/STM32WLxx_HAL_Driver/Inc/stm32wlxx_ll_rcc.h **** #define LL_RCC_CIER_HSERDYIE               RCC_CIER_HSERDYIE      /*!< HSE Ready Interrupt Enable *
 182:Drivers/STM32WLxx_HAL_Driver/Inc/stm32wlxx_ll_rcc.h **** #define LL_RCC_CIER_PLLRDYIE               RCC_CIER_PLLRDYIE      /*!< PLL Ready Interrupt Enable *
 183:Drivers/STM32WLxx_HAL_Driver/Inc/stm32wlxx_ll_rcc.h **** #define LL_RCC_CIER_LSECSSIE               RCC_CIER_LSECSSIE      /*!< LSE CSS Interrupt Enable */
 184:Drivers/STM32WLxx_HAL_Driver/Inc/stm32wlxx_ll_rcc.h **** /**
 185:Drivers/STM32WLxx_HAL_Driver/Inc/stm32wlxx_ll_rcc.h ****   * @}
 186:Drivers/STM32WLxx_HAL_Driver/Inc/stm32wlxx_ll_rcc.h ****   */
 187:Drivers/STM32WLxx_HAL_Driver/Inc/stm32wlxx_ll_rcc.h **** 
 188:Drivers/STM32WLxx_HAL_Driver/Inc/stm32wlxx_ll_rcc.h **** /** @defgroup RCC_LL_EC_LSEDRIVE  LSE oscillator drive capability
 189:Drivers/STM32WLxx_HAL_Driver/Inc/stm32wlxx_ll_rcc.h ****   * @{
 190:Drivers/STM32WLxx_HAL_Driver/Inc/stm32wlxx_ll_rcc.h ****   */
 191:Drivers/STM32WLxx_HAL_Driver/Inc/stm32wlxx_ll_rcc.h **** #define LL_RCC_LSEDRIVE_LOW                0x00000000U             /*!< Xtal mode lower driving cap
 192:Drivers/STM32WLxx_HAL_Driver/Inc/stm32wlxx_ll_rcc.h **** #define LL_RCC_LSEDRIVE_MEDIUMLOW          RCC_BDCR_LSEDRV_0       /*!< Xtal mode medium low drivin
 193:Drivers/STM32WLxx_HAL_Driver/Inc/stm32wlxx_ll_rcc.h **** #define LL_RCC_LSEDRIVE_MEDIUMHIGH         RCC_BDCR_LSEDRV_1       /*!< Xtal mode medium high drivi
 194:Drivers/STM32WLxx_HAL_Driver/Inc/stm32wlxx_ll_rcc.h **** #define LL_RCC_LSEDRIVE_HIGH               RCC_BDCR_LSEDRV         /*!< Xtal mode higher driving ca
 195:Drivers/STM32WLxx_HAL_Driver/Inc/stm32wlxx_ll_rcc.h **** /**
 196:Drivers/STM32WLxx_HAL_Driver/Inc/stm32wlxx_ll_rcc.h ****   * @}
 197:Drivers/STM32WLxx_HAL_Driver/Inc/stm32wlxx_ll_rcc.h ****   */
 198:Drivers/STM32WLxx_HAL_Driver/Inc/stm32wlxx_ll_rcc.h **** 
 199:Drivers/STM32WLxx_HAL_Driver/Inc/stm32wlxx_ll_rcc.h **** /** @defgroup RCC_LL_EC_MSIRANGE  MSI clock ranges
 200:Drivers/STM32WLxx_HAL_Driver/Inc/stm32wlxx_ll_rcc.h ****   * @{
 201:Drivers/STM32WLxx_HAL_Driver/Inc/stm32wlxx_ll_rcc.h ****   */
 202:Drivers/STM32WLxx_HAL_Driver/Inc/stm32wlxx_ll_rcc.h **** #define LL_RCC_MSIRANGE_0                  RCC_CR_MSIRANGE_0  /*!< MSI = 100 KHz  */
 203:Drivers/STM32WLxx_HAL_Driver/Inc/stm32wlxx_ll_rcc.h **** #define LL_RCC_MSIRANGE_1                  RCC_CR_MSIRANGE_1  /*!< MSI = 200 KHz  */
 204:Drivers/STM32WLxx_HAL_Driver/Inc/stm32wlxx_ll_rcc.h **** #define LL_RCC_MSIRANGE_2                  RCC_CR_MSIRANGE_2  /*!< MSI = 400 KHz  */
 205:Drivers/STM32WLxx_HAL_Driver/Inc/stm32wlxx_ll_rcc.h **** #define LL_RCC_MSIRANGE_3                  RCC_CR_MSIRANGE_3  /*!< MSI = 800 KHz  */
 206:Drivers/STM32WLxx_HAL_Driver/Inc/stm32wlxx_ll_rcc.h **** #define LL_RCC_MSIRANGE_4                  RCC_CR_MSIRANGE_4  /*!< MSI = 1 MHz    */
 207:Drivers/STM32WLxx_HAL_Driver/Inc/stm32wlxx_ll_rcc.h **** #define LL_RCC_MSIRANGE_5                  RCC_CR_MSIRANGE_5  /*!< MSI = 2 MHz    */
 208:Drivers/STM32WLxx_HAL_Driver/Inc/stm32wlxx_ll_rcc.h **** #define LL_RCC_MSIRANGE_6                  RCC_CR_MSIRANGE_6  /*!< MSI = 4 MHz    */
 209:Drivers/STM32WLxx_HAL_Driver/Inc/stm32wlxx_ll_rcc.h **** #define LL_RCC_MSIRANGE_7                  RCC_CR_MSIRANGE_7  /*!< MSI = 8 MHz    */
 210:Drivers/STM32WLxx_HAL_Driver/Inc/stm32wlxx_ll_rcc.h **** #define LL_RCC_MSIRANGE_8                  RCC_CR_MSIRANGE_8  /*!< MSI = 16 MHz   */
 211:Drivers/STM32WLxx_HAL_Driver/Inc/stm32wlxx_ll_rcc.h **** #define LL_RCC_MSIRANGE_9                  RCC_CR_MSIRANGE_9  /*!< MSI = 24 MHz   */
 212:Drivers/STM32WLxx_HAL_Driver/Inc/stm32wlxx_ll_rcc.h **** #define LL_RCC_MSIRANGE_10                 RCC_CR_MSIRANGE_10 /*!< MSI = 32 MHz   */
 213:Drivers/STM32WLxx_HAL_Driver/Inc/stm32wlxx_ll_rcc.h **** #define LL_RCC_MSIRANGE_11                 RCC_CR_MSIRANGE_11 /*!< MSI = 48 MHz   */
 214:Drivers/STM32WLxx_HAL_Driver/Inc/stm32wlxx_ll_rcc.h **** /**
ARM GAS  /var/folders/9y/n02fl3g16gnf7ppy14xghdy80000gn/T//cckWqezL.s 			page 11


 215:Drivers/STM32WLxx_HAL_Driver/Inc/stm32wlxx_ll_rcc.h ****   * @}
 216:Drivers/STM32WLxx_HAL_Driver/Inc/stm32wlxx_ll_rcc.h ****   */
 217:Drivers/STM32WLxx_HAL_Driver/Inc/stm32wlxx_ll_rcc.h **** 
 218:Drivers/STM32WLxx_HAL_Driver/Inc/stm32wlxx_ll_rcc.h **** /** @defgroup RCC_LL_EC_MSISRANGE  MSI range after Standby mode
 219:Drivers/STM32WLxx_HAL_Driver/Inc/stm32wlxx_ll_rcc.h ****   * @{
 220:Drivers/STM32WLxx_HAL_Driver/Inc/stm32wlxx_ll_rcc.h ****   */
 221:Drivers/STM32WLxx_HAL_Driver/Inc/stm32wlxx_ll_rcc.h **** #define LL_RCC_MSISRANGE_4                 RCC_CSR_MSISRANGE_1  /*!< MSI = 1 MHz    */
 222:Drivers/STM32WLxx_HAL_Driver/Inc/stm32wlxx_ll_rcc.h **** #define LL_RCC_MSISRANGE_5                 RCC_CSR_MSISRANGE_2  /*!< MSI = 2 MHz    */
 223:Drivers/STM32WLxx_HAL_Driver/Inc/stm32wlxx_ll_rcc.h **** #define LL_RCC_MSISRANGE_6                 RCC_CSR_MSISRANGE_4  /*!< MSI = 4 MHz    */
 224:Drivers/STM32WLxx_HAL_Driver/Inc/stm32wlxx_ll_rcc.h **** #define LL_RCC_MSISRANGE_7                 RCC_CSR_MSISRANGE_8  /*!< MSI = 8 MHz    */
 225:Drivers/STM32WLxx_HAL_Driver/Inc/stm32wlxx_ll_rcc.h **** /**
 226:Drivers/STM32WLxx_HAL_Driver/Inc/stm32wlxx_ll_rcc.h ****   * @}
 227:Drivers/STM32WLxx_HAL_Driver/Inc/stm32wlxx_ll_rcc.h ****   */
 228:Drivers/STM32WLxx_HAL_Driver/Inc/stm32wlxx_ll_rcc.h **** 
 229:Drivers/STM32WLxx_HAL_Driver/Inc/stm32wlxx_ll_rcc.h **** 
 230:Drivers/STM32WLxx_HAL_Driver/Inc/stm32wlxx_ll_rcc.h **** /** @defgroup RCC_LL_EC_LSCO_CLKSOURCE  LSCO Selection
 231:Drivers/STM32WLxx_HAL_Driver/Inc/stm32wlxx_ll_rcc.h ****   * @{
 232:Drivers/STM32WLxx_HAL_Driver/Inc/stm32wlxx_ll_rcc.h ****   */
 233:Drivers/STM32WLxx_HAL_Driver/Inc/stm32wlxx_ll_rcc.h **** #define LL_RCC_LSCO_CLKSOURCE_LSI          0x00000000U           /*!< LSI selection for low speed c
 234:Drivers/STM32WLxx_HAL_Driver/Inc/stm32wlxx_ll_rcc.h **** #define LL_RCC_LSCO_CLKSOURCE_LSE          RCC_BDCR_LSCOSEL      /*!< LSE selection for low speed c
 235:Drivers/STM32WLxx_HAL_Driver/Inc/stm32wlxx_ll_rcc.h **** /**
 236:Drivers/STM32WLxx_HAL_Driver/Inc/stm32wlxx_ll_rcc.h ****   * @}
 237:Drivers/STM32WLxx_HAL_Driver/Inc/stm32wlxx_ll_rcc.h ****   */
 238:Drivers/STM32WLxx_HAL_Driver/Inc/stm32wlxx_ll_rcc.h **** 
 239:Drivers/STM32WLxx_HAL_Driver/Inc/stm32wlxx_ll_rcc.h **** /** @defgroup RCC_LL_EC_SYS_CLKSOURCE  System clock switch
 240:Drivers/STM32WLxx_HAL_Driver/Inc/stm32wlxx_ll_rcc.h ****   * @{
 241:Drivers/STM32WLxx_HAL_Driver/Inc/stm32wlxx_ll_rcc.h ****   */
 242:Drivers/STM32WLxx_HAL_Driver/Inc/stm32wlxx_ll_rcc.h **** #define LL_RCC_SYS_CLKSOURCE_MSI           0x00000000U    /*!< MSI selection as system clock */
 243:Drivers/STM32WLxx_HAL_Driver/Inc/stm32wlxx_ll_rcc.h **** #define LL_RCC_SYS_CLKSOURCE_HSI           RCC_CFGR_SW_0    /*!< HSI selection as system clock */
 244:Drivers/STM32WLxx_HAL_Driver/Inc/stm32wlxx_ll_rcc.h **** #define LL_RCC_SYS_CLKSOURCE_HSE           RCC_CFGR_SW_1    /*!< HSE selection as system clock */
 245:Drivers/STM32WLxx_HAL_Driver/Inc/stm32wlxx_ll_rcc.h **** #define LL_RCC_SYS_CLKSOURCE_PLL           (RCC_CFGR_SW_1 | RCC_CFGR_SW_0)    /*!< PLL selection as
 246:Drivers/STM32WLxx_HAL_Driver/Inc/stm32wlxx_ll_rcc.h **** /**
 247:Drivers/STM32WLxx_HAL_Driver/Inc/stm32wlxx_ll_rcc.h ****   * @}
 248:Drivers/STM32WLxx_HAL_Driver/Inc/stm32wlxx_ll_rcc.h ****   */
 249:Drivers/STM32WLxx_HAL_Driver/Inc/stm32wlxx_ll_rcc.h **** 
 250:Drivers/STM32WLxx_HAL_Driver/Inc/stm32wlxx_ll_rcc.h **** /** @defgroup RCC_LL_EC_SYS_CLKSOURCE_STATUS  System clock switch status
 251:Drivers/STM32WLxx_HAL_Driver/Inc/stm32wlxx_ll_rcc.h ****   * @{
 252:Drivers/STM32WLxx_HAL_Driver/Inc/stm32wlxx_ll_rcc.h ****   */
 253:Drivers/STM32WLxx_HAL_Driver/Inc/stm32wlxx_ll_rcc.h **** #define LL_RCC_SYS_CLKSOURCE_STATUS_MSI    0x00000000U   /*!< MSI used as system clock */
 254:Drivers/STM32WLxx_HAL_Driver/Inc/stm32wlxx_ll_rcc.h **** #define LL_RCC_SYS_CLKSOURCE_STATUS_HSI    RCC_CFGR_SWS_0   /*!< HSI used as system clock */
 255:Drivers/STM32WLxx_HAL_Driver/Inc/stm32wlxx_ll_rcc.h **** #define LL_RCC_SYS_CLKSOURCE_STATUS_HSE    RCC_CFGR_SWS_1   /*!< HSE used as system clock */
 256:Drivers/STM32WLxx_HAL_Driver/Inc/stm32wlxx_ll_rcc.h **** #define LL_RCC_SYS_CLKSOURCE_STATUS_PLL    (RCC_CFGR_SWS_1 | RCC_CFGR_SWS_0)   /*!< PLL used as sys
 257:Drivers/STM32WLxx_HAL_Driver/Inc/stm32wlxx_ll_rcc.h **** /**
 258:Drivers/STM32WLxx_HAL_Driver/Inc/stm32wlxx_ll_rcc.h ****   * @}
 259:Drivers/STM32WLxx_HAL_Driver/Inc/stm32wlxx_ll_rcc.h ****   */
 260:Drivers/STM32WLxx_HAL_Driver/Inc/stm32wlxx_ll_rcc.h **** 
 261:Drivers/STM32WLxx_HAL_Driver/Inc/stm32wlxx_ll_rcc.h **** /** @defgroup RCC_LL_EC_SYSCLK_DIV  AHB prescaler
 262:Drivers/STM32WLxx_HAL_Driver/Inc/stm32wlxx_ll_rcc.h ****   * @{
 263:Drivers/STM32WLxx_HAL_Driver/Inc/stm32wlxx_ll_rcc.h ****   */
 264:Drivers/STM32WLxx_HAL_Driver/Inc/stm32wlxx_ll_rcc.h **** #define LL_RCC_SYSCLK_DIV_1                0x00000000U   /*!< SYSCLK not divided */
 265:Drivers/STM32WLxx_HAL_Driver/Inc/stm32wlxx_ll_rcc.h **** #define LL_RCC_SYSCLK_DIV_2                RCC_CFGR_HPRE_3   /*!< SYSCLK divided by 2 */
 266:Drivers/STM32WLxx_HAL_Driver/Inc/stm32wlxx_ll_rcc.h **** #define LL_RCC_SYSCLK_DIV_3                RCC_CFGR_HPRE_0   /*!< SYSCLK divided by 3 */
 267:Drivers/STM32WLxx_HAL_Driver/Inc/stm32wlxx_ll_rcc.h **** #define LL_RCC_SYSCLK_DIV_4                (RCC_CFGR_HPRE_3 | RCC_CFGR_HPRE_0)   /*!< SYSCLK divide
 268:Drivers/STM32WLxx_HAL_Driver/Inc/stm32wlxx_ll_rcc.h **** #define LL_RCC_SYSCLK_DIV_5                RCC_CFGR_HPRE_1   /*!< SYSCLK divided by 5 */
 269:Drivers/STM32WLxx_HAL_Driver/Inc/stm32wlxx_ll_rcc.h **** #define LL_RCC_SYSCLK_DIV_6                (RCC_CFGR_HPRE_2 | RCC_CFGR_HPRE_0)   /*!< SYSCLK divide
 270:Drivers/STM32WLxx_HAL_Driver/Inc/stm32wlxx_ll_rcc.h **** #define LL_RCC_SYSCLK_DIV_8                (RCC_CFGR_HPRE_3 | RCC_CFGR_HPRE_1)   /*!< SYSCLK divide
 271:Drivers/STM32WLxx_HAL_Driver/Inc/stm32wlxx_ll_rcc.h **** #define LL_RCC_SYSCLK_DIV_10               (RCC_CFGR_HPRE_2 | RCC_CFGR_HPRE_1)  /*!< SYSCLK divided
ARM GAS  /var/folders/9y/n02fl3g16gnf7ppy14xghdy80000gn/T//cckWqezL.s 			page 12


 272:Drivers/STM32WLxx_HAL_Driver/Inc/stm32wlxx_ll_rcc.h **** #define LL_RCC_SYSCLK_DIV_16               (RCC_CFGR_HPRE_3 | RCC_CFGR_HPRE_1 | RCC_CFGR_HPRE_0)  /
 273:Drivers/STM32WLxx_HAL_Driver/Inc/stm32wlxx_ll_rcc.h **** #define LL_RCC_SYSCLK_DIV_32               (RCC_CFGR_HPRE_2 | RCC_CFGR_HPRE_1 | RCC_CFGR_HPRE_0)  /
 274:Drivers/STM32WLxx_HAL_Driver/Inc/stm32wlxx_ll_rcc.h **** #define LL_RCC_SYSCLK_DIV_64               (RCC_CFGR_HPRE_3 | RCC_CFGR_HPRE_2)  /*!< SYSCLK divided
 275:Drivers/STM32WLxx_HAL_Driver/Inc/stm32wlxx_ll_rcc.h **** #define LL_RCC_SYSCLK_DIV_128              (RCC_CFGR_HPRE_3 | RCC_CFGR_HPRE_2 | RCC_CFGR_HPRE_0) /*
 276:Drivers/STM32WLxx_HAL_Driver/Inc/stm32wlxx_ll_rcc.h **** #define LL_RCC_SYSCLK_DIV_256              (RCC_CFGR_HPRE_3 | RCC_CFGR_HPRE_2 | RCC_CFGR_HPRE_1) /*
 277:Drivers/STM32WLxx_HAL_Driver/Inc/stm32wlxx_ll_rcc.h **** #define LL_RCC_SYSCLK_DIV_512              (RCC_CFGR_HPRE_3 | RCC_CFGR_HPRE_2 | RCC_CFGR_HPRE_1 | R
 278:Drivers/STM32WLxx_HAL_Driver/Inc/stm32wlxx_ll_rcc.h **** /**
 279:Drivers/STM32WLxx_HAL_Driver/Inc/stm32wlxx_ll_rcc.h ****   * @}
 280:Drivers/STM32WLxx_HAL_Driver/Inc/stm32wlxx_ll_rcc.h ****   */
 281:Drivers/STM32WLxx_HAL_Driver/Inc/stm32wlxx_ll_rcc.h **** 
 282:Drivers/STM32WLxx_HAL_Driver/Inc/stm32wlxx_ll_rcc.h **** /** @defgroup RCC_LL_EC_APB1_DIV  APB low-speed prescaler (APB1)
 283:Drivers/STM32WLxx_HAL_Driver/Inc/stm32wlxx_ll_rcc.h ****   * @{
 284:Drivers/STM32WLxx_HAL_Driver/Inc/stm32wlxx_ll_rcc.h ****   */
 285:Drivers/STM32WLxx_HAL_Driver/Inc/stm32wlxx_ll_rcc.h **** #define LL_RCC_APB1_DIV_1                  0x00000000U                            /*!< HCLK1 not di
 286:Drivers/STM32WLxx_HAL_Driver/Inc/stm32wlxx_ll_rcc.h **** #define LL_RCC_APB1_DIV_2                  RCC_CFGR_PPRE1_2                       /*!< HCLK1 divide
 287:Drivers/STM32WLxx_HAL_Driver/Inc/stm32wlxx_ll_rcc.h **** #define LL_RCC_APB1_DIV_4                  (RCC_CFGR_PPRE1_2 | RCC_CFGR_PPRE1_0)  /*!< HCLK1 divide
 288:Drivers/STM32WLxx_HAL_Driver/Inc/stm32wlxx_ll_rcc.h **** #define LL_RCC_APB1_DIV_8                  (RCC_CFGR_PPRE1_2 | RCC_CFGR_PPRE1_1)  /*!< HCLK1 divide
 289:Drivers/STM32WLxx_HAL_Driver/Inc/stm32wlxx_ll_rcc.h **** #define LL_RCC_APB1_DIV_16                 (RCC_CFGR_PPRE1_2 | RCC_CFGR_PPRE1_1 | RCC_CFGR_PPRE1_0)
 290:Drivers/STM32WLxx_HAL_Driver/Inc/stm32wlxx_ll_rcc.h **** /**
 291:Drivers/STM32WLxx_HAL_Driver/Inc/stm32wlxx_ll_rcc.h ****   * @}
 292:Drivers/STM32WLxx_HAL_Driver/Inc/stm32wlxx_ll_rcc.h ****   */
 293:Drivers/STM32WLxx_HAL_Driver/Inc/stm32wlxx_ll_rcc.h **** 
 294:Drivers/STM32WLxx_HAL_Driver/Inc/stm32wlxx_ll_rcc.h **** /** @defgroup RCC_LL_EC_APB2_DIV  APB high-speed prescaler (APB2)
 295:Drivers/STM32WLxx_HAL_Driver/Inc/stm32wlxx_ll_rcc.h ****   * @{
 296:Drivers/STM32WLxx_HAL_Driver/Inc/stm32wlxx_ll_rcc.h ****   */
 297:Drivers/STM32WLxx_HAL_Driver/Inc/stm32wlxx_ll_rcc.h **** #define LL_RCC_APB2_DIV_1                  0x00000000U                            /*!< HCLK1 not di
 298:Drivers/STM32WLxx_HAL_Driver/Inc/stm32wlxx_ll_rcc.h **** #define LL_RCC_APB2_DIV_2                  RCC_CFGR_PPRE2_2                       /*!< HCLK1 divide
 299:Drivers/STM32WLxx_HAL_Driver/Inc/stm32wlxx_ll_rcc.h **** #define LL_RCC_APB2_DIV_4                  (RCC_CFGR_PPRE2_2 | RCC_CFGR_PPRE2_0)  /*!< HCLK1 divide
 300:Drivers/STM32WLxx_HAL_Driver/Inc/stm32wlxx_ll_rcc.h **** #define LL_RCC_APB2_DIV_8                  (RCC_CFGR_PPRE2_2 | RCC_CFGR_PPRE2_1)  /*!< HCLK1 divide
 301:Drivers/STM32WLxx_HAL_Driver/Inc/stm32wlxx_ll_rcc.h **** #define LL_RCC_APB2_DIV_16                 (RCC_CFGR_PPRE2_2 | RCC_CFGR_PPRE2_1 | RCC_CFGR_PPRE2_0)
 302:Drivers/STM32WLxx_HAL_Driver/Inc/stm32wlxx_ll_rcc.h **** /**
 303:Drivers/STM32WLxx_HAL_Driver/Inc/stm32wlxx_ll_rcc.h ****   * @}
 304:Drivers/STM32WLxx_HAL_Driver/Inc/stm32wlxx_ll_rcc.h ****   */
 305:Drivers/STM32WLxx_HAL_Driver/Inc/stm32wlxx_ll_rcc.h **** 
 306:Drivers/STM32WLxx_HAL_Driver/Inc/stm32wlxx_ll_rcc.h **** /** @defgroup RCC_LL_EC_STOP_WAKEUPCLOCK  Wakeup from Stop and CSS backup clock selection
 307:Drivers/STM32WLxx_HAL_Driver/Inc/stm32wlxx_ll_rcc.h ****   * @{
 308:Drivers/STM32WLxx_HAL_Driver/Inc/stm32wlxx_ll_rcc.h ****   */
 309:Drivers/STM32WLxx_HAL_Driver/Inc/stm32wlxx_ll_rcc.h **** #define LL_RCC_STOP_WAKEUPCLOCK_MSI        0x00000000U             /*!< MSI selection after wake-up
 310:Drivers/STM32WLxx_HAL_Driver/Inc/stm32wlxx_ll_rcc.h **** #define LL_RCC_STOP_WAKEUPCLOCK_HSI        RCC_CFGR_STOPWUCK       /*!< HSI selection after wake-up
 311:Drivers/STM32WLxx_HAL_Driver/Inc/stm32wlxx_ll_rcc.h **** /**
 312:Drivers/STM32WLxx_HAL_Driver/Inc/stm32wlxx_ll_rcc.h ****   * @}
 313:Drivers/STM32WLxx_HAL_Driver/Inc/stm32wlxx_ll_rcc.h ****   */
 314:Drivers/STM32WLxx_HAL_Driver/Inc/stm32wlxx_ll_rcc.h **** 
 315:Drivers/STM32WLxx_HAL_Driver/Inc/stm32wlxx_ll_rcc.h **** /** @defgroup RCC_LL_EC_MCO1SOURCE  MCO1 SOURCE selection
 316:Drivers/STM32WLxx_HAL_Driver/Inc/stm32wlxx_ll_rcc.h ****   * @{
 317:Drivers/STM32WLxx_HAL_Driver/Inc/stm32wlxx_ll_rcc.h ****   */
 318:Drivers/STM32WLxx_HAL_Driver/Inc/stm32wlxx_ll_rcc.h **** #define LL_RCC_MCO1SOURCE_NOCLOCK          0x00000000U                                             
 319:Drivers/STM32WLxx_HAL_Driver/Inc/stm32wlxx_ll_rcc.h **** #define LL_RCC_MCO1SOURCE_SYSCLK           RCC_CFGR_MCOSEL_0                                       
 320:Drivers/STM32WLxx_HAL_Driver/Inc/stm32wlxx_ll_rcc.h **** #define LL_RCC_MCO1SOURCE_MSI              RCC_CFGR_MCOSEL_1                                       
 321:Drivers/STM32WLxx_HAL_Driver/Inc/stm32wlxx_ll_rcc.h **** #define LL_RCC_MCO1SOURCE_HSI              (RCC_CFGR_MCOSEL_0| RCC_CFGR_MCOSEL_1)                  
 322:Drivers/STM32WLxx_HAL_Driver/Inc/stm32wlxx_ll_rcc.h **** #define LL_RCC_MCO1SOURCE_HSE              RCC_CFGR_MCOSEL_2                                       
 323:Drivers/STM32WLxx_HAL_Driver/Inc/stm32wlxx_ll_rcc.h **** #define LL_RCC_MCO1SOURCE_PLLCLK           (RCC_CFGR_MCOSEL_0|RCC_CFGR_MCOSEL_2)                   
 324:Drivers/STM32WLxx_HAL_Driver/Inc/stm32wlxx_ll_rcc.h **** #define LL_RCC_MCO1SOURCE_LSI              (RCC_CFGR_MCOSEL_1|RCC_CFGR_MCOSEL_2)                   
 325:Drivers/STM32WLxx_HAL_Driver/Inc/stm32wlxx_ll_rcc.h **** #define LL_RCC_MCO1SOURCE_LSE              RCC_CFGR_MCOSEL_3                                       
 326:Drivers/STM32WLxx_HAL_Driver/Inc/stm32wlxx_ll_rcc.h **** #define LL_RCC_MCO1SOURCE_PLLPCLK          (RCC_CFGR_MCOSEL_0|RCC_CFGR_MCOSEL_2|RCC_CFGR_MCOSEL_3) 
 327:Drivers/STM32WLxx_HAL_Driver/Inc/stm32wlxx_ll_rcc.h **** #define LL_RCC_MCO1SOURCE_PLLQCLK          (RCC_CFGR_MCOSEL_1|RCC_CFGR_MCOSEL_2|RCC_CFGR_MCOSEL_3) 
 328:Drivers/STM32WLxx_HAL_Driver/Inc/stm32wlxx_ll_rcc.h **** /**
ARM GAS  /var/folders/9y/n02fl3g16gnf7ppy14xghdy80000gn/T//cckWqezL.s 			page 13


 329:Drivers/STM32WLxx_HAL_Driver/Inc/stm32wlxx_ll_rcc.h ****   * @}
 330:Drivers/STM32WLxx_HAL_Driver/Inc/stm32wlxx_ll_rcc.h ****   */
 331:Drivers/STM32WLxx_HAL_Driver/Inc/stm32wlxx_ll_rcc.h **** 
 332:Drivers/STM32WLxx_HAL_Driver/Inc/stm32wlxx_ll_rcc.h **** /** @defgroup RCC_LL_EC_MCO1_DIV  MCO1 prescaler
 333:Drivers/STM32WLxx_HAL_Driver/Inc/stm32wlxx_ll_rcc.h ****   * @{
 334:Drivers/STM32WLxx_HAL_Driver/Inc/stm32wlxx_ll_rcc.h ****   */
 335:Drivers/STM32WLxx_HAL_Driver/Inc/stm32wlxx_ll_rcc.h **** #define LL_RCC_MCO1_DIV_1                  0x00000000U                                   /*!< MCO n
 336:Drivers/STM32WLxx_HAL_Driver/Inc/stm32wlxx_ll_rcc.h **** #define LL_RCC_MCO1_DIV_2                  RCC_CFGR_MCOPRE_0                             /*!< MCO d
 337:Drivers/STM32WLxx_HAL_Driver/Inc/stm32wlxx_ll_rcc.h **** #define LL_RCC_MCO1_DIV_4                  RCC_CFGR_MCOPRE_1                             /*!< MCO d
 338:Drivers/STM32WLxx_HAL_Driver/Inc/stm32wlxx_ll_rcc.h **** #define LL_RCC_MCO1_DIV_8                  (RCC_CFGR_MCOPRE_1 | RCC_CFGR_MCOPRE_0)       /*!< MCO d
 339:Drivers/STM32WLxx_HAL_Driver/Inc/stm32wlxx_ll_rcc.h **** #define LL_RCC_MCO1_DIV_16                 RCC_CFGR_MCOPRE_2                             /*!< MCO d
 340:Drivers/STM32WLxx_HAL_Driver/Inc/stm32wlxx_ll_rcc.h **** /**
 341:Drivers/STM32WLxx_HAL_Driver/Inc/stm32wlxx_ll_rcc.h ****   * @}
 342:Drivers/STM32WLxx_HAL_Driver/Inc/stm32wlxx_ll_rcc.h ****   */
 343:Drivers/STM32WLxx_HAL_Driver/Inc/stm32wlxx_ll_rcc.h **** 
 344:Drivers/STM32WLxx_HAL_Driver/Inc/stm32wlxx_ll_rcc.h **** #if defined(USE_FULL_LL_DRIVER)
 345:Drivers/STM32WLxx_HAL_Driver/Inc/stm32wlxx_ll_rcc.h **** /** @defgroup RCC_LL_EC_PERIPH_FREQUENCY Peripheral clock frequency
 346:Drivers/STM32WLxx_HAL_Driver/Inc/stm32wlxx_ll_rcc.h ****   * @{
 347:Drivers/STM32WLxx_HAL_Driver/Inc/stm32wlxx_ll_rcc.h ****   */
 348:Drivers/STM32WLxx_HAL_Driver/Inc/stm32wlxx_ll_rcc.h **** #define LL_RCC_PERIPH_FREQUENCY_NO         0x00000000U                 /*!< No clock enabled for th
 349:Drivers/STM32WLxx_HAL_Driver/Inc/stm32wlxx_ll_rcc.h **** #define LL_RCC_PERIPH_FREQUENCY_NA         0xFFFFFFFFU                 /*!< Frequency cannot be pro
 350:Drivers/STM32WLxx_HAL_Driver/Inc/stm32wlxx_ll_rcc.h **** /**
 351:Drivers/STM32WLxx_HAL_Driver/Inc/stm32wlxx_ll_rcc.h ****   * @}
 352:Drivers/STM32WLxx_HAL_Driver/Inc/stm32wlxx_ll_rcc.h ****   */
 353:Drivers/STM32WLxx_HAL_Driver/Inc/stm32wlxx_ll_rcc.h **** #endif /* USE_FULL_LL_DRIVER */
 354:Drivers/STM32WLxx_HAL_Driver/Inc/stm32wlxx_ll_rcc.h **** 
 355:Drivers/STM32WLxx_HAL_Driver/Inc/stm32wlxx_ll_rcc.h **** /** @defgroup RCC_LL_EC_USART1_CLKSOURCE USARTx CLKSOURCE
 356:Drivers/STM32WLxx_HAL_Driver/Inc/stm32wlxx_ll_rcc.h ****   * @{
 357:Drivers/STM32WLxx_HAL_Driver/Inc/stm32wlxx_ll_rcc.h ****   */
 358:Drivers/STM32WLxx_HAL_Driver/Inc/stm32wlxx_ll_rcc.h **** #define LL_RCC_USART1_CLKSOURCE_PCLK2      (RCC_CCIPR_USART1SEL << 16U)                           /
 359:Drivers/STM32WLxx_HAL_Driver/Inc/stm32wlxx_ll_rcc.h **** #define LL_RCC_USART1_CLKSOURCE_SYSCLK     ((RCC_CCIPR_USART1SEL << 16U) | RCC_CCIPR_USART1SEL_0) /
 360:Drivers/STM32WLxx_HAL_Driver/Inc/stm32wlxx_ll_rcc.h **** #define LL_RCC_USART1_CLKSOURCE_HSI        ((RCC_CCIPR_USART1SEL << 16U) | RCC_CCIPR_USART1SEL_1) /
 361:Drivers/STM32WLxx_HAL_Driver/Inc/stm32wlxx_ll_rcc.h **** #define LL_RCC_USART1_CLKSOURCE_LSE        ((RCC_CCIPR_USART1SEL << 16U) | RCC_CCIPR_USART1SEL)   /
 362:Drivers/STM32WLxx_HAL_Driver/Inc/stm32wlxx_ll_rcc.h **** #define LL_RCC_USART2_CLKSOURCE_PCLK1      (RCC_CCIPR_USART2SEL << 16U)                           /
 363:Drivers/STM32WLxx_HAL_Driver/Inc/stm32wlxx_ll_rcc.h **** #define LL_RCC_USART2_CLKSOURCE_SYSCLK     ((RCC_CCIPR_USART2SEL << 16U) | RCC_CCIPR_USART2SEL_0) /
 364:Drivers/STM32WLxx_HAL_Driver/Inc/stm32wlxx_ll_rcc.h **** #define LL_RCC_USART2_CLKSOURCE_HSI        ((RCC_CCIPR_USART2SEL << 16U) | RCC_CCIPR_USART2SEL_1) /
 365:Drivers/STM32WLxx_HAL_Driver/Inc/stm32wlxx_ll_rcc.h **** #define LL_RCC_USART2_CLKSOURCE_LSE        ((RCC_CCIPR_USART2SEL << 16U) | RCC_CCIPR_USART2SEL)   /
 366:Drivers/STM32WLxx_HAL_Driver/Inc/stm32wlxx_ll_rcc.h **** /**
 367:Drivers/STM32WLxx_HAL_Driver/Inc/stm32wlxx_ll_rcc.h ****   * @}
 368:Drivers/STM32WLxx_HAL_Driver/Inc/stm32wlxx_ll_rcc.h ****   */
 369:Drivers/STM32WLxx_HAL_Driver/Inc/stm32wlxx_ll_rcc.h **** 
 370:Drivers/STM32WLxx_HAL_Driver/Inc/stm32wlxx_ll_rcc.h **** /** @defgroup RCC_LL_EC_I2S2_CLKSOURCE Peripheral I2S clock source selection
 371:Drivers/STM32WLxx_HAL_Driver/Inc/stm32wlxx_ll_rcc.h ****   * @{
 372:Drivers/STM32WLxx_HAL_Driver/Inc/stm32wlxx_ll_rcc.h ****   */
 373:Drivers/STM32WLxx_HAL_Driver/Inc/stm32wlxx_ll_rcc.h **** #define LL_RCC_I2S2_CLKSOURCE_PLL         RCC_CCIPR_I2S2SEL_0          /*!< PLL clock used as I2S2 
 374:Drivers/STM32WLxx_HAL_Driver/Inc/stm32wlxx_ll_rcc.h **** #define LL_RCC_I2S2_CLKSOURCE_HSI         RCC_CCIPR_I2S2SEL_1          /*!< HSI clock used as I2S2 
 375:Drivers/STM32WLxx_HAL_Driver/Inc/stm32wlxx_ll_rcc.h **** #define LL_RCC_I2S2_CLKSOURCE_PIN         RCC_CCIPR_I2S2SEL            /*!< External clock used as 
 376:Drivers/STM32WLxx_HAL_Driver/Inc/stm32wlxx_ll_rcc.h **** /**
 377:Drivers/STM32WLxx_HAL_Driver/Inc/stm32wlxx_ll_rcc.h ****   * @}
 378:Drivers/STM32WLxx_HAL_Driver/Inc/stm32wlxx_ll_rcc.h ****   */
 379:Drivers/STM32WLxx_HAL_Driver/Inc/stm32wlxx_ll_rcc.h **** 
 380:Drivers/STM32WLxx_HAL_Driver/Inc/stm32wlxx_ll_rcc.h **** /** @defgroup RCC_LL_EC_LPUART1_CLKSOURCE LPUART1 CLKSOURCE
 381:Drivers/STM32WLxx_HAL_Driver/Inc/stm32wlxx_ll_rcc.h ****   * @{
 382:Drivers/STM32WLxx_HAL_Driver/Inc/stm32wlxx_ll_rcc.h ****   */
 383:Drivers/STM32WLxx_HAL_Driver/Inc/stm32wlxx_ll_rcc.h **** #define LL_RCC_LPUART1_CLKSOURCE_PCLK1     0x00000000U               /*!< PCLK1 selected as LPUART1
 384:Drivers/STM32WLxx_HAL_Driver/Inc/stm32wlxx_ll_rcc.h **** #define LL_RCC_LPUART1_CLKSOURCE_SYSCLK    RCC_CCIPR_LPUART1SEL_0    /*!< SYCLK selected as LPUART1
 385:Drivers/STM32WLxx_HAL_Driver/Inc/stm32wlxx_ll_rcc.h **** #define LL_RCC_LPUART1_CLKSOURCE_HSI       RCC_CCIPR_LPUART1SEL_1    /*!< HSI selected as LPUART1 c
ARM GAS  /var/folders/9y/n02fl3g16gnf7ppy14xghdy80000gn/T//cckWqezL.s 			page 14


 386:Drivers/STM32WLxx_HAL_Driver/Inc/stm32wlxx_ll_rcc.h **** #define LL_RCC_LPUART1_CLKSOURCE_LSE       RCC_CCIPR_LPUART1SEL      /*!< LSE selected as LPUART1 c
 387:Drivers/STM32WLxx_HAL_Driver/Inc/stm32wlxx_ll_rcc.h **** /**
 388:Drivers/STM32WLxx_HAL_Driver/Inc/stm32wlxx_ll_rcc.h ****   * @}
 389:Drivers/STM32WLxx_HAL_Driver/Inc/stm32wlxx_ll_rcc.h ****   */
 390:Drivers/STM32WLxx_HAL_Driver/Inc/stm32wlxx_ll_rcc.h **** 
 391:Drivers/STM32WLxx_HAL_Driver/Inc/stm32wlxx_ll_rcc.h **** /** @defgroup RCC_LL_EC_I2Cx_CLKSOURCE I2Cx CLKSOURCE
 392:Drivers/STM32WLxx_HAL_Driver/Inc/stm32wlxx_ll_rcc.h ****   * @{
 393:Drivers/STM32WLxx_HAL_Driver/Inc/stm32wlxx_ll_rcc.h ****   */
 394:Drivers/STM32WLxx_HAL_Driver/Inc/stm32wlxx_ll_rcc.h **** #define LL_RCC_I2C1_CLKSOURCE_PCLK1        (uint32_t)((RCC_CCIPR_I2C1SEL << 4) | (0x00000000U >> 4)
 395:Drivers/STM32WLxx_HAL_Driver/Inc/stm32wlxx_ll_rcc.h **** #define LL_RCC_I2C1_CLKSOURCE_SYSCLK       (uint32_t)((RCC_CCIPR_I2C1SEL << 4) | (RCC_CCIPR_I2C1SEL
 396:Drivers/STM32WLxx_HAL_Driver/Inc/stm32wlxx_ll_rcc.h **** #define LL_RCC_I2C1_CLKSOURCE_HSI          (uint32_t)((RCC_CCIPR_I2C1SEL << 4) | (RCC_CCIPR_I2C1SEL
 397:Drivers/STM32WLxx_HAL_Driver/Inc/stm32wlxx_ll_rcc.h **** #define LL_RCC_I2C2_CLKSOURCE_PCLK1        (uint32_t)((RCC_CCIPR_I2C2SEL << 4) | (0x00000000U >> 4)
 398:Drivers/STM32WLxx_HAL_Driver/Inc/stm32wlxx_ll_rcc.h **** #define LL_RCC_I2C2_CLKSOURCE_SYSCLK       (uint32_t)((RCC_CCIPR_I2C2SEL << 4) | (RCC_CCIPR_I2C2SEL
 399:Drivers/STM32WLxx_HAL_Driver/Inc/stm32wlxx_ll_rcc.h **** #define LL_RCC_I2C2_CLKSOURCE_HSI          (uint32_t)((RCC_CCIPR_I2C2SEL << 4) | (RCC_CCIPR_I2C2SEL
 400:Drivers/STM32WLxx_HAL_Driver/Inc/stm32wlxx_ll_rcc.h **** #define LL_RCC_I2C3_CLKSOURCE_PCLK1        (uint32_t)((RCC_CCIPR_I2C3SEL << 4) | (0x00000000U >> 4)
 401:Drivers/STM32WLxx_HAL_Driver/Inc/stm32wlxx_ll_rcc.h **** #define LL_RCC_I2C3_CLKSOURCE_SYSCLK       (uint32_t)((RCC_CCIPR_I2C3SEL << 4) | (RCC_CCIPR_I2C3SEL
 402:Drivers/STM32WLxx_HAL_Driver/Inc/stm32wlxx_ll_rcc.h **** #define LL_RCC_I2C3_CLKSOURCE_HSI          (uint32_t)((RCC_CCIPR_I2C3SEL << 4) | (RCC_CCIPR_I2C3SEL
 403:Drivers/STM32WLxx_HAL_Driver/Inc/stm32wlxx_ll_rcc.h **** /**
 404:Drivers/STM32WLxx_HAL_Driver/Inc/stm32wlxx_ll_rcc.h ****   * @}
 405:Drivers/STM32WLxx_HAL_Driver/Inc/stm32wlxx_ll_rcc.h ****   */
 406:Drivers/STM32WLxx_HAL_Driver/Inc/stm32wlxx_ll_rcc.h **** 
 407:Drivers/STM32WLxx_HAL_Driver/Inc/stm32wlxx_ll_rcc.h **** /** @defgroup RCC_LL_EC_LPTIMx_CLKSOURCE LPTIMx CLKSOURCE
 408:Drivers/STM32WLxx_HAL_Driver/Inc/stm32wlxx_ll_rcc.h ****   * @{
 409:Drivers/STM32WLxx_HAL_Driver/Inc/stm32wlxx_ll_rcc.h ****   */
 410:Drivers/STM32WLxx_HAL_Driver/Inc/stm32wlxx_ll_rcc.h **** #define LL_RCC_LPTIM1_CLKSOURCE_PCLK1      (uint32_t)(RCC_CCIPR_LPTIM1SEL | (0x00000000U >> 16))   
 411:Drivers/STM32WLxx_HAL_Driver/Inc/stm32wlxx_ll_rcc.h **** #define LL_RCC_LPTIM1_CLKSOURCE_LSI        (uint32_t)(RCC_CCIPR_LPTIM1SEL | (RCC_CCIPR_LPTIM1SEL_0 
 412:Drivers/STM32WLxx_HAL_Driver/Inc/stm32wlxx_ll_rcc.h **** #define LL_RCC_LPTIM1_CLKSOURCE_HSI        (uint32_t)(RCC_CCIPR_LPTIM1SEL | (RCC_CCIPR_LPTIM1SEL_1 
 413:Drivers/STM32WLxx_HAL_Driver/Inc/stm32wlxx_ll_rcc.h **** #define LL_RCC_LPTIM1_CLKSOURCE_LSE        (uint32_t)(RCC_CCIPR_LPTIM1SEL | (RCC_CCIPR_LPTIM1SEL >>
 414:Drivers/STM32WLxx_HAL_Driver/Inc/stm32wlxx_ll_rcc.h **** #define LL_RCC_LPTIM2_CLKSOURCE_PCLK1      (uint32_t)(RCC_CCIPR_LPTIM2SEL | (0x00000000U >> 16))   
 415:Drivers/STM32WLxx_HAL_Driver/Inc/stm32wlxx_ll_rcc.h **** #define LL_RCC_LPTIM2_CLKSOURCE_LSI        (uint32_t)(RCC_CCIPR_LPTIM2SEL | (RCC_CCIPR_LPTIM2SEL_0 
 416:Drivers/STM32WLxx_HAL_Driver/Inc/stm32wlxx_ll_rcc.h **** #define LL_RCC_LPTIM2_CLKSOURCE_HSI        (uint32_t)(RCC_CCIPR_LPTIM2SEL | (RCC_CCIPR_LPTIM2SEL_1 
 417:Drivers/STM32WLxx_HAL_Driver/Inc/stm32wlxx_ll_rcc.h **** #define LL_RCC_LPTIM2_CLKSOURCE_LSE        (uint32_t)(RCC_CCIPR_LPTIM2SEL | (RCC_CCIPR_LPTIM2SEL >>
 418:Drivers/STM32WLxx_HAL_Driver/Inc/stm32wlxx_ll_rcc.h **** #define LL_RCC_LPTIM3_CLKSOURCE_PCLK1      (uint32_t)(RCC_CCIPR_LPTIM3SEL | (0x00000000U >> 16))   
 419:Drivers/STM32WLxx_HAL_Driver/Inc/stm32wlxx_ll_rcc.h **** #define LL_RCC_LPTIM3_CLKSOURCE_LSI        (uint32_t)(RCC_CCIPR_LPTIM3SEL | (RCC_CCIPR_LPTIM3SEL_0 
 420:Drivers/STM32WLxx_HAL_Driver/Inc/stm32wlxx_ll_rcc.h **** #define LL_RCC_LPTIM3_CLKSOURCE_HSI        (uint32_t)(RCC_CCIPR_LPTIM3SEL | (RCC_CCIPR_LPTIM3SEL_1 
 421:Drivers/STM32WLxx_HAL_Driver/Inc/stm32wlxx_ll_rcc.h **** #define LL_RCC_LPTIM3_CLKSOURCE_LSE        (uint32_t)(RCC_CCIPR_LPTIM3SEL | (RCC_CCIPR_LPTIM3SEL >>
 422:Drivers/STM32WLxx_HAL_Driver/Inc/stm32wlxx_ll_rcc.h **** 
 423:Drivers/STM32WLxx_HAL_Driver/Inc/stm32wlxx_ll_rcc.h **** /**
 424:Drivers/STM32WLxx_HAL_Driver/Inc/stm32wlxx_ll_rcc.h ****   * @}
 425:Drivers/STM32WLxx_HAL_Driver/Inc/stm32wlxx_ll_rcc.h ****   */
 426:Drivers/STM32WLxx_HAL_Driver/Inc/stm32wlxx_ll_rcc.h **** 
 427:Drivers/STM32WLxx_HAL_Driver/Inc/stm32wlxx_ll_rcc.h **** /** @defgroup RCC_LL_EC_ADC_CLKSRC ADC CLKSRC
 428:Drivers/STM32WLxx_HAL_Driver/Inc/stm32wlxx_ll_rcc.h ****   * @{
 429:Drivers/STM32WLxx_HAL_Driver/Inc/stm32wlxx_ll_rcc.h ****   */
 430:Drivers/STM32WLxx_HAL_Driver/Inc/stm32wlxx_ll_rcc.h **** #define LL_RCC_ADC_CLKSOURCE_NONE             0x00000000U        /*!< no Clock used as ADC clock*/
 431:Drivers/STM32WLxx_HAL_Driver/Inc/stm32wlxx_ll_rcc.h **** #define LL_RCC_ADC_CLKSOURCE_HSI              RCC_CCIPR_ADCSEL_0 /*!< HSI selected as ADC clock*/
 432:Drivers/STM32WLxx_HAL_Driver/Inc/stm32wlxx_ll_rcc.h **** #define LL_RCC_ADC_CLKSOURCE_PLL              RCC_CCIPR_ADCSEL_1 /*!< PLL selected as ADC clock*/
 433:Drivers/STM32WLxx_HAL_Driver/Inc/stm32wlxx_ll_rcc.h **** #define LL_RCC_ADC_CLKSOURCE_SYSCLK           RCC_CCIPR_ADCSEL   /*!< SYSCLK selected as ADC clock*
 434:Drivers/STM32WLxx_HAL_Driver/Inc/stm32wlxx_ll_rcc.h **** /**
 435:Drivers/STM32WLxx_HAL_Driver/Inc/stm32wlxx_ll_rcc.h ****   * @}
 436:Drivers/STM32WLxx_HAL_Driver/Inc/stm32wlxx_ll_rcc.h ****   */
 437:Drivers/STM32WLxx_HAL_Driver/Inc/stm32wlxx_ll_rcc.h **** 
 438:Drivers/STM32WLxx_HAL_Driver/Inc/stm32wlxx_ll_rcc.h **** /** @defgroup RCC_LL_EC_RNG_CLKSRC RNG CLKSRC
 439:Drivers/STM32WLxx_HAL_Driver/Inc/stm32wlxx_ll_rcc.h ****   * @{
 440:Drivers/STM32WLxx_HAL_Driver/Inc/stm32wlxx_ll_rcc.h ****   */
 441:Drivers/STM32WLxx_HAL_Driver/Inc/stm32wlxx_ll_rcc.h **** #define LL_RCC_RNG_CLKSOURCE_PLL              0x00000000U        /*!< PLL selected as RNG Clock */
 442:Drivers/STM32WLxx_HAL_Driver/Inc/stm32wlxx_ll_rcc.h **** #define LL_RCC_RNG_CLKSOURCE_LSI              RCC_CCIPR_RNGSEL_0 /*!< LSI selected as RNG clock*/
ARM GAS  /var/folders/9y/n02fl3g16gnf7ppy14xghdy80000gn/T//cckWqezL.s 			page 15


 443:Drivers/STM32WLxx_HAL_Driver/Inc/stm32wlxx_ll_rcc.h **** #define LL_RCC_RNG_CLKSOURCE_LSE              RCC_CCIPR_RNGSEL_1 /*!< LSE selected as RNG clock*/
 444:Drivers/STM32WLxx_HAL_Driver/Inc/stm32wlxx_ll_rcc.h **** #define LL_RCC_RNG_CLKSOURCE_MSI              (RCC_CCIPR_RNGSEL_1 | RCC_CCIPR_RNGSEL_0)  /*!< MSI s
 445:Drivers/STM32WLxx_HAL_Driver/Inc/stm32wlxx_ll_rcc.h **** /**
 446:Drivers/STM32WLxx_HAL_Driver/Inc/stm32wlxx_ll_rcc.h ****   * @}
 447:Drivers/STM32WLxx_HAL_Driver/Inc/stm32wlxx_ll_rcc.h ****   */
 448:Drivers/STM32WLxx_HAL_Driver/Inc/stm32wlxx_ll_rcc.h **** 
 449:Drivers/STM32WLxx_HAL_Driver/Inc/stm32wlxx_ll_rcc.h **** /** @defgroup RCC_LL_EC_USARTx USARTx
 450:Drivers/STM32WLxx_HAL_Driver/Inc/stm32wlxx_ll_rcc.h ****   * @{
 451:Drivers/STM32WLxx_HAL_Driver/Inc/stm32wlxx_ll_rcc.h ****   */
 452:Drivers/STM32WLxx_HAL_Driver/Inc/stm32wlxx_ll_rcc.h **** #define LL_RCC_USART1_CLKSOURCE            RCC_CCIPR_USART1SEL   /*!< USART1 clock source selection
 453:Drivers/STM32WLxx_HAL_Driver/Inc/stm32wlxx_ll_rcc.h **** #define LL_RCC_USART2_CLKSOURCE            RCC_CCIPR_USART2SEL   /*!< USART2 clock source selection
 454:Drivers/STM32WLxx_HAL_Driver/Inc/stm32wlxx_ll_rcc.h **** 
 455:Drivers/STM32WLxx_HAL_Driver/Inc/stm32wlxx_ll_rcc.h **** /**
 456:Drivers/STM32WLxx_HAL_Driver/Inc/stm32wlxx_ll_rcc.h ****   * @}
 457:Drivers/STM32WLxx_HAL_Driver/Inc/stm32wlxx_ll_rcc.h ****   */
 458:Drivers/STM32WLxx_HAL_Driver/Inc/stm32wlxx_ll_rcc.h **** 
 459:Drivers/STM32WLxx_HAL_Driver/Inc/stm32wlxx_ll_rcc.h **** /** @defgroup RCC_LL_EC_I2S2 Peripheral I2S get clock source
 460:Drivers/STM32WLxx_HAL_Driver/Inc/stm32wlxx_ll_rcc.h ****   * @{
 461:Drivers/STM32WLxx_HAL_Driver/Inc/stm32wlxx_ll_rcc.h ****   */
 462:Drivers/STM32WLxx_HAL_Driver/Inc/stm32wlxx_ll_rcc.h **** #define LL_RCC_I2S2_CLKSOURCE              RCC_CCIPR_I2S2SEL /*!< I2S2 Clock source selection */
 463:Drivers/STM32WLxx_HAL_Driver/Inc/stm32wlxx_ll_rcc.h **** /**
 464:Drivers/STM32WLxx_HAL_Driver/Inc/stm32wlxx_ll_rcc.h ****   * @}
 465:Drivers/STM32WLxx_HAL_Driver/Inc/stm32wlxx_ll_rcc.h ****   */
 466:Drivers/STM32WLxx_HAL_Driver/Inc/stm32wlxx_ll_rcc.h **** 
 467:Drivers/STM32WLxx_HAL_Driver/Inc/stm32wlxx_ll_rcc.h **** /** @defgroup RCC_LL_EC_LPUART1 LPUART1
 468:Drivers/STM32WLxx_HAL_Driver/Inc/stm32wlxx_ll_rcc.h ****   * @{
 469:Drivers/STM32WLxx_HAL_Driver/Inc/stm32wlxx_ll_rcc.h ****   */
 470:Drivers/STM32WLxx_HAL_Driver/Inc/stm32wlxx_ll_rcc.h **** #define LL_RCC_LPUART1_CLKSOURCE           RCC_CCIPR_LPUART1SEL  /*!< LPUART1 clock source selectio
 471:Drivers/STM32WLxx_HAL_Driver/Inc/stm32wlxx_ll_rcc.h **** /**
 472:Drivers/STM32WLxx_HAL_Driver/Inc/stm32wlxx_ll_rcc.h ****   * @}
 473:Drivers/STM32WLxx_HAL_Driver/Inc/stm32wlxx_ll_rcc.h ****   */
 474:Drivers/STM32WLxx_HAL_Driver/Inc/stm32wlxx_ll_rcc.h **** 
 475:Drivers/STM32WLxx_HAL_Driver/Inc/stm32wlxx_ll_rcc.h **** /** @defgroup RCC_LL_EC_I2Cx I2Cx
 476:Drivers/STM32WLxx_HAL_Driver/Inc/stm32wlxx_ll_rcc.h ****   * @{
 477:Drivers/STM32WLxx_HAL_Driver/Inc/stm32wlxx_ll_rcc.h ****   */
 478:Drivers/STM32WLxx_HAL_Driver/Inc/stm32wlxx_ll_rcc.h **** #define LL_RCC_I2C1_CLKSOURCE              RCC_CCIPR_I2C1SEL    /*!< I2C1 clock source selection bi
 479:Drivers/STM32WLxx_HAL_Driver/Inc/stm32wlxx_ll_rcc.h **** #define LL_RCC_I2C2_CLKSOURCE              RCC_CCIPR_I2C2SEL    /*!< I2C2 clock source selection bi
 480:Drivers/STM32WLxx_HAL_Driver/Inc/stm32wlxx_ll_rcc.h **** #define LL_RCC_I2C3_CLKSOURCE              RCC_CCIPR_I2C3SEL    /*!< I2C3 clock source selection bi
 481:Drivers/STM32WLxx_HAL_Driver/Inc/stm32wlxx_ll_rcc.h **** /**
 482:Drivers/STM32WLxx_HAL_Driver/Inc/stm32wlxx_ll_rcc.h ****   * @}
 483:Drivers/STM32WLxx_HAL_Driver/Inc/stm32wlxx_ll_rcc.h ****   */
 484:Drivers/STM32WLxx_HAL_Driver/Inc/stm32wlxx_ll_rcc.h **** 
 485:Drivers/STM32WLxx_HAL_Driver/Inc/stm32wlxx_ll_rcc.h **** /** @defgroup RCC_LL_EC_LPTIMx LPTIMx
 486:Drivers/STM32WLxx_HAL_Driver/Inc/stm32wlxx_ll_rcc.h ****   * @{
 487:Drivers/STM32WLxx_HAL_Driver/Inc/stm32wlxx_ll_rcc.h ****   */
 488:Drivers/STM32WLxx_HAL_Driver/Inc/stm32wlxx_ll_rcc.h **** #define LL_RCC_LPTIM1_CLKSOURCE            RCC_CCIPR_LPTIM1SEL  /*!< LPTIM1 clock source selection 
 489:Drivers/STM32WLxx_HAL_Driver/Inc/stm32wlxx_ll_rcc.h **** #define LL_RCC_LPTIM2_CLKSOURCE            RCC_CCIPR_LPTIM2SEL  /*!< LPTIM2 clock source selection 
 490:Drivers/STM32WLxx_HAL_Driver/Inc/stm32wlxx_ll_rcc.h **** #define LL_RCC_LPTIM3_CLKSOURCE            RCC_CCIPR_LPTIM3SEL  /*!< LPTIM2 clock source selection 
 491:Drivers/STM32WLxx_HAL_Driver/Inc/stm32wlxx_ll_rcc.h **** 
 492:Drivers/STM32WLxx_HAL_Driver/Inc/stm32wlxx_ll_rcc.h **** /**
 493:Drivers/STM32WLxx_HAL_Driver/Inc/stm32wlxx_ll_rcc.h ****   * @}
 494:Drivers/STM32WLxx_HAL_Driver/Inc/stm32wlxx_ll_rcc.h ****   */
 495:Drivers/STM32WLxx_HAL_Driver/Inc/stm32wlxx_ll_rcc.h **** 
 496:Drivers/STM32WLxx_HAL_Driver/Inc/stm32wlxx_ll_rcc.h **** /** @defgroup RCC_LL_EC_RNG RNG
 497:Drivers/STM32WLxx_HAL_Driver/Inc/stm32wlxx_ll_rcc.h ****   * @{
 498:Drivers/STM32WLxx_HAL_Driver/Inc/stm32wlxx_ll_rcc.h ****   */
 499:Drivers/STM32WLxx_HAL_Driver/Inc/stm32wlxx_ll_rcc.h **** #define LL_RCC_RNG_CLKSOURCE               RCC_CCIPR_RNGSEL  /*!< RNG clock source selection bits *
ARM GAS  /var/folders/9y/n02fl3g16gnf7ppy14xghdy80000gn/T//cckWqezL.s 			page 16


 500:Drivers/STM32WLxx_HAL_Driver/Inc/stm32wlxx_ll_rcc.h **** /**
 501:Drivers/STM32WLxx_HAL_Driver/Inc/stm32wlxx_ll_rcc.h ****   * @}
 502:Drivers/STM32WLxx_HAL_Driver/Inc/stm32wlxx_ll_rcc.h ****   */
 503:Drivers/STM32WLxx_HAL_Driver/Inc/stm32wlxx_ll_rcc.h **** 
 504:Drivers/STM32WLxx_HAL_Driver/Inc/stm32wlxx_ll_rcc.h **** /** @defgroup RCC_LL_EC_ADC ADC
 505:Drivers/STM32WLxx_HAL_Driver/Inc/stm32wlxx_ll_rcc.h ****   * @{
 506:Drivers/STM32WLxx_HAL_Driver/Inc/stm32wlxx_ll_rcc.h ****   */
 507:Drivers/STM32WLxx_HAL_Driver/Inc/stm32wlxx_ll_rcc.h **** #define LL_RCC_ADC_CLKSOURCE               RCC_CCIPR_ADCSEL   /*!< ADC clock source selection bits 
 508:Drivers/STM32WLxx_HAL_Driver/Inc/stm32wlxx_ll_rcc.h **** /**
 509:Drivers/STM32WLxx_HAL_Driver/Inc/stm32wlxx_ll_rcc.h ****   * @}
 510:Drivers/STM32WLxx_HAL_Driver/Inc/stm32wlxx_ll_rcc.h ****   */
 511:Drivers/STM32WLxx_HAL_Driver/Inc/stm32wlxx_ll_rcc.h **** 
 512:Drivers/STM32WLxx_HAL_Driver/Inc/stm32wlxx_ll_rcc.h **** /** @defgroup RCC_LL_EC_RTC_CLKSOURCE  RTC clock source selection
 513:Drivers/STM32WLxx_HAL_Driver/Inc/stm32wlxx_ll_rcc.h ****   * @{
 514:Drivers/STM32WLxx_HAL_Driver/Inc/stm32wlxx_ll_rcc.h ****   */
 515:Drivers/STM32WLxx_HAL_Driver/Inc/stm32wlxx_ll_rcc.h **** #define LL_RCC_RTC_CLKSOURCE_NONE          0x00000000U                   /*!< No clock used as RTC 
 516:Drivers/STM32WLxx_HAL_Driver/Inc/stm32wlxx_ll_rcc.h **** #define LL_RCC_RTC_CLKSOURCE_LSE           RCC_BDCR_RTCSEL_0             /*!< LSE oscillator clock 
 517:Drivers/STM32WLxx_HAL_Driver/Inc/stm32wlxx_ll_rcc.h **** #define LL_RCC_RTC_CLKSOURCE_LSI           RCC_BDCR_RTCSEL_1             /*!< LSI oscillator clock 
 518:Drivers/STM32WLxx_HAL_Driver/Inc/stm32wlxx_ll_rcc.h **** #define LL_RCC_RTC_CLKSOURCE_HSE_DIV32     RCC_BDCR_RTCSEL               /*!< HSE oscillator clock 
 519:Drivers/STM32WLxx_HAL_Driver/Inc/stm32wlxx_ll_rcc.h **** 
 520:Drivers/STM32WLxx_HAL_Driver/Inc/stm32wlxx_ll_rcc.h **** /**
 521:Drivers/STM32WLxx_HAL_Driver/Inc/stm32wlxx_ll_rcc.h ****   * @}
 522:Drivers/STM32WLxx_HAL_Driver/Inc/stm32wlxx_ll_rcc.h ****   */
 523:Drivers/STM32WLxx_HAL_Driver/Inc/stm32wlxx_ll_rcc.h **** 
 524:Drivers/STM32WLxx_HAL_Driver/Inc/stm32wlxx_ll_rcc.h **** /** @defgroup RCC_LL_EC_PLLSOURCE  PLL entry clock source
 525:Drivers/STM32WLxx_HAL_Driver/Inc/stm32wlxx_ll_rcc.h ****   * @{
 526:Drivers/STM32WLxx_HAL_Driver/Inc/stm32wlxx_ll_rcc.h ****   */
 527:Drivers/STM32WLxx_HAL_Driver/Inc/stm32wlxx_ll_rcc.h **** #define LL_RCC_PLLSOURCE_NONE              0x00000000U             /*!< No clock */
 528:Drivers/STM32WLxx_HAL_Driver/Inc/stm32wlxx_ll_rcc.h **** #define LL_RCC_PLLSOURCE_MSI               RCC_PLLCFGR_PLLSRC_0  /*!< MSI clock selected as PLL ent
 529:Drivers/STM32WLxx_HAL_Driver/Inc/stm32wlxx_ll_rcc.h **** #define LL_RCC_PLLSOURCE_HSI               RCC_PLLCFGR_PLLSRC_1  /*!< HSI clock selected as PLL ent
 530:Drivers/STM32WLxx_HAL_Driver/Inc/stm32wlxx_ll_rcc.h **** #define LL_RCC_PLLSOURCE_HSE               (RCC_PLLCFGR_PLLSRC_1 | RCC_PLLCFGR_PLLSRC_0)  /*!< HSE 
 531:Drivers/STM32WLxx_HAL_Driver/Inc/stm32wlxx_ll_rcc.h **** /**
 532:Drivers/STM32WLxx_HAL_Driver/Inc/stm32wlxx_ll_rcc.h ****   * @}
 533:Drivers/STM32WLxx_HAL_Driver/Inc/stm32wlxx_ll_rcc.h ****   */
 534:Drivers/STM32WLxx_HAL_Driver/Inc/stm32wlxx_ll_rcc.h **** 
 535:Drivers/STM32WLxx_HAL_Driver/Inc/stm32wlxx_ll_rcc.h **** /** @defgroup RCC_LL_EC_PLLM_DIV  PLL.division factor
 536:Drivers/STM32WLxx_HAL_Driver/Inc/stm32wlxx_ll_rcc.h ****   * @{
 537:Drivers/STM32WLxx_HAL_Driver/Inc/stm32wlxx_ll_rcc.h ****   */
 538:Drivers/STM32WLxx_HAL_Driver/Inc/stm32wlxx_ll_rcc.h **** #define LL_RCC_PLLM_DIV_1                  0x00000000U                                 /*!< PLL div
 539:Drivers/STM32WLxx_HAL_Driver/Inc/stm32wlxx_ll_rcc.h **** #define LL_RCC_PLLM_DIV_2                  (RCC_PLLCFGR_PLLM_0)                        /*!< PLL div
 540:Drivers/STM32WLxx_HAL_Driver/Inc/stm32wlxx_ll_rcc.h **** #define LL_RCC_PLLM_DIV_3                  (RCC_PLLCFGR_PLLM_1)                        /*!< PLL div
 541:Drivers/STM32WLxx_HAL_Driver/Inc/stm32wlxx_ll_rcc.h **** #define LL_RCC_PLLM_DIV_4                  ((RCC_PLLCFGR_PLLM_1 | RCC_PLLCFGR_PLLM_0)) /*!< PLL div
 542:Drivers/STM32WLxx_HAL_Driver/Inc/stm32wlxx_ll_rcc.h **** #define LL_RCC_PLLM_DIV_5                  (RCC_PLLCFGR_PLLM_2)                        /*!< PLL div
 543:Drivers/STM32WLxx_HAL_Driver/Inc/stm32wlxx_ll_rcc.h **** #define LL_RCC_PLLM_DIV_6                  ((RCC_PLLCFGR_PLLM_2 | RCC_PLLCFGR_PLLM_0)) /*!< PLL div
 544:Drivers/STM32WLxx_HAL_Driver/Inc/stm32wlxx_ll_rcc.h **** #define LL_RCC_PLLM_DIV_7                  ((RCC_PLLCFGR_PLLM_2 | RCC_PLLCFGR_PLLM_1)) /*!< PLL div
 545:Drivers/STM32WLxx_HAL_Driver/Inc/stm32wlxx_ll_rcc.h **** #define LL_RCC_PLLM_DIV_8                  (RCC_PLLCFGR_PLLM)                          /*!< PLL div
 546:Drivers/STM32WLxx_HAL_Driver/Inc/stm32wlxx_ll_rcc.h **** /**
 547:Drivers/STM32WLxx_HAL_Driver/Inc/stm32wlxx_ll_rcc.h ****   * @}
 548:Drivers/STM32WLxx_HAL_Driver/Inc/stm32wlxx_ll_rcc.h ****   */
 549:Drivers/STM32WLxx_HAL_Driver/Inc/stm32wlxx_ll_rcc.h **** 
 550:Drivers/STM32WLxx_HAL_Driver/Inc/stm32wlxx_ll_rcc.h **** /** @defgroup RCC_LL_EC_PLLR_DIV  PLL division factor (PLLR)
 551:Drivers/STM32WLxx_HAL_Driver/Inc/stm32wlxx_ll_rcc.h ****   * @{
 552:Drivers/STM32WLxx_HAL_Driver/Inc/stm32wlxx_ll_rcc.h ****   */
 553:Drivers/STM32WLxx_HAL_Driver/Inc/stm32wlxx_ll_rcc.h **** #define LL_RCC_PLLR_DIV_2                  (RCC_PLLCFGR_PLLR_0)                     /*!< Main PLL d
 554:Drivers/STM32WLxx_HAL_Driver/Inc/stm32wlxx_ll_rcc.h **** #define LL_RCC_PLLR_DIV_3                  (RCC_PLLCFGR_PLLR_1)                     /*!< Main PLL d
 555:Drivers/STM32WLxx_HAL_Driver/Inc/stm32wlxx_ll_rcc.h **** #define LL_RCC_PLLR_DIV_4                  (RCC_PLLCFGR_PLLR_1|RCC_PLLCFGR_PLLR_0)  /*!< Main PLL d
 556:Drivers/STM32WLxx_HAL_Driver/Inc/stm32wlxx_ll_rcc.h **** #define LL_RCC_PLLR_DIV_5                  (RCC_PLLCFGR_PLLR_2)                     /*!< Main PLL d
ARM GAS  /var/folders/9y/n02fl3g16gnf7ppy14xghdy80000gn/T//cckWqezL.s 			page 17


 557:Drivers/STM32WLxx_HAL_Driver/Inc/stm32wlxx_ll_rcc.h **** #define LL_RCC_PLLR_DIV_6                  (RCC_PLLCFGR_PLLR_2|RCC_PLLCFGR_PLLR_0)  /*!< Main PLL d
 558:Drivers/STM32WLxx_HAL_Driver/Inc/stm32wlxx_ll_rcc.h **** #define LL_RCC_PLLR_DIV_7                  (RCC_PLLCFGR_PLLR_2|RCC_PLLCFGR_PLLR_1)  /*!< Main PLL d
 559:Drivers/STM32WLxx_HAL_Driver/Inc/stm32wlxx_ll_rcc.h **** #define LL_RCC_PLLR_DIV_8                  (RCC_PLLCFGR_PLLR)                       /*!< Main PLL d
 560:Drivers/STM32WLxx_HAL_Driver/Inc/stm32wlxx_ll_rcc.h **** /**
 561:Drivers/STM32WLxx_HAL_Driver/Inc/stm32wlxx_ll_rcc.h ****   * @}
 562:Drivers/STM32WLxx_HAL_Driver/Inc/stm32wlxx_ll_rcc.h ****   */
 563:Drivers/STM32WLxx_HAL_Driver/Inc/stm32wlxx_ll_rcc.h **** 
 564:Drivers/STM32WLxx_HAL_Driver/Inc/stm32wlxx_ll_rcc.h **** /** @defgroup RCC_LL_EC_PLLP_DIV  PLL division factor (PLLP)
 565:Drivers/STM32WLxx_HAL_Driver/Inc/stm32wlxx_ll_rcc.h ****   * @{
 566:Drivers/STM32WLxx_HAL_Driver/Inc/stm32wlxx_ll_rcc.h ****   */
 567:Drivers/STM32WLxx_HAL_Driver/Inc/stm32wlxx_ll_rcc.h **** #define LL_RCC_PLLP_DIV_2                  (RCC_PLLCFGR_PLLP_0)                                    
 568:Drivers/STM32WLxx_HAL_Driver/Inc/stm32wlxx_ll_rcc.h **** #define LL_RCC_PLLP_DIV_3                  (RCC_PLLCFGR_PLLP_1)                                    
 569:Drivers/STM32WLxx_HAL_Driver/Inc/stm32wlxx_ll_rcc.h **** #define LL_RCC_PLLP_DIV_4                  (RCC_PLLCFGR_PLLP_0|RCC_PLLCFGR_PLLP_1)                 
 570:Drivers/STM32WLxx_HAL_Driver/Inc/stm32wlxx_ll_rcc.h **** #define LL_RCC_PLLP_DIV_5                  (RCC_PLLCFGR_PLLP_2)                                    
 571:Drivers/STM32WLxx_HAL_Driver/Inc/stm32wlxx_ll_rcc.h **** #define LL_RCC_PLLP_DIV_6                  (RCC_PLLCFGR_PLLP_0|RCC_PLLCFGR_PLLP_2)                 
 572:Drivers/STM32WLxx_HAL_Driver/Inc/stm32wlxx_ll_rcc.h **** #define LL_RCC_PLLP_DIV_7                  (RCC_PLLCFGR_PLLP_1|RCC_PLLCFGR_PLLP_2)                 
 573:Drivers/STM32WLxx_HAL_Driver/Inc/stm32wlxx_ll_rcc.h **** #define LL_RCC_PLLP_DIV_8                  (RCC_PLLCFGR_PLLP_0|RCC_PLLCFGR_PLLP_1|RCC_PLLCFGR_PLLP_
 574:Drivers/STM32WLxx_HAL_Driver/Inc/stm32wlxx_ll_rcc.h **** #define LL_RCC_PLLP_DIV_9                  (RCC_PLLCFGR_PLLP_3)                                    
 575:Drivers/STM32WLxx_HAL_Driver/Inc/stm32wlxx_ll_rcc.h **** #define LL_RCC_PLLP_DIV_10                 (RCC_PLLCFGR_PLLP_0|RCC_PLLCFGR_PLLP_3)                 
 576:Drivers/STM32WLxx_HAL_Driver/Inc/stm32wlxx_ll_rcc.h **** #define LL_RCC_PLLP_DIV_11                 (RCC_PLLCFGR_PLLP_1|RCC_PLLCFGR_PLLP_3)                 
 577:Drivers/STM32WLxx_HAL_Driver/Inc/stm32wlxx_ll_rcc.h **** #define LL_RCC_PLLP_DIV_12                 (RCC_PLLCFGR_PLLP_0|RCC_PLLCFGR_PLLP_1|RCC_PLLCFGR_PLLP_
 578:Drivers/STM32WLxx_HAL_Driver/Inc/stm32wlxx_ll_rcc.h **** #define LL_RCC_PLLP_DIV_13                 (RCC_PLLCFGR_PLLP_2|RCC_PLLCFGR_PLLP_3)                 
 579:Drivers/STM32WLxx_HAL_Driver/Inc/stm32wlxx_ll_rcc.h **** #define LL_RCC_PLLP_DIV_14                 (RCC_PLLCFGR_PLLP_0|RCC_PLLCFGR_PLLP_2|RCC_PLLCFGR_PLLP_
 580:Drivers/STM32WLxx_HAL_Driver/Inc/stm32wlxx_ll_rcc.h **** #define LL_RCC_PLLP_DIV_15                 (RCC_PLLCFGR_PLLP_1|RCC_PLLCFGR_PLLP_2|RCC_PLLCFGR_PLLP_
 581:Drivers/STM32WLxx_HAL_Driver/Inc/stm32wlxx_ll_rcc.h **** #define LL_RCC_PLLP_DIV_16                 (RCC_PLLCFGR_PLLP_0|RCC_PLLCFGR_PLLP_1|RCC_PLLCFGR_PLLP_
 582:Drivers/STM32WLxx_HAL_Driver/Inc/stm32wlxx_ll_rcc.h **** #define LL_RCC_PLLP_DIV_17                 (RCC_PLLCFGR_PLLP_4)                                    
 583:Drivers/STM32WLxx_HAL_Driver/Inc/stm32wlxx_ll_rcc.h **** #define LL_RCC_PLLP_DIV_18                 (RCC_PLLCFGR_PLLP_0|RCC_PLLCFGR_PLLP_4)                 
 584:Drivers/STM32WLxx_HAL_Driver/Inc/stm32wlxx_ll_rcc.h **** #define LL_RCC_PLLP_DIV_19                 (RCC_PLLCFGR_PLLP_1|RCC_PLLCFGR_PLLP_4)                 
 585:Drivers/STM32WLxx_HAL_Driver/Inc/stm32wlxx_ll_rcc.h **** #define LL_RCC_PLLP_DIV_20                 (RCC_PLLCFGR_PLLP_0|RCC_PLLCFGR_PLLP_1|RCC_PLLCFGR_PLLP_
 586:Drivers/STM32WLxx_HAL_Driver/Inc/stm32wlxx_ll_rcc.h **** #define LL_RCC_PLLP_DIV_21                 (RCC_PLLCFGR_PLLP_2|RCC_PLLCFGR_PLLP_4)                 
 587:Drivers/STM32WLxx_HAL_Driver/Inc/stm32wlxx_ll_rcc.h **** #define LL_RCC_PLLP_DIV_22                 (RCC_PLLCFGR_PLLP_0|RCC_PLLCFGR_PLLP_2|RCC_PLLCFGR_PLLP_
 588:Drivers/STM32WLxx_HAL_Driver/Inc/stm32wlxx_ll_rcc.h **** #define LL_RCC_PLLP_DIV_23                 (RCC_PLLCFGR_PLLP_1|RCC_PLLCFGR_PLLP_2|RCC_PLLCFGR_PLLP_
 589:Drivers/STM32WLxx_HAL_Driver/Inc/stm32wlxx_ll_rcc.h **** #define LL_RCC_PLLP_DIV_24                 (RCC_PLLCFGR_PLLP_0|RCC_PLLCFGR_PLLP_1|RCC_PLLCFGR_PLLP_
 590:Drivers/STM32WLxx_HAL_Driver/Inc/stm32wlxx_ll_rcc.h **** #define LL_RCC_PLLP_DIV_25                 (RCC_PLLCFGR_PLLP_3|RCC_PLLCFGR_PLLP_4)                 
 591:Drivers/STM32WLxx_HAL_Driver/Inc/stm32wlxx_ll_rcc.h **** #define LL_RCC_PLLP_DIV_26                 (RCC_PLLCFGR_PLLP_0|RCC_PLLCFGR_PLLP_3|RCC_PLLCFGR_PLLP_
 592:Drivers/STM32WLxx_HAL_Driver/Inc/stm32wlxx_ll_rcc.h **** #define LL_RCC_PLLP_DIV_27                 (RCC_PLLCFGR_PLLP_1|RCC_PLLCFGR_PLLP_3|RCC_PLLCFGR_PLLP_
 593:Drivers/STM32WLxx_HAL_Driver/Inc/stm32wlxx_ll_rcc.h **** #define LL_RCC_PLLP_DIV_28                 (RCC_PLLCFGR_PLLP_0|RCC_PLLCFGR_PLLP_1|RCC_PLLCFGR_PLLP_
 594:Drivers/STM32WLxx_HAL_Driver/Inc/stm32wlxx_ll_rcc.h **** #define LL_RCC_PLLP_DIV_29                 (RCC_PLLCFGR_PLLP_2|RCC_PLLCFGR_PLLP_3|RCC_PLLCFGR_PLLP_
 595:Drivers/STM32WLxx_HAL_Driver/Inc/stm32wlxx_ll_rcc.h **** #define LL_RCC_PLLP_DIV_30                 (RCC_PLLCFGR_PLLP_0|RCC_PLLCFGR_PLLP_2|RCC_PLLCFGR_PLLP_
 596:Drivers/STM32WLxx_HAL_Driver/Inc/stm32wlxx_ll_rcc.h **** #define LL_RCC_PLLP_DIV_31                 (RCC_PLLCFGR_PLLP_1|RCC_PLLCFGR_PLLP_2|RCC_PLLCFGR_PLLP_
 597:Drivers/STM32WLxx_HAL_Driver/Inc/stm32wlxx_ll_rcc.h **** #define LL_RCC_PLLP_DIV_32                 (RCC_PLLCFGR_PLLP_0|RCC_PLLCFGR_PLLP_1|RCC_PLLCFGR_PLLP_
 598:Drivers/STM32WLxx_HAL_Driver/Inc/stm32wlxx_ll_rcc.h **** /**
 599:Drivers/STM32WLxx_HAL_Driver/Inc/stm32wlxx_ll_rcc.h ****   * @}
 600:Drivers/STM32WLxx_HAL_Driver/Inc/stm32wlxx_ll_rcc.h ****   */
 601:Drivers/STM32WLxx_HAL_Driver/Inc/stm32wlxx_ll_rcc.h **** 
 602:Drivers/STM32WLxx_HAL_Driver/Inc/stm32wlxx_ll_rcc.h **** /** @defgroup RCC_LL_EC_PLLQ_DIV  PLL division factor (PLLQ)
 603:Drivers/STM32WLxx_HAL_Driver/Inc/stm32wlxx_ll_rcc.h ****   * @{
 604:Drivers/STM32WLxx_HAL_Driver/Inc/stm32wlxx_ll_rcc.h ****   */
 605:Drivers/STM32WLxx_HAL_Driver/Inc/stm32wlxx_ll_rcc.h **** #define LL_RCC_PLLQ_DIV_2                  (RCC_PLLCFGR_PLLQ_0)                    /*!< Main PLL di
 606:Drivers/STM32WLxx_HAL_Driver/Inc/stm32wlxx_ll_rcc.h **** #define LL_RCC_PLLQ_DIV_3                  (RCC_PLLCFGR_PLLQ_1)                    /*!< Main PLL di
 607:Drivers/STM32WLxx_HAL_Driver/Inc/stm32wlxx_ll_rcc.h **** #define LL_RCC_PLLQ_DIV_4                  (RCC_PLLCFGR_PLLQ_1|RCC_PLLCFGR_PLLQ_0) /*!< Main PLL di
 608:Drivers/STM32WLxx_HAL_Driver/Inc/stm32wlxx_ll_rcc.h **** #define LL_RCC_PLLQ_DIV_5                  (RCC_PLLCFGR_PLLQ_2)                    /*!< Main PLL di
 609:Drivers/STM32WLxx_HAL_Driver/Inc/stm32wlxx_ll_rcc.h **** #define LL_RCC_PLLQ_DIV_6                  (RCC_PLLCFGR_PLLQ_2|RCC_PLLCFGR_PLLQ_0) /*!< Main PLL di
 610:Drivers/STM32WLxx_HAL_Driver/Inc/stm32wlxx_ll_rcc.h **** #define LL_RCC_PLLQ_DIV_7                  (RCC_PLLCFGR_PLLQ_2|RCC_PLLCFGR_PLLQ_1) /*!< Main PLL di
 611:Drivers/STM32WLxx_HAL_Driver/Inc/stm32wlxx_ll_rcc.h **** #define LL_RCC_PLLQ_DIV_8                  (RCC_PLLCFGR_PLLQ)                      /*!< Main PLL di
 612:Drivers/STM32WLxx_HAL_Driver/Inc/stm32wlxx_ll_rcc.h **** /**
 613:Drivers/STM32WLxx_HAL_Driver/Inc/stm32wlxx_ll_rcc.h ****   * @}
ARM GAS  /var/folders/9y/n02fl3g16gnf7ppy14xghdy80000gn/T//cckWqezL.s 			page 18


 614:Drivers/STM32WLxx_HAL_Driver/Inc/stm32wlxx_ll_rcc.h ****   */
 615:Drivers/STM32WLxx_HAL_Driver/Inc/stm32wlxx_ll_rcc.h **** 
 616:Drivers/STM32WLxx_HAL_Driver/Inc/stm32wlxx_ll_rcc.h **** /** @defgroup RCC_LL_EC_MSIRANGESEL  MSI clock range selection
 617:Drivers/STM32WLxx_HAL_Driver/Inc/stm32wlxx_ll_rcc.h ****   * @{
 618:Drivers/STM32WLxx_HAL_Driver/Inc/stm32wlxx_ll_rcc.h ****   */
 619:Drivers/STM32WLxx_HAL_Driver/Inc/stm32wlxx_ll_rcc.h **** #define LL_RCC_MSIRANGESEL_STANDBY         0U                  /*!< MSI Range is provided by MSISRA
 620:Drivers/STM32WLxx_HAL_Driver/Inc/stm32wlxx_ll_rcc.h **** #define LL_RCC_MSIRANGESEL_RUN             1U                  /*!< MSI Range is provided by MSIRAN
 621:Drivers/STM32WLxx_HAL_Driver/Inc/stm32wlxx_ll_rcc.h **** /**
 622:Drivers/STM32WLxx_HAL_Driver/Inc/stm32wlxx_ll_rcc.h ****   * @}
 623:Drivers/STM32WLxx_HAL_Driver/Inc/stm32wlxx_ll_rcc.h ****   */
 624:Drivers/STM32WLxx_HAL_Driver/Inc/stm32wlxx_ll_rcc.h **** 
 625:Drivers/STM32WLxx_HAL_Driver/Inc/stm32wlxx_ll_rcc.h **** /** @defgroup RCC_LL_EC_LSIPRE  LSI division factor
 626:Drivers/STM32WLxx_HAL_Driver/Inc/stm32wlxx_ll_rcc.h ****   * @{
 627:Drivers/STM32WLxx_HAL_Driver/Inc/stm32wlxx_ll_rcc.h ****   */
 628:Drivers/STM32WLxx_HAL_Driver/Inc/stm32wlxx_ll_rcc.h **** #define LL_RCC_LSI_PREDIV_1                0x00000000U         /*!< LSI division factor by 1   */
 629:Drivers/STM32WLxx_HAL_Driver/Inc/stm32wlxx_ll_rcc.h **** #define LL_RCC_LSI_PREDIV_128              RCC_CSR_LSIPRE      /*!< LSI division factor by 128 */
 630:Drivers/STM32WLxx_HAL_Driver/Inc/stm32wlxx_ll_rcc.h **** /**
 631:Drivers/STM32WLxx_HAL_Driver/Inc/stm32wlxx_ll_rcc.h ****   * @}
 632:Drivers/STM32WLxx_HAL_Driver/Inc/stm32wlxx_ll_rcc.h ****   */
 633:Drivers/STM32WLxx_HAL_Driver/Inc/stm32wlxx_ll_rcc.h **** 
 634:Drivers/STM32WLxx_HAL_Driver/Inc/stm32wlxx_ll_rcc.h **** /**
 635:Drivers/STM32WLxx_HAL_Driver/Inc/stm32wlxx_ll_rcc.h ****   * @}
 636:Drivers/STM32WLxx_HAL_Driver/Inc/stm32wlxx_ll_rcc.h ****   */
 637:Drivers/STM32WLxx_HAL_Driver/Inc/stm32wlxx_ll_rcc.h **** 
 638:Drivers/STM32WLxx_HAL_Driver/Inc/stm32wlxx_ll_rcc.h **** /* Exported macro ------------------------------------------------------------*/
 639:Drivers/STM32WLxx_HAL_Driver/Inc/stm32wlxx_ll_rcc.h **** /** @defgroup RCC_LL_Exported_Macros RCC Exported Macros
 640:Drivers/STM32WLxx_HAL_Driver/Inc/stm32wlxx_ll_rcc.h ****   * @{
 641:Drivers/STM32WLxx_HAL_Driver/Inc/stm32wlxx_ll_rcc.h ****   */
 642:Drivers/STM32WLxx_HAL_Driver/Inc/stm32wlxx_ll_rcc.h **** 
 643:Drivers/STM32WLxx_HAL_Driver/Inc/stm32wlxx_ll_rcc.h **** /** @defgroup RCC_LL_EM_WRITE_READ Common Write and read registers Macros
 644:Drivers/STM32WLxx_HAL_Driver/Inc/stm32wlxx_ll_rcc.h ****   * @{
 645:Drivers/STM32WLxx_HAL_Driver/Inc/stm32wlxx_ll_rcc.h ****   */
 646:Drivers/STM32WLxx_HAL_Driver/Inc/stm32wlxx_ll_rcc.h **** 
 647:Drivers/STM32WLxx_HAL_Driver/Inc/stm32wlxx_ll_rcc.h **** /**
 648:Drivers/STM32WLxx_HAL_Driver/Inc/stm32wlxx_ll_rcc.h ****   * @brief  Write a value in RCC register
 649:Drivers/STM32WLxx_HAL_Driver/Inc/stm32wlxx_ll_rcc.h ****   * @param  __REG__ Register to be written
 650:Drivers/STM32WLxx_HAL_Driver/Inc/stm32wlxx_ll_rcc.h ****   * @param  __VALUE__ Value to be written in the register
 651:Drivers/STM32WLxx_HAL_Driver/Inc/stm32wlxx_ll_rcc.h ****   * @retval None
 652:Drivers/STM32WLxx_HAL_Driver/Inc/stm32wlxx_ll_rcc.h ****   */
 653:Drivers/STM32WLxx_HAL_Driver/Inc/stm32wlxx_ll_rcc.h **** #define LL_RCC_WriteReg(__REG__, __VALUE__) WRITE_REG(RCC->__REG__, (__VALUE__))
 654:Drivers/STM32WLxx_HAL_Driver/Inc/stm32wlxx_ll_rcc.h **** 
 655:Drivers/STM32WLxx_HAL_Driver/Inc/stm32wlxx_ll_rcc.h **** /**
 656:Drivers/STM32WLxx_HAL_Driver/Inc/stm32wlxx_ll_rcc.h ****   * @brief  Read a value in RCC register
 657:Drivers/STM32WLxx_HAL_Driver/Inc/stm32wlxx_ll_rcc.h ****   * @param  __REG__ Register to be read
 658:Drivers/STM32WLxx_HAL_Driver/Inc/stm32wlxx_ll_rcc.h ****   * @retval Register value
 659:Drivers/STM32WLxx_HAL_Driver/Inc/stm32wlxx_ll_rcc.h ****   */
 660:Drivers/STM32WLxx_HAL_Driver/Inc/stm32wlxx_ll_rcc.h **** #define LL_RCC_ReadReg(__REG__) READ_REG(RCC->__REG__)
 661:Drivers/STM32WLxx_HAL_Driver/Inc/stm32wlxx_ll_rcc.h **** /**
 662:Drivers/STM32WLxx_HAL_Driver/Inc/stm32wlxx_ll_rcc.h ****   * @}
 663:Drivers/STM32WLxx_HAL_Driver/Inc/stm32wlxx_ll_rcc.h ****   */
 664:Drivers/STM32WLxx_HAL_Driver/Inc/stm32wlxx_ll_rcc.h **** 
 665:Drivers/STM32WLxx_HAL_Driver/Inc/stm32wlxx_ll_rcc.h **** /** @defgroup RCC_LL_EM_CALC_FREQ Calculate frequencies
 666:Drivers/STM32WLxx_HAL_Driver/Inc/stm32wlxx_ll_rcc.h ****   * @{
 667:Drivers/STM32WLxx_HAL_Driver/Inc/stm32wlxx_ll_rcc.h ****   */
 668:Drivers/STM32WLxx_HAL_Driver/Inc/stm32wlxx_ll_rcc.h **** 
 669:Drivers/STM32WLxx_HAL_Driver/Inc/stm32wlxx_ll_rcc.h **** /**
 670:Drivers/STM32WLxx_HAL_Driver/Inc/stm32wlxx_ll_rcc.h ****   * @brief  Helper macro to calculate the PLLRCLK frequency on system domain
ARM GAS  /var/folders/9y/n02fl3g16gnf7ppy14xghdy80000gn/T//cckWqezL.s 			page 19


 671:Drivers/STM32WLxx_HAL_Driver/Inc/stm32wlxx_ll_rcc.h ****   * @note ex: @ref __LL_RCC_CALC_PLLCLK_FREQ (HSE_VALUE,@ref LL_RCC_PLL_GetDivider (),
 672:Drivers/STM32WLxx_HAL_Driver/Inc/stm32wlxx_ll_rcc.h ****   *             @ref LL_RCC_PLL_GetN (), @ref LL_RCC_PLL_GetR ());
 673:Drivers/STM32WLxx_HAL_Driver/Inc/stm32wlxx_ll_rcc.h ****   * @param  __INPUTFREQ__ PLL Input frequency (based on MSI/HSE/HSI)
 674:Drivers/STM32WLxx_HAL_Driver/Inc/stm32wlxx_ll_rcc.h ****   * @param  __PLLM__ This parameter can be one of the following values:
 675:Drivers/STM32WLxx_HAL_Driver/Inc/stm32wlxx_ll_rcc.h ****   *         @arg @ref LL_RCC_PLLM_DIV_1
 676:Drivers/STM32WLxx_HAL_Driver/Inc/stm32wlxx_ll_rcc.h ****   *         @arg @ref LL_RCC_PLLM_DIV_2
 677:Drivers/STM32WLxx_HAL_Driver/Inc/stm32wlxx_ll_rcc.h ****   *         @arg @ref LL_RCC_PLLM_DIV_3
 678:Drivers/STM32WLxx_HAL_Driver/Inc/stm32wlxx_ll_rcc.h ****   *         @arg @ref LL_RCC_PLLM_DIV_4
 679:Drivers/STM32WLxx_HAL_Driver/Inc/stm32wlxx_ll_rcc.h ****   *         @arg @ref LL_RCC_PLLM_DIV_5
 680:Drivers/STM32WLxx_HAL_Driver/Inc/stm32wlxx_ll_rcc.h ****   *         @arg @ref LL_RCC_PLLM_DIV_6
 681:Drivers/STM32WLxx_HAL_Driver/Inc/stm32wlxx_ll_rcc.h ****   *         @arg @ref LL_RCC_PLLM_DIV_7
 682:Drivers/STM32WLxx_HAL_Driver/Inc/stm32wlxx_ll_rcc.h ****   *         @arg @ref LL_RCC_PLLM_DIV_8
 683:Drivers/STM32WLxx_HAL_Driver/Inc/stm32wlxx_ll_rcc.h ****   * @param  __PLLN__ Between Min_Data = 6 and Max_Data = 127
 684:Drivers/STM32WLxx_HAL_Driver/Inc/stm32wlxx_ll_rcc.h ****   * @param  __PLLR__ This parameter can be one of the following values:
 685:Drivers/STM32WLxx_HAL_Driver/Inc/stm32wlxx_ll_rcc.h ****   *         @arg @ref LL_RCC_PLLR_DIV_2
 686:Drivers/STM32WLxx_HAL_Driver/Inc/stm32wlxx_ll_rcc.h ****   *         @arg @ref LL_RCC_PLLR_DIV_3
 687:Drivers/STM32WLxx_HAL_Driver/Inc/stm32wlxx_ll_rcc.h ****   *         @arg @ref LL_RCC_PLLR_DIV_4
 688:Drivers/STM32WLxx_HAL_Driver/Inc/stm32wlxx_ll_rcc.h ****   *         @arg @ref LL_RCC_PLLR_DIV_5
 689:Drivers/STM32WLxx_HAL_Driver/Inc/stm32wlxx_ll_rcc.h ****   *         @arg @ref LL_RCC_PLLR_DIV_6
 690:Drivers/STM32WLxx_HAL_Driver/Inc/stm32wlxx_ll_rcc.h ****   *         @arg @ref LL_RCC_PLLR_DIV_7
 691:Drivers/STM32WLxx_HAL_Driver/Inc/stm32wlxx_ll_rcc.h ****   *         @arg @ref LL_RCC_PLLR_DIV_8
 692:Drivers/STM32WLxx_HAL_Driver/Inc/stm32wlxx_ll_rcc.h ****   * @retval PLL clock frequency (in Hz)
 693:Drivers/STM32WLxx_HAL_Driver/Inc/stm32wlxx_ll_rcc.h ****   */
 694:Drivers/STM32WLxx_HAL_Driver/Inc/stm32wlxx_ll_rcc.h **** #define __LL_RCC_CALC_PLLCLK_FREQ(__INPUTFREQ__, __PLLM__, __PLLN__, __PLLR__)  \
 695:Drivers/STM32WLxx_HAL_Driver/Inc/stm32wlxx_ll_rcc.h ****   ((__INPUTFREQ__) * (__PLLN__)  / ((((__PLLM__)>> RCC_PLLCFGR_PLLM_Pos) + 1U)) / \
 696:Drivers/STM32WLxx_HAL_Driver/Inc/stm32wlxx_ll_rcc.h ****    (((__PLLR__) >> RCC_PLLCFGR_PLLR_Pos) + 1U))
 697:Drivers/STM32WLxx_HAL_Driver/Inc/stm32wlxx_ll_rcc.h **** 
 698:Drivers/STM32WLxx_HAL_Driver/Inc/stm32wlxx_ll_rcc.h **** /**
 699:Drivers/STM32WLxx_HAL_Driver/Inc/stm32wlxx_ll_rcc.h ****   * @brief  Helper macro to calculate the PLLPCLK frequency used on ADC domain
 700:Drivers/STM32WLxx_HAL_Driver/Inc/stm32wlxx_ll_rcc.h ****   * @note ex: @ref __LL_RCC_CALC_PLLCLK_ADC_FREQ (HSE_VALUE,@ref LL_RCC_PLL_GetDivider (),
 701:Drivers/STM32WLxx_HAL_Driver/Inc/stm32wlxx_ll_rcc.h ****   *             @ref LL_RCC_PLL_GetN (), @ref LL_RCC_PLL_GetP ());
 702:Drivers/STM32WLxx_HAL_Driver/Inc/stm32wlxx_ll_rcc.h ****   * @param  __INPUTFREQ__ PLL Input frequency (based on MSI/HSE/HSI)
 703:Drivers/STM32WLxx_HAL_Driver/Inc/stm32wlxx_ll_rcc.h ****   * @param  __PLLM__ This parameter can be one of the following values:
 704:Drivers/STM32WLxx_HAL_Driver/Inc/stm32wlxx_ll_rcc.h ****   *         @arg @ref LL_RCC_PLLM_DIV_1
 705:Drivers/STM32WLxx_HAL_Driver/Inc/stm32wlxx_ll_rcc.h ****   *         @arg @ref LL_RCC_PLLM_DIV_2
 706:Drivers/STM32WLxx_HAL_Driver/Inc/stm32wlxx_ll_rcc.h ****   *         @arg @ref LL_RCC_PLLM_DIV_3
 707:Drivers/STM32WLxx_HAL_Driver/Inc/stm32wlxx_ll_rcc.h ****   *         @arg @ref LL_RCC_PLLM_DIV_4
 708:Drivers/STM32WLxx_HAL_Driver/Inc/stm32wlxx_ll_rcc.h ****   *         @arg @ref LL_RCC_PLLM_DIV_5
 709:Drivers/STM32WLxx_HAL_Driver/Inc/stm32wlxx_ll_rcc.h ****   *         @arg @ref LL_RCC_PLLM_DIV_6
 710:Drivers/STM32WLxx_HAL_Driver/Inc/stm32wlxx_ll_rcc.h ****   *         @arg @ref LL_RCC_PLLM_DIV_7
 711:Drivers/STM32WLxx_HAL_Driver/Inc/stm32wlxx_ll_rcc.h ****   *         @arg @ref LL_RCC_PLLM_DIV_8
 712:Drivers/STM32WLxx_HAL_Driver/Inc/stm32wlxx_ll_rcc.h ****   * @param  __PLLN__ Between Min_Data = 6 and Max_Data = 127
 713:Drivers/STM32WLxx_HAL_Driver/Inc/stm32wlxx_ll_rcc.h ****   * @param  __PLLP__ This parameter can be one of the following values:
 714:Drivers/STM32WLxx_HAL_Driver/Inc/stm32wlxx_ll_rcc.h ****   *         @arg @ref LL_RCC_PLLP_DIV_2
 715:Drivers/STM32WLxx_HAL_Driver/Inc/stm32wlxx_ll_rcc.h ****   *         @arg @ref LL_RCC_PLLP_DIV_3
 716:Drivers/STM32WLxx_HAL_Driver/Inc/stm32wlxx_ll_rcc.h ****   *         @arg @ref LL_RCC_PLLP_DIV_4
 717:Drivers/STM32WLxx_HAL_Driver/Inc/stm32wlxx_ll_rcc.h ****   *         @arg @ref LL_RCC_PLLP_DIV_5
 718:Drivers/STM32WLxx_HAL_Driver/Inc/stm32wlxx_ll_rcc.h ****   *         @arg @ref LL_RCC_PLLP_DIV_6
 719:Drivers/STM32WLxx_HAL_Driver/Inc/stm32wlxx_ll_rcc.h ****   *         @arg @ref LL_RCC_PLLP_DIV_7
 720:Drivers/STM32WLxx_HAL_Driver/Inc/stm32wlxx_ll_rcc.h ****   *         @arg @ref LL_RCC_PLLP_DIV_8
 721:Drivers/STM32WLxx_HAL_Driver/Inc/stm32wlxx_ll_rcc.h ****   *         @arg @ref LL_RCC_PLLP_DIV_9
 722:Drivers/STM32WLxx_HAL_Driver/Inc/stm32wlxx_ll_rcc.h ****   *         @arg @ref LL_RCC_PLLP_DIV_10
 723:Drivers/STM32WLxx_HAL_Driver/Inc/stm32wlxx_ll_rcc.h ****   *         @arg @ref LL_RCC_PLLP_DIV_11
 724:Drivers/STM32WLxx_HAL_Driver/Inc/stm32wlxx_ll_rcc.h ****   *         @arg @ref LL_RCC_PLLP_DIV_12
 725:Drivers/STM32WLxx_HAL_Driver/Inc/stm32wlxx_ll_rcc.h ****   *         @arg @ref LL_RCC_PLLP_DIV_13
 726:Drivers/STM32WLxx_HAL_Driver/Inc/stm32wlxx_ll_rcc.h ****   *         @arg @ref LL_RCC_PLLP_DIV_14
 727:Drivers/STM32WLxx_HAL_Driver/Inc/stm32wlxx_ll_rcc.h ****   *         @arg @ref LL_RCC_PLLP_DIV_15
ARM GAS  /var/folders/9y/n02fl3g16gnf7ppy14xghdy80000gn/T//cckWqezL.s 			page 20


 728:Drivers/STM32WLxx_HAL_Driver/Inc/stm32wlxx_ll_rcc.h ****   *         @arg @ref LL_RCC_PLLP_DIV_16
 729:Drivers/STM32WLxx_HAL_Driver/Inc/stm32wlxx_ll_rcc.h ****   *         @arg @ref LL_RCC_PLLP_DIV_17
 730:Drivers/STM32WLxx_HAL_Driver/Inc/stm32wlxx_ll_rcc.h ****   *         @arg @ref LL_RCC_PLLP_DIV_18
 731:Drivers/STM32WLxx_HAL_Driver/Inc/stm32wlxx_ll_rcc.h ****   *         @arg @ref LL_RCC_PLLP_DIV_19
 732:Drivers/STM32WLxx_HAL_Driver/Inc/stm32wlxx_ll_rcc.h ****   *         @arg @ref LL_RCC_PLLP_DIV_20
 733:Drivers/STM32WLxx_HAL_Driver/Inc/stm32wlxx_ll_rcc.h ****   *         @arg @ref LL_RCC_PLLP_DIV_21
 734:Drivers/STM32WLxx_HAL_Driver/Inc/stm32wlxx_ll_rcc.h ****   *         @arg @ref LL_RCC_PLLP_DIV_22
 735:Drivers/STM32WLxx_HAL_Driver/Inc/stm32wlxx_ll_rcc.h ****   *         @arg @ref LL_RCC_PLLP_DIV_23
 736:Drivers/STM32WLxx_HAL_Driver/Inc/stm32wlxx_ll_rcc.h ****   *         @arg @ref LL_RCC_PLLP_DIV_24
 737:Drivers/STM32WLxx_HAL_Driver/Inc/stm32wlxx_ll_rcc.h ****   *         @arg @ref LL_RCC_PLLP_DIV_25
 738:Drivers/STM32WLxx_HAL_Driver/Inc/stm32wlxx_ll_rcc.h ****   *         @arg @ref LL_RCC_PLLP_DIV_26
 739:Drivers/STM32WLxx_HAL_Driver/Inc/stm32wlxx_ll_rcc.h ****   *         @arg @ref LL_RCC_PLLP_DIV_27
 740:Drivers/STM32WLxx_HAL_Driver/Inc/stm32wlxx_ll_rcc.h ****   *         @arg @ref LL_RCC_PLLP_DIV_28
 741:Drivers/STM32WLxx_HAL_Driver/Inc/stm32wlxx_ll_rcc.h ****   *         @arg @ref LL_RCC_PLLP_DIV_29
 742:Drivers/STM32WLxx_HAL_Driver/Inc/stm32wlxx_ll_rcc.h ****   *         @arg @ref LL_RCC_PLLP_DIV_30
 743:Drivers/STM32WLxx_HAL_Driver/Inc/stm32wlxx_ll_rcc.h ****   *         @arg @ref LL_RCC_PLLP_DIV_31
 744:Drivers/STM32WLxx_HAL_Driver/Inc/stm32wlxx_ll_rcc.h ****   *         @arg @ref LL_RCC_PLLP_DIV_32
 745:Drivers/STM32WLxx_HAL_Driver/Inc/stm32wlxx_ll_rcc.h ****   * @retval PLL clock frequency (in Hz)
 746:Drivers/STM32WLxx_HAL_Driver/Inc/stm32wlxx_ll_rcc.h ****   */
 747:Drivers/STM32WLxx_HAL_Driver/Inc/stm32wlxx_ll_rcc.h **** #define __LL_RCC_CALC_PLLCLK_ADC_FREQ(__INPUTFREQ__, __PLLM__, __PLLN__, __PLLP__)  \
 748:Drivers/STM32WLxx_HAL_Driver/Inc/stm32wlxx_ll_rcc.h ****   ((__INPUTFREQ__) * (__PLLN__) / ((((__PLLM__)>> RCC_PLLCFGR_PLLM_Pos) + 1U)) / \
 749:Drivers/STM32WLxx_HAL_Driver/Inc/stm32wlxx_ll_rcc.h ****    (((__PLLP__) >> RCC_PLLCFGR_PLLP_Pos) + 1U))
 750:Drivers/STM32WLxx_HAL_Driver/Inc/stm32wlxx_ll_rcc.h **** 
 751:Drivers/STM32WLxx_HAL_Driver/Inc/stm32wlxx_ll_rcc.h **** /**
 752:Drivers/STM32WLxx_HAL_Driver/Inc/stm32wlxx_ll_rcc.h ****   * @brief  Helper macro to calculate the PLLQCLK frequency used on RNG domain
 753:Drivers/STM32WLxx_HAL_Driver/Inc/stm32wlxx_ll_rcc.h ****   * @note ex: @ref __LL_RCC_CALC_PLLCLK_RNG_FREQ (HSE_VALUE,@ref LL_RCC_PLL_GetDivider (),
 754:Drivers/STM32WLxx_HAL_Driver/Inc/stm32wlxx_ll_rcc.h ****   *             @ref LL_RCC_PLL_GetN (), @ref LL_RCC_PLL_GetQ ());
 755:Drivers/STM32WLxx_HAL_Driver/Inc/stm32wlxx_ll_rcc.h ****   * @param  __INPUTFREQ__ PLL Input frequency (based on MSI/HSE/HSI)
 756:Drivers/STM32WLxx_HAL_Driver/Inc/stm32wlxx_ll_rcc.h ****   * @param  __PLLM__ This parameter can be one of the following values:
 757:Drivers/STM32WLxx_HAL_Driver/Inc/stm32wlxx_ll_rcc.h ****   *         @arg @ref LL_RCC_PLLM_DIV_1
 758:Drivers/STM32WLxx_HAL_Driver/Inc/stm32wlxx_ll_rcc.h ****   *         @arg @ref LL_RCC_PLLM_DIV_2
 759:Drivers/STM32WLxx_HAL_Driver/Inc/stm32wlxx_ll_rcc.h ****   *         @arg @ref LL_RCC_PLLM_DIV_3
 760:Drivers/STM32WLxx_HAL_Driver/Inc/stm32wlxx_ll_rcc.h ****   *         @arg @ref LL_RCC_PLLM_DIV_4
 761:Drivers/STM32WLxx_HAL_Driver/Inc/stm32wlxx_ll_rcc.h ****   *         @arg @ref LL_RCC_PLLM_DIV_5
 762:Drivers/STM32WLxx_HAL_Driver/Inc/stm32wlxx_ll_rcc.h ****   *         @arg @ref LL_RCC_PLLM_DIV_6
 763:Drivers/STM32WLxx_HAL_Driver/Inc/stm32wlxx_ll_rcc.h ****   *         @arg @ref LL_RCC_PLLM_DIV_7
 764:Drivers/STM32WLxx_HAL_Driver/Inc/stm32wlxx_ll_rcc.h ****   *         @arg @ref LL_RCC_PLLM_DIV_8
 765:Drivers/STM32WLxx_HAL_Driver/Inc/stm32wlxx_ll_rcc.h ****   * @param  __PLLN__ Between Min_Data = 6 and Max_Data = 127
 766:Drivers/STM32WLxx_HAL_Driver/Inc/stm32wlxx_ll_rcc.h ****   * @param  __PLLQ__ This parameter can be one of the following values:
 767:Drivers/STM32WLxx_HAL_Driver/Inc/stm32wlxx_ll_rcc.h ****   *         @arg @ref LL_RCC_PLLQ_DIV_2
 768:Drivers/STM32WLxx_HAL_Driver/Inc/stm32wlxx_ll_rcc.h ****   *         @arg @ref LL_RCC_PLLQ_DIV_3
 769:Drivers/STM32WLxx_HAL_Driver/Inc/stm32wlxx_ll_rcc.h ****   *         @arg @ref LL_RCC_PLLQ_DIV_4
 770:Drivers/STM32WLxx_HAL_Driver/Inc/stm32wlxx_ll_rcc.h ****   *         @arg @ref LL_RCC_PLLQ_DIV_5
 771:Drivers/STM32WLxx_HAL_Driver/Inc/stm32wlxx_ll_rcc.h ****   *         @arg @ref LL_RCC_PLLQ_DIV_6
 772:Drivers/STM32WLxx_HAL_Driver/Inc/stm32wlxx_ll_rcc.h ****   *         @arg @ref LL_RCC_PLLQ_DIV_7
 773:Drivers/STM32WLxx_HAL_Driver/Inc/stm32wlxx_ll_rcc.h ****   *         @arg @ref LL_RCC_PLLQ_DIV_8
 774:Drivers/STM32WLxx_HAL_Driver/Inc/stm32wlxx_ll_rcc.h ****   * @retval PLL clock frequency (in Hz)
 775:Drivers/STM32WLxx_HAL_Driver/Inc/stm32wlxx_ll_rcc.h ****   */
 776:Drivers/STM32WLxx_HAL_Driver/Inc/stm32wlxx_ll_rcc.h **** #define __LL_RCC_CALC_PLLCLK_RNG_FREQ(__INPUTFREQ__, __PLLM__, __PLLN__, __PLLQ__)  \
 777:Drivers/STM32WLxx_HAL_Driver/Inc/stm32wlxx_ll_rcc.h ****   ((__INPUTFREQ__) * (__PLLN__) / ((((__PLLM__)>> RCC_PLLCFGR_PLLM_Pos) + 1U)) / \
 778:Drivers/STM32WLxx_HAL_Driver/Inc/stm32wlxx_ll_rcc.h ****    (((__PLLQ__) >> RCC_PLLCFGR_PLLQ_Pos) + 1U))
 779:Drivers/STM32WLxx_HAL_Driver/Inc/stm32wlxx_ll_rcc.h **** 
 780:Drivers/STM32WLxx_HAL_Driver/Inc/stm32wlxx_ll_rcc.h **** /**
 781:Drivers/STM32WLxx_HAL_Driver/Inc/stm32wlxx_ll_rcc.h ****   * @brief  Helper macro to calculate the PLLQCLK frequency used on I2S domain
 782:Drivers/STM32WLxx_HAL_Driver/Inc/stm32wlxx_ll_rcc.h ****   * @note ex: @ref __LL_RCC_CALC_PLLCLK_I2S2_FREQ (HSE_VALUE,@ref LL_RCC_PLL_GetDivider (),
 783:Drivers/STM32WLxx_HAL_Driver/Inc/stm32wlxx_ll_rcc.h ****   *             @ref LL_RCC_PLL_GetN (), @ref LL_RCC_PLL_GetQ ());
 784:Drivers/STM32WLxx_HAL_Driver/Inc/stm32wlxx_ll_rcc.h ****   * @param  __INPUTFREQ__ PLL Input frequency (based on MSI/HSE/HSI)
ARM GAS  /var/folders/9y/n02fl3g16gnf7ppy14xghdy80000gn/T//cckWqezL.s 			page 21


 785:Drivers/STM32WLxx_HAL_Driver/Inc/stm32wlxx_ll_rcc.h ****   * @param  __PLLM__ This parameter can be one of the following values:
 786:Drivers/STM32WLxx_HAL_Driver/Inc/stm32wlxx_ll_rcc.h ****   *         @arg @ref LL_RCC_PLLM_DIV_1
 787:Drivers/STM32WLxx_HAL_Driver/Inc/stm32wlxx_ll_rcc.h ****   *         @arg @ref LL_RCC_PLLM_DIV_2
 788:Drivers/STM32WLxx_HAL_Driver/Inc/stm32wlxx_ll_rcc.h ****   *         @arg @ref LL_RCC_PLLM_DIV_3
 789:Drivers/STM32WLxx_HAL_Driver/Inc/stm32wlxx_ll_rcc.h ****   *         @arg @ref LL_RCC_PLLM_DIV_4
 790:Drivers/STM32WLxx_HAL_Driver/Inc/stm32wlxx_ll_rcc.h ****   *         @arg @ref LL_RCC_PLLM_DIV_5
 791:Drivers/STM32WLxx_HAL_Driver/Inc/stm32wlxx_ll_rcc.h ****   *         @arg @ref LL_RCC_PLLM_DIV_6
 792:Drivers/STM32WLxx_HAL_Driver/Inc/stm32wlxx_ll_rcc.h ****   *         @arg @ref LL_RCC_PLLM_DIV_7
 793:Drivers/STM32WLxx_HAL_Driver/Inc/stm32wlxx_ll_rcc.h ****   *         @arg @ref LL_RCC_PLLM_DIV_8
 794:Drivers/STM32WLxx_HAL_Driver/Inc/stm32wlxx_ll_rcc.h ****   * @param  __PLLN__ Between Min_Data = 6 and Max_Data = 127
 795:Drivers/STM32WLxx_HAL_Driver/Inc/stm32wlxx_ll_rcc.h ****   * @param  __PLLQ__ This parameter can be one of the following values:
 796:Drivers/STM32WLxx_HAL_Driver/Inc/stm32wlxx_ll_rcc.h ****   *         @arg @ref LL_RCC_PLLQ_DIV_2
 797:Drivers/STM32WLxx_HAL_Driver/Inc/stm32wlxx_ll_rcc.h ****   *         @arg @ref LL_RCC_PLLQ_DIV_3
 798:Drivers/STM32WLxx_HAL_Driver/Inc/stm32wlxx_ll_rcc.h ****   *         @arg @ref LL_RCC_PLLQ_DIV_4
 799:Drivers/STM32WLxx_HAL_Driver/Inc/stm32wlxx_ll_rcc.h ****   *         @arg @ref LL_RCC_PLLQ_DIV_5
 800:Drivers/STM32WLxx_HAL_Driver/Inc/stm32wlxx_ll_rcc.h ****   *         @arg @ref LL_RCC_PLLQ_DIV_6
 801:Drivers/STM32WLxx_HAL_Driver/Inc/stm32wlxx_ll_rcc.h ****   *         @arg @ref LL_RCC_PLLQ_DIV_7
 802:Drivers/STM32WLxx_HAL_Driver/Inc/stm32wlxx_ll_rcc.h ****   *         @arg @ref LL_RCC_PLLQ_DIV_8
 803:Drivers/STM32WLxx_HAL_Driver/Inc/stm32wlxx_ll_rcc.h ****   * @retval PLL clock frequency (in Hz)
 804:Drivers/STM32WLxx_HAL_Driver/Inc/stm32wlxx_ll_rcc.h ****   */
 805:Drivers/STM32WLxx_HAL_Driver/Inc/stm32wlxx_ll_rcc.h **** #define __LL_RCC_CALC_PLLCLK_I2S2_FREQ __LL_RCC_CALC_PLLCLK_RNG_FREQ
 806:Drivers/STM32WLxx_HAL_Driver/Inc/stm32wlxx_ll_rcc.h **** 
 807:Drivers/STM32WLxx_HAL_Driver/Inc/stm32wlxx_ll_rcc.h **** /**
 808:Drivers/STM32WLxx_HAL_Driver/Inc/stm32wlxx_ll_rcc.h ****   * @brief  Helper macro to calculate the HCLK1 frequency
 809:Drivers/STM32WLxx_HAL_Driver/Inc/stm32wlxx_ll_rcc.h ****   * @param  __SYSCLKFREQ__ SYSCLK frequency (based on MSI/HSE/HSI/PLLCLK)
 810:Drivers/STM32WLxx_HAL_Driver/Inc/stm32wlxx_ll_rcc.h ****   * @param  __CPU1PRESCALER__ This parameter can be one of the following values:
 811:Drivers/STM32WLxx_HAL_Driver/Inc/stm32wlxx_ll_rcc.h ****   *         @arg @ref LL_RCC_SYSCLK_DIV_1
 812:Drivers/STM32WLxx_HAL_Driver/Inc/stm32wlxx_ll_rcc.h ****   *         @arg @ref LL_RCC_SYSCLK_DIV_2
 813:Drivers/STM32WLxx_HAL_Driver/Inc/stm32wlxx_ll_rcc.h ****   *         @arg @ref LL_RCC_SYSCLK_DIV_3
 814:Drivers/STM32WLxx_HAL_Driver/Inc/stm32wlxx_ll_rcc.h ****   *         @arg @ref LL_RCC_SYSCLK_DIV_4
 815:Drivers/STM32WLxx_HAL_Driver/Inc/stm32wlxx_ll_rcc.h ****   *         @arg @ref LL_RCC_SYSCLK_DIV_5
 816:Drivers/STM32WLxx_HAL_Driver/Inc/stm32wlxx_ll_rcc.h ****   *         @arg @ref LL_RCC_SYSCLK_DIV_6
 817:Drivers/STM32WLxx_HAL_Driver/Inc/stm32wlxx_ll_rcc.h ****   *         @arg @ref LL_RCC_SYSCLK_DIV_8
 818:Drivers/STM32WLxx_HAL_Driver/Inc/stm32wlxx_ll_rcc.h ****   *         @arg @ref LL_RCC_SYSCLK_DIV_10
 819:Drivers/STM32WLxx_HAL_Driver/Inc/stm32wlxx_ll_rcc.h ****   *         @arg @ref LL_RCC_SYSCLK_DIV_16
 820:Drivers/STM32WLxx_HAL_Driver/Inc/stm32wlxx_ll_rcc.h ****   *         @arg @ref LL_RCC_SYSCLK_DIV_32
 821:Drivers/STM32WLxx_HAL_Driver/Inc/stm32wlxx_ll_rcc.h ****   *         @arg @ref LL_RCC_SYSCLK_DIV_64
 822:Drivers/STM32WLxx_HAL_Driver/Inc/stm32wlxx_ll_rcc.h ****   *         @arg @ref LL_RCC_SYSCLK_DIV_128
 823:Drivers/STM32WLxx_HAL_Driver/Inc/stm32wlxx_ll_rcc.h ****   *         @arg @ref LL_RCC_SYSCLK_DIV_256
 824:Drivers/STM32WLxx_HAL_Driver/Inc/stm32wlxx_ll_rcc.h ****   *         @arg @ref LL_RCC_SYSCLK_DIV_512
 825:Drivers/STM32WLxx_HAL_Driver/Inc/stm32wlxx_ll_rcc.h ****   * @retval HCLK1 clock frequency (in Hz)
 826:Drivers/STM32WLxx_HAL_Driver/Inc/stm32wlxx_ll_rcc.h ****   */
 827:Drivers/STM32WLxx_HAL_Driver/Inc/stm32wlxx_ll_rcc.h **** #define __LL_RCC_CALC_HCLK1_FREQ(__SYSCLKFREQ__,__CPU1PRESCALER__)  \
 828:Drivers/STM32WLxx_HAL_Driver/Inc/stm32wlxx_ll_rcc.h ****   ((__SYSCLKFREQ__) / AHBPrescTable[((__CPU1PRESCALER__) & RCC_CFGR_HPRE) >>  RCC_CFGR_HPRE_Pos])
 829:Drivers/STM32WLxx_HAL_Driver/Inc/stm32wlxx_ll_rcc.h **** 
 830:Drivers/STM32WLxx_HAL_Driver/Inc/stm32wlxx_ll_rcc.h **** #if defined(DUAL_CORE)
 831:Drivers/STM32WLxx_HAL_Driver/Inc/stm32wlxx_ll_rcc.h **** /**
 832:Drivers/STM32WLxx_HAL_Driver/Inc/stm32wlxx_ll_rcc.h ****   * @brief  Helper macro to calculate the HCLK2 frequency
 833:Drivers/STM32WLxx_HAL_Driver/Inc/stm32wlxx_ll_rcc.h ****   * @param  __SYSCLKFREQ__ SYSCLK frequency (based on MSI/HSE/HSI/PLLCLK)
 834:Drivers/STM32WLxx_HAL_Driver/Inc/stm32wlxx_ll_rcc.h ****   * @param  __CPU2PRESCALER__ This parameter can be one of the following values:
 835:Drivers/STM32WLxx_HAL_Driver/Inc/stm32wlxx_ll_rcc.h ****   *         @arg @ref LL_RCC_SYSCLK_DIV_1
 836:Drivers/STM32WLxx_HAL_Driver/Inc/stm32wlxx_ll_rcc.h ****   *         @arg @ref LL_RCC_SYSCLK_DIV_2
 837:Drivers/STM32WLxx_HAL_Driver/Inc/stm32wlxx_ll_rcc.h ****   *         @arg @ref LL_RCC_SYSCLK_DIV_3
 838:Drivers/STM32WLxx_HAL_Driver/Inc/stm32wlxx_ll_rcc.h ****   *         @arg @ref LL_RCC_SYSCLK_DIV_4
 839:Drivers/STM32WLxx_HAL_Driver/Inc/stm32wlxx_ll_rcc.h ****   *         @arg @ref LL_RCC_SYSCLK_DIV_5
 840:Drivers/STM32WLxx_HAL_Driver/Inc/stm32wlxx_ll_rcc.h ****   *         @arg @ref LL_RCC_SYSCLK_DIV_6
 841:Drivers/STM32WLxx_HAL_Driver/Inc/stm32wlxx_ll_rcc.h ****   *         @arg @ref LL_RCC_SYSCLK_DIV_8
ARM GAS  /var/folders/9y/n02fl3g16gnf7ppy14xghdy80000gn/T//cckWqezL.s 			page 22


 842:Drivers/STM32WLxx_HAL_Driver/Inc/stm32wlxx_ll_rcc.h ****   *         @arg @ref LL_RCC_SYSCLK_DIV_10
 843:Drivers/STM32WLxx_HAL_Driver/Inc/stm32wlxx_ll_rcc.h ****   *         @arg @ref LL_RCC_SYSCLK_DIV_16
 844:Drivers/STM32WLxx_HAL_Driver/Inc/stm32wlxx_ll_rcc.h ****   *         @arg @ref LL_RCC_SYSCLK_DIV_32
 845:Drivers/STM32WLxx_HAL_Driver/Inc/stm32wlxx_ll_rcc.h ****   *         @arg @ref LL_RCC_SYSCLK_DIV_64
 846:Drivers/STM32WLxx_HAL_Driver/Inc/stm32wlxx_ll_rcc.h ****   *         @arg @ref LL_RCC_SYSCLK_DIV_128
 847:Drivers/STM32WLxx_HAL_Driver/Inc/stm32wlxx_ll_rcc.h ****   *         @arg @ref LL_RCC_SYSCLK_DIV_256
 848:Drivers/STM32WLxx_HAL_Driver/Inc/stm32wlxx_ll_rcc.h ****   *         @arg @ref LL_RCC_SYSCLK_DIV_512
 849:Drivers/STM32WLxx_HAL_Driver/Inc/stm32wlxx_ll_rcc.h ****   * @retval HCLK2 clock frequency (in Hz)
 850:Drivers/STM32WLxx_HAL_Driver/Inc/stm32wlxx_ll_rcc.h ****   */
 851:Drivers/STM32WLxx_HAL_Driver/Inc/stm32wlxx_ll_rcc.h **** #define __LL_RCC_CALC_HCLK2_FREQ(__SYSCLKFREQ__, __CPU2PRESCALER__)  \
 852:Drivers/STM32WLxx_HAL_Driver/Inc/stm32wlxx_ll_rcc.h ****   ((__SYSCLKFREQ__) / AHBPrescTable[((__CPU2PRESCALER__) &  RCC_EXTCFGR_C2HPRE) >>  RCC_EXTCFGR_C2H
 853:Drivers/STM32WLxx_HAL_Driver/Inc/stm32wlxx_ll_rcc.h **** #endif  /* DUAL_CORE */
 854:Drivers/STM32WLxx_HAL_Driver/Inc/stm32wlxx_ll_rcc.h **** 
 855:Drivers/STM32WLxx_HAL_Driver/Inc/stm32wlxx_ll_rcc.h **** /**
 856:Drivers/STM32WLxx_HAL_Driver/Inc/stm32wlxx_ll_rcc.h ****   * @brief  Helper macro to calculate the HCLK3 frequency
 857:Drivers/STM32WLxx_HAL_Driver/Inc/stm32wlxx_ll_rcc.h ****   * @param  __SYSCLKFREQ__ SYSCLK frequency (based on MSI/HSE/HSI/PLLCLK)
 858:Drivers/STM32WLxx_HAL_Driver/Inc/stm32wlxx_ll_rcc.h ****   * @param  __AHB3PRESCALER__ This parameter can be one of the following values:
 859:Drivers/STM32WLxx_HAL_Driver/Inc/stm32wlxx_ll_rcc.h ****   *         @arg @ref LL_RCC_SYSCLK_DIV_1
 860:Drivers/STM32WLxx_HAL_Driver/Inc/stm32wlxx_ll_rcc.h ****   *         @arg @ref LL_RCC_SYSCLK_DIV_2
 861:Drivers/STM32WLxx_HAL_Driver/Inc/stm32wlxx_ll_rcc.h ****   *         @arg @ref LL_RCC_SYSCLK_DIV_3
 862:Drivers/STM32WLxx_HAL_Driver/Inc/stm32wlxx_ll_rcc.h ****   *         @arg @ref LL_RCC_SYSCLK_DIV_4
 863:Drivers/STM32WLxx_HAL_Driver/Inc/stm32wlxx_ll_rcc.h ****   *         @arg @ref LL_RCC_SYSCLK_DIV_5
 864:Drivers/STM32WLxx_HAL_Driver/Inc/stm32wlxx_ll_rcc.h ****   *         @arg @ref LL_RCC_SYSCLK_DIV_6
 865:Drivers/STM32WLxx_HAL_Driver/Inc/stm32wlxx_ll_rcc.h ****   *         @arg @ref LL_RCC_SYSCLK_DIV_8
 866:Drivers/STM32WLxx_HAL_Driver/Inc/stm32wlxx_ll_rcc.h ****   *         @arg @ref LL_RCC_SYSCLK_DIV_10
 867:Drivers/STM32WLxx_HAL_Driver/Inc/stm32wlxx_ll_rcc.h ****   *         @arg @ref LL_RCC_SYSCLK_DIV_16
 868:Drivers/STM32WLxx_HAL_Driver/Inc/stm32wlxx_ll_rcc.h ****   *         @arg @ref LL_RCC_SYSCLK_DIV_32
 869:Drivers/STM32WLxx_HAL_Driver/Inc/stm32wlxx_ll_rcc.h ****   *         @arg @ref LL_RCC_SYSCLK_DIV_64
 870:Drivers/STM32WLxx_HAL_Driver/Inc/stm32wlxx_ll_rcc.h ****   *         @arg @ref LL_RCC_SYSCLK_DIV_128
 871:Drivers/STM32WLxx_HAL_Driver/Inc/stm32wlxx_ll_rcc.h ****   *         @arg @ref LL_RCC_SYSCLK_DIV_256
 872:Drivers/STM32WLxx_HAL_Driver/Inc/stm32wlxx_ll_rcc.h ****   *         @arg @ref LL_RCC_SYSCLK_DIV_512
 873:Drivers/STM32WLxx_HAL_Driver/Inc/stm32wlxx_ll_rcc.h ****   * @retval HCLK3 clock frequency (in Hz)
 874:Drivers/STM32WLxx_HAL_Driver/Inc/stm32wlxx_ll_rcc.h ****   */
 875:Drivers/STM32WLxx_HAL_Driver/Inc/stm32wlxx_ll_rcc.h **** #define __LL_RCC_CALC_HCLK3_FREQ(__SYSCLKFREQ__, __AHB3PRESCALER__)  \
 876:Drivers/STM32WLxx_HAL_Driver/Inc/stm32wlxx_ll_rcc.h ****   ((__SYSCLKFREQ__) / AHBPrescTable[(((__AHB3PRESCALER__) >> 4U) & RCC_EXTCFGR_SHDHPRE) >>  RCC_EXT
 877:Drivers/STM32WLxx_HAL_Driver/Inc/stm32wlxx_ll_rcc.h **** 
 878:Drivers/STM32WLxx_HAL_Driver/Inc/stm32wlxx_ll_rcc.h **** 
 879:Drivers/STM32WLxx_HAL_Driver/Inc/stm32wlxx_ll_rcc.h **** /**
 880:Drivers/STM32WLxx_HAL_Driver/Inc/stm32wlxx_ll_rcc.h ****   * @brief  Helper macro to calculate the PCLK1 frequency (ABP1)
 881:Drivers/STM32WLxx_HAL_Driver/Inc/stm32wlxx_ll_rcc.h ****   * @param  __HCLKFREQ__ HCLK frequency
 882:Drivers/STM32WLxx_HAL_Driver/Inc/stm32wlxx_ll_rcc.h ****   * @param  __APB1PRESCALER__ This parameter can be one of the following values:
 883:Drivers/STM32WLxx_HAL_Driver/Inc/stm32wlxx_ll_rcc.h ****   *         @arg @ref LL_RCC_APB1_DIV_1
 884:Drivers/STM32WLxx_HAL_Driver/Inc/stm32wlxx_ll_rcc.h ****   *         @arg @ref LL_RCC_APB1_DIV_2
 885:Drivers/STM32WLxx_HAL_Driver/Inc/stm32wlxx_ll_rcc.h ****   *         @arg @ref LL_RCC_APB1_DIV_4
 886:Drivers/STM32WLxx_HAL_Driver/Inc/stm32wlxx_ll_rcc.h ****   *         @arg @ref LL_RCC_APB1_DIV_8
 887:Drivers/STM32WLxx_HAL_Driver/Inc/stm32wlxx_ll_rcc.h ****   *         @arg @ref LL_RCC_APB1_DIV_16
 888:Drivers/STM32WLxx_HAL_Driver/Inc/stm32wlxx_ll_rcc.h ****   * @retval PCLK1 clock frequency (in Hz)
 889:Drivers/STM32WLxx_HAL_Driver/Inc/stm32wlxx_ll_rcc.h ****   */
 890:Drivers/STM32WLxx_HAL_Driver/Inc/stm32wlxx_ll_rcc.h **** #define __LL_RCC_CALC_PCLK1_FREQ(__HCLKFREQ__, __APB1PRESCALER__)  \
 891:Drivers/STM32WLxx_HAL_Driver/Inc/stm32wlxx_ll_rcc.h ****   ((__HCLKFREQ__) >> APBPrescTable[(__APB1PRESCALER__) >>  RCC_CFGR_PPRE1_Pos])
 892:Drivers/STM32WLxx_HAL_Driver/Inc/stm32wlxx_ll_rcc.h **** 
 893:Drivers/STM32WLxx_HAL_Driver/Inc/stm32wlxx_ll_rcc.h **** /**
 894:Drivers/STM32WLxx_HAL_Driver/Inc/stm32wlxx_ll_rcc.h ****   * @brief  Helper macro to calculate the PCLK2 frequency (ABP2)
 895:Drivers/STM32WLxx_HAL_Driver/Inc/stm32wlxx_ll_rcc.h ****   * @param  __HCLKFREQ__ HCLK frequency
 896:Drivers/STM32WLxx_HAL_Driver/Inc/stm32wlxx_ll_rcc.h ****   * @param  __APB2PRESCALER__ This parameter can be one of the following values:
 897:Drivers/STM32WLxx_HAL_Driver/Inc/stm32wlxx_ll_rcc.h ****   *         @arg @ref LL_RCC_APB2_DIV_1
 898:Drivers/STM32WLxx_HAL_Driver/Inc/stm32wlxx_ll_rcc.h ****   *         @arg @ref LL_RCC_APB2_DIV_2
ARM GAS  /var/folders/9y/n02fl3g16gnf7ppy14xghdy80000gn/T//cckWqezL.s 			page 23


 899:Drivers/STM32WLxx_HAL_Driver/Inc/stm32wlxx_ll_rcc.h ****   *         @arg @ref LL_RCC_APB2_DIV_4
 900:Drivers/STM32WLxx_HAL_Driver/Inc/stm32wlxx_ll_rcc.h ****   *         @arg @ref LL_RCC_APB2_DIV_8
 901:Drivers/STM32WLxx_HAL_Driver/Inc/stm32wlxx_ll_rcc.h ****   *         @arg @ref LL_RCC_APB2_DIV_16
 902:Drivers/STM32WLxx_HAL_Driver/Inc/stm32wlxx_ll_rcc.h ****   * @retval PCLK2 clock frequency (in Hz)
 903:Drivers/STM32WLxx_HAL_Driver/Inc/stm32wlxx_ll_rcc.h ****   */
 904:Drivers/STM32WLxx_HAL_Driver/Inc/stm32wlxx_ll_rcc.h **** #define __LL_RCC_CALC_PCLK2_FREQ(__HCLKFREQ__, __APB2PRESCALER__)  \
 905:Drivers/STM32WLxx_HAL_Driver/Inc/stm32wlxx_ll_rcc.h ****   ((__HCLKFREQ__) >> APBPrescTable[(__APB2PRESCALER__) >>  RCC_CFGR_PPRE2_Pos])
 906:Drivers/STM32WLxx_HAL_Driver/Inc/stm32wlxx_ll_rcc.h **** 
 907:Drivers/STM32WLxx_HAL_Driver/Inc/stm32wlxx_ll_rcc.h **** /**
 908:Drivers/STM32WLxx_HAL_Driver/Inc/stm32wlxx_ll_rcc.h ****   * @brief  Helper macro to calculate the MSI frequency (in Hz)
 909:Drivers/STM32WLxx_HAL_Driver/Inc/stm32wlxx_ll_rcc.h ****   * @note __MSISEL__ can be retrieved thanks to function LL_RCC_MSI_IsEnabledRangeSelect()
 910:Drivers/STM32WLxx_HAL_Driver/Inc/stm32wlxx_ll_rcc.h ****   * @note if __MSISEL__ is equal to LL_RCC_MSIRANGESEL_STANDBY,
 911:Drivers/STM32WLxx_HAL_Driver/Inc/stm32wlxx_ll_rcc.h ****   *        __MSIRANGE__can be retrieved by LL_RCC_MSI_GetRangeAfterStandby()
 912:Drivers/STM32WLxx_HAL_Driver/Inc/stm32wlxx_ll_rcc.h ****   *        else by LL_RCC_MSI_GetRange()
 913:Drivers/STM32WLxx_HAL_Driver/Inc/stm32wlxx_ll_rcc.h ****   *        ex: __LL_RCC_CALC_MSI_FREQ(LL_RCC_MSI_IsEnabledRangeSelect(),
 914:Drivers/STM32WLxx_HAL_Driver/Inc/stm32wlxx_ll_rcc.h ****   *              (LL_RCC_MSI_IsEnabledRangeSelect()?
 915:Drivers/STM32WLxx_HAL_Driver/Inc/stm32wlxx_ll_rcc.h ****   *               LL_RCC_MSI_GetRange():
 916:Drivers/STM32WLxx_HAL_Driver/Inc/stm32wlxx_ll_rcc.h ****   *               LL_RCC_MSI_GetRangeAfterStandby()))
 917:Drivers/STM32WLxx_HAL_Driver/Inc/stm32wlxx_ll_rcc.h ****   * @param  __MSISEL__ This parameter can be one of the following values:
 918:Drivers/STM32WLxx_HAL_Driver/Inc/stm32wlxx_ll_rcc.h ****   *         @arg @ref LL_RCC_MSIRANGESEL_STANDBY
 919:Drivers/STM32WLxx_HAL_Driver/Inc/stm32wlxx_ll_rcc.h ****   *         @arg @ref LL_RCC_MSIRANGESEL_RUN
 920:Drivers/STM32WLxx_HAL_Driver/Inc/stm32wlxx_ll_rcc.h ****   * @param  __MSIRANGE__ This parameter can be one of the following values:
 921:Drivers/STM32WLxx_HAL_Driver/Inc/stm32wlxx_ll_rcc.h ****   *         @arg @ref LL_RCC_MSIRANGE_0
 922:Drivers/STM32WLxx_HAL_Driver/Inc/stm32wlxx_ll_rcc.h ****   *         @arg @ref LL_RCC_MSIRANGE_1
 923:Drivers/STM32WLxx_HAL_Driver/Inc/stm32wlxx_ll_rcc.h ****   *         @arg @ref LL_RCC_MSIRANGE_2
 924:Drivers/STM32WLxx_HAL_Driver/Inc/stm32wlxx_ll_rcc.h ****   *         @arg @ref LL_RCC_MSIRANGE_3
 925:Drivers/STM32WLxx_HAL_Driver/Inc/stm32wlxx_ll_rcc.h ****   *         @arg @ref LL_RCC_MSIRANGE_4
 926:Drivers/STM32WLxx_HAL_Driver/Inc/stm32wlxx_ll_rcc.h ****   *         @arg @ref LL_RCC_MSIRANGE_5
 927:Drivers/STM32WLxx_HAL_Driver/Inc/stm32wlxx_ll_rcc.h ****   *         @arg @ref LL_RCC_MSIRANGE_6
 928:Drivers/STM32WLxx_HAL_Driver/Inc/stm32wlxx_ll_rcc.h ****   *         @arg @ref LL_RCC_MSIRANGE_7
 929:Drivers/STM32WLxx_HAL_Driver/Inc/stm32wlxx_ll_rcc.h ****   *         @arg @ref LL_RCC_MSIRANGE_8
 930:Drivers/STM32WLxx_HAL_Driver/Inc/stm32wlxx_ll_rcc.h ****   *         @arg @ref LL_RCC_MSIRANGE_9
 931:Drivers/STM32WLxx_HAL_Driver/Inc/stm32wlxx_ll_rcc.h ****   *         @arg @ref LL_RCC_MSIRANGE_10
 932:Drivers/STM32WLxx_HAL_Driver/Inc/stm32wlxx_ll_rcc.h ****   *         @arg @ref LL_RCC_MSIRANGE_11
 933:Drivers/STM32WLxx_HAL_Driver/Inc/stm32wlxx_ll_rcc.h ****   *         @arg @ref LL_RCC_MSISRANGE_4
 934:Drivers/STM32WLxx_HAL_Driver/Inc/stm32wlxx_ll_rcc.h ****   *         @arg @ref LL_RCC_MSISRANGE_5
 935:Drivers/STM32WLxx_HAL_Driver/Inc/stm32wlxx_ll_rcc.h ****   *         @arg @ref LL_RCC_MSISRANGE_6
 936:Drivers/STM32WLxx_HAL_Driver/Inc/stm32wlxx_ll_rcc.h ****   *         @arg @ref LL_RCC_MSISRANGE_7
 937:Drivers/STM32WLxx_HAL_Driver/Inc/stm32wlxx_ll_rcc.h ****   * @retval MSI clock frequency (in Hz)
 938:Drivers/STM32WLxx_HAL_Driver/Inc/stm32wlxx_ll_rcc.h ****   */
 939:Drivers/STM32WLxx_HAL_Driver/Inc/stm32wlxx_ll_rcc.h **** #define __LL_RCC_CALC_MSI_FREQ(__MSISEL__, __MSIRANGE__)    \
 940:Drivers/STM32WLxx_HAL_Driver/Inc/stm32wlxx_ll_rcc.h ****   (((__MSISEL__) == LL_RCC_MSIRANGESEL_STANDBY) ? \
 941:Drivers/STM32WLxx_HAL_Driver/Inc/stm32wlxx_ll_rcc.h ****    (MSIRangeTable[((__MSIRANGE__) & RCC_CSR_MSISRANGE_Msk) >> RCC_CSR_MSISRANGE_Pos ]) : \
 942:Drivers/STM32WLxx_HAL_Driver/Inc/stm32wlxx_ll_rcc.h ****    (MSIRangeTable[((__MSIRANGE__) & RCC_CR_MSIRANGE_Msk) >> RCC_CR_MSIRANGE_Pos]))
 943:Drivers/STM32WLxx_HAL_Driver/Inc/stm32wlxx_ll_rcc.h **** 
 944:Drivers/STM32WLxx_HAL_Driver/Inc/stm32wlxx_ll_rcc.h **** /**
 945:Drivers/STM32WLxx_HAL_Driver/Inc/stm32wlxx_ll_rcc.h ****   * @}
 946:Drivers/STM32WLxx_HAL_Driver/Inc/stm32wlxx_ll_rcc.h ****   */
 947:Drivers/STM32WLxx_HAL_Driver/Inc/stm32wlxx_ll_rcc.h **** 
 948:Drivers/STM32WLxx_HAL_Driver/Inc/stm32wlxx_ll_rcc.h **** 
 949:Drivers/STM32WLxx_HAL_Driver/Inc/stm32wlxx_ll_rcc.h **** /**
 950:Drivers/STM32WLxx_HAL_Driver/Inc/stm32wlxx_ll_rcc.h ****   * @}
 951:Drivers/STM32WLxx_HAL_Driver/Inc/stm32wlxx_ll_rcc.h ****   */
 952:Drivers/STM32WLxx_HAL_Driver/Inc/stm32wlxx_ll_rcc.h **** 
 953:Drivers/STM32WLxx_HAL_Driver/Inc/stm32wlxx_ll_rcc.h **** /* Exported functions --------------------------------------------------------*/
 954:Drivers/STM32WLxx_HAL_Driver/Inc/stm32wlxx_ll_rcc.h **** /** @defgroup RCC_LL_Exported_Functions RCC Exported Functions
 955:Drivers/STM32WLxx_HAL_Driver/Inc/stm32wlxx_ll_rcc.h ****   * @{
ARM GAS  /var/folders/9y/n02fl3g16gnf7ppy14xghdy80000gn/T//cckWqezL.s 			page 24


 956:Drivers/STM32WLxx_HAL_Driver/Inc/stm32wlxx_ll_rcc.h ****   */
 957:Drivers/STM32WLxx_HAL_Driver/Inc/stm32wlxx_ll_rcc.h **** 
 958:Drivers/STM32WLxx_HAL_Driver/Inc/stm32wlxx_ll_rcc.h **** /** @defgroup RCC_LL_EF_HSE HSE
 959:Drivers/STM32WLxx_HAL_Driver/Inc/stm32wlxx_ll_rcc.h ****   * @{
 960:Drivers/STM32WLxx_HAL_Driver/Inc/stm32wlxx_ll_rcc.h ****   */
 961:Drivers/STM32WLxx_HAL_Driver/Inc/stm32wlxx_ll_rcc.h **** 
 962:Drivers/STM32WLxx_HAL_Driver/Inc/stm32wlxx_ll_rcc.h **** /**
 963:Drivers/STM32WLxx_HAL_Driver/Inc/stm32wlxx_ll_rcc.h ****   * @brief  Enable HSE VDDTCXO output on package pin PB0-VDDTCXO
 964:Drivers/STM32WLxx_HAL_Driver/Inc/stm32wlxx_ll_rcc.h ****   * @note PB0 must be configured in analog mode prior enabling VDDTCXO supply
 965:Drivers/STM32WLxx_HAL_Driver/Inc/stm32wlxx_ll_rcc.h ****   * @rmtoll CR           HSEBYPPWR        LL_RCC_HSE_EnableTcxo
 966:Drivers/STM32WLxx_HAL_Driver/Inc/stm32wlxx_ll_rcc.h ****   * @retval None
 967:Drivers/STM32WLxx_HAL_Driver/Inc/stm32wlxx_ll_rcc.h ****   */
 968:Drivers/STM32WLxx_HAL_Driver/Inc/stm32wlxx_ll_rcc.h **** __STATIC_INLINE void LL_RCC_HSE_EnableTcxo(void)
 969:Drivers/STM32WLxx_HAL_Driver/Inc/stm32wlxx_ll_rcc.h **** {
 970:Drivers/STM32WLxx_HAL_Driver/Inc/stm32wlxx_ll_rcc.h ****   SET_BIT(RCC->CR, RCC_CR_HSEBYPPWR);
 971:Drivers/STM32WLxx_HAL_Driver/Inc/stm32wlxx_ll_rcc.h **** }
 972:Drivers/STM32WLxx_HAL_Driver/Inc/stm32wlxx_ll_rcc.h **** 
 973:Drivers/STM32WLxx_HAL_Driver/Inc/stm32wlxx_ll_rcc.h **** /**
 974:Drivers/STM32WLxx_HAL_Driver/Inc/stm32wlxx_ll_rcc.h ****   * @brief  Disable HSE VDDTCXO output on package pin PB0-VDDTCXO
 975:Drivers/STM32WLxx_HAL_Driver/Inc/stm32wlxx_ll_rcc.h ****   * @rmtoll CR           HSEBYPPWR        LL_RCC_HSE_DisableTcxo
 976:Drivers/STM32WLxx_HAL_Driver/Inc/stm32wlxx_ll_rcc.h ****   * @retval None
 977:Drivers/STM32WLxx_HAL_Driver/Inc/stm32wlxx_ll_rcc.h ****   */
 978:Drivers/STM32WLxx_HAL_Driver/Inc/stm32wlxx_ll_rcc.h **** __STATIC_INLINE void LL_RCC_HSE_DisableTcxo(void)
 979:Drivers/STM32WLxx_HAL_Driver/Inc/stm32wlxx_ll_rcc.h **** {
 980:Drivers/STM32WLxx_HAL_Driver/Inc/stm32wlxx_ll_rcc.h ****   CLEAR_BIT(RCC->CR, RCC_CR_HSEBYPPWR);
 981:Drivers/STM32WLxx_HAL_Driver/Inc/stm32wlxx_ll_rcc.h **** }
 982:Drivers/STM32WLxx_HAL_Driver/Inc/stm32wlxx_ll_rcc.h **** 
 983:Drivers/STM32WLxx_HAL_Driver/Inc/stm32wlxx_ll_rcc.h **** /**
 984:Drivers/STM32WLxx_HAL_Driver/Inc/stm32wlxx_ll_rcc.h ****   * @brief  Get HSE VDDTCXO output on package pin PB0-VDDTCXO
 985:Drivers/STM32WLxx_HAL_Driver/Inc/stm32wlxx_ll_rcc.h ****   * @rmtoll CR           HSEBYPPWR        LL_RCC_HSE_IsEnabledTcxo
 986:Drivers/STM32WLxx_HAL_Driver/Inc/stm32wlxx_ll_rcc.h ****   * @retval None
 987:Drivers/STM32WLxx_HAL_Driver/Inc/stm32wlxx_ll_rcc.h ****   */
 988:Drivers/STM32WLxx_HAL_Driver/Inc/stm32wlxx_ll_rcc.h **** __STATIC_INLINE uint32_t LL_RCC_HSE_IsEnabledTcxo(void)
 989:Drivers/STM32WLxx_HAL_Driver/Inc/stm32wlxx_ll_rcc.h **** {
 990:Drivers/STM32WLxx_HAL_Driver/Inc/stm32wlxx_ll_rcc.h ****   return ((READ_BIT(RCC->CR, RCC_CR_HSEBYPPWR) == (RCC_CR_HSEBYPPWR)) ? 1UL : 0UL);
 991:Drivers/STM32WLxx_HAL_Driver/Inc/stm32wlxx_ll_rcc.h **** }
 992:Drivers/STM32WLxx_HAL_Driver/Inc/stm32wlxx_ll_rcc.h **** 
 993:Drivers/STM32WLxx_HAL_Driver/Inc/stm32wlxx_ll_rcc.h **** 
 994:Drivers/STM32WLxx_HAL_Driver/Inc/stm32wlxx_ll_rcc.h **** /**
 995:Drivers/STM32WLxx_HAL_Driver/Inc/stm32wlxx_ll_rcc.h ****   * @brief  Enable HSE sysclk and pll prescaler division by 2
 996:Drivers/STM32WLxx_HAL_Driver/Inc/stm32wlxx_ll_rcc.h ****   * @rmtoll CR           HSEPRE        LL_RCC_HSE_EnableDiv2
 997:Drivers/STM32WLxx_HAL_Driver/Inc/stm32wlxx_ll_rcc.h ****   * @retval None
 998:Drivers/STM32WLxx_HAL_Driver/Inc/stm32wlxx_ll_rcc.h ****   */
 999:Drivers/STM32WLxx_HAL_Driver/Inc/stm32wlxx_ll_rcc.h **** __STATIC_INLINE void LL_RCC_HSE_EnableDiv2(void)
1000:Drivers/STM32WLxx_HAL_Driver/Inc/stm32wlxx_ll_rcc.h **** {
1001:Drivers/STM32WLxx_HAL_Driver/Inc/stm32wlxx_ll_rcc.h ****   SET_BIT(RCC->CR, RCC_CR_HSEPRE);
1002:Drivers/STM32WLxx_HAL_Driver/Inc/stm32wlxx_ll_rcc.h **** }
1003:Drivers/STM32WLxx_HAL_Driver/Inc/stm32wlxx_ll_rcc.h **** 
1004:Drivers/STM32WLxx_HAL_Driver/Inc/stm32wlxx_ll_rcc.h **** /**
1005:Drivers/STM32WLxx_HAL_Driver/Inc/stm32wlxx_ll_rcc.h ****   * @brief  Disable HSE sysclk and pll prescaler division by 2
1006:Drivers/STM32WLxx_HAL_Driver/Inc/stm32wlxx_ll_rcc.h ****   * @rmtoll CR           HSEPRE        LL_RCC_HSE_DisableDiv2
1007:Drivers/STM32WLxx_HAL_Driver/Inc/stm32wlxx_ll_rcc.h ****   * @retval None
1008:Drivers/STM32WLxx_HAL_Driver/Inc/stm32wlxx_ll_rcc.h ****   */
1009:Drivers/STM32WLxx_HAL_Driver/Inc/stm32wlxx_ll_rcc.h **** __STATIC_INLINE void LL_RCC_HSE_DisableDiv2(void)
1010:Drivers/STM32WLxx_HAL_Driver/Inc/stm32wlxx_ll_rcc.h **** {
1011:Drivers/STM32WLxx_HAL_Driver/Inc/stm32wlxx_ll_rcc.h ****   CLEAR_BIT(RCC->CR, RCC_CR_HSEPRE);
1012:Drivers/STM32WLxx_HAL_Driver/Inc/stm32wlxx_ll_rcc.h **** }
ARM GAS  /var/folders/9y/n02fl3g16gnf7ppy14xghdy80000gn/T//cckWqezL.s 			page 25


1013:Drivers/STM32WLxx_HAL_Driver/Inc/stm32wlxx_ll_rcc.h **** 
1014:Drivers/STM32WLxx_HAL_Driver/Inc/stm32wlxx_ll_rcc.h **** /**
1015:Drivers/STM32WLxx_HAL_Driver/Inc/stm32wlxx_ll_rcc.h ****   * @brief  Get HSE sysclk and pll prescaler  division by 2
1016:Drivers/STM32WLxx_HAL_Driver/Inc/stm32wlxx_ll_rcc.h ****   * @rmtoll CR           HSEPRE        LL_RCC_HSE_IsEnabledDiv2
1017:Drivers/STM32WLxx_HAL_Driver/Inc/stm32wlxx_ll_rcc.h ****   * @retval None
1018:Drivers/STM32WLxx_HAL_Driver/Inc/stm32wlxx_ll_rcc.h ****   */
1019:Drivers/STM32WLxx_HAL_Driver/Inc/stm32wlxx_ll_rcc.h **** __STATIC_INLINE uint32_t LL_RCC_HSE_IsEnabledDiv2(void)
1020:Drivers/STM32WLxx_HAL_Driver/Inc/stm32wlxx_ll_rcc.h **** {
1021:Drivers/STM32WLxx_HAL_Driver/Inc/stm32wlxx_ll_rcc.h ****   return ((READ_BIT(RCC->CR, RCC_CR_HSEPRE) == (RCC_CR_HSEPRE)) ? 1UL : 0UL);
1022:Drivers/STM32WLxx_HAL_Driver/Inc/stm32wlxx_ll_rcc.h **** }
1023:Drivers/STM32WLxx_HAL_Driver/Inc/stm32wlxx_ll_rcc.h **** 
1024:Drivers/STM32WLxx_HAL_Driver/Inc/stm32wlxx_ll_rcc.h **** /**
1025:Drivers/STM32WLxx_HAL_Driver/Inc/stm32wlxx_ll_rcc.h ****   * @brief  Enable the Clock Security System.
1026:Drivers/STM32WLxx_HAL_Driver/Inc/stm32wlxx_ll_rcc.h ****   * @rmtoll CR           CSSON         LL_RCC_HSE_EnableCSS
1027:Drivers/STM32WLxx_HAL_Driver/Inc/stm32wlxx_ll_rcc.h ****   * @retval None
1028:Drivers/STM32WLxx_HAL_Driver/Inc/stm32wlxx_ll_rcc.h ****   */
1029:Drivers/STM32WLxx_HAL_Driver/Inc/stm32wlxx_ll_rcc.h **** __STATIC_INLINE void LL_RCC_HSE_EnableCSS(void)
1030:Drivers/STM32WLxx_HAL_Driver/Inc/stm32wlxx_ll_rcc.h **** {
1031:Drivers/STM32WLxx_HAL_Driver/Inc/stm32wlxx_ll_rcc.h ****   SET_BIT(RCC->CR, RCC_CR_CSSON);
1032:Drivers/STM32WLxx_HAL_Driver/Inc/stm32wlxx_ll_rcc.h **** }
1033:Drivers/STM32WLxx_HAL_Driver/Inc/stm32wlxx_ll_rcc.h **** 
1034:Drivers/STM32WLxx_HAL_Driver/Inc/stm32wlxx_ll_rcc.h **** /**
1035:Drivers/STM32WLxx_HAL_Driver/Inc/stm32wlxx_ll_rcc.h ****   * @brief  Enable HSE crystal oscillator (HSE ON)
1036:Drivers/STM32WLxx_HAL_Driver/Inc/stm32wlxx_ll_rcc.h ****   * @rmtoll CR           HSEON         LL_RCC_HSE_Enable
1037:Drivers/STM32WLxx_HAL_Driver/Inc/stm32wlxx_ll_rcc.h ****   * @retval None
1038:Drivers/STM32WLxx_HAL_Driver/Inc/stm32wlxx_ll_rcc.h ****   */
1039:Drivers/STM32WLxx_HAL_Driver/Inc/stm32wlxx_ll_rcc.h **** __STATIC_INLINE void LL_RCC_HSE_Enable(void)
1040:Drivers/STM32WLxx_HAL_Driver/Inc/stm32wlxx_ll_rcc.h **** {
1041:Drivers/STM32WLxx_HAL_Driver/Inc/stm32wlxx_ll_rcc.h ****   SET_BIT(RCC->CR, RCC_CR_HSEON);
1042:Drivers/STM32WLxx_HAL_Driver/Inc/stm32wlxx_ll_rcc.h **** }
1043:Drivers/STM32WLxx_HAL_Driver/Inc/stm32wlxx_ll_rcc.h **** 
1044:Drivers/STM32WLxx_HAL_Driver/Inc/stm32wlxx_ll_rcc.h **** /**
1045:Drivers/STM32WLxx_HAL_Driver/Inc/stm32wlxx_ll_rcc.h ****   * @brief  Disable HSE crystal oscillator (HSE ON)
1046:Drivers/STM32WLxx_HAL_Driver/Inc/stm32wlxx_ll_rcc.h ****   * @rmtoll CR           HSEON         LL_RCC_HSE_Disable
1047:Drivers/STM32WLxx_HAL_Driver/Inc/stm32wlxx_ll_rcc.h ****   * @retval None
1048:Drivers/STM32WLxx_HAL_Driver/Inc/stm32wlxx_ll_rcc.h ****   */
1049:Drivers/STM32WLxx_HAL_Driver/Inc/stm32wlxx_ll_rcc.h **** __STATIC_INLINE void LL_RCC_HSE_Disable(void)
1050:Drivers/STM32WLxx_HAL_Driver/Inc/stm32wlxx_ll_rcc.h **** {
1051:Drivers/STM32WLxx_HAL_Driver/Inc/stm32wlxx_ll_rcc.h ****   CLEAR_BIT(RCC->CR, RCC_CR_HSEON);
1052:Drivers/STM32WLxx_HAL_Driver/Inc/stm32wlxx_ll_rcc.h **** }
1053:Drivers/STM32WLxx_HAL_Driver/Inc/stm32wlxx_ll_rcc.h **** 
1054:Drivers/STM32WLxx_HAL_Driver/Inc/stm32wlxx_ll_rcc.h **** /**
1055:Drivers/STM32WLxx_HAL_Driver/Inc/stm32wlxx_ll_rcc.h ****   * @brief  Check if HSE oscillator Ready
1056:Drivers/STM32WLxx_HAL_Driver/Inc/stm32wlxx_ll_rcc.h ****   * @rmtoll CR           HSERDY        LL_RCC_HSE_IsReady
1057:Drivers/STM32WLxx_HAL_Driver/Inc/stm32wlxx_ll_rcc.h ****   * @retval State of bit (1 or 0).
1058:Drivers/STM32WLxx_HAL_Driver/Inc/stm32wlxx_ll_rcc.h ****   */
1059:Drivers/STM32WLxx_HAL_Driver/Inc/stm32wlxx_ll_rcc.h **** __STATIC_INLINE uint32_t LL_RCC_HSE_IsReady(void)
1060:Drivers/STM32WLxx_HAL_Driver/Inc/stm32wlxx_ll_rcc.h **** {
1061:Drivers/STM32WLxx_HAL_Driver/Inc/stm32wlxx_ll_rcc.h ****   return ((READ_BIT(RCC->CR, RCC_CR_HSERDY) == (RCC_CR_HSERDY)) ? 1UL : 0UL);
1062:Drivers/STM32WLxx_HAL_Driver/Inc/stm32wlxx_ll_rcc.h **** }
1063:Drivers/STM32WLxx_HAL_Driver/Inc/stm32wlxx_ll_rcc.h **** 
1064:Drivers/STM32WLxx_HAL_Driver/Inc/stm32wlxx_ll_rcc.h **** /**
1065:Drivers/STM32WLxx_HAL_Driver/Inc/stm32wlxx_ll_rcc.h ****   * @}
1066:Drivers/STM32WLxx_HAL_Driver/Inc/stm32wlxx_ll_rcc.h ****   */
1067:Drivers/STM32WLxx_HAL_Driver/Inc/stm32wlxx_ll_rcc.h **** 
1068:Drivers/STM32WLxx_HAL_Driver/Inc/stm32wlxx_ll_rcc.h **** /** @defgroup RCC_LL_EF_HSI HSI
1069:Drivers/STM32WLxx_HAL_Driver/Inc/stm32wlxx_ll_rcc.h ****   * @{
ARM GAS  /var/folders/9y/n02fl3g16gnf7ppy14xghdy80000gn/T//cckWqezL.s 			page 26


1070:Drivers/STM32WLxx_HAL_Driver/Inc/stm32wlxx_ll_rcc.h ****   */
1071:Drivers/STM32WLxx_HAL_Driver/Inc/stm32wlxx_ll_rcc.h **** 
1072:Drivers/STM32WLxx_HAL_Driver/Inc/stm32wlxx_ll_rcc.h **** /**
1073:Drivers/STM32WLxx_HAL_Driver/Inc/stm32wlxx_ll_rcc.h ****   * @brief  Enable HSI even in stop mode
1074:Drivers/STM32WLxx_HAL_Driver/Inc/stm32wlxx_ll_rcc.h ****   * @note HSI oscillator is forced ON even in Stop mode
1075:Drivers/STM32WLxx_HAL_Driver/Inc/stm32wlxx_ll_rcc.h ****   * @rmtoll CR           HSIKERON      LL_RCC_HSI_EnableInStopMode
1076:Drivers/STM32WLxx_HAL_Driver/Inc/stm32wlxx_ll_rcc.h ****   * @retval None
1077:Drivers/STM32WLxx_HAL_Driver/Inc/stm32wlxx_ll_rcc.h ****   */
1078:Drivers/STM32WLxx_HAL_Driver/Inc/stm32wlxx_ll_rcc.h **** __STATIC_INLINE void LL_RCC_HSI_EnableInStopMode(void)
1079:Drivers/STM32WLxx_HAL_Driver/Inc/stm32wlxx_ll_rcc.h **** {
1080:Drivers/STM32WLxx_HAL_Driver/Inc/stm32wlxx_ll_rcc.h ****   SET_BIT(RCC->CR, RCC_CR_HSIKERON);
1081:Drivers/STM32WLxx_HAL_Driver/Inc/stm32wlxx_ll_rcc.h **** }
1082:Drivers/STM32WLxx_HAL_Driver/Inc/stm32wlxx_ll_rcc.h **** 
1083:Drivers/STM32WLxx_HAL_Driver/Inc/stm32wlxx_ll_rcc.h **** /**
1084:Drivers/STM32WLxx_HAL_Driver/Inc/stm32wlxx_ll_rcc.h ****   * @brief  Disable HSI in stop mode
1085:Drivers/STM32WLxx_HAL_Driver/Inc/stm32wlxx_ll_rcc.h ****   * @rmtoll CR           HSIKERON      LL_RCC_HSI_DisableInStopMode
1086:Drivers/STM32WLxx_HAL_Driver/Inc/stm32wlxx_ll_rcc.h ****   * @retval None
1087:Drivers/STM32WLxx_HAL_Driver/Inc/stm32wlxx_ll_rcc.h ****   */
1088:Drivers/STM32WLxx_HAL_Driver/Inc/stm32wlxx_ll_rcc.h **** __STATIC_INLINE void LL_RCC_HSI_DisableInStopMode(void)
1089:Drivers/STM32WLxx_HAL_Driver/Inc/stm32wlxx_ll_rcc.h **** {
1090:Drivers/STM32WLxx_HAL_Driver/Inc/stm32wlxx_ll_rcc.h ****   CLEAR_BIT(RCC->CR, RCC_CR_HSIKERON);
1091:Drivers/STM32WLxx_HAL_Driver/Inc/stm32wlxx_ll_rcc.h **** }
1092:Drivers/STM32WLxx_HAL_Driver/Inc/stm32wlxx_ll_rcc.h **** 
1093:Drivers/STM32WLxx_HAL_Driver/Inc/stm32wlxx_ll_rcc.h **** /**
1094:Drivers/STM32WLxx_HAL_Driver/Inc/stm32wlxx_ll_rcc.h ****   * @brief  Check if HSI in stop mode is ready
1095:Drivers/STM32WLxx_HAL_Driver/Inc/stm32wlxx_ll_rcc.h ****   * @rmtoll CR           HSIKERON        LL_RCC_HSI_IsEnabledInStopMode
1096:Drivers/STM32WLxx_HAL_Driver/Inc/stm32wlxx_ll_rcc.h ****   * @retval State of bit (1 or 0).
1097:Drivers/STM32WLxx_HAL_Driver/Inc/stm32wlxx_ll_rcc.h ****   */
1098:Drivers/STM32WLxx_HAL_Driver/Inc/stm32wlxx_ll_rcc.h **** __STATIC_INLINE uint32_t LL_RCC_HSI_IsEnabledInStopMode(void)
1099:Drivers/STM32WLxx_HAL_Driver/Inc/stm32wlxx_ll_rcc.h **** {
1100:Drivers/STM32WLxx_HAL_Driver/Inc/stm32wlxx_ll_rcc.h ****   return ((READ_BIT(RCC->CR, RCC_CR_HSIKERON) == (RCC_CR_HSIKERON)) ? 1UL : 0UL);
1101:Drivers/STM32WLxx_HAL_Driver/Inc/stm32wlxx_ll_rcc.h **** }
1102:Drivers/STM32WLxx_HAL_Driver/Inc/stm32wlxx_ll_rcc.h **** 
1103:Drivers/STM32WLxx_HAL_Driver/Inc/stm32wlxx_ll_rcc.h **** /**
1104:Drivers/STM32WLxx_HAL_Driver/Inc/stm32wlxx_ll_rcc.h ****   * @brief  Enable HSI oscillator
1105:Drivers/STM32WLxx_HAL_Driver/Inc/stm32wlxx_ll_rcc.h ****   * @rmtoll CR           HSION         LL_RCC_HSI_Enable
1106:Drivers/STM32WLxx_HAL_Driver/Inc/stm32wlxx_ll_rcc.h ****   * @retval None
1107:Drivers/STM32WLxx_HAL_Driver/Inc/stm32wlxx_ll_rcc.h ****   */
1108:Drivers/STM32WLxx_HAL_Driver/Inc/stm32wlxx_ll_rcc.h **** __STATIC_INLINE void LL_RCC_HSI_Enable(void)
1109:Drivers/STM32WLxx_HAL_Driver/Inc/stm32wlxx_ll_rcc.h **** {
1110:Drivers/STM32WLxx_HAL_Driver/Inc/stm32wlxx_ll_rcc.h ****   SET_BIT(RCC->CR, RCC_CR_HSION);
1111:Drivers/STM32WLxx_HAL_Driver/Inc/stm32wlxx_ll_rcc.h **** }
1112:Drivers/STM32WLxx_HAL_Driver/Inc/stm32wlxx_ll_rcc.h **** 
1113:Drivers/STM32WLxx_HAL_Driver/Inc/stm32wlxx_ll_rcc.h **** /**
1114:Drivers/STM32WLxx_HAL_Driver/Inc/stm32wlxx_ll_rcc.h ****   * @brief  Disable HSI oscillator
1115:Drivers/STM32WLxx_HAL_Driver/Inc/stm32wlxx_ll_rcc.h ****   * @rmtoll CR           HSION         LL_RCC_HSI_Disable
1116:Drivers/STM32WLxx_HAL_Driver/Inc/stm32wlxx_ll_rcc.h ****   * @retval None
1117:Drivers/STM32WLxx_HAL_Driver/Inc/stm32wlxx_ll_rcc.h ****   */
1118:Drivers/STM32WLxx_HAL_Driver/Inc/stm32wlxx_ll_rcc.h **** __STATIC_INLINE void LL_RCC_HSI_Disable(void)
1119:Drivers/STM32WLxx_HAL_Driver/Inc/stm32wlxx_ll_rcc.h **** {
1120:Drivers/STM32WLxx_HAL_Driver/Inc/stm32wlxx_ll_rcc.h ****   CLEAR_BIT(RCC->CR, RCC_CR_HSION);
1121:Drivers/STM32WLxx_HAL_Driver/Inc/stm32wlxx_ll_rcc.h **** }
1122:Drivers/STM32WLxx_HAL_Driver/Inc/stm32wlxx_ll_rcc.h **** 
1123:Drivers/STM32WLxx_HAL_Driver/Inc/stm32wlxx_ll_rcc.h **** /**
1124:Drivers/STM32WLxx_HAL_Driver/Inc/stm32wlxx_ll_rcc.h ****   * @brief  Check if HSI clock is ready
1125:Drivers/STM32WLxx_HAL_Driver/Inc/stm32wlxx_ll_rcc.h ****   * @rmtoll CR           HSIRDY        LL_RCC_HSI_IsReady
1126:Drivers/STM32WLxx_HAL_Driver/Inc/stm32wlxx_ll_rcc.h ****   * @retval State of bit (1 or 0).
ARM GAS  /var/folders/9y/n02fl3g16gnf7ppy14xghdy80000gn/T//cckWqezL.s 			page 27


1127:Drivers/STM32WLxx_HAL_Driver/Inc/stm32wlxx_ll_rcc.h ****   */
1128:Drivers/STM32WLxx_HAL_Driver/Inc/stm32wlxx_ll_rcc.h **** __STATIC_INLINE uint32_t LL_RCC_HSI_IsReady(void)
1129:Drivers/STM32WLxx_HAL_Driver/Inc/stm32wlxx_ll_rcc.h **** {
1130:Drivers/STM32WLxx_HAL_Driver/Inc/stm32wlxx_ll_rcc.h ****   return ((READ_BIT(RCC->CR, RCC_CR_HSIRDY) == (RCC_CR_HSIRDY)) ? 1UL : 0UL);
1131:Drivers/STM32WLxx_HAL_Driver/Inc/stm32wlxx_ll_rcc.h **** }
1132:Drivers/STM32WLxx_HAL_Driver/Inc/stm32wlxx_ll_rcc.h **** 
1133:Drivers/STM32WLxx_HAL_Driver/Inc/stm32wlxx_ll_rcc.h **** /**
1134:Drivers/STM32WLxx_HAL_Driver/Inc/stm32wlxx_ll_rcc.h ****   * @brief  Enable HSI Automatic from stop mode
1135:Drivers/STM32WLxx_HAL_Driver/Inc/stm32wlxx_ll_rcc.h ****   * @rmtoll CR           HSIASFS       LL_RCC_HSI_EnableAutoFromStop
1136:Drivers/STM32WLxx_HAL_Driver/Inc/stm32wlxx_ll_rcc.h ****   * @retval None
1137:Drivers/STM32WLxx_HAL_Driver/Inc/stm32wlxx_ll_rcc.h ****   */
1138:Drivers/STM32WLxx_HAL_Driver/Inc/stm32wlxx_ll_rcc.h **** __STATIC_INLINE void LL_RCC_HSI_EnableAutoFromStop(void)
1139:Drivers/STM32WLxx_HAL_Driver/Inc/stm32wlxx_ll_rcc.h **** {
1140:Drivers/STM32WLxx_HAL_Driver/Inc/stm32wlxx_ll_rcc.h ****   SET_BIT(RCC->CR, RCC_CR_HSIASFS);
1141:Drivers/STM32WLxx_HAL_Driver/Inc/stm32wlxx_ll_rcc.h **** }
1142:Drivers/STM32WLxx_HAL_Driver/Inc/stm32wlxx_ll_rcc.h **** 
1143:Drivers/STM32WLxx_HAL_Driver/Inc/stm32wlxx_ll_rcc.h **** /**
1144:Drivers/STM32WLxx_HAL_Driver/Inc/stm32wlxx_ll_rcc.h ****   * @brief  Disable HSI Automatic from stop mode
1145:Drivers/STM32WLxx_HAL_Driver/Inc/stm32wlxx_ll_rcc.h ****   * @rmtoll CR           HSIASFS       LL_RCC_HSI_DisableAutoFromStop
1146:Drivers/STM32WLxx_HAL_Driver/Inc/stm32wlxx_ll_rcc.h ****   * @retval None
1147:Drivers/STM32WLxx_HAL_Driver/Inc/stm32wlxx_ll_rcc.h ****   */
1148:Drivers/STM32WLxx_HAL_Driver/Inc/stm32wlxx_ll_rcc.h **** __STATIC_INLINE void LL_RCC_HSI_DisableAutoFromStop(void)
1149:Drivers/STM32WLxx_HAL_Driver/Inc/stm32wlxx_ll_rcc.h **** {
1150:Drivers/STM32WLxx_HAL_Driver/Inc/stm32wlxx_ll_rcc.h ****   CLEAR_BIT(RCC->CR, RCC_CR_HSIASFS);
1151:Drivers/STM32WLxx_HAL_Driver/Inc/stm32wlxx_ll_rcc.h **** }
1152:Drivers/STM32WLxx_HAL_Driver/Inc/stm32wlxx_ll_rcc.h **** /**
1153:Drivers/STM32WLxx_HAL_Driver/Inc/stm32wlxx_ll_rcc.h ****   * @brief  Get HSI Calibration value
1154:Drivers/STM32WLxx_HAL_Driver/Inc/stm32wlxx_ll_rcc.h ****   * @note When HSITRIM is written, HSICAL is updated with the sum of
1155:Drivers/STM32WLxx_HAL_Driver/Inc/stm32wlxx_ll_rcc.h ****   *       HSITRIM and the factory trim value
1156:Drivers/STM32WLxx_HAL_Driver/Inc/stm32wlxx_ll_rcc.h ****   * @rmtoll ICSCR        HSICAL        LL_RCC_HSI_GetCalibration
1157:Drivers/STM32WLxx_HAL_Driver/Inc/stm32wlxx_ll_rcc.h ****   * @retval Between Min_Data = 0x00 and Max_Data = 0xFF
1158:Drivers/STM32WLxx_HAL_Driver/Inc/stm32wlxx_ll_rcc.h ****   */
1159:Drivers/STM32WLxx_HAL_Driver/Inc/stm32wlxx_ll_rcc.h **** __STATIC_INLINE uint32_t LL_RCC_HSI_GetCalibration(void)
1160:Drivers/STM32WLxx_HAL_Driver/Inc/stm32wlxx_ll_rcc.h **** {
1161:Drivers/STM32WLxx_HAL_Driver/Inc/stm32wlxx_ll_rcc.h ****   return (uint32_t)(READ_BIT(RCC->ICSCR, RCC_ICSCR_HSICAL) >> RCC_ICSCR_HSICAL_Pos);
1162:Drivers/STM32WLxx_HAL_Driver/Inc/stm32wlxx_ll_rcc.h **** }
1163:Drivers/STM32WLxx_HAL_Driver/Inc/stm32wlxx_ll_rcc.h **** 
1164:Drivers/STM32WLxx_HAL_Driver/Inc/stm32wlxx_ll_rcc.h **** /**
1165:Drivers/STM32WLxx_HAL_Driver/Inc/stm32wlxx_ll_rcc.h ****   * @brief  Set HSI Calibration trimming
1166:Drivers/STM32WLxx_HAL_Driver/Inc/stm32wlxx_ll_rcc.h ****   * @note user-programmable trimming value that is added to the HSICAL
1167:Drivers/STM32WLxx_HAL_Driver/Inc/stm32wlxx_ll_rcc.h ****   * @note Default value is 64, which, when added to the HSICAL value,
1168:Drivers/STM32WLxx_HAL_Driver/Inc/stm32wlxx_ll_rcc.h ****   *       should trim the HSI to 16 MHz +/- 1 %
1169:Drivers/STM32WLxx_HAL_Driver/Inc/stm32wlxx_ll_rcc.h ****   * @rmtoll ICSCR        HSITRIM       LL_RCC_HSI_SetCalibTrimming
1170:Drivers/STM32WLxx_HAL_Driver/Inc/stm32wlxx_ll_rcc.h ****   * @param  Value Between Min_Data = 0 and Max_Data = 127
1171:Drivers/STM32WLxx_HAL_Driver/Inc/stm32wlxx_ll_rcc.h ****   * @retval None
1172:Drivers/STM32WLxx_HAL_Driver/Inc/stm32wlxx_ll_rcc.h ****   */
1173:Drivers/STM32WLxx_HAL_Driver/Inc/stm32wlxx_ll_rcc.h **** __STATIC_INLINE void LL_RCC_HSI_SetCalibTrimming(uint32_t Value)
1174:Drivers/STM32WLxx_HAL_Driver/Inc/stm32wlxx_ll_rcc.h **** {
1175:Drivers/STM32WLxx_HAL_Driver/Inc/stm32wlxx_ll_rcc.h ****   MODIFY_REG(RCC->ICSCR, RCC_ICSCR_HSITRIM, Value << RCC_ICSCR_HSITRIM_Pos);
1176:Drivers/STM32WLxx_HAL_Driver/Inc/stm32wlxx_ll_rcc.h **** }
1177:Drivers/STM32WLxx_HAL_Driver/Inc/stm32wlxx_ll_rcc.h **** 
1178:Drivers/STM32WLxx_HAL_Driver/Inc/stm32wlxx_ll_rcc.h **** /**
1179:Drivers/STM32WLxx_HAL_Driver/Inc/stm32wlxx_ll_rcc.h ****   * @brief  Get HSI Calibration trimming
1180:Drivers/STM32WLxx_HAL_Driver/Inc/stm32wlxx_ll_rcc.h ****   * @rmtoll ICSCR        HSITRIM       LL_RCC_HSI_GetCalibTrimming
1181:Drivers/STM32WLxx_HAL_Driver/Inc/stm32wlxx_ll_rcc.h ****   * @retval Between Min_Data = 0 and Max_Data = 127
1182:Drivers/STM32WLxx_HAL_Driver/Inc/stm32wlxx_ll_rcc.h ****   */
1183:Drivers/STM32WLxx_HAL_Driver/Inc/stm32wlxx_ll_rcc.h **** __STATIC_INLINE uint32_t LL_RCC_HSI_GetCalibTrimming(void)
ARM GAS  /var/folders/9y/n02fl3g16gnf7ppy14xghdy80000gn/T//cckWqezL.s 			page 28


1184:Drivers/STM32WLxx_HAL_Driver/Inc/stm32wlxx_ll_rcc.h **** {
1185:Drivers/STM32WLxx_HAL_Driver/Inc/stm32wlxx_ll_rcc.h ****   return (uint32_t)(READ_BIT(RCC->ICSCR, RCC_ICSCR_HSITRIM) >> RCC_ICSCR_HSITRIM_Pos);
1186:Drivers/STM32WLxx_HAL_Driver/Inc/stm32wlxx_ll_rcc.h **** }
1187:Drivers/STM32WLxx_HAL_Driver/Inc/stm32wlxx_ll_rcc.h **** 
1188:Drivers/STM32WLxx_HAL_Driver/Inc/stm32wlxx_ll_rcc.h **** /**
1189:Drivers/STM32WLxx_HAL_Driver/Inc/stm32wlxx_ll_rcc.h ****   * @}
1190:Drivers/STM32WLxx_HAL_Driver/Inc/stm32wlxx_ll_rcc.h ****   */
1191:Drivers/STM32WLxx_HAL_Driver/Inc/stm32wlxx_ll_rcc.h **** 
1192:Drivers/STM32WLxx_HAL_Driver/Inc/stm32wlxx_ll_rcc.h **** /** @defgroup RCC_LL_EF_LSE LSE
1193:Drivers/STM32WLxx_HAL_Driver/Inc/stm32wlxx_ll_rcc.h ****   * @{
1194:Drivers/STM32WLxx_HAL_Driver/Inc/stm32wlxx_ll_rcc.h ****   */
1195:Drivers/STM32WLxx_HAL_Driver/Inc/stm32wlxx_ll_rcc.h **** 
1196:Drivers/STM32WLxx_HAL_Driver/Inc/stm32wlxx_ll_rcc.h **** /**
1197:Drivers/STM32WLxx_HAL_Driver/Inc/stm32wlxx_ll_rcc.h ****   * @brief  Enable  Low Speed External (LSE) crystal.
1198:Drivers/STM32WLxx_HAL_Driver/Inc/stm32wlxx_ll_rcc.h ****   * @rmtoll BDCR         LSEON         LL_RCC_LSE_Enable
1199:Drivers/STM32WLxx_HAL_Driver/Inc/stm32wlxx_ll_rcc.h ****   * @retval None
1200:Drivers/STM32WLxx_HAL_Driver/Inc/stm32wlxx_ll_rcc.h ****   */
1201:Drivers/STM32WLxx_HAL_Driver/Inc/stm32wlxx_ll_rcc.h **** __STATIC_INLINE void LL_RCC_LSE_Enable(void)
1202:Drivers/STM32WLxx_HAL_Driver/Inc/stm32wlxx_ll_rcc.h **** {
1203:Drivers/STM32WLxx_HAL_Driver/Inc/stm32wlxx_ll_rcc.h ****   SET_BIT(RCC->BDCR, RCC_BDCR_LSEON);
1204:Drivers/STM32WLxx_HAL_Driver/Inc/stm32wlxx_ll_rcc.h **** }
1205:Drivers/STM32WLxx_HAL_Driver/Inc/stm32wlxx_ll_rcc.h **** 
1206:Drivers/STM32WLxx_HAL_Driver/Inc/stm32wlxx_ll_rcc.h **** /**
1207:Drivers/STM32WLxx_HAL_Driver/Inc/stm32wlxx_ll_rcc.h ****   * @brief  Disable  Low Speed External (LSE) crystal.
1208:Drivers/STM32WLxx_HAL_Driver/Inc/stm32wlxx_ll_rcc.h ****   * @rmtoll BDCR         LSEON         LL_RCC_LSE_Disable
1209:Drivers/STM32WLxx_HAL_Driver/Inc/stm32wlxx_ll_rcc.h ****   * @retval None
1210:Drivers/STM32WLxx_HAL_Driver/Inc/stm32wlxx_ll_rcc.h ****   */
1211:Drivers/STM32WLxx_HAL_Driver/Inc/stm32wlxx_ll_rcc.h **** __STATIC_INLINE void LL_RCC_LSE_Disable(void)
1212:Drivers/STM32WLxx_HAL_Driver/Inc/stm32wlxx_ll_rcc.h **** {
1213:Drivers/STM32WLxx_HAL_Driver/Inc/stm32wlxx_ll_rcc.h ****   CLEAR_BIT(RCC->BDCR, RCC_BDCR_LSEON);
1214:Drivers/STM32WLxx_HAL_Driver/Inc/stm32wlxx_ll_rcc.h **** }
1215:Drivers/STM32WLxx_HAL_Driver/Inc/stm32wlxx_ll_rcc.h **** 
1216:Drivers/STM32WLxx_HAL_Driver/Inc/stm32wlxx_ll_rcc.h **** /**
1217:Drivers/STM32WLxx_HAL_Driver/Inc/stm32wlxx_ll_rcc.h ****   * @brief  Check if Low Speed External (LSE) crystal has been enabled or not
1218:Drivers/STM32WLxx_HAL_Driver/Inc/stm32wlxx_ll_rcc.h ****   * @rmtoll BDCR         LSEON         LL_RCC_LSE_IsEnabled
1219:Drivers/STM32WLxx_HAL_Driver/Inc/stm32wlxx_ll_rcc.h ****   * @retval State of bit (1 or 0).
1220:Drivers/STM32WLxx_HAL_Driver/Inc/stm32wlxx_ll_rcc.h ****   */
1221:Drivers/STM32WLxx_HAL_Driver/Inc/stm32wlxx_ll_rcc.h **** __STATIC_INLINE uint32_t LL_RCC_LSE_IsEnabled(void)
1222:Drivers/STM32WLxx_HAL_Driver/Inc/stm32wlxx_ll_rcc.h **** {
1223:Drivers/STM32WLxx_HAL_Driver/Inc/stm32wlxx_ll_rcc.h ****   return ((READ_BIT(RCC->BDCR, RCC_BDCR_LSEON) == (RCC_BDCR_LSEON)) ? 1UL : 0UL);
1224:Drivers/STM32WLxx_HAL_Driver/Inc/stm32wlxx_ll_rcc.h **** }
1225:Drivers/STM32WLxx_HAL_Driver/Inc/stm32wlxx_ll_rcc.h **** 
1226:Drivers/STM32WLxx_HAL_Driver/Inc/stm32wlxx_ll_rcc.h **** /**
1227:Drivers/STM32WLxx_HAL_Driver/Inc/stm32wlxx_ll_rcc.h ****   * @brief  Enable external clock source (LSE bypass).
1228:Drivers/STM32WLxx_HAL_Driver/Inc/stm32wlxx_ll_rcc.h ****   * @rmtoll BDCR         LSEBYP        LL_RCC_LSE_EnableBypass
1229:Drivers/STM32WLxx_HAL_Driver/Inc/stm32wlxx_ll_rcc.h ****   * @retval None
1230:Drivers/STM32WLxx_HAL_Driver/Inc/stm32wlxx_ll_rcc.h ****   */
1231:Drivers/STM32WLxx_HAL_Driver/Inc/stm32wlxx_ll_rcc.h **** __STATIC_INLINE void LL_RCC_LSE_EnableBypass(void)
1232:Drivers/STM32WLxx_HAL_Driver/Inc/stm32wlxx_ll_rcc.h **** {
1233:Drivers/STM32WLxx_HAL_Driver/Inc/stm32wlxx_ll_rcc.h ****   SET_BIT(RCC->BDCR, RCC_BDCR_LSEBYP);
1234:Drivers/STM32WLxx_HAL_Driver/Inc/stm32wlxx_ll_rcc.h **** }
1235:Drivers/STM32WLxx_HAL_Driver/Inc/stm32wlxx_ll_rcc.h **** 
1236:Drivers/STM32WLxx_HAL_Driver/Inc/stm32wlxx_ll_rcc.h **** /**
1237:Drivers/STM32WLxx_HAL_Driver/Inc/stm32wlxx_ll_rcc.h ****   * @brief  Disable external clock source (LSE bypass).
1238:Drivers/STM32WLxx_HAL_Driver/Inc/stm32wlxx_ll_rcc.h ****   * @rmtoll BDCR         LSEBYP        LL_RCC_LSE_DisableBypass
1239:Drivers/STM32WLxx_HAL_Driver/Inc/stm32wlxx_ll_rcc.h ****   * @retval None
1240:Drivers/STM32WLxx_HAL_Driver/Inc/stm32wlxx_ll_rcc.h ****   */
ARM GAS  /var/folders/9y/n02fl3g16gnf7ppy14xghdy80000gn/T//cckWqezL.s 			page 29


1241:Drivers/STM32WLxx_HAL_Driver/Inc/stm32wlxx_ll_rcc.h **** __STATIC_INLINE void LL_RCC_LSE_DisableBypass(void)
1242:Drivers/STM32WLxx_HAL_Driver/Inc/stm32wlxx_ll_rcc.h **** {
1243:Drivers/STM32WLxx_HAL_Driver/Inc/stm32wlxx_ll_rcc.h ****   CLEAR_BIT(RCC->BDCR, RCC_BDCR_LSEBYP);
1244:Drivers/STM32WLxx_HAL_Driver/Inc/stm32wlxx_ll_rcc.h **** }
1245:Drivers/STM32WLxx_HAL_Driver/Inc/stm32wlxx_ll_rcc.h **** 
1246:Drivers/STM32WLxx_HAL_Driver/Inc/stm32wlxx_ll_rcc.h **** /**
1247:Drivers/STM32WLxx_HAL_Driver/Inc/stm32wlxx_ll_rcc.h ****   * @brief  Set LSE oscillator drive capability
1248:Drivers/STM32WLxx_HAL_Driver/Inc/stm32wlxx_ll_rcc.h ****   * @note The oscillator is in Xtal mode when it is not in bypass mode.
1249:Drivers/STM32WLxx_HAL_Driver/Inc/stm32wlxx_ll_rcc.h ****   * @rmtoll BDCR         LSEDRV        LL_RCC_LSE_SetDriveCapability
1250:Drivers/STM32WLxx_HAL_Driver/Inc/stm32wlxx_ll_rcc.h ****   * @param  LSEDrive This parameter can be one of the following values:
1251:Drivers/STM32WLxx_HAL_Driver/Inc/stm32wlxx_ll_rcc.h ****   *         @arg @ref LL_RCC_LSEDRIVE_LOW
1252:Drivers/STM32WLxx_HAL_Driver/Inc/stm32wlxx_ll_rcc.h ****   *         @arg @ref LL_RCC_LSEDRIVE_MEDIUMLOW
1253:Drivers/STM32WLxx_HAL_Driver/Inc/stm32wlxx_ll_rcc.h ****   *         @arg @ref LL_RCC_LSEDRIVE_MEDIUMHIGH
1254:Drivers/STM32WLxx_HAL_Driver/Inc/stm32wlxx_ll_rcc.h ****   *         @arg @ref LL_RCC_LSEDRIVE_HIGH
1255:Drivers/STM32WLxx_HAL_Driver/Inc/stm32wlxx_ll_rcc.h ****   * @retval None
1256:Drivers/STM32WLxx_HAL_Driver/Inc/stm32wlxx_ll_rcc.h ****   */
1257:Drivers/STM32WLxx_HAL_Driver/Inc/stm32wlxx_ll_rcc.h **** __STATIC_INLINE void LL_RCC_LSE_SetDriveCapability(uint32_t LSEDrive)
1258:Drivers/STM32WLxx_HAL_Driver/Inc/stm32wlxx_ll_rcc.h **** {
1259:Drivers/STM32WLxx_HAL_Driver/Inc/stm32wlxx_ll_rcc.h ****   MODIFY_REG(RCC->BDCR, RCC_BDCR_LSEDRV, LSEDrive);
1260:Drivers/STM32WLxx_HAL_Driver/Inc/stm32wlxx_ll_rcc.h **** }
1261:Drivers/STM32WLxx_HAL_Driver/Inc/stm32wlxx_ll_rcc.h **** 
1262:Drivers/STM32WLxx_HAL_Driver/Inc/stm32wlxx_ll_rcc.h **** /**
1263:Drivers/STM32WLxx_HAL_Driver/Inc/stm32wlxx_ll_rcc.h ****   * @brief  Get LSE oscillator drive capability
1264:Drivers/STM32WLxx_HAL_Driver/Inc/stm32wlxx_ll_rcc.h ****   * @rmtoll BDCR         LSEDRV        LL_RCC_LSE_GetDriveCapability
1265:Drivers/STM32WLxx_HAL_Driver/Inc/stm32wlxx_ll_rcc.h ****   * @retval Returned value can be one of the following values:
1266:Drivers/STM32WLxx_HAL_Driver/Inc/stm32wlxx_ll_rcc.h ****   *         @arg @ref LL_RCC_LSEDRIVE_LOW
1267:Drivers/STM32WLxx_HAL_Driver/Inc/stm32wlxx_ll_rcc.h ****   *         @arg @ref LL_RCC_LSEDRIVE_MEDIUMLOW
1268:Drivers/STM32WLxx_HAL_Driver/Inc/stm32wlxx_ll_rcc.h ****   *         @arg @ref LL_RCC_LSEDRIVE_MEDIUMHIGH
1269:Drivers/STM32WLxx_HAL_Driver/Inc/stm32wlxx_ll_rcc.h ****   *         @arg @ref LL_RCC_LSEDRIVE_HIGH
1270:Drivers/STM32WLxx_HAL_Driver/Inc/stm32wlxx_ll_rcc.h ****   */
1271:Drivers/STM32WLxx_HAL_Driver/Inc/stm32wlxx_ll_rcc.h **** __STATIC_INLINE uint32_t LL_RCC_LSE_GetDriveCapability(void)
1272:Drivers/STM32WLxx_HAL_Driver/Inc/stm32wlxx_ll_rcc.h **** {
1273:Drivers/STM32WLxx_HAL_Driver/Inc/stm32wlxx_ll_rcc.h ****   return (uint32_t)(READ_BIT(RCC->BDCR, RCC_BDCR_LSEDRV));
1274:Drivers/STM32WLxx_HAL_Driver/Inc/stm32wlxx_ll_rcc.h **** }
1275:Drivers/STM32WLxx_HAL_Driver/Inc/stm32wlxx_ll_rcc.h **** 
1276:Drivers/STM32WLxx_HAL_Driver/Inc/stm32wlxx_ll_rcc.h **** /**
1277:Drivers/STM32WLxx_HAL_Driver/Inc/stm32wlxx_ll_rcc.h ****   * @brief  Enable Clock security system on LSE.
1278:Drivers/STM32WLxx_HAL_Driver/Inc/stm32wlxx_ll_rcc.h ****   * @rmtoll BDCR         LSECSSON      LL_RCC_LSE_EnableCSS
1279:Drivers/STM32WLxx_HAL_Driver/Inc/stm32wlxx_ll_rcc.h ****   * @retval None
1280:Drivers/STM32WLxx_HAL_Driver/Inc/stm32wlxx_ll_rcc.h ****   */
1281:Drivers/STM32WLxx_HAL_Driver/Inc/stm32wlxx_ll_rcc.h **** __STATIC_INLINE void LL_RCC_LSE_EnableCSS(void)
1282:Drivers/STM32WLxx_HAL_Driver/Inc/stm32wlxx_ll_rcc.h **** {
1283:Drivers/STM32WLxx_HAL_Driver/Inc/stm32wlxx_ll_rcc.h ****   SET_BIT(RCC->BDCR, RCC_BDCR_LSECSSON);
1284:Drivers/STM32WLxx_HAL_Driver/Inc/stm32wlxx_ll_rcc.h **** }
1285:Drivers/STM32WLxx_HAL_Driver/Inc/stm32wlxx_ll_rcc.h **** 
1286:Drivers/STM32WLxx_HAL_Driver/Inc/stm32wlxx_ll_rcc.h **** /**
1287:Drivers/STM32WLxx_HAL_Driver/Inc/stm32wlxx_ll_rcc.h ****   * @brief  Disable Clock security system on LSE.
1288:Drivers/STM32WLxx_HAL_Driver/Inc/stm32wlxx_ll_rcc.h ****   * @note Clock security system can be disabled only after a LSE
1289:Drivers/STM32WLxx_HAL_Driver/Inc/stm32wlxx_ll_rcc.h ****   *       failure detection. In that case it MUST be disabled by software.
1290:Drivers/STM32WLxx_HAL_Driver/Inc/stm32wlxx_ll_rcc.h ****   * @rmtoll BDCR         LSECSSON      LL_RCC_LSE_DisableCSS
1291:Drivers/STM32WLxx_HAL_Driver/Inc/stm32wlxx_ll_rcc.h ****   * @retval None
1292:Drivers/STM32WLxx_HAL_Driver/Inc/stm32wlxx_ll_rcc.h ****   */
1293:Drivers/STM32WLxx_HAL_Driver/Inc/stm32wlxx_ll_rcc.h **** __STATIC_INLINE void LL_RCC_LSE_DisableCSS(void)
1294:Drivers/STM32WLxx_HAL_Driver/Inc/stm32wlxx_ll_rcc.h **** {
1295:Drivers/STM32WLxx_HAL_Driver/Inc/stm32wlxx_ll_rcc.h ****   CLEAR_BIT(RCC->BDCR, RCC_BDCR_LSECSSON);
1296:Drivers/STM32WLxx_HAL_Driver/Inc/stm32wlxx_ll_rcc.h **** }
1297:Drivers/STM32WLxx_HAL_Driver/Inc/stm32wlxx_ll_rcc.h **** 
ARM GAS  /var/folders/9y/n02fl3g16gnf7ppy14xghdy80000gn/T//cckWqezL.s 			page 30


1298:Drivers/STM32WLxx_HAL_Driver/Inc/stm32wlxx_ll_rcc.h **** /**
1299:Drivers/STM32WLxx_HAL_Driver/Inc/stm32wlxx_ll_rcc.h ****   * @brief  Enable LSE oscillator propagation for system clock
1300:Drivers/STM32WLxx_HAL_Driver/Inc/stm32wlxx_ll_rcc.h ****   * @rmtoll BDCR         LSESYSEN      LL_RCC_LSE_EnablePropagation
1301:Drivers/STM32WLxx_HAL_Driver/Inc/stm32wlxx_ll_rcc.h ****   * @retval None
1302:Drivers/STM32WLxx_HAL_Driver/Inc/stm32wlxx_ll_rcc.h ****   */
1303:Drivers/STM32WLxx_HAL_Driver/Inc/stm32wlxx_ll_rcc.h **** __STATIC_INLINE void LL_RCC_LSE_EnablePropagation(void)
1304:Drivers/STM32WLxx_HAL_Driver/Inc/stm32wlxx_ll_rcc.h **** {
1305:Drivers/STM32WLxx_HAL_Driver/Inc/stm32wlxx_ll_rcc.h ****   SET_BIT(RCC->BDCR, RCC_BDCR_LSESYSEN);
1306:Drivers/STM32WLxx_HAL_Driver/Inc/stm32wlxx_ll_rcc.h **** }
1307:Drivers/STM32WLxx_HAL_Driver/Inc/stm32wlxx_ll_rcc.h **** 
1308:Drivers/STM32WLxx_HAL_Driver/Inc/stm32wlxx_ll_rcc.h **** /**
1309:Drivers/STM32WLxx_HAL_Driver/Inc/stm32wlxx_ll_rcc.h ****   * @brief  Disable LSE oscillator propagation for system clock
1310:Drivers/STM32WLxx_HAL_Driver/Inc/stm32wlxx_ll_rcc.h ****   * @rmtoll BDCR         LSESYSEN      LL_RCC_LSE_DisablePropagation
1311:Drivers/STM32WLxx_HAL_Driver/Inc/stm32wlxx_ll_rcc.h ****   * @retval None
1312:Drivers/STM32WLxx_HAL_Driver/Inc/stm32wlxx_ll_rcc.h ****   */
1313:Drivers/STM32WLxx_HAL_Driver/Inc/stm32wlxx_ll_rcc.h **** __STATIC_INLINE void LL_RCC_LSE_DisablePropagation(void)
1314:Drivers/STM32WLxx_HAL_Driver/Inc/stm32wlxx_ll_rcc.h **** {
1315:Drivers/STM32WLxx_HAL_Driver/Inc/stm32wlxx_ll_rcc.h ****   CLEAR_BIT(RCC->BDCR, RCC_BDCR_LSESYSEN);
1316:Drivers/STM32WLxx_HAL_Driver/Inc/stm32wlxx_ll_rcc.h **** }
1317:Drivers/STM32WLxx_HAL_Driver/Inc/stm32wlxx_ll_rcc.h **** 
1318:Drivers/STM32WLxx_HAL_Driver/Inc/stm32wlxx_ll_rcc.h **** /**
1319:Drivers/STM32WLxx_HAL_Driver/Inc/stm32wlxx_ll_rcc.h ****   * @brief  Check if LSE oscillator propagation for system clock Ready
1320:Drivers/STM32WLxx_HAL_Driver/Inc/stm32wlxx_ll_rcc.h ****   * @rmtoll BDCR         LSEYSRDY     LL_RCC_LSE_IsPropagationReady
1321:Drivers/STM32WLxx_HAL_Driver/Inc/stm32wlxx_ll_rcc.h ****   * @retval State of bit (1 or 0).
1322:Drivers/STM32WLxx_HAL_Driver/Inc/stm32wlxx_ll_rcc.h ****   */
1323:Drivers/STM32WLxx_HAL_Driver/Inc/stm32wlxx_ll_rcc.h **** __STATIC_INLINE uint32_t LL_RCC_LSE_IsPropagationReady(void)
1324:Drivers/STM32WLxx_HAL_Driver/Inc/stm32wlxx_ll_rcc.h **** {
1325:Drivers/STM32WLxx_HAL_Driver/Inc/stm32wlxx_ll_rcc.h ****   return ((READ_BIT(RCC->BDCR, RCC_BDCR_LSESYSRDY) == (RCC_BDCR_LSESYSRDY)) ? 1UL : 0UL);
1326:Drivers/STM32WLxx_HAL_Driver/Inc/stm32wlxx_ll_rcc.h **** }
1327:Drivers/STM32WLxx_HAL_Driver/Inc/stm32wlxx_ll_rcc.h **** 
1328:Drivers/STM32WLxx_HAL_Driver/Inc/stm32wlxx_ll_rcc.h **** 
1329:Drivers/STM32WLxx_HAL_Driver/Inc/stm32wlxx_ll_rcc.h **** /**
1330:Drivers/STM32WLxx_HAL_Driver/Inc/stm32wlxx_ll_rcc.h ****   * @brief  Check if LSE oscillator Ready
1331:Drivers/STM32WLxx_HAL_Driver/Inc/stm32wlxx_ll_rcc.h ****   * @rmtoll BDCR         LSERDY        LL_RCC_LSE_IsReady
1332:Drivers/STM32WLxx_HAL_Driver/Inc/stm32wlxx_ll_rcc.h ****   * @retval State of bit (1 or 0).
1333:Drivers/STM32WLxx_HAL_Driver/Inc/stm32wlxx_ll_rcc.h ****   */
1334:Drivers/STM32WLxx_HAL_Driver/Inc/stm32wlxx_ll_rcc.h **** __STATIC_INLINE uint32_t LL_RCC_LSE_IsReady(void)
1335:Drivers/STM32WLxx_HAL_Driver/Inc/stm32wlxx_ll_rcc.h **** {
1336:Drivers/STM32WLxx_HAL_Driver/Inc/stm32wlxx_ll_rcc.h ****   return ((READ_BIT(RCC->BDCR, RCC_BDCR_LSERDY) == (RCC_BDCR_LSERDY)) ? 1UL : 0UL);
1337:Drivers/STM32WLxx_HAL_Driver/Inc/stm32wlxx_ll_rcc.h **** }
1338:Drivers/STM32WLxx_HAL_Driver/Inc/stm32wlxx_ll_rcc.h **** 
1339:Drivers/STM32WLxx_HAL_Driver/Inc/stm32wlxx_ll_rcc.h **** /**
1340:Drivers/STM32WLxx_HAL_Driver/Inc/stm32wlxx_ll_rcc.h ****   * @brief  Check if CSS on LSE failure Detection
1341:Drivers/STM32WLxx_HAL_Driver/Inc/stm32wlxx_ll_rcc.h ****   * @rmtoll BDCR         LSECSSD       LL_RCC_LSE_IsCSSDetected
1342:Drivers/STM32WLxx_HAL_Driver/Inc/stm32wlxx_ll_rcc.h ****   * @retval State of bit (1 or 0).
1343:Drivers/STM32WLxx_HAL_Driver/Inc/stm32wlxx_ll_rcc.h ****   */
1344:Drivers/STM32WLxx_HAL_Driver/Inc/stm32wlxx_ll_rcc.h **** __STATIC_INLINE uint32_t LL_RCC_LSE_IsCSSDetected(void)
1345:Drivers/STM32WLxx_HAL_Driver/Inc/stm32wlxx_ll_rcc.h **** {
1346:Drivers/STM32WLxx_HAL_Driver/Inc/stm32wlxx_ll_rcc.h ****   return ((READ_BIT(RCC->BDCR, RCC_BDCR_LSECSSD) == (RCC_BDCR_LSECSSD)) ? 1UL : 0UL);
1347:Drivers/STM32WLxx_HAL_Driver/Inc/stm32wlxx_ll_rcc.h **** }
1348:Drivers/STM32WLxx_HAL_Driver/Inc/stm32wlxx_ll_rcc.h **** 
1349:Drivers/STM32WLxx_HAL_Driver/Inc/stm32wlxx_ll_rcc.h **** /**
1350:Drivers/STM32WLxx_HAL_Driver/Inc/stm32wlxx_ll_rcc.h ****   * @}
1351:Drivers/STM32WLxx_HAL_Driver/Inc/stm32wlxx_ll_rcc.h ****   */
1352:Drivers/STM32WLxx_HAL_Driver/Inc/stm32wlxx_ll_rcc.h **** 
1353:Drivers/STM32WLxx_HAL_Driver/Inc/stm32wlxx_ll_rcc.h **** /** @defgroup RCC_LL_EF_LSI LSI
1354:Drivers/STM32WLxx_HAL_Driver/Inc/stm32wlxx_ll_rcc.h ****   * @{
ARM GAS  /var/folders/9y/n02fl3g16gnf7ppy14xghdy80000gn/T//cckWqezL.s 			page 31


1355:Drivers/STM32WLxx_HAL_Driver/Inc/stm32wlxx_ll_rcc.h ****   */
1356:Drivers/STM32WLxx_HAL_Driver/Inc/stm32wlxx_ll_rcc.h **** 
1357:Drivers/STM32WLxx_HAL_Driver/Inc/stm32wlxx_ll_rcc.h **** 
1358:Drivers/STM32WLxx_HAL_Driver/Inc/stm32wlxx_ll_rcc.h **** /**
1359:Drivers/STM32WLxx_HAL_Driver/Inc/stm32wlxx_ll_rcc.h ****   * @brief  Set LSI division factor
1360:Drivers/STM32WLxx_HAL_Driver/Inc/stm32wlxx_ll_rcc.h ****   * @rmtoll CSR          LSIPRE     LL_RCC_LSI_SetPrediv
1361:Drivers/STM32WLxx_HAL_Driver/Inc/stm32wlxx_ll_rcc.h ****   * @param  LSI_PREDIV This parameter can be one of the following values:
1362:Drivers/STM32WLxx_HAL_Driver/Inc/stm32wlxx_ll_rcc.h ****   *         @arg @ref LL_RCC_LSI_PREDIV_1
1363:Drivers/STM32WLxx_HAL_Driver/Inc/stm32wlxx_ll_rcc.h ****   *         @arg @ref LL_RCC_LSI_PREDIV_128
1364:Drivers/STM32WLxx_HAL_Driver/Inc/stm32wlxx_ll_rcc.h ****   * @retval None
1365:Drivers/STM32WLxx_HAL_Driver/Inc/stm32wlxx_ll_rcc.h ****   */
1366:Drivers/STM32WLxx_HAL_Driver/Inc/stm32wlxx_ll_rcc.h **** __STATIC_INLINE void LL_RCC_LSI_SetPrediv(uint32_t LSI_PREDIV)
1367:Drivers/STM32WLxx_HAL_Driver/Inc/stm32wlxx_ll_rcc.h **** {
1368:Drivers/STM32WLxx_HAL_Driver/Inc/stm32wlxx_ll_rcc.h ****   MODIFY_REG(RCC->CSR, RCC_CSR_LSIPRE, LSI_PREDIV);
1369:Drivers/STM32WLxx_HAL_Driver/Inc/stm32wlxx_ll_rcc.h **** }
1370:Drivers/STM32WLxx_HAL_Driver/Inc/stm32wlxx_ll_rcc.h **** 
1371:Drivers/STM32WLxx_HAL_Driver/Inc/stm32wlxx_ll_rcc.h **** /**
1372:Drivers/STM32WLxx_HAL_Driver/Inc/stm32wlxx_ll_rcc.h ****   * @brief  Get LSI division factor
1373:Drivers/STM32WLxx_HAL_Driver/Inc/stm32wlxx_ll_rcc.h ****   * @rmtoll CSR          LSIPRE     LL_RCC_LSI_GetPrediv
1374:Drivers/STM32WLxx_HAL_Driver/Inc/stm32wlxx_ll_rcc.h ****   * @retval Returned value can be one of the following values:
1375:Drivers/STM32WLxx_HAL_Driver/Inc/stm32wlxx_ll_rcc.h ****   *         @arg @ref LL_RCC_LSI_PREDIV_1
1376:Drivers/STM32WLxx_HAL_Driver/Inc/stm32wlxx_ll_rcc.h ****   *         @arg @ref LL_RCC_LSI_PREDIV_128
1377:Drivers/STM32WLxx_HAL_Driver/Inc/stm32wlxx_ll_rcc.h ****   */
1378:Drivers/STM32WLxx_HAL_Driver/Inc/stm32wlxx_ll_rcc.h **** __STATIC_INLINE uint32_t LL_RCC_LSI_GetPrediv(void)
1379:Drivers/STM32WLxx_HAL_Driver/Inc/stm32wlxx_ll_rcc.h **** {
1380:Drivers/STM32WLxx_HAL_Driver/Inc/stm32wlxx_ll_rcc.h ****   return (READ_BIT(RCC->CSR, RCC_CSR_LSIPRE));
1381:Drivers/STM32WLxx_HAL_Driver/Inc/stm32wlxx_ll_rcc.h **** }
1382:Drivers/STM32WLxx_HAL_Driver/Inc/stm32wlxx_ll_rcc.h **** 
1383:Drivers/STM32WLxx_HAL_Driver/Inc/stm32wlxx_ll_rcc.h **** 
1384:Drivers/STM32WLxx_HAL_Driver/Inc/stm32wlxx_ll_rcc.h **** /**
1385:Drivers/STM32WLxx_HAL_Driver/Inc/stm32wlxx_ll_rcc.h ****   * @brief  Enable LSI Oscillator
1386:Drivers/STM32WLxx_HAL_Driver/Inc/stm32wlxx_ll_rcc.h ****   * @rmtoll CSR          LSION         LL_RCC_LSI_Enable
1387:Drivers/STM32WLxx_HAL_Driver/Inc/stm32wlxx_ll_rcc.h ****   * @retval None
1388:Drivers/STM32WLxx_HAL_Driver/Inc/stm32wlxx_ll_rcc.h ****   */
1389:Drivers/STM32WLxx_HAL_Driver/Inc/stm32wlxx_ll_rcc.h **** __STATIC_INLINE void LL_RCC_LSI_Enable(void)
1390:Drivers/STM32WLxx_HAL_Driver/Inc/stm32wlxx_ll_rcc.h **** {
1391:Drivers/STM32WLxx_HAL_Driver/Inc/stm32wlxx_ll_rcc.h ****   SET_BIT(RCC->CSR, RCC_CSR_LSION);
1392:Drivers/STM32WLxx_HAL_Driver/Inc/stm32wlxx_ll_rcc.h **** }
1393:Drivers/STM32WLxx_HAL_Driver/Inc/stm32wlxx_ll_rcc.h **** 
1394:Drivers/STM32WLxx_HAL_Driver/Inc/stm32wlxx_ll_rcc.h **** /**
1395:Drivers/STM32WLxx_HAL_Driver/Inc/stm32wlxx_ll_rcc.h ****   * @brief  Disable LSI Oscillator
1396:Drivers/STM32WLxx_HAL_Driver/Inc/stm32wlxx_ll_rcc.h ****   * @rmtoll CSR          LSION         LL_RCC_LSI_Disable
1397:Drivers/STM32WLxx_HAL_Driver/Inc/stm32wlxx_ll_rcc.h ****   * @retval None
1398:Drivers/STM32WLxx_HAL_Driver/Inc/stm32wlxx_ll_rcc.h ****   */
1399:Drivers/STM32WLxx_HAL_Driver/Inc/stm32wlxx_ll_rcc.h **** __STATIC_INLINE void LL_RCC_LSI_Disable(void)
1400:Drivers/STM32WLxx_HAL_Driver/Inc/stm32wlxx_ll_rcc.h **** {
1401:Drivers/STM32WLxx_HAL_Driver/Inc/stm32wlxx_ll_rcc.h ****   CLEAR_BIT(RCC->CSR, RCC_CSR_LSION);
1402:Drivers/STM32WLxx_HAL_Driver/Inc/stm32wlxx_ll_rcc.h **** }
1403:Drivers/STM32WLxx_HAL_Driver/Inc/stm32wlxx_ll_rcc.h **** 
1404:Drivers/STM32WLxx_HAL_Driver/Inc/stm32wlxx_ll_rcc.h **** /**
1405:Drivers/STM32WLxx_HAL_Driver/Inc/stm32wlxx_ll_rcc.h ****   * @brief  Check if LSI is Ready
1406:Drivers/STM32WLxx_HAL_Driver/Inc/stm32wlxx_ll_rcc.h ****   * @rmtoll CSR          LSIRDY        LL_RCC_LSI_IsReady
1407:Drivers/STM32WLxx_HAL_Driver/Inc/stm32wlxx_ll_rcc.h ****   * @retval State of bit (1 or 0).
1408:Drivers/STM32WLxx_HAL_Driver/Inc/stm32wlxx_ll_rcc.h ****   */
1409:Drivers/STM32WLxx_HAL_Driver/Inc/stm32wlxx_ll_rcc.h **** __STATIC_INLINE uint32_t LL_RCC_LSI_IsReady(void)
1410:Drivers/STM32WLxx_HAL_Driver/Inc/stm32wlxx_ll_rcc.h **** {
1411:Drivers/STM32WLxx_HAL_Driver/Inc/stm32wlxx_ll_rcc.h ****   return ((READ_BIT(RCC->CSR, RCC_CSR_LSIRDY) == (RCC_CSR_LSIRDY)) ? 1UL : 0UL);
ARM GAS  /var/folders/9y/n02fl3g16gnf7ppy14xghdy80000gn/T//cckWqezL.s 			page 32


1412:Drivers/STM32WLxx_HAL_Driver/Inc/stm32wlxx_ll_rcc.h **** }
1413:Drivers/STM32WLxx_HAL_Driver/Inc/stm32wlxx_ll_rcc.h **** 
1414:Drivers/STM32WLxx_HAL_Driver/Inc/stm32wlxx_ll_rcc.h **** /**
1415:Drivers/STM32WLxx_HAL_Driver/Inc/stm32wlxx_ll_rcc.h ****   * @}
1416:Drivers/STM32WLxx_HAL_Driver/Inc/stm32wlxx_ll_rcc.h ****   */
1417:Drivers/STM32WLxx_HAL_Driver/Inc/stm32wlxx_ll_rcc.h **** 
1418:Drivers/STM32WLxx_HAL_Driver/Inc/stm32wlxx_ll_rcc.h **** /** @defgroup RCC_LL_EF_MSI MSI
1419:Drivers/STM32WLxx_HAL_Driver/Inc/stm32wlxx_ll_rcc.h ****   * @{
1420:Drivers/STM32WLxx_HAL_Driver/Inc/stm32wlxx_ll_rcc.h ****   */
1421:Drivers/STM32WLxx_HAL_Driver/Inc/stm32wlxx_ll_rcc.h **** 
1422:Drivers/STM32WLxx_HAL_Driver/Inc/stm32wlxx_ll_rcc.h **** /**
1423:Drivers/STM32WLxx_HAL_Driver/Inc/stm32wlxx_ll_rcc.h ****   * @brief  Enable MSI oscillator
1424:Drivers/STM32WLxx_HAL_Driver/Inc/stm32wlxx_ll_rcc.h ****   * @rmtoll CR           MSION         LL_RCC_MSI_Enable
1425:Drivers/STM32WLxx_HAL_Driver/Inc/stm32wlxx_ll_rcc.h ****   * @retval None
1426:Drivers/STM32WLxx_HAL_Driver/Inc/stm32wlxx_ll_rcc.h ****   */
1427:Drivers/STM32WLxx_HAL_Driver/Inc/stm32wlxx_ll_rcc.h **** __STATIC_INLINE void LL_RCC_MSI_Enable(void)
1428:Drivers/STM32WLxx_HAL_Driver/Inc/stm32wlxx_ll_rcc.h **** {
1429:Drivers/STM32WLxx_HAL_Driver/Inc/stm32wlxx_ll_rcc.h ****   SET_BIT(RCC->CR, RCC_CR_MSION);
1430:Drivers/STM32WLxx_HAL_Driver/Inc/stm32wlxx_ll_rcc.h **** }
1431:Drivers/STM32WLxx_HAL_Driver/Inc/stm32wlxx_ll_rcc.h **** 
1432:Drivers/STM32WLxx_HAL_Driver/Inc/stm32wlxx_ll_rcc.h **** /**
1433:Drivers/STM32WLxx_HAL_Driver/Inc/stm32wlxx_ll_rcc.h ****   * @brief  Disable MSI oscillator
1434:Drivers/STM32WLxx_HAL_Driver/Inc/stm32wlxx_ll_rcc.h ****   * @rmtoll CR           MSION         LL_RCC_MSI_Disable
1435:Drivers/STM32WLxx_HAL_Driver/Inc/stm32wlxx_ll_rcc.h ****   * @retval None
1436:Drivers/STM32WLxx_HAL_Driver/Inc/stm32wlxx_ll_rcc.h ****   */
1437:Drivers/STM32WLxx_HAL_Driver/Inc/stm32wlxx_ll_rcc.h **** __STATIC_INLINE void LL_RCC_MSI_Disable(void)
1438:Drivers/STM32WLxx_HAL_Driver/Inc/stm32wlxx_ll_rcc.h **** {
1439:Drivers/STM32WLxx_HAL_Driver/Inc/stm32wlxx_ll_rcc.h ****   CLEAR_BIT(RCC->CR, RCC_CR_MSION);
1440:Drivers/STM32WLxx_HAL_Driver/Inc/stm32wlxx_ll_rcc.h **** }
1441:Drivers/STM32WLxx_HAL_Driver/Inc/stm32wlxx_ll_rcc.h **** 
1442:Drivers/STM32WLxx_HAL_Driver/Inc/stm32wlxx_ll_rcc.h **** /**
1443:Drivers/STM32WLxx_HAL_Driver/Inc/stm32wlxx_ll_rcc.h ****   * @brief  Check if MSI oscillator Ready
1444:Drivers/STM32WLxx_HAL_Driver/Inc/stm32wlxx_ll_rcc.h ****   * @rmtoll CR           MSIRDY        LL_RCC_MSI_IsReady
1445:Drivers/STM32WLxx_HAL_Driver/Inc/stm32wlxx_ll_rcc.h ****   * @retval State of bit (1 or 0).
1446:Drivers/STM32WLxx_HAL_Driver/Inc/stm32wlxx_ll_rcc.h ****   */
1447:Drivers/STM32WLxx_HAL_Driver/Inc/stm32wlxx_ll_rcc.h **** __STATIC_INLINE uint32_t LL_RCC_MSI_IsReady(void)
1448:Drivers/STM32WLxx_HAL_Driver/Inc/stm32wlxx_ll_rcc.h **** {
1449:Drivers/STM32WLxx_HAL_Driver/Inc/stm32wlxx_ll_rcc.h ****   return ((READ_BIT(RCC->CR, RCC_CR_MSIRDY) == (RCC_CR_MSIRDY)) ? 1UL : 0UL);
1450:Drivers/STM32WLxx_HAL_Driver/Inc/stm32wlxx_ll_rcc.h **** }
1451:Drivers/STM32WLxx_HAL_Driver/Inc/stm32wlxx_ll_rcc.h **** 
1452:Drivers/STM32WLxx_HAL_Driver/Inc/stm32wlxx_ll_rcc.h **** /**
1453:Drivers/STM32WLxx_HAL_Driver/Inc/stm32wlxx_ll_rcc.h ****   * @brief  Enable MSI PLL-mode (Hardware auto calibration with LSE)
1454:Drivers/STM32WLxx_HAL_Driver/Inc/stm32wlxx_ll_rcc.h ****   * @note MSIPLLEN must be enabled after LSE is enabled (LSEON enabled)
1455:Drivers/STM32WLxx_HAL_Driver/Inc/stm32wlxx_ll_rcc.h ****   *       and ready (LSERDY set by hardware)
1456:Drivers/STM32WLxx_HAL_Driver/Inc/stm32wlxx_ll_rcc.h ****   * @note hardware protection to avoid enabling MSIPLLEN if LSE is not
1457:Drivers/STM32WLxx_HAL_Driver/Inc/stm32wlxx_ll_rcc.h ****   *       ready
1458:Drivers/STM32WLxx_HAL_Driver/Inc/stm32wlxx_ll_rcc.h ****   * @rmtoll CR           MSIPLLEN      LL_RCC_MSI_EnablePLLMode
1459:Drivers/STM32WLxx_HAL_Driver/Inc/stm32wlxx_ll_rcc.h ****   * @retval None
1460:Drivers/STM32WLxx_HAL_Driver/Inc/stm32wlxx_ll_rcc.h ****   */
1461:Drivers/STM32WLxx_HAL_Driver/Inc/stm32wlxx_ll_rcc.h **** __STATIC_INLINE void LL_RCC_MSI_EnablePLLMode(void)
1462:Drivers/STM32WLxx_HAL_Driver/Inc/stm32wlxx_ll_rcc.h **** {
1463:Drivers/STM32WLxx_HAL_Driver/Inc/stm32wlxx_ll_rcc.h ****   SET_BIT(RCC->CR, RCC_CR_MSIPLLEN);
1464:Drivers/STM32WLxx_HAL_Driver/Inc/stm32wlxx_ll_rcc.h **** }
1465:Drivers/STM32WLxx_HAL_Driver/Inc/stm32wlxx_ll_rcc.h **** 
1466:Drivers/STM32WLxx_HAL_Driver/Inc/stm32wlxx_ll_rcc.h **** /**
1467:Drivers/STM32WLxx_HAL_Driver/Inc/stm32wlxx_ll_rcc.h ****   * @brief  Disable MSI-PLL mode
1468:Drivers/STM32WLxx_HAL_Driver/Inc/stm32wlxx_ll_rcc.h ****   * @note cleared by hardware when LSE is disabled (LSEON = 0) or when
ARM GAS  /var/folders/9y/n02fl3g16gnf7ppy14xghdy80000gn/T//cckWqezL.s 			page 33


1469:Drivers/STM32WLxx_HAL_Driver/Inc/stm32wlxx_ll_rcc.h ****   *       the Clock Security System on LSE detects a LSE failure
1470:Drivers/STM32WLxx_HAL_Driver/Inc/stm32wlxx_ll_rcc.h ****   * @rmtoll CR           MSIPLLEN      LL_RCC_MSI_DisablePLLMode
1471:Drivers/STM32WLxx_HAL_Driver/Inc/stm32wlxx_ll_rcc.h ****   * @retval None
1472:Drivers/STM32WLxx_HAL_Driver/Inc/stm32wlxx_ll_rcc.h ****   */
1473:Drivers/STM32WLxx_HAL_Driver/Inc/stm32wlxx_ll_rcc.h **** __STATIC_INLINE void LL_RCC_MSI_DisablePLLMode(void)
1474:Drivers/STM32WLxx_HAL_Driver/Inc/stm32wlxx_ll_rcc.h **** {
1475:Drivers/STM32WLxx_HAL_Driver/Inc/stm32wlxx_ll_rcc.h ****   CLEAR_BIT(RCC->CR, RCC_CR_MSIPLLEN);
1476:Drivers/STM32WLxx_HAL_Driver/Inc/stm32wlxx_ll_rcc.h **** }
1477:Drivers/STM32WLxx_HAL_Driver/Inc/stm32wlxx_ll_rcc.h **** 
1478:Drivers/STM32WLxx_HAL_Driver/Inc/stm32wlxx_ll_rcc.h **** /**
1479:Drivers/STM32WLxx_HAL_Driver/Inc/stm32wlxx_ll_rcc.h ****   * @brief  Enable MSI clock range selection with MSIRANGE register
1480:Drivers/STM32WLxx_HAL_Driver/Inc/stm32wlxx_ll_rcc.h ****   * @note Write 0 has no effect. After a standby or a reset
1481:Drivers/STM32WLxx_HAL_Driver/Inc/stm32wlxx_ll_rcc.h ****   *       MSIRGSEL is at 0 and the MSI range value is provided by
1482:Drivers/STM32WLxx_HAL_Driver/Inc/stm32wlxx_ll_rcc.h ****   *       MSISRANGE
1483:Drivers/STM32WLxx_HAL_Driver/Inc/stm32wlxx_ll_rcc.h ****   * @rmtoll CR           MSIRGSEL      LL_RCC_MSI_EnableRangeSelection
1484:Drivers/STM32WLxx_HAL_Driver/Inc/stm32wlxx_ll_rcc.h ****   * @retval None
1485:Drivers/STM32WLxx_HAL_Driver/Inc/stm32wlxx_ll_rcc.h ****   */
1486:Drivers/STM32WLxx_HAL_Driver/Inc/stm32wlxx_ll_rcc.h **** __STATIC_INLINE void LL_RCC_MSI_EnableRangeSelection(void)
1487:Drivers/STM32WLxx_HAL_Driver/Inc/stm32wlxx_ll_rcc.h **** {
1488:Drivers/STM32WLxx_HAL_Driver/Inc/stm32wlxx_ll_rcc.h ****   SET_BIT(RCC->CR, RCC_CR_MSIRGSEL);
1489:Drivers/STM32WLxx_HAL_Driver/Inc/stm32wlxx_ll_rcc.h **** }
1490:Drivers/STM32WLxx_HAL_Driver/Inc/stm32wlxx_ll_rcc.h **** 
1491:Drivers/STM32WLxx_HAL_Driver/Inc/stm32wlxx_ll_rcc.h **** /**
1492:Drivers/STM32WLxx_HAL_Driver/Inc/stm32wlxx_ll_rcc.h ****   * @brief  Check if MSI clock range is selected with MSIRANGE register
1493:Drivers/STM32WLxx_HAL_Driver/Inc/stm32wlxx_ll_rcc.h ****   * @rmtoll CR           MSIRGSEL      LL_RCC_MSI_IsEnabledRangeSelect
1494:Drivers/STM32WLxx_HAL_Driver/Inc/stm32wlxx_ll_rcc.h ****   * @retval State of bit (1 or 0).
1495:Drivers/STM32WLxx_HAL_Driver/Inc/stm32wlxx_ll_rcc.h ****   */
1496:Drivers/STM32WLxx_HAL_Driver/Inc/stm32wlxx_ll_rcc.h **** __STATIC_INLINE uint32_t LL_RCC_MSI_IsEnabledRangeSelect(void)
1497:Drivers/STM32WLxx_HAL_Driver/Inc/stm32wlxx_ll_rcc.h **** {
1498:Drivers/STM32WLxx_HAL_Driver/Inc/stm32wlxx_ll_rcc.h ****   return ((READ_BIT(RCC->CR, RCC_CR_MSIRGSEL) == (RCC_CR_MSIRGSEL)) ? 1UL : 0UL);
1499:Drivers/STM32WLxx_HAL_Driver/Inc/stm32wlxx_ll_rcc.h **** }
1500:Drivers/STM32WLxx_HAL_Driver/Inc/stm32wlxx_ll_rcc.h **** 
1501:Drivers/STM32WLxx_HAL_Driver/Inc/stm32wlxx_ll_rcc.h **** /**
1502:Drivers/STM32WLxx_HAL_Driver/Inc/stm32wlxx_ll_rcc.h ****   * @brief  Configure the Internal Multi Speed oscillator (MSI) clock range in run mode.
1503:Drivers/STM32WLxx_HAL_Driver/Inc/stm32wlxx_ll_rcc.h ****   * @rmtoll CR           MSIRANGE      LL_RCC_MSI_SetRange
1504:Drivers/STM32WLxx_HAL_Driver/Inc/stm32wlxx_ll_rcc.h ****   * @param  Range This parameter can be one of the following values:
1505:Drivers/STM32WLxx_HAL_Driver/Inc/stm32wlxx_ll_rcc.h ****   *         @arg @ref LL_RCC_MSIRANGE_0
1506:Drivers/STM32WLxx_HAL_Driver/Inc/stm32wlxx_ll_rcc.h ****   *         @arg @ref LL_RCC_MSIRANGE_1
1507:Drivers/STM32WLxx_HAL_Driver/Inc/stm32wlxx_ll_rcc.h ****   *         @arg @ref LL_RCC_MSIRANGE_2
1508:Drivers/STM32WLxx_HAL_Driver/Inc/stm32wlxx_ll_rcc.h ****   *         @arg @ref LL_RCC_MSIRANGE_3
1509:Drivers/STM32WLxx_HAL_Driver/Inc/stm32wlxx_ll_rcc.h ****   *         @arg @ref LL_RCC_MSIRANGE_4
1510:Drivers/STM32WLxx_HAL_Driver/Inc/stm32wlxx_ll_rcc.h ****   *         @arg @ref LL_RCC_MSIRANGE_5
1511:Drivers/STM32WLxx_HAL_Driver/Inc/stm32wlxx_ll_rcc.h ****   *         @arg @ref LL_RCC_MSIRANGE_6
1512:Drivers/STM32WLxx_HAL_Driver/Inc/stm32wlxx_ll_rcc.h ****   *         @arg @ref LL_RCC_MSIRANGE_7
1513:Drivers/STM32WLxx_HAL_Driver/Inc/stm32wlxx_ll_rcc.h ****   *         @arg @ref LL_RCC_MSIRANGE_8
1514:Drivers/STM32WLxx_HAL_Driver/Inc/stm32wlxx_ll_rcc.h ****   *         @arg @ref LL_RCC_MSIRANGE_9
1515:Drivers/STM32WLxx_HAL_Driver/Inc/stm32wlxx_ll_rcc.h ****   *         @arg @ref LL_RCC_MSIRANGE_10
1516:Drivers/STM32WLxx_HAL_Driver/Inc/stm32wlxx_ll_rcc.h ****   *         @arg @ref LL_RCC_MSIRANGE_11
1517:Drivers/STM32WLxx_HAL_Driver/Inc/stm32wlxx_ll_rcc.h ****   * @retval None
1518:Drivers/STM32WLxx_HAL_Driver/Inc/stm32wlxx_ll_rcc.h ****   */
1519:Drivers/STM32WLxx_HAL_Driver/Inc/stm32wlxx_ll_rcc.h **** __STATIC_INLINE void LL_RCC_MSI_SetRange(uint32_t Range)
1520:Drivers/STM32WLxx_HAL_Driver/Inc/stm32wlxx_ll_rcc.h **** {
1521:Drivers/STM32WLxx_HAL_Driver/Inc/stm32wlxx_ll_rcc.h ****   MODIFY_REG(RCC->CR, RCC_CR_MSIRANGE, Range);
1522:Drivers/STM32WLxx_HAL_Driver/Inc/stm32wlxx_ll_rcc.h **** }
1523:Drivers/STM32WLxx_HAL_Driver/Inc/stm32wlxx_ll_rcc.h **** 
1524:Drivers/STM32WLxx_HAL_Driver/Inc/stm32wlxx_ll_rcc.h **** /**
1525:Drivers/STM32WLxx_HAL_Driver/Inc/stm32wlxx_ll_rcc.h ****   * @brief  Get the Internal Multi Speed oscillator (MSI) clock range in run mode.
ARM GAS  /var/folders/9y/n02fl3g16gnf7ppy14xghdy80000gn/T//cckWqezL.s 			page 34


1526:Drivers/STM32WLxx_HAL_Driver/Inc/stm32wlxx_ll_rcc.h ****   * @rmtoll CR           MSIRANGE      LL_RCC_MSI_GetRange
1527:Drivers/STM32WLxx_HAL_Driver/Inc/stm32wlxx_ll_rcc.h ****   * @retval Returned value can be one of the following values:
1528:Drivers/STM32WLxx_HAL_Driver/Inc/stm32wlxx_ll_rcc.h ****   *         @arg @ref LL_RCC_MSIRANGE_0
1529:Drivers/STM32WLxx_HAL_Driver/Inc/stm32wlxx_ll_rcc.h ****   *         @arg @ref LL_RCC_MSIRANGE_1
1530:Drivers/STM32WLxx_HAL_Driver/Inc/stm32wlxx_ll_rcc.h ****   *         @arg @ref LL_RCC_MSIRANGE_2
1531:Drivers/STM32WLxx_HAL_Driver/Inc/stm32wlxx_ll_rcc.h ****   *         @arg @ref LL_RCC_MSIRANGE_3
1532:Drivers/STM32WLxx_HAL_Driver/Inc/stm32wlxx_ll_rcc.h ****   *         @arg @ref LL_RCC_MSIRANGE_4
1533:Drivers/STM32WLxx_HAL_Driver/Inc/stm32wlxx_ll_rcc.h ****   *         @arg @ref LL_RCC_MSIRANGE_5
1534:Drivers/STM32WLxx_HAL_Driver/Inc/stm32wlxx_ll_rcc.h ****   *         @arg @ref LL_RCC_MSIRANGE_6
1535:Drivers/STM32WLxx_HAL_Driver/Inc/stm32wlxx_ll_rcc.h ****   *         @arg @ref LL_RCC_MSIRANGE_7
1536:Drivers/STM32WLxx_HAL_Driver/Inc/stm32wlxx_ll_rcc.h ****   *         @arg @ref LL_RCC_MSIRANGE_8
1537:Drivers/STM32WLxx_HAL_Driver/Inc/stm32wlxx_ll_rcc.h ****   *         @arg @ref LL_RCC_MSIRANGE_9
1538:Drivers/STM32WLxx_HAL_Driver/Inc/stm32wlxx_ll_rcc.h ****   *         @arg @ref LL_RCC_MSIRANGE_10
1539:Drivers/STM32WLxx_HAL_Driver/Inc/stm32wlxx_ll_rcc.h ****   *         @arg @ref LL_RCC_MSIRANGE_11
1540:Drivers/STM32WLxx_HAL_Driver/Inc/stm32wlxx_ll_rcc.h ****   */
1541:Drivers/STM32WLxx_HAL_Driver/Inc/stm32wlxx_ll_rcc.h **** __STATIC_INLINE uint32_t LL_RCC_MSI_GetRange(void)
1542:Drivers/STM32WLxx_HAL_Driver/Inc/stm32wlxx_ll_rcc.h **** {
1543:Drivers/STM32WLxx_HAL_Driver/Inc/stm32wlxx_ll_rcc.h ****   return (uint32_t)(READ_BIT(RCC->CR, RCC_CR_MSIRANGE));
1544:Drivers/STM32WLxx_HAL_Driver/Inc/stm32wlxx_ll_rcc.h **** }
1545:Drivers/STM32WLxx_HAL_Driver/Inc/stm32wlxx_ll_rcc.h **** 
1546:Drivers/STM32WLxx_HAL_Driver/Inc/stm32wlxx_ll_rcc.h **** /**
1547:Drivers/STM32WLxx_HAL_Driver/Inc/stm32wlxx_ll_rcc.h ****   * @brief  Configure MSI range used after standby
1548:Drivers/STM32WLxx_HAL_Driver/Inc/stm32wlxx_ll_rcc.h ****   * @rmtoll CSR          MSISRANGE     LL_RCC_MSI_SetRangeAfterStandby
1549:Drivers/STM32WLxx_HAL_Driver/Inc/stm32wlxx_ll_rcc.h ****   * @param  Range This parameter can be one of the following values:
1550:Drivers/STM32WLxx_HAL_Driver/Inc/stm32wlxx_ll_rcc.h ****   *         @arg @ref LL_RCC_MSISRANGE_4
1551:Drivers/STM32WLxx_HAL_Driver/Inc/stm32wlxx_ll_rcc.h ****   *         @arg @ref LL_RCC_MSISRANGE_5
1552:Drivers/STM32WLxx_HAL_Driver/Inc/stm32wlxx_ll_rcc.h ****   *         @arg @ref LL_RCC_MSISRANGE_6
1553:Drivers/STM32WLxx_HAL_Driver/Inc/stm32wlxx_ll_rcc.h ****   *         @arg @ref LL_RCC_MSISRANGE_7
1554:Drivers/STM32WLxx_HAL_Driver/Inc/stm32wlxx_ll_rcc.h ****   * @retval None
1555:Drivers/STM32WLxx_HAL_Driver/Inc/stm32wlxx_ll_rcc.h ****   */
1556:Drivers/STM32WLxx_HAL_Driver/Inc/stm32wlxx_ll_rcc.h **** __STATIC_INLINE void LL_RCC_MSI_SetRangeAfterStandby(uint32_t Range)
1557:Drivers/STM32WLxx_HAL_Driver/Inc/stm32wlxx_ll_rcc.h **** {
1558:Drivers/STM32WLxx_HAL_Driver/Inc/stm32wlxx_ll_rcc.h ****   MODIFY_REG(RCC->CSR, RCC_CSR_MSISRANGE, Range);
1559:Drivers/STM32WLxx_HAL_Driver/Inc/stm32wlxx_ll_rcc.h **** }
1560:Drivers/STM32WLxx_HAL_Driver/Inc/stm32wlxx_ll_rcc.h **** 
1561:Drivers/STM32WLxx_HAL_Driver/Inc/stm32wlxx_ll_rcc.h **** /**
1562:Drivers/STM32WLxx_HAL_Driver/Inc/stm32wlxx_ll_rcc.h ****   * @brief  Get MSI range used after standby
1563:Drivers/STM32WLxx_HAL_Driver/Inc/stm32wlxx_ll_rcc.h ****   * @rmtoll CSR          MSISRANGE     LL_RCC_MSI_GetRangeAfterStandby
1564:Drivers/STM32WLxx_HAL_Driver/Inc/stm32wlxx_ll_rcc.h ****   * @retval Returned value can be one of the following values:
1565:Drivers/STM32WLxx_HAL_Driver/Inc/stm32wlxx_ll_rcc.h ****   *         @arg @ref LL_RCC_MSISRANGE_4
1566:Drivers/STM32WLxx_HAL_Driver/Inc/stm32wlxx_ll_rcc.h ****   *         @arg @ref LL_RCC_MSISRANGE_5
1567:Drivers/STM32WLxx_HAL_Driver/Inc/stm32wlxx_ll_rcc.h ****   *         @arg @ref LL_RCC_MSISRANGE_6
1568:Drivers/STM32WLxx_HAL_Driver/Inc/stm32wlxx_ll_rcc.h ****   *         @arg @ref LL_RCC_MSISRANGE_7
1569:Drivers/STM32WLxx_HAL_Driver/Inc/stm32wlxx_ll_rcc.h ****   */
1570:Drivers/STM32WLxx_HAL_Driver/Inc/stm32wlxx_ll_rcc.h **** __STATIC_INLINE uint32_t LL_RCC_MSI_GetRangeAfterStandby(void)
1571:Drivers/STM32WLxx_HAL_Driver/Inc/stm32wlxx_ll_rcc.h **** {
1572:Drivers/STM32WLxx_HAL_Driver/Inc/stm32wlxx_ll_rcc.h ****   return (uint32_t)(READ_BIT(RCC->CSR, RCC_CSR_MSISRANGE));
1573:Drivers/STM32WLxx_HAL_Driver/Inc/stm32wlxx_ll_rcc.h **** }
1574:Drivers/STM32WLxx_HAL_Driver/Inc/stm32wlxx_ll_rcc.h **** 
1575:Drivers/STM32WLxx_HAL_Driver/Inc/stm32wlxx_ll_rcc.h **** /**
1576:Drivers/STM32WLxx_HAL_Driver/Inc/stm32wlxx_ll_rcc.h ****   * @brief  Get MSI Calibration value
1577:Drivers/STM32WLxx_HAL_Driver/Inc/stm32wlxx_ll_rcc.h ****   * @note When MSITRIM is written, MSICAL is updated with the sum of
1578:Drivers/STM32WLxx_HAL_Driver/Inc/stm32wlxx_ll_rcc.h ****   *       MSITRIM and the factory trim value
1579:Drivers/STM32WLxx_HAL_Driver/Inc/stm32wlxx_ll_rcc.h ****   * @rmtoll ICSCR        MSICAL        LL_RCC_MSI_GetCalibration
1580:Drivers/STM32WLxx_HAL_Driver/Inc/stm32wlxx_ll_rcc.h ****   * @retval Between Min_Data = 0 and Max_Data = 255
1581:Drivers/STM32WLxx_HAL_Driver/Inc/stm32wlxx_ll_rcc.h ****   */
1582:Drivers/STM32WLxx_HAL_Driver/Inc/stm32wlxx_ll_rcc.h **** __STATIC_INLINE uint32_t LL_RCC_MSI_GetCalibration(void)
ARM GAS  /var/folders/9y/n02fl3g16gnf7ppy14xghdy80000gn/T//cckWqezL.s 			page 35


1583:Drivers/STM32WLxx_HAL_Driver/Inc/stm32wlxx_ll_rcc.h **** {
1584:Drivers/STM32WLxx_HAL_Driver/Inc/stm32wlxx_ll_rcc.h ****   return (uint32_t)(READ_BIT(RCC->ICSCR, RCC_ICSCR_MSICAL) >> RCC_ICSCR_MSICAL_Pos);
1585:Drivers/STM32WLxx_HAL_Driver/Inc/stm32wlxx_ll_rcc.h **** }
1586:Drivers/STM32WLxx_HAL_Driver/Inc/stm32wlxx_ll_rcc.h **** 
1587:Drivers/STM32WLxx_HAL_Driver/Inc/stm32wlxx_ll_rcc.h **** /**
1588:Drivers/STM32WLxx_HAL_Driver/Inc/stm32wlxx_ll_rcc.h ****   * @brief  Set MSI Calibration trimming
1589:Drivers/STM32WLxx_HAL_Driver/Inc/stm32wlxx_ll_rcc.h ****   * @note user-programmable trimming value that is added to the MSICAL
1590:Drivers/STM32WLxx_HAL_Driver/Inc/stm32wlxx_ll_rcc.h ****   * @rmtoll ICSCR        MSITRIM       LL_RCC_MSI_SetCalibTrimming
1591:Drivers/STM32WLxx_HAL_Driver/Inc/stm32wlxx_ll_rcc.h ****   * @param  Value Between Min_Data = 0 and Max_Data = 255
1592:Drivers/STM32WLxx_HAL_Driver/Inc/stm32wlxx_ll_rcc.h ****   * @retval None
1593:Drivers/STM32WLxx_HAL_Driver/Inc/stm32wlxx_ll_rcc.h ****   */
1594:Drivers/STM32WLxx_HAL_Driver/Inc/stm32wlxx_ll_rcc.h **** __STATIC_INLINE void LL_RCC_MSI_SetCalibTrimming(uint32_t Value)
1595:Drivers/STM32WLxx_HAL_Driver/Inc/stm32wlxx_ll_rcc.h **** {
1596:Drivers/STM32WLxx_HAL_Driver/Inc/stm32wlxx_ll_rcc.h ****   MODIFY_REG(RCC->ICSCR, RCC_ICSCR_MSITRIM, Value << RCC_ICSCR_MSITRIM_Pos);
1597:Drivers/STM32WLxx_HAL_Driver/Inc/stm32wlxx_ll_rcc.h **** }
1598:Drivers/STM32WLxx_HAL_Driver/Inc/stm32wlxx_ll_rcc.h **** 
1599:Drivers/STM32WLxx_HAL_Driver/Inc/stm32wlxx_ll_rcc.h **** /**
1600:Drivers/STM32WLxx_HAL_Driver/Inc/stm32wlxx_ll_rcc.h ****   * @brief  Get MSI Calibration trimming
1601:Drivers/STM32WLxx_HAL_Driver/Inc/stm32wlxx_ll_rcc.h ****   * @rmtoll ICSCR        MSITRIM       LL_RCC_MSI_GetCalibTrimming
1602:Drivers/STM32WLxx_HAL_Driver/Inc/stm32wlxx_ll_rcc.h ****   * @retval Between 0 and 255
1603:Drivers/STM32WLxx_HAL_Driver/Inc/stm32wlxx_ll_rcc.h ****   */
1604:Drivers/STM32WLxx_HAL_Driver/Inc/stm32wlxx_ll_rcc.h **** __STATIC_INLINE uint32_t LL_RCC_MSI_GetCalibTrimming(void)
1605:Drivers/STM32WLxx_HAL_Driver/Inc/stm32wlxx_ll_rcc.h **** {
1606:Drivers/STM32WLxx_HAL_Driver/Inc/stm32wlxx_ll_rcc.h ****   return (uint32_t)(READ_BIT(RCC->ICSCR, RCC_ICSCR_MSITRIM) >> RCC_ICSCR_MSITRIM_Pos);
1607:Drivers/STM32WLxx_HAL_Driver/Inc/stm32wlxx_ll_rcc.h **** }
1608:Drivers/STM32WLxx_HAL_Driver/Inc/stm32wlxx_ll_rcc.h **** 
1609:Drivers/STM32WLxx_HAL_Driver/Inc/stm32wlxx_ll_rcc.h **** /**
1610:Drivers/STM32WLxx_HAL_Driver/Inc/stm32wlxx_ll_rcc.h ****   * @}
1611:Drivers/STM32WLxx_HAL_Driver/Inc/stm32wlxx_ll_rcc.h ****   */
1612:Drivers/STM32WLxx_HAL_Driver/Inc/stm32wlxx_ll_rcc.h **** 
1613:Drivers/STM32WLxx_HAL_Driver/Inc/stm32wlxx_ll_rcc.h **** /** @defgroup RCC_LL_EF_LSCO LSCO
1614:Drivers/STM32WLxx_HAL_Driver/Inc/stm32wlxx_ll_rcc.h ****   * @{
1615:Drivers/STM32WLxx_HAL_Driver/Inc/stm32wlxx_ll_rcc.h ****   */
1616:Drivers/STM32WLxx_HAL_Driver/Inc/stm32wlxx_ll_rcc.h **** 
1617:Drivers/STM32WLxx_HAL_Driver/Inc/stm32wlxx_ll_rcc.h **** /**
1618:Drivers/STM32WLxx_HAL_Driver/Inc/stm32wlxx_ll_rcc.h ****   * @brief  Enable Low speed clock
1619:Drivers/STM32WLxx_HAL_Driver/Inc/stm32wlxx_ll_rcc.h ****   * @rmtoll BDCR         LSCOEN        LL_RCC_LSCO_Enable
1620:Drivers/STM32WLxx_HAL_Driver/Inc/stm32wlxx_ll_rcc.h ****   * @retval None
1621:Drivers/STM32WLxx_HAL_Driver/Inc/stm32wlxx_ll_rcc.h ****   */
1622:Drivers/STM32WLxx_HAL_Driver/Inc/stm32wlxx_ll_rcc.h **** __STATIC_INLINE void LL_RCC_LSCO_Enable(void)
1623:Drivers/STM32WLxx_HAL_Driver/Inc/stm32wlxx_ll_rcc.h **** {
1624:Drivers/STM32WLxx_HAL_Driver/Inc/stm32wlxx_ll_rcc.h ****   SET_BIT(RCC->BDCR, RCC_BDCR_LSCOEN);
1625:Drivers/STM32WLxx_HAL_Driver/Inc/stm32wlxx_ll_rcc.h **** }
1626:Drivers/STM32WLxx_HAL_Driver/Inc/stm32wlxx_ll_rcc.h **** 
1627:Drivers/STM32WLxx_HAL_Driver/Inc/stm32wlxx_ll_rcc.h **** /**
1628:Drivers/STM32WLxx_HAL_Driver/Inc/stm32wlxx_ll_rcc.h ****   * @brief  Disable Low speed clock
1629:Drivers/STM32WLxx_HAL_Driver/Inc/stm32wlxx_ll_rcc.h ****   * @rmtoll BDCR         LSCOEN        LL_RCC_LSCO_Disable
1630:Drivers/STM32WLxx_HAL_Driver/Inc/stm32wlxx_ll_rcc.h ****   * @retval None
1631:Drivers/STM32WLxx_HAL_Driver/Inc/stm32wlxx_ll_rcc.h ****   */
1632:Drivers/STM32WLxx_HAL_Driver/Inc/stm32wlxx_ll_rcc.h **** __STATIC_INLINE void LL_RCC_LSCO_Disable(void)
1633:Drivers/STM32WLxx_HAL_Driver/Inc/stm32wlxx_ll_rcc.h **** {
1634:Drivers/STM32WLxx_HAL_Driver/Inc/stm32wlxx_ll_rcc.h ****   CLEAR_BIT(RCC->BDCR, RCC_BDCR_LSCOEN);
1635:Drivers/STM32WLxx_HAL_Driver/Inc/stm32wlxx_ll_rcc.h **** }
1636:Drivers/STM32WLxx_HAL_Driver/Inc/stm32wlxx_ll_rcc.h **** 
1637:Drivers/STM32WLxx_HAL_Driver/Inc/stm32wlxx_ll_rcc.h **** /**
1638:Drivers/STM32WLxx_HAL_Driver/Inc/stm32wlxx_ll_rcc.h ****   * @brief  Configure Low speed clock selection
1639:Drivers/STM32WLxx_HAL_Driver/Inc/stm32wlxx_ll_rcc.h ****   * @rmtoll BDCR         LSCOSEL       LL_RCC_LSCO_SetSource
ARM GAS  /var/folders/9y/n02fl3g16gnf7ppy14xghdy80000gn/T//cckWqezL.s 			page 36


1640:Drivers/STM32WLxx_HAL_Driver/Inc/stm32wlxx_ll_rcc.h ****   * @param  Source This parameter can be one of the following values:
1641:Drivers/STM32WLxx_HAL_Driver/Inc/stm32wlxx_ll_rcc.h ****   *         @arg @ref LL_RCC_LSCO_CLKSOURCE_LSI
1642:Drivers/STM32WLxx_HAL_Driver/Inc/stm32wlxx_ll_rcc.h ****   *         @arg @ref LL_RCC_LSCO_CLKSOURCE_LSE
1643:Drivers/STM32WLxx_HAL_Driver/Inc/stm32wlxx_ll_rcc.h ****   * @retval None
1644:Drivers/STM32WLxx_HAL_Driver/Inc/stm32wlxx_ll_rcc.h ****   */
1645:Drivers/STM32WLxx_HAL_Driver/Inc/stm32wlxx_ll_rcc.h **** __STATIC_INLINE void LL_RCC_LSCO_SetSource(uint32_t Source)
1646:Drivers/STM32WLxx_HAL_Driver/Inc/stm32wlxx_ll_rcc.h **** {
1647:Drivers/STM32WLxx_HAL_Driver/Inc/stm32wlxx_ll_rcc.h ****   MODIFY_REG(RCC->BDCR, RCC_BDCR_LSCOSEL, Source);
1648:Drivers/STM32WLxx_HAL_Driver/Inc/stm32wlxx_ll_rcc.h **** }
1649:Drivers/STM32WLxx_HAL_Driver/Inc/stm32wlxx_ll_rcc.h **** 
1650:Drivers/STM32WLxx_HAL_Driver/Inc/stm32wlxx_ll_rcc.h **** /**
1651:Drivers/STM32WLxx_HAL_Driver/Inc/stm32wlxx_ll_rcc.h ****   * @brief  Get Low speed clock selection
1652:Drivers/STM32WLxx_HAL_Driver/Inc/stm32wlxx_ll_rcc.h ****   * @rmtoll BDCR         LSCOSEL       LL_RCC_LSCO_GetSource
1653:Drivers/STM32WLxx_HAL_Driver/Inc/stm32wlxx_ll_rcc.h ****   * @retval Returned value can be one of the following values:
1654:Drivers/STM32WLxx_HAL_Driver/Inc/stm32wlxx_ll_rcc.h ****   *         @arg @ref LL_RCC_LSCO_CLKSOURCE_LSI
1655:Drivers/STM32WLxx_HAL_Driver/Inc/stm32wlxx_ll_rcc.h ****   *         @arg @ref LL_RCC_LSCO_CLKSOURCE_LSE
1656:Drivers/STM32WLxx_HAL_Driver/Inc/stm32wlxx_ll_rcc.h ****   */
1657:Drivers/STM32WLxx_HAL_Driver/Inc/stm32wlxx_ll_rcc.h **** __STATIC_INLINE uint32_t LL_RCC_LSCO_GetSource(void)
1658:Drivers/STM32WLxx_HAL_Driver/Inc/stm32wlxx_ll_rcc.h **** {
1659:Drivers/STM32WLxx_HAL_Driver/Inc/stm32wlxx_ll_rcc.h ****   return (uint32_t)(READ_BIT(RCC->BDCR, RCC_BDCR_LSCOSEL));
1660:Drivers/STM32WLxx_HAL_Driver/Inc/stm32wlxx_ll_rcc.h **** }
1661:Drivers/STM32WLxx_HAL_Driver/Inc/stm32wlxx_ll_rcc.h **** 
1662:Drivers/STM32WLxx_HAL_Driver/Inc/stm32wlxx_ll_rcc.h **** /**
1663:Drivers/STM32WLxx_HAL_Driver/Inc/stm32wlxx_ll_rcc.h ****   * @}
1664:Drivers/STM32WLxx_HAL_Driver/Inc/stm32wlxx_ll_rcc.h ****   */
1665:Drivers/STM32WLxx_HAL_Driver/Inc/stm32wlxx_ll_rcc.h **** 
1666:Drivers/STM32WLxx_HAL_Driver/Inc/stm32wlxx_ll_rcc.h **** /** @defgroup RCC_LL_EF_RF RF
1667:Drivers/STM32WLxx_HAL_Driver/Inc/stm32wlxx_ll_rcc.h ****   * @{
1668:Drivers/STM32WLxx_HAL_Driver/Inc/stm32wlxx_ll_rcc.h ****   */
1669:Drivers/STM32WLxx_HAL_Driver/Inc/stm32wlxx_ll_rcc.h **** 
1670:Drivers/STM32WLxx_HAL_Driver/Inc/stm32wlxx_ll_rcc.h **** /**
1671:Drivers/STM32WLxx_HAL_Driver/Inc/stm32wlxx_ll_rcc.h ****   * @brief  Enable radio reset
1672:Drivers/STM32WLxx_HAL_Driver/Inc/stm32wlxx_ll_rcc.h ****   * @rmtoll CSR           RFRST        LL_RCC_RF_EnableReset
1673:Drivers/STM32WLxx_HAL_Driver/Inc/stm32wlxx_ll_rcc.h ****   * @retval None
1674:Drivers/STM32WLxx_HAL_Driver/Inc/stm32wlxx_ll_rcc.h ****   */
1675:Drivers/STM32WLxx_HAL_Driver/Inc/stm32wlxx_ll_rcc.h **** __STATIC_INLINE void LL_RCC_RF_EnableReset(void)
1676:Drivers/STM32WLxx_HAL_Driver/Inc/stm32wlxx_ll_rcc.h **** {
1677:Drivers/STM32WLxx_HAL_Driver/Inc/stm32wlxx_ll_rcc.h ****   SET_BIT(RCC->CSR, RCC_CSR_RFRST);
1678:Drivers/STM32WLxx_HAL_Driver/Inc/stm32wlxx_ll_rcc.h **** }
1679:Drivers/STM32WLxx_HAL_Driver/Inc/stm32wlxx_ll_rcc.h **** 
1680:Drivers/STM32WLxx_HAL_Driver/Inc/stm32wlxx_ll_rcc.h **** /**
1681:Drivers/STM32WLxx_HAL_Driver/Inc/stm32wlxx_ll_rcc.h ****   * @brief  Disable radio reset
1682:Drivers/STM32WLxx_HAL_Driver/Inc/stm32wlxx_ll_rcc.h ****   * @rmtoll CSR           RFRST        LL_RCC_RF_DisableReset
1683:Drivers/STM32WLxx_HAL_Driver/Inc/stm32wlxx_ll_rcc.h ****   * @retval None
1684:Drivers/STM32WLxx_HAL_Driver/Inc/stm32wlxx_ll_rcc.h ****   */
1685:Drivers/STM32WLxx_HAL_Driver/Inc/stm32wlxx_ll_rcc.h **** __STATIC_INLINE void LL_RCC_RF_DisableReset(void)
1686:Drivers/STM32WLxx_HAL_Driver/Inc/stm32wlxx_ll_rcc.h **** {
1687:Drivers/STM32WLxx_HAL_Driver/Inc/stm32wlxx_ll_rcc.h ****   CLEAR_BIT(RCC->CSR, RCC_CSR_RFRST);
1688:Drivers/STM32WLxx_HAL_Driver/Inc/stm32wlxx_ll_rcc.h **** }
1689:Drivers/STM32WLxx_HAL_Driver/Inc/stm32wlxx_ll_rcc.h **** 
1690:Drivers/STM32WLxx_HAL_Driver/Inc/stm32wlxx_ll_rcc.h **** /**
1691:Drivers/STM32WLxx_HAL_Driver/Inc/stm32wlxx_ll_rcc.h ****   * @brief  Get radio reset
1692:Drivers/STM32WLxx_HAL_Driver/Inc/stm32wlxx_ll_rcc.h ****   * @rmtoll CSR           RFRST        LL_RCC_RF_IsEnabledReset
1693:Drivers/STM32WLxx_HAL_Driver/Inc/stm32wlxx_ll_rcc.h ****   * @retval None
1694:Drivers/STM32WLxx_HAL_Driver/Inc/stm32wlxx_ll_rcc.h ****   */
1695:Drivers/STM32WLxx_HAL_Driver/Inc/stm32wlxx_ll_rcc.h **** __STATIC_INLINE uint32_t LL_RCC_RF_IsEnabledReset(void)
1696:Drivers/STM32WLxx_HAL_Driver/Inc/stm32wlxx_ll_rcc.h **** {
ARM GAS  /var/folders/9y/n02fl3g16gnf7ppy14xghdy80000gn/T//cckWqezL.s 			page 37


1697:Drivers/STM32WLxx_HAL_Driver/Inc/stm32wlxx_ll_rcc.h ****   return ((READ_BIT(RCC->CSR, RCC_CSR_RFRST) == (RCC_CSR_RFRST)) ? 1UL : 0UL);
1698:Drivers/STM32WLxx_HAL_Driver/Inc/stm32wlxx_ll_rcc.h **** }
1699:Drivers/STM32WLxx_HAL_Driver/Inc/stm32wlxx_ll_rcc.h **** 
1700:Drivers/STM32WLxx_HAL_Driver/Inc/stm32wlxx_ll_rcc.h **** /**
1701:Drivers/STM32WLxx_HAL_Driver/Inc/stm32wlxx_ll_rcc.h ****   * @brief  Check if RCC flag Radio in reset is set or not.
1702:Drivers/STM32WLxx_HAL_Driver/Inc/stm32wlxx_ll_rcc.h ****   * @rmtoll CSR          RFRSTF      LL_RCC_IsRFUnderReset
1703:Drivers/STM32WLxx_HAL_Driver/Inc/stm32wlxx_ll_rcc.h ****   * @retval State of bit (1 or 0).
1704:Drivers/STM32WLxx_HAL_Driver/Inc/stm32wlxx_ll_rcc.h ****   */
1705:Drivers/STM32WLxx_HAL_Driver/Inc/stm32wlxx_ll_rcc.h **** __STATIC_INLINE uint32_t LL_RCC_IsRFUnderReset(void)
1706:Drivers/STM32WLxx_HAL_Driver/Inc/stm32wlxx_ll_rcc.h **** {
1707:Drivers/STM32WLxx_HAL_Driver/Inc/stm32wlxx_ll_rcc.h ****   return ((READ_BIT(RCC->CSR, RCC_CSR_RFRSTF) == (RCC_CSR_RFRSTF)) ? 1UL : 0UL);
1708:Drivers/STM32WLxx_HAL_Driver/Inc/stm32wlxx_ll_rcc.h **** }
1709:Drivers/STM32WLxx_HAL_Driver/Inc/stm32wlxx_ll_rcc.h **** 
1710:Drivers/STM32WLxx_HAL_Driver/Inc/stm32wlxx_ll_rcc.h **** 
1711:Drivers/STM32WLxx_HAL_Driver/Inc/stm32wlxx_ll_rcc.h **** /**
1712:Drivers/STM32WLxx_HAL_Driver/Inc/stm32wlxx_ll_rcc.h ****   * @}
1713:Drivers/STM32WLxx_HAL_Driver/Inc/stm32wlxx_ll_rcc.h ****   */
1714:Drivers/STM32WLxx_HAL_Driver/Inc/stm32wlxx_ll_rcc.h **** 
1715:Drivers/STM32WLxx_HAL_Driver/Inc/stm32wlxx_ll_rcc.h **** 
1716:Drivers/STM32WLxx_HAL_Driver/Inc/stm32wlxx_ll_rcc.h **** /** @defgroup RCC_LL_EF_System System
1717:Drivers/STM32WLxx_HAL_Driver/Inc/stm32wlxx_ll_rcc.h ****   * @{
1718:Drivers/STM32WLxx_HAL_Driver/Inc/stm32wlxx_ll_rcc.h ****   */
1719:Drivers/STM32WLxx_HAL_Driver/Inc/stm32wlxx_ll_rcc.h **** 
1720:Drivers/STM32WLxx_HAL_Driver/Inc/stm32wlxx_ll_rcc.h **** /**
1721:Drivers/STM32WLxx_HAL_Driver/Inc/stm32wlxx_ll_rcc.h ****   * @brief  Configure the system clock source
1722:Drivers/STM32WLxx_HAL_Driver/Inc/stm32wlxx_ll_rcc.h ****   * @rmtoll CFGR         SW            LL_RCC_SetSysClkSource
1723:Drivers/STM32WLxx_HAL_Driver/Inc/stm32wlxx_ll_rcc.h ****   * @param  Source This parameter can be one of the following values:
1724:Drivers/STM32WLxx_HAL_Driver/Inc/stm32wlxx_ll_rcc.h ****   *         @arg @ref LL_RCC_SYS_CLKSOURCE_MSI
1725:Drivers/STM32WLxx_HAL_Driver/Inc/stm32wlxx_ll_rcc.h ****   *         @arg @ref LL_RCC_SYS_CLKSOURCE_HSI
1726:Drivers/STM32WLxx_HAL_Driver/Inc/stm32wlxx_ll_rcc.h ****   *         @arg @ref LL_RCC_SYS_CLKSOURCE_HSE
1727:Drivers/STM32WLxx_HAL_Driver/Inc/stm32wlxx_ll_rcc.h ****   *         @arg @ref LL_RCC_SYS_CLKSOURCE_PLL
1728:Drivers/STM32WLxx_HAL_Driver/Inc/stm32wlxx_ll_rcc.h ****   * @retval None
1729:Drivers/STM32WLxx_HAL_Driver/Inc/stm32wlxx_ll_rcc.h ****   */
1730:Drivers/STM32WLxx_HAL_Driver/Inc/stm32wlxx_ll_rcc.h **** __STATIC_INLINE void LL_RCC_SetSysClkSource(uint32_t Source)
1731:Drivers/STM32WLxx_HAL_Driver/Inc/stm32wlxx_ll_rcc.h **** {
1732:Drivers/STM32WLxx_HAL_Driver/Inc/stm32wlxx_ll_rcc.h ****   MODIFY_REG(RCC->CFGR, RCC_CFGR_SW, Source);
1733:Drivers/STM32WLxx_HAL_Driver/Inc/stm32wlxx_ll_rcc.h **** }
1734:Drivers/STM32WLxx_HAL_Driver/Inc/stm32wlxx_ll_rcc.h **** 
1735:Drivers/STM32WLxx_HAL_Driver/Inc/stm32wlxx_ll_rcc.h **** /**
1736:Drivers/STM32WLxx_HAL_Driver/Inc/stm32wlxx_ll_rcc.h ****   * @brief  Get the system clock source
1737:Drivers/STM32WLxx_HAL_Driver/Inc/stm32wlxx_ll_rcc.h ****   * @rmtoll CFGR         SWS           LL_RCC_GetSysClkSource
1738:Drivers/STM32WLxx_HAL_Driver/Inc/stm32wlxx_ll_rcc.h ****   * @retval Returned value can be one of the following values:
1739:Drivers/STM32WLxx_HAL_Driver/Inc/stm32wlxx_ll_rcc.h ****   *         @arg @ref LL_RCC_SYS_CLKSOURCE_STATUS_MSI
1740:Drivers/STM32WLxx_HAL_Driver/Inc/stm32wlxx_ll_rcc.h ****   *         @arg @ref LL_RCC_SYS_CLKSOURCE_STATUS_HSI
1741:Drivers/STM32WLxx_HAL_Driver/Inc/stm32wlxx_ll_rcc.h ****   *         @arg @ref LL_RCC_SYS_CLKSOURCE_STATUS_HSE
1742:Drivers/STM32WLxx_HAL_Driver/Inc/stm32wlxx_ll_rcc.h ****   *         @arg @ref LL_RCC_SYS_CLKSOURCE_STATUS_PLL
1743:Drivers/STM32WLxx_HAL_Driver/Inc/stm32wlxx_ll_rcc.h ****   */
1744:Drivers/STM32WLxx_HAL_Driver/Inc/stm32wlxx_ll_rcc.h **** __STATIC_INLINE uint32_t LL_RCC_GetSysClkSource(void)
1745:Drivers/STM32WLxx_HAL_Driver/Inc/stm32wlxx_ll_rcc.h **** {
1746:Drivers/STM32WLxx_HAL_Driver/Inc/stm32wlxx_ll_rcc.h ****   return (uint32_t)(READ_BIT(RCC->CFGR, RCC_CFGR_SWS));
1747:Drivers/STM32WLxx_HAL_Driver/Inc/stm32wlxx_ll_rcc.h **** }
1748:Drivers/STM32WLxx_HAL_Driver/Inc/stm32wlxx_ll_rcc.h **** 
1749:Drivers/STM32WLxx_HAL_Driver/Inc/stm32wlxx_ll_rcc.h **** 
1750:Drivers/STM32WLxx_HAL_Driver/Inc/stm32wlxx_ll_rcc.h **** /**
1751:Drivers/STM32WLxx_HAL_Driver/Inc/stm32wlxx_ll_rcc.h ****   * @brief  Set AHB prescaler
1752:Drivers/STM32WLxx_HAL_Driver/Inc/stm32wlxx_ll_rcc.h ****   * @rmtoll CFGR         HPRE          LL_RCC_SetAHBPrescaler
1753:Drivers/STM32WLxx_HAL_Driver/Inc/stm32wlxx_ll_rcc.h ****   * @param  Prescaler This parameter can be one of the following values:
ARM GAS  /var/folders/9y/n02fl3g16gnf7ppy14xghdy80000gn/T//cckWqezL.s 			page 38


1754:Drivers/STM32WLxx_HAL_Driver/Inc/stm32wlxx_ll_rcc.h ****   *         @arg @ref LL_RCC_SYSCLK_DIV_1
1755:Drivers/STM32WLxx_HAL_Driver/Inc/stm32wlxx_ll_rcc.h ****   *         @arg @ref LL_RCC_SYSCLK_DIV_2
1756:Drivers/STM32WLxx_HAL_Driver/Inc/stm32wlxx_ll_rcc.h ****   *         @arg @ref LL_RCC_SYSCLK_DIV_3
1757:Drivers/STM32WLxx_HAL_Driver/Inc/stm32wlxx_ll_rcc.h ****   *         @arg @ref LL_RCC_SYSCLK_DIV_4
1758:Drivers/STM32WLxx_HAL_Driver/Inc/stm32wlxx_ll_rcc.h ****   *         @arg @ref LL_RCC_SYSCLK_DIV_5
1759:Drivers/STM32WLxx_HAL_Driver/Inc/stm32wlxx_ll_rcc.h ****   *         @arg @ref LL_RCC_SYSCLK_DIV_6
1760:Drivers/STM32WLxx_HAL_Driver/Inc/stm32wlxx_ll_rcc.h ****   *         @arg @ref LL_RCC_SYSCLK_DIV_8
1761:Drivers/STM32WLxx_HAL_Driver/Inc/stm32wlxx_ll_rcc.h ****   *         @arg @ref LL_RCC_SYSCLK_DIV_10
1762:Drivers/STM32WLxx_HAL_Driver/Inc/stm32wlxx_ll_rcc.h ****   *         @arg @ref LL_RCC_SYSCLK_DIV_16
1763:Drivers/STM32WLxx_HAL_Driver/Inc/stm32wlxx_ll_rcc.h ****   *         @arg @ref LL_RCC_SYSCLK_DIV_32
1764:Drivers/STM32WLxx_HAL_Driver/Inc/stm32wlxx_ll_rcc.h ****   *         @arg @ref LL_RCC_SYSCLK_DIV_64
1765:Drivers/STM32WLxx_HAL_Driver/Inc/stm32wlxx_ll_rcc.h ****   *         @arg @ref LL_RCC_SYSCLK_DIV_128
1766:Drivers/STM32WLxx_HAL_Driver/Inc/stm32wlxx_ll_rcc.h ****   *         @arg @ref LL_RCC_SYSCLK_DIV_256
1767:Drivers/STM32WLxx_HAL_Driver/Inc/stm32wlxx_ll_rcc.h ****   *         @arg @ref LL_RCC_SYSCLK_DIV_512
1768:Drivers/STM32WLxx_HAL_Driver/Inc/stm32wlxx_ll_rcc.h ****   * @retval None
1769:Drivers/STM32WLxx_HAL_Driver/Inc/stm32wlxx_ll_rcc.h ****   */
1770:Drivers/STM32WLxx_HAL_Driver/Inc/stm32wlxx_ll_rcc.h **** __STATIC_INLINE void LL_RCC_SetAHBPrescaler(uint32_t Prescaler)
1771:Drivers/STM32WLxx_HAL_Driver/Inc/stm32wlxx_ll_rcc.h **** {
1772:Drivers/STM32WLxx_HAL_Driver/Inc/stm32wlxx_ll_rcc.h ****   MODIFY_REG(RCC->CFGR, RCC_CFGR_HPRE, Prescaler);
1773:Drivers/STM32WLxx_HAL_Driver/Inc/stm32wlxx_ll_rcc.h **** }
1774:Drivers/STM32WLxx_HAL_Driver/Inc/stm32wlxx_ll_rcc.h **** 
1775:Drivers/STM32WLxx_HAL_Driver/Inc/stm32wlxx_ll_rcc.h **** #if defined(DUAL_CORE)
1776:Drivers/STM32WLxx_HAL_Driver/Inc/stm32wlxx_ll_rcc.h **** /**
1777:Drivers/STM32WLxx_HAL_Driver/Inc/stm32wlxx_ll_rcc.h ****   * @brief  Set CPU2 AHB prescaler
1778:Drivers/STM32WLxx_HAL_Driver/Inc/stm32wlxx_ll_rcc.h ****   * @rmtoll EXTCFGR         C2HPRE          LL_C2_RCC_SetAHBPrescaler
1779:Drivers/STM32WLxx_HAL_Driver/Inc/stm32wlxx_ll_rcc.h ****   * @param  Prescaler This parameter can be one of the following values:
1780:Drivers/STM32WLxx_HAL_Driver/Inc/stm32wlxx_ll_rcc.h ****   *         @arg @ref LL_RCC_SYSCLK_DIV_1
1781:Drivers/STM32WLxx_HAL_Driver/Inc/stm32wlxx_ll_rcc.h ****   *         @arg @ref LL_RCC_SYSCLK_DIV_2
1782:Drivers/STM32WLxx_HAL_Driver/Inc/stm32wlxx_ll_rcc.h ****   *         @arg @ref LL_RCC_SYSCLK_DIV_3
1783:Drivers/STM32WLxx_HAL_Driver/Inc/stm32wlxx_ll_rcc.h ****   *         @arg @ref LL_RCC_SYSCLK_DIV_4
1784:Drivers/STM32WLxx_HAL_Driver/Inc/stm32wlxx_ll_rcc.h ****   *         @arg @ref LL_RCC_SYSCLK_DIV_5
1785:Drivers/STM32WLxx_HAL_Driver/Inc/stm32wlxx_ll_rcc.h ****   *         @arg @ref LL_RCC_SYSCLK_DIV_6
1786:Drivers/STM32WLxx_HAL_Driver/Inc/stm32wlxx_ll_rcc.h ****   *         @arg @ref LL_RCC_SYSCLK_DIV_8
1787:Drivers/STM32WLxx_HAL_Driver/Inc/stm32wlxx_ll_rcc.h ****   *         @arg @ref LL_RCC_SYSCLK_DIV_10
1788:Drivers/STM32WLxx_HAL_Driver/Inc/stm32wlxx_ll_rcc.h ****   *         @arg @ref LL_RCC_SYSCLK_DIV_16
1789:Drivers/STM32WLxx_HAL_Driver/Inc/stm32wlxx_ll_rcc.h ****   *         @arg @ref LL_RCC_SYSCLK_DIV_32
1790:Drivers/STM32WLxx_HAL_Driver/Inc/stm32wlxx_ll_rcc.h ****   *         @arg @ref LL_RCC_SYSCLK_DIV_64
1791:Drivers/STM32WLxx_HAL_Driver/Inc/stm32wlxx_ll_rcc.h ****   *         @arg @ref LL_RCC_SYSCLK_DIV_128
1792:Drivers/STM32WLxx_HAL_Driver/Inc/stm32wlxx_ll_rcc.h ****   *         @arg @ref LL_RCC_SYSCLK_DIV_256
1793:Drivers/STM32WLxx_HAL_Driver/Inc/stm32wlxx_ll_rcc.h ****   *         @arg @ref LL_RCC_SYSCLK_DIV_512
1794:Drivers/STM32WLxx_HAL_Driver/Inc/stm32wlxx_ll_rcc.h ****   * @retval None
1795:Drivers/STM32WLxx_HAL_Driver/Inc/stm32wlxx_ll_rcc.h ****   */
1796:Drivers/STM32WLxx_HAL_Driver/Inc/stm32wlxx_ll_rcc.h **** __STATIC_INLINE void LL_C2_RCC_SetAHBPrescaler(uint32_t Prescaler)
1797:Drivers/STM32WLxx_HAL_Driver/Inc/stm32wlxx_ll_rcc.h **** {
1798:Drivers/STM32WLxx_HAL_Driver/Inc/stm32wlxx_ll_rcc.h ****   MODIFY_REG(RCC->EXTCFGR, RCC_EXTCFGR_C2HPRE, Prescaler);
1799:Drivers/STM32WLxx_HAL_Driver/Inc/stm32wlxx_ll_rcc.h **** }
1800:Drivers/STM32WLxx_HAL_Driver/Inc/stm32wlxx_ll_rcc.h **** #endif /* DUAL_CORE */
1801:Drivers/STM32WLxx_HAL_Driver/Inc/stm32wlxx_ll_rcc.h **** 
1802:Drivers/STM32WLxx_HAL_Driver/Inc/stm32wlxx_ll_rcc.h **** /**
1803:Drivers/STM32WLxx_HAL_Driver/Inc/stm32wlxx_ll_rcc.h ****   * @brief  Set AHB3 prescaler
1804:Drivers/STM32WLxx_HAL_Driver/Inc/stm32wlxx_ll_rcc.h ****   * @rmtoll EXTCFGR         SHDHPRE          LL_RCC_SetAHB3Prescaler
1805:Drivers/STM32WLxx_HAL_Driver/Inc/stm32wlxx_ll_rcc.h ****   * @param  Prescaler This parameter can be one of the following values:
1806:Drivers/STM32WLxx_HAL_Driver/Inc/stm32wlxx_ll_rcc.h ****   *         @arg @ref LL_RCC_SYSCLK_DIV_1
1807:Drivers/STM32WLxx_HAL_Driver/Inc/stm32wlxx_ll_rcc.h ****   *         @arg @ref LL_RCC_SYSCLK_DIV_2
1808:Drivers/STM32WLxx_HAL_Driver/Inc/stm32wlxx_ll_rcc.h ****   *         @arg @ref LL_RCC_SYSCLK_DIV_3
1809:Drivers/STM32WLxx_HAL_Driver/Inc/stm32wlxx_ll_rcc.h ****   *         @arg @ref LL_RCC_SYSCLK_DIV_4
1810:Drivers/STM32WLxx_HAL_Driver/Inc/stm32wlxx_ll_rcc.h ****   *         @arg @ref LL_RCC_SYSCLK_DIV_5
ARM GAS  /var/folders/9y/n02fl3g16gnf7ppy14xghdy80000gn/T//cckWqezL.s 			page 39


1811:Drivers/STM32WLxx_HAL_Driver/Inc/stm32wlxx_ll_rcc.h ****   *         @arg @ref LL_RCC_SYSCLK_DIV_6
1812:Drivers/STM32WLxx_HAL_Driver/Inc/stm32wlxx_ll_rcc.h ****   *         @arg @ref LL_RCC_SYSCLK_DIV_8
1813:Drivers/STM32WLxx_HAL_Driver/Inc/stm32wlxx_ll_rcc.h ****   *         @arg @ref LL_RCC_SYSCLK_DIV_10
1814:Drivers/STM32WLxx_HAL_Driver/Inc/stm32wlxx_ll_rcc.h ****   *         @arg @ref LL_RCC_SYSCLK_DIV_16
1815:Drivers/STM32WLxx_HAL_Driver/Inc/stm32wlxx_ll_rcc.h ****   *         @arg @ref LL_RCC_SYSCLK_DIV_32
1816:Drivers/STM32WLxx_HAL_Driver/Inc/stm32wlxx_ll_rcc.h ****   *         @arg @ref LL_RCC_SYSCLK_DIV_64
1817:Drivers/STM32WLxx_HAL_Driver/Inc/stm32wlxx_ll_rcc.h ****   *         @arg @ref LL_RCC_SYSCLK_DIV_128
1818:Drivers/STM32WLxx_HAL_Driver/Inc/stm32wlxx_ll_rcc.h ****   *         @arg @ref LL_RCC_SYSCLK_DIV_256
1819:Drivers/STM32WLxx_HAL_Driver/Inc/stm32wlxx_ll_rcc.h ****   *         @arg @ref LL_RCC_SYSCLK_DIV_512
1820:Drivers/STM32WLxx_HAL_Driver/Inc/stm32wlxx_ll_rcc.h ****   * @retval None
1821:Drivers/STM32WLxx_HAL_Driver/Inc/stm32wlxx_ll_rcc.h ****   */
1822:Drivers/STM32WLxx_HAL_Driver/Inc/stm32wlxx_ll_rcc.h **** __STATIC_INLINE void LL_RCC_SetAHB3Prescaler(uint32_t Prescaler)
1823:Drivers/STM32WLxx_HAL_Driver/Inc/stm32wlxx_ll_rcc.h **** {
1824:Drivers/STM32WLxx_HAL_Driver/Inc/stm32wlxx_ll_rcc.h ****   MODIFY_REG(RCC->EXTCFGR, RCC_EXTCFGR_SHDHPRE, Prescaler >> 4);
1825:Drivers/STM32WLxx_HAL_Driver/Inc/stm32wlxx_ll_rcc.h **** }
1826:Drivers/STM32WLxx_HAL_Driver/Inc/stm32wlxx_ll_rcc.h **** 
1827:Drivers/STM32WLxx_HAL_Driver/Inc/stm32wlxx_ll_rcc.h **** /**
1828:Drivers/STM32WLxx_HAL_Driver/Inc/stm32wlxx_ll_rcc.h ****   * @brief  Set APB1 prescaler
1829:Drivers/STM32WLxx_HAL_Driver/Inc/stm32wlxx_ll_rcc.h ****   * @rmtoll CFGR         PPRE1         LL_RCC_SetAPB1Prescaler
1830:Drivers/STM32WLxx_HAL_Driver/Inc/stm32wlxx_ll_rcc.h ****   * @param  Prescaler This parameter can be one of the following values:
1831:Drivers/STM32WLxx_HAL_Driver/Inc/stm32wlxx_ll_rcc.h ****   *         @arg @ref LL_RCC_APB1_DIV_1
1832:Drivers/STM32WLxx_HAL_Driver/Inc/stm32wlxx_ll_rcc.h ****   *         @arg @ref LL_RCC_APB1_DIV_2
1833:Drivers/STM32WLxx_HAL_Driver/Inc/stm32wlxx_ll_rcc.h ****   *         @arg @ref LL_RCC_APB1_DIV_4
1834:Drivers/STM32WLxx_HAL_Driver/Inc/stm32wlxx_ll_rcc.h ****   *         @arg @ref LL_RCC_APB1_DIV_8
1835:Drivers/STM32WLxx_HAL_Driver/Inc/stm32wlxx_ll_rcc.h ****   *         @arg @ref LL_RCC_APB1_DIV_16
1836:Drivers/STM32WLxx_HAL_Driver/Inc/stm32wlxx_ll_rcc.h ****   * @retval None
1837:Drivers/STM32WLxx_HAL_Driver/Inc/stm32wlxx_ll_rcc.h ****   */
1838:Drivers/STM32WLxx_HAL_Driver/Inc/stm32wlxx_ll_rcc.h **** __STATIC_INLINE void LL_RCC_SetAPB1Prescaler(uint32_t Prescaler)
1839:Drivers/STM32WLxx_HAL_Driver/Inc/stm32wlxx_ll_rcc.h **** {
1840:Drivers/STM32WLxx_HAL_Driver/Inc/stm32wlxx_ll_rcc.h ****   MODIFY_REG(RCC->CFGR, RCC_CFGR_PPRE1, Prescaler);
1841:Drivers/STM32WLxx_HAL_Driver/Inc/stm32wlxx_ll_rcc.h **** }
1842:Drivers/STM32WLxx_HAL_Driver/Inc/stm32wlxx_ll_rcc.h **** 
1843:Drivers/STM32WLxx_HAL_Driver/Inc/stm32wlxx_ll_rcc.h **** /**
1844:Drivers/STM32WLxx_HAL_Driver/Inc/stm32wlxx_ll_rcc.h ****   * @brief  Set APB2 prescaler
1845:Drivers/STM32WLxx_HAL_Driver/Inc/stm32wlxx_ll_rcc.h ****   * @rmtoll CFGR         PPRE2         LL_RCC_SetAPB2Prescaler
1846:Drivers/STM32WLxx_HAL_Driver/Inc/stm32wlxx_ll_rcc.h ****   * @param  Prescaler This parameter can be one of the following values:
1847:Drivers/STM32WLxx_HAL_Driver/Inc/stm32wlxx_ll_rcc.h ****   *         @arg @ref LL_RCC_APB2_DIV_1
1848:Drivers/STM32WLxx_HAL_Driver/Inc/stm32wlxx_ll_rcc.h ****   *         @arg @ref LL_RCC_APB2_DIV_2
1849:Drivers/STM32WLxx_HAL_Driver/Inc/stm32wlxx_ll_rcc.h ****   *         @arg @ref LL_RCC_APB2_DIV_4
1850:Drivers/STM32WLxx_HAL_Driver/Inc/stm32wlxx_ll_rcc.h ****   *         @arg @ref LL_RCC_APB2_DIV_8
1851:Drivers/STM32WLxx_HAL_Driver/Inc/stm32wlxx_ll_rcc.h ****   *         @arg @ref LL_RCC_APB2_DIV_16
1852:Drivers/STM32WLxx_HAL_Driver/Inc/stm32wlxx_ll_rcc.h ****   * @retval None
1853:Drivers/STM32WLxx_HAL_Driver/Inc/stm32wlxx_ll_rcc.h ****   */
1854:Drivers/STM32WLxx_HAL_Driver/Inc/stm32wlxx_ll_rcc.h **** __STATIC_INLINE void LL_RCC_SetAPB2Prescaler(uint32_t Prescaler)
1855:Drivers/STM32WLxx_HAL_Driver/Inc/stm32wlxx_ll_rcc.h **** {
1856:Drivers/STM32WLxx_HAL_Driver/Inc/stm32wlxx_ll_rcc.h ****   MODIFY_REG(RCC->CFGR, RCC_CFGR_PPRE2, Prescaler);
1857:Drivers/STM32WLxx_HAL_Driver/Inc/stm32wlxx_ll_rcc.h **** }
1858:Drivers/STM32WLxx_HAL_Driver/Inc/stm32wlxx_ll_rcc.h **** 
1859:Drivers/STM32WLxx_HAL_Driver/Inc/stm32wlxx_ll_rcc.h **** /**
1860:Drivers/STM32WLxx_HAL_Driver/Inc/stm32wlxx_ll_rcc.h ****   * @brief  Get AHB prescaler
1861:Drivers/STM32WLxx_HAL_Driver/Inc/stm32wlxx_ll_rcc.h ****   * @rmtoll CFGR         HPRE          LL_RCC_GetAHBPrescaler
1862:Drivers/STM32WLxx_HAL_Driver/Inc/stm32wlxx_ll_rcc.h ****   * @retval Returned value can be one of the following values:
1863:Drivers/STM32WLxx_HAL_Driver/Inc/stm32wlxx_ll_rcc.h ****   *         @arg @ref LL_RCC_SYSCLK_DIV_1
1864:Drivers/STM32WLxx_HAL_Driver/Inc/stm32wlxx_ll_rcc.h ****   *         @arg @ref LL_RCC_SYSCLK_DIV_2
1865:Drivers/STM32WLxx_HAL_Driver/Inc/stm32wlxx_ll_rcc.h ****   *         @arg @ref LL_RCC_SYSCLK_DIV_3
1866:Drivers/STM32WLxx_HAL_Driver/Inc/stm32wlxx_ll_rcc.h ****   *         @arg @ref LL_RCC_SYSCLK_DIV_4
1867:Drivers/STM32WLxx_HAL_Driver/Inc/stm32wlxx_ll_rcc.h ****   *         @arg @ref LL_RCC_SYSCLK_DIV_5
ARM GAS  /var/folders/9y/n02fl3g16gnf7ppy14xghdy80000gn/T//cckWqezL.s 			page 40


1868:Drivers/STM32WLxx_HAL_Driver/Inc/stm32wlxx_ll_rcc.h ****   *         @arg @ref LL_RCC_SYSCLK_DIV_6
1869:Drivers/STM32WLxx_HAL_Driver/Inc/stm32wlxx_ll_rcc.h ****   *         @arg @ref LL_RCC_SYSCLK_DIV_8
1870:Drivers/STM32WLxx_HAL_Driver/Inc/stm32wlxx_ll_rcc.h ****   *         @arg @ref LL_RCC_SYSCLK_DIV_10
1871:Drivers/STM32WLxx_HAL_Driver/Inc/stm32wlxx_ll_rcc.h ****   *         @arg @ref LL_RCC_SYSCLK_DIV_16
1872:Drivers/STM32WLxx_HAL_Driver/Inc/stm32wlxx_ll_rcc.h ****   *         @arg @ref LL_RCC_SYSCLK_DIV_32
1873:Drivers/STM32WLxx_HAL_Driver/Inc/stm32wlxx_ll_rcc.h ****   *         @arg @ref LL_RCC_SYSCLK_DIV_64
1874:Drivers/STM32WLxx_HAL_Driver/Inc/stm32wlxx_ll_rcc.h ****   *         @arg @ref LL_RCC_SYSCLK_DIV_128
1875:Drivers/STM32WLxx_HAL_Driver/Inc/stm32wlxx_ll_rcc.h ****   *         @arg @ref LL_RCC_SYSCLK_DIV_256
1876:Drivers/STM32WLxx_HAL_Driver/Inc/stm32wlxx_ll_rcc.h ****   *         @arg @ref LL_RCC_SYSCLK_DIV_512
1877:Drivers/STM32WLxx_HAL_Driver/Inc/stm32wlxx_ll_rcc.h ****   */
1878:Drivers/STM32WLxx_HAL_Driver/Inc/stm32wlxx_ll_rcc.h **** __STATIC_INLINE uint32_t LL_RCC_GetAHBPrescaler(void)
1879:Drivers/STM32WLxx_HAL_Driver/Inc/stm32wlxx_ll_rcc.h **** {
1880:Drivers/STM32WLxx_HAL_Driver/Inc/stm32wlxx_ll_rcc.h ****   return (uint32_t)(READ_BIT(RCC->CFGR, RCC_CFGR_HPRE));
1881:Drivers/STM32WLxx_HAL_Driver/Inc/stm32wlxx_ll_rcc.h **** }
1882:Drivers/STM32WLxx_HAL_Driver/Inc/stm32wlxx_ll_rcc.h **** 
1883:Drivers/STM32WLxx_HAL_Driver/Inc/stm32wlxx_ll_rcc.h **** #if defined(DUAL_CORE)
1884:Drivers/STM32WLxx_HAL_Driver/Inc/stm32wlxx_ll_rcc.h **** /**
1885:Drivers/STM32WLxx_HAL_Driver/Inc/stm32wlxx_ll_rcc.h ****   * @brief  Get C2 AHB prescaler
1886:Drivers/STM32WLxx_HAL_Driver/Inc/stm32wlxx_ll_rcc.h ****   * @rmtoll EXTCFGR         C2HPRE          LL_C2_RCC_GetAHBPrescaler
1887:Drivers/STM32WLxx_HAL_Driver/Inc/stm32wlxx_ll_rcc.h ****   * @retval Returned value can be one of the following values:
1888:Drivers/STM32WLxx_HAL_Driver/Inc/stm32wlxx_ll_rcc.h ****   *         @arg @ref LL_RCC_SYSCLK_DIV_1
1889:Drivers/STM32WLxx_HAL_Driver/Inc/stm32wlxx_ll_rcc.h ****   *         @arg @ref LL_RCC_SYSCLK_DIV_2
1890:Drivers/STM32WLxx_HAL_Driver/Inc/stm32wlxx_ll_rcc.h ****   *         @arg @ref LL_RCC_SYSCLK_DIV_3
1891:Drivers/STM32WLxx_HAL_Driver/Inc/stm32wlxx_ll_rcc.h ****   *         @arg @ref LL_RCC_SYSCLK_DIV_4
1892:Drivers/STM32WLxx_HAL_Driver/Inc/stm32wlxx_ll_rcc.h ****   *         @arg @ref LL_RCC_SYSCLK_DIV_5
1893:Drivers/STM32WLxx_HAL_Driver/Inc/stm32wlxx_ll_rcc.h ****   *         @arg @ref LL_RCC_SYSCLK_DIV_6
1894:Drivers/STM32WLxx_HAL_Driver/Inc/stm32wlxx_ll_rcc.h ****   *         @arg @ref LL_RCC_SYSCLK_DIV_8
1895:Drivers/STM32WLxx_HAL_Driver/Inc/stm32wlxx_ll_rcc.h ****   *         @arg @ref LL_RCC_SYSCLK_DIV_10
1896:Drivers/STM32WLxx_HAL_Driver/Inc/stm32wlxx_ll_rcc.h ****   *         @arg @ref LL_RCC_SYSCLK_DIV_16
1897:Drivers/STM32WLxx_HAL_Driver/Inc/stm32wlxx_ll_rcc.h ****   *         @arg @ref LL_RCC_SYSCLK_DIV_32
1898:Drivers/STM32WLxx_HAL_Driver/Inc/stm32wlxx_ll_rcc.h ****   *         @arg @ref LL_RCC_SYSCLK_DIV_64
1899:Drivers/STM32WLxx_HAL_Driver/Inc/stm32wlxx_ll_rcc.h ****   *         @arg @ref LL_RCC_SYSCLK_DIV_128
1900:Drivers/STM32WLxx_HAL_Driver/Inc/stm32wlxx_ll_rcc.h ****   *         @arg @ref LL_RCC_SYSCLK_DIV_256
1901:Drivers/STM32WLxx_HAL_Driver/Inc/stm32wlxx_ll_rcc.h ****   *         @arg @ref LL_RCC_SYSCLK_DIV_512
1902:Drivers/STM32WLxx_HAL_Driver/Inc/stm32wlxx_ll_rcc.h ****   */
1903:Drivers/STM32WLxx_HAL_Driver/Inc/stm32wlxx_ll_rcc.h **** __STATIC_INLINE uint32_t LL_C2_RCC_GetAHBPrescaler(void)
1904:Drivers/STM32WLxx_HAL_Driver/Inc/stm32wlxx_ll_rcc.h **** {
1905:Drivers/STM32WLxx_HAL_Driver/Inc/stm32wlxx_ll_rcc.h ****   return (uint32_t)(READ_BIT(RCC->EXTCFGR, RCC_EXTCFGR_C2HPRE));
1906:Drivers/STM32WLxx_HAL_Driver/Inc/stm32wlxx_ll_rcc.h **** }
1907:Drivers/STM32WLxx_HAL_Driver/Inc/stm32wlxx_ll_rcc.h **** #endif /* DUAL_CORE */
1908:Drivers/STM32WLxx_HAL_Driver/Inc/stm32wlxx_ll_rcc.h **** 
1909:Drivers/STM32WLxx_HAL_Driver/Inc/stm32wlxx_ll_rcc.h **** /**
1910:Drivers/STM32WLxx_HAL_Driver/Inc/stm32wlxx_ll_rcc.h ****   * @brief  Get AHB3 prescaler
1911:Drivers/STM32WLxx_HAL_Driver/Inc/stm32wlxx_ll_rcc.h ****   * @rmtoll EXTCFGR         SHDHPRE          LL_RCC_GetAHB3Prescaler
1912:Drivers/STM32WLxx_HAL_Driver/Inc/stm32wlxx_ll_rcc.h ****   * @retval Returned value can be one of the following values:
1913:Drivers/STM32WLxx_HAL_Driver/Inc/stm32wlxx_ll_rcc.h ****   *         @arg @ref LL_RCC_SYSCLK_DIV_1
1914:Drivers/STM32WLxx_HAL_Driver/Inc/stm32wlxx_ll_rcc.h ****   *         @arg @ref LL_RCC_SYSCLK_DIV_2
1915:Drivers/STM32WLxx_HAL_Driver/Inc/stm32wlxx_ll_rcc.h ****   *         @arg @ref LL_RCC_SYSCLK_DIV_3
1916:Drivers/STM32WLxx_HAL_Driver/Inc/stm32wlxx_ll_rcc.h ****   *         @arg @ref LL_RCC_SYSCLK_DIV_4
1917:Drivers/STM32WLxx_HAL_Driver/Inc/stm32wlxx_ll_rcc.h ****   *         @arg @ref LL_RCC_SYSCLK_DIV_5
1918:Drivers/STM32WLxx_HAL_Driver/Inc/stm32wlxx_ll_rcc.h ****   *         @arg @ref LL_RCC_SYSCLK_DIV_6
1919:Drivers/STM32WLxx_HAL_Driver/Inc/stm32wlxx_ll_rcc.h ****   *         @arg @ref LL_RCC_SYSCLK_DIV_8
1920:Drivers/STM32WLxx_HAL_Driver/Inc/stm32wlxx_ll_rcc.h ****   *         @arg @ref LL_RCC_SYSCLK_DIV_10
1921:Drivers/STM32WLxx_HAL_Driver/Inc/stm32wlxx_ll_rcc.h ****   *         @arg @ref LL_RCC_SYSCLK_DIV_16
1922:Drivers/STM32WLxx_HAL_Driver/Inc/stm32wlxx_ll_rcc.h ****   *         @arg @ref LL_RCC_SYSCLK_DIV_32
1923:Drivers/STM32WLxx_HAL_Driver/Inc/stm32wlxx_ll_rcc.h ****   *         @arg @ref LL_RCC_SYSCLK_DIV_64
1924:Drivers/STM32WLxx_HAL_Driver/Inc/stm32wlxx_ll_rcc.h ****   *         @arg @ref LL_RCC_SYSCLK_DIV_128
ARM GAS  /var/folders/9y/n02fl3g16gnf7ppy14xghdy80000gn/T//cckWqezL.s 			page 41


1925:Drivers/STM32WLxx_HAL_Driver/Inc/stm32wlxx_ll_rcc.h ****   *         @arg @ref LL_RCC_SYSCLK_DIV_256
1926:Drivers/STM32WLxx_HAL_Driver/Inc/stm32wlxx_ll_rcc.h ****   *         @arg @ref LL_RCC_SYSCLK_DIV_512
1927:Drivers/STM32WLxx_HAL_Driver/Inc/stm32wlxx_ll_rcc.h ****   */
1928:Drivers/STM32WLxx_HAL_Driver/Inc/stm32wlxx_ll_rcc.h **** __STATIC_INLINE uint32_t LL_RCC_GetAHB3Prescaler(void)
1929:Drivers/STM32WLxx_HAL_Driver/Inc/stm32wlxx_ll_rcc.h **** {
1930:Drivers/STM32WLxx_HAL_Driver/Inc/stm32wlxx_ll_rcc.h ****   return (uint32_t)(READ_BIT(RCC->EXTCFGR, RCC_EXTCFGR_SHDHPRE) << 4);
1931:Drivers/STM32WLxx_HAL_Driver/Inc/stm32wlxx_ll_rcc.h **** }
1932:Drivers/STM32WLxx_HAL_Driver/Inc/stm32wlxx_ll_rcc.h **** 
1933:Drivers/STM32WLxx_HAL_Driver/Inc/stm32wlxx_ll_rcc.h **** /**
1934:Drivers/STM32WLxx_HAL_Driver/Inc/stm32wlxx_ll_rcc.h ****   * @brief  Get APB1 prescaler
1935:Drivers/STM32WLxx_HAL_Driver/Inc/stm32wlxx_ll_rcc.h ****   * @rmtoll CFGR         PPRE1         LL_RCC_GetAPB1Prescaler
1936:Drivers/STM32WLxx_HAL_Driver/Inc/stm32wlxx_ll_rcc.h ****   * @retval Returned value can be one of the following values:
1937:Drivers/STM32WLxx_HAL_Driver/Inc/stm32wlxx_ll_rcc.h ****   *         @arg @ref LL_RCC_APB1_DIV_1
1938:Drivers/STM32WLxx_HAL_Driver/Inc/stm32wlxx_ll_rcc.h ****   *         @arg @ref LL_RCC_APB1_DIV_2
1939:Drivers/STM32WLxx_HAL_Driver/Inc/stm32wlxx_ll_rcc.h ****   *         @arg @ref LL_RCC_APB1_DIV_4
1940:Drivers/STM32WLxx_HAL_Driver/Inc/stm32wlxx_ll_rcc.h ****   *         @arg @ref LL_RCC_APB1_DIV_8
1941:Drivers/STM32WLxx_HAL_Driver/Inc/stm32wlxx_ll_rcc.h ****   *         @arg @ref LL_RCC_APB1_DIV_16
1942:Drivers/STM32WLxx_HAL_Driver/Inc/stm32wlxx_ll_rcc.h ****   */
1943:Drivers/STM32WLxx_HAL_Driver/Inc/stm32wlxx_ll_rcc.h **** __STATIC_INLINE uint32_t LL_RCC_GetAPB1Prescaler(void)
1944:Drivers/STM32WLxx_HAL_Driver/Inc/stm32wlxx_ll_rcc.h **** {
1945:Drivers/STM32WLxx_HAL_Driver/Inc/stm32wlxx_ll_rcc.h ****   return (uint32_t)(READ_BIT(RCC->CFGR, RCC_CFGR_PPRE1));
1946:Drivers/STM32WLxx_HAL_Driver/Inc/stm32wlxx_ll_rcc.h **** }
1947:Drivers/STM32WLxx_HAL_Driver/Inc/stm32wlxx_ll_rcc.h **** 
1948:Drivers/STM32WLxx_HAL_Driver/Inc/stm32wlxx_ll_rcc.h **** /**
1949:Drivers/STM32WLxx_HAL_Driver/Inc/stm32wlxx_ll_rcc.h ****   * @brief  Get APB2 prescaler
1950:Drivers/STM32WLxx_HAL_Driver/Inc/stm32wlxx_ll_rcc.h ****   * @rmtoll CFGR         PPRE2         LL_RCC_GetAPB2Prescaler
1951:Drivers/STM32WLxx_HAL_Driver/Inc/stm32wlxx_ll_rcc.h ****   * @retval Returned value can be one of the following values:
1952:Drivers/STM32WLxx_HAL_Driver/Inc/stm32wlxx_ll_rcc.h ****   *         @arg @ref LL_RCC_APB2_DIV_1
1953:Drivers/STM32WLxx_HAL_Driver/Inc/stm32wlxx_ll_rcc.h ****   *         @arg @ref LL_RCC_APB2_DIV_2
1954:Drivers/STM32WLxx_HAL_Driver/Inc/stm32wlxx_ll_rcc.h ****   *         @arg @ref LL_RCC_APB2_DIV_4
1955:Drivers/STM32WLxx_HAL_Driver/Inc/stm32wlxx_ll_rcc.h ****   *         @arg @ref LL_RCC_APB2_DIV_8
1956:Drivers/STM32WLxx_HAL_Driver/Inc/stm32wlxx_ll_rcc.h ****   *         @arg @ref LL_RCC_APB2_DIV_16
1957:Drivers/STM32WLxx_HAL_Driver/Inc/stm32wlxx_ll_rcc.h ****   */
1958:Drivers/STM32WLxx_HAL_Driver/Inc/stm32wlxx_ll_rcc.h **** __STATIC_INLINE uint32_t LL_RCC_GetAPB2Prescaler(void)
1959:Drivers/STM32WLxx_HAL_Driver/Inc/stm32wlxx_ll_rcc.h **** {
1960:Drivers/STM32WLxx_HAL_Driver/Inc/stm32wlxx_ll_rcc.h ****   return (uint32_t)(READ_BIT(RCC->CFGR, RCC_CFGR_PPRE2));
1961:Drivers/STM32WLxx_HAL_Driver/Inc/stm32wlxx_ll_rcc.h **** }
1962:Drivers/STM32WLxx_HAL_Driver/Inc/stm32wlxx_ll_rcc.h **** 
1963:Drivers/STM32WLxx_HAL_Driver/Inc/stm32wlxx_ll_rcc.h **** /**
1964:Drivers/STM32WLxx_HAL_Driver/Inc/stm32wlxx_ll_rcc.h ****   * @brief  Set Clock After Wake-Up From Stop mode
1965:Drivers/STM32WLxx_HAL_Driver/Inc/stm32wlxx_ll_rcc.h ****   * @rmtoll CFGR         STOPWUCK      LL_RCC_SetClkAfterWakeFromStop
1966:Drivers/STM32WLxx_HAL_Driver/Inc/stm32wlxx_ll_rcc.h ****   * @param  Clock This parameter can be one of the following values:
1967:Drivers/STM32WLxx_HAL_Driver/Inc/stm32wlxx_ll_rcc.h ****   *         @arg @ref LL_RCC_STOP_WAKEUPCLOCK_MSI
1968:Drivers/STM32WLxx_HAL_Driver/Inc/stm32wlxx_ll_rcc.h ****   *         @arg @ref LL_RCC_STOP_WAKEUPCLOCK_HSI
1969:Drivers/STM32WLxx_HAL_Driver/Inc/stm32wlxx_ll_rcc.h ****   * @retval None
1970:Drivers/STM32WLxx_HAL_Driver/Inc/stm32wlxx_ll_rcc.h ****   */
1971:Drivers/STM32WLxx_HAL_Driver/Inc/stm32wlxx_ll_rcc.h **** __STATIC_INLINE void LL_RCC_SetClkAfterWakeFromStop(uint32_t Clock)
 155              		.loc 2 1971 22 view .LVU22
 156              	.LBB5:
1972:Drivers/STM32WLxx_HAL_Driver/Inc/stm32wlxx_ll_rcc.h **** {
1973:Drivers/STM32WLxx_HAL_Driver/Inc/stm32wlxx_ll_rcc.h ****   MODIFY_REG(RCC->CFGR, RCC_CFGR_STOPWUCK, Clock);
 157              		.loc 2 1973 3 view .LVU23
 158 0002 4FF0B042 		mov	r2, #1476395008
 159 0006 9368     		ldr	r3, [r2, #8]
 160 0008 23F40043 		bic	r3, r3, #32768
 161 000c 9360     		str	r3, [r2, #8]
 162              	.LVL9:
ARM GAS  /var/folders/9y/n02fl3g16gnf7ppy14xghdy80000gn/T//cckWqezL.s 			page 42


 163              		.loc 2 1973 3 is_stmt 0 view .LVU24
 164              	.LBE5:
 165              	.LBE4:
  93:Core/Src/sys_app.c ****   SYS_TimerInitialisedFlag = 1;
 166              		.loc 1 93 3 is_stmt 1 view .LVU25
 167 000e FFF7FEFF 		bl	UTIL_TIMER_Init
 168              	.LVL10:
  94:Core/Src/sys_app.c ****   /* Initializes the SW probes pins and the monitor RF pins via Alternate Function */
 169              		.loc 1 94 3 view .LVU26
  94:Core/Src/sys_app.c ****   /* Initializes the SW probes pins and the monitor RF pins via Alternate Function */
 170              		.loc 1 94 28 is_stmt 0 view .LVU27
 171 0012 0124     		movs	r4, #1
 172 0014 0B4B     		ldr	r3, .L9
 173 0016 1C70     		strb	r4, [r3]
  96:Core/Src/sys_app.c **** 
 174              		.loc 1 96 3 is_stmt 1 view .LVU28
 175 0018 FFF7FEFF 		bl	DBG_Init
 176              	.LVL11:
  99:Core/Src/sys_app.c ****   UTIL_ADV_TRACE_RegisterTimeStampFunction(TimestampNow);
 177              		.loc 1 99 3 view .LVU29
 178 001c FFF7FEFF 		bl	UTIL_ADV_TRACE_Init
 179              	.LVL12:
 100:Core/Src/sys_app.c **** 
 180              		.loc 1 100 3 view .LVU30
 181 0020 0948     		ldr	r0, .L9+4
 182 0022 FFF7FEFF 		bl	UTIL_ADV_TRACE_RegisterTimeStampFunction
 183              	.LVL13:
 103:Core/Src/sys_app.c **** 
 184              		.loc 1 103 3 view .LVU31
 185 0026 0220     		movs	r0, #2
 186 0028 FFF7FEFF 		bl	UTIL_ADV_TRACE_SetVerboseLevel
 187              	.LVL14:
 106:Core/Src/sys_app.c ****   /* Disable Stand-by mode */
 188              		.loc 1 106 3 view .LVU32
 189 002c FFF7FEFF 		bl	UTIL_LPM_Init
 190              	.LVL15:
 108:Core/Src/sys_app.c **** 
 191              		.loc 1 108 3 view .LVU33
 192 0030 2146     		mov	r1, r4
 193 0032 2046     		mov	r0, r4
 194 0034 FFF7FEFF 		bl	UTIL_LPM_SetOffMode
 195              	.LVL16:
 112:Core/Src/sys_app.c **** #elif !defined (LOW_POWER_DISABLE)
 196              		.loc 1 112 3 view .LVU34
 197 0038 2146     		mov	r1, r4
 198 003a 2046     		mov	r0, r4
 199 003c FFF7FEFF 		bl	UTIL_LPM_SetStopMode
 200              	.LVL17:
 120:Core/Src/sys_app.c **** 
 201              		.loc 1 120 1 is_stmt 0 view .LVU35
 202 0040 10BD     		pop	{r4, pc}
 203              	.L10:
 204 0042 00BF     		.align	2
 205              	.L9:
 206 0044 00000000 		.word	.LANCHOR0
 207 0048 00000000 		.word	TimestampNow
 208              		.cfi_endproc
ARM GAS  /var/folders/9y/n02fl3g16gnf7ppy14xghdy80000gn/T//cckWqezL.s 			page 43


 209              	.LFE1163:
 211              		.section	.text.UTIL_SEQ_Idle,"ax",%progbits
 212              		.align	1
 213              		.global	UTIL_SEQ_Idle
 214              		.syntax unified
 215              		.thumb
 216              		.thumb_func
 217              		.fpu softvfp
 219              	UTIL_SEQ_Idle:
 220              	.LFB1164:
 126:Core/Src/sys_app.c ****   /* USER CODE BEGIN UTIL_SEQ_Idle_1 */
 221              		.loc 1 126 1 is_stmt 1 view -0
 222              		.cfi_startproc
 223              		@ args = 0, pretend = 0, frame = 0
 224              		@ frame_needed = 0, uses_anonymous_args = 0
 225 0000 08B5     		push	{r3, lr}
 226              		.cfi_def_cfa_offset 8
 227              		.cfi_offset 3, -8
 228              		.cfi_offset 14, -4
 130:Core/Src/sys_app.c ****   /* USER CODE BEGIN UTIL_SEQ_Idle_2 */
 229              		.loc 1 130 3 view .LVU37
 230 0002 FFF7FEFF 		bl	UTIL_LPM_EnterLowPower
 231              	.LVL18:
 134:Core/Src/sys_app.c **** 
 232              		.loc 1 134 1 is_stmt 0 view .LVU38
 233 0006 08BD     		pop	{r3, pc}
 234              		.cfi_endproc
 235              	.LFE1164:
 237              		.section	.text.UTIL_ADV_TRACE_PreSendHook,"ax",%progbits
 238              		.align	1
 239              		.global	UTIL_ADV_TRACE_PreSendHook
 240              		.syntax unified
 241              		.thumb
 242              		.thumb_func
 243              		.fpu softvfp
 245              	UTIL_ADV_TRACE_PreSendHook:
 246              	.LFB1166:
 157:Core/Src/sys_app.c ****   /* USER CODE BEGIN UTIL_ADV_TRACE_PreSendHook_1 */
 247              		.loc 1 157 1 is_stmt 1 view -0
 248              		.cfi_startproc
 249              		@ args = 0, pretend = 0, frame = 0
 250              		@ frame_needed = 0, uses_anonymous_args = 0
 251 0000 08B5     		push	{r3, lr}
 252              		.cfi_def_cfa_offset 8
 253              		.cfi_offset 3, -8
 254              		.cfi_offset 14, -4
 161:Core/Src/sys_app.c ****   /* USER CODE BEGIN UTIL_ADV_TRACE_PreSendHook_2 */
 255              		.loc 1 161 3 view .LVU40
 256 0002 0121     		movs	r1, #1
 257 0004 0220     		movs	r0, #2
 258 0006 FFF7FEFF 		bl	UTIL_LPM_SetStopMode
 259              	.LVL19:
 165:Core/Src/sys_app.c **** /* Re-enable StopMode when traces have been printed */
 260              		.loc 1 165 1 is_stmt 0 view .LVU41
 261 000a 08BD     		pop	{r3, pc}
 262              		.cfi_endproc
 263              	.LFE1166:
ARM GAS  /var/folders/9y/n02fl3g16gnf7ppy14xghdy80000gn/T//cckWqezL.s 			page 44


 265              		.section	.text.UTIL_ADV_TRACE_PostSendHook,"ax",%progbits
 266              		.align	1
 267              		.global	UTIL_ADV_TRACE_PostSendHook
 268              		.syntax unified
 269              		.thumb
 270              		.thumb_func
 271              		.fpu softvfp
 273              	UTIL_ADV_TRACE_PostSendHook:
 274              	.LFB1167:
 168:Core/Src/sys_app.c ****   /* USER CODE BEGIN UTIL_LPM_SetStopMode_1 */
 275              		.loc 1 168 1 is_stmt 1 view -0
 276              		.cfi_startproc
 277              		@ args = 0, pretend = 0, frame = 0
 278              		@ frame_needed = 0, uses_anonymous_args = 0
 279 0000 08B5     		push	{r3, lr}
 280              		.cfi_def_cfa_offset 8
 281              		.cfi_offset 3, -8
 282              		.cfi_offset 14, -4
 172:Core/Src/sys_app.c ****   /* USER CODE BEGIN UTIL_LPM_SetStopMode_2 */
 283              		.loc 1 172 3 view .LVU43
 284 0002 0021     		movs	r1, #0
 285 0004 0220     		movs	r0, #2
 286 0006 FFF7FEFF 		bl	UTIL_LPM_SetStopMode
 287              	.LVL20:
 176:Core/Src/sys_app.c **** 
 288              		.loc 1 176 1 is_stmt 0 view .LVU44
 289 000a 08BD     		pop	{r3, pc}
 290              		.cfi_endproc
 291              	.LFE1167:
 293              		.section	.text.HAL_InitTick,"ax",%progbits
 294              		.align	1
 295              		.global	HAL_InitTick
 296              		.syntax unified
 297              		.thumb
 298              		.thumb_func
 299              		.fpu softvfp
 301              	HAL_InitTick:
 302              	.LVL21:
 303              	.LFB1169:
 191:Core/Src/sys_app.c **** 
 192:Core/Src/sys_app.c **** /* USER CODE BEGIN PrFD */
 193:Core/Src/sys_app.c **** 
 194:Core/Src/sys_app.c **** /* USER CODE END PrFD */
 195:Core/Src/sys_app.c **** 
 196:Core/Src/sys_app.c **** /* HAL overload functions ---------------------------------------------------------*/
 197:Core/Src/sys_app.c **** 
 198:Core/Src/sys_app.c **** /**
 199:Core/Src/sys_app.c ****   * @note This function overwrites the __weak one from HAL
 200:Core/Src/sys_app.c ****   */
 201:Core/Src/sys_app.c **** HAL_StatusTypeDef HAL_InitTick(uint32_t TickPriority)
 202:Core/Src/sys_app.c **** {
 304              		.loc 1 202 1 is_stmt 1 view -0
 305              		.cfi_startproc
 306              		@ args = 0, pretend = 0, frame = 0
 307              		@ frame_needed = 0, uses_anonymous_args = 0
 308              		@ link register save eliminated.
 203:Core/Src/sys_app.c ****   /*Don't enable SysTick if TIMER_IF is based on other counters (e.g. RTC) */
ARM GAS  /var/folders/9y/n02fl3g16gnf7ppy14xghdy80000gn/T//cckWqezL.s 			page 45


 204:Core/Src/sys_app.c ****   /* USER CODE BEGIN HAL_InitTick_1 */
 205:Core/Src/sys_app.c **** 
 206:Core/Src/sys_app.c ****   /* USER CODE END HAL_InitTick_1 */
 207:Core/Src/sys_app.c ****   return HAL_OK;
 309              		.loc 1 207 3 view .LVU46
 208:Core/Src/sys_app.c ****   /* USER CODE BEGIN HAL_InitTick_2 */
 209:Core/Src/sys_app.c **** 
 210:Core/Src/sys_app.c ****   /* USER CODE END HAL_InitTick_2 */
 211:Core/Src/sys_app.c **** }
 310              		.loc 1 211 1 is_stmt 0 view .LVU47
 311 0000 0020     		movs	r0, #0
 312              	.LVL22:
 313              		.loc 1 211 1 view .LVU48
 314 0002 7047     		bx	lr
 315              		.cfi_endproc
 316              	.LFE1169:
 318              		.section	.text.HAL_GetTick,"ax",%progbits
 319              		.align	1
 320              		.global	HAL_GetTick
 321              		.syntax unified
 322              		.thumb
 323              		.thumb_func
 324              		.fpu softvfp
 326              	HAL_GetTick:
 327              	.LFB1170:
 212:Core/Src/sys_app.c **** 
 213:Core/Src/sys_app.c **** /**
 214:Core/Src/sys_app.c ****   * @note This function overwrites the __weak one from HAL
 215:Core/Src/sys_app.c ****   */
 216:Core/Src/sys_app.c **** uint32_t HAL_GetTick(void)
 217:Core/Src/sys_app.c **** {
 328              		.loc 1 217 1 is_stmt 1 view -0
 329              		.cfi_startproc
 330              		@ args = 0, pretend = 0, frame = 0
 331              		@ frame_needed = 0, uses_anonymous_args = 0
 332 0000 08B5     		push	{r3, lr}
 333              		.cfi_def_cfa_offset 8
 334              		.cfi_offset 3, -8
 335              		.cfi_offset 14, -4
 218:Core/Src/sys_app.c ****   uint32_t ret = 0;
 336              		.loc 1 218 3 view .LVU50
 337              	.LVL23:
 219:Core/Src/sys_app.c ****   /* TIMER_IF can be based on other counter the SysTick e.g. RTC */
 220:Core/Src/sys_app.c ****   /* USER CODE BEGIN HAL_GetTick_1 */
 221:Core/Src/sys_app.c **** 
 222:Core/Src/sys_app.c ****   /* USER CODE END HAL_GetTick_1 */
 223:Core/Src/sys_app.c ****   if (SYS_TimerInitialisedFlag == 0)
 338              		.loc 1 223 3 view .LVU51
 339              		.loc 1 223 32 is_stmt 0 view .LVU52
 340 0002 044B     		ldr	r3, .L23
 341 0004 1B78     		ldrb	r3, [r3]	@ zero_extendqisi2
 342              		.loc 1 223 6 view .LVU53
 343 0006 0BB9     		cbnz	r3, .L22
 218:Core/Src/sys_app.c ****   uint32_t ret = 0;
 344              		.loc 1 218 12 view .LVU54
 345 0008 0020     		movs	r0, #0
 224:Core/Src/sys_app.c ****   {
ARM GAS  /var/folders/9y/n02fl3g16gnf7ppy14xghdy80000gn/T//cckWqezL.s 			page 46


 225:Core/Src/sys_app.c ****     /* TIMER_IF_GetTimerValue should be used only once UTIL_TIMER_Init() is initialized */
 226:Core/Src/sys_app.c ****     /* If HAL_Delay or a TIMEOUT countdown is necessary during initialization phase */
 227:Core/Src/sys_app.c ****     /* please use temporarily another timebase source (SysTick or TIMx), which implies also */
 228:Core/Src/sys_app.c ****     /* to rework the above function HAL_InitTick() and to call HAL_IncTick() on the timebase IRQ */
 229:Core/Src/sys_app.c ****     /* Note: when TIMER_IF is based on RTC, stm32wlxx_hal_rtc.c calls this function before TimeServ
 230:Core/Src/sys_app.c ****     /* RTC TIMEOUT will not expire, i.e. if RTC has an hw problem it will keep looping in the RTC_I
 231:Core/Src/sys_app.c ****     /* USER CODE BEGIN HAL_GetTick_EarlyCall */
 232:Core/Src/sys_app.c **** 
 233:Core/Src/sys_app.c ****     /* USER CODE END HAL_GetTick_EarlyCall */
 234:Core/Src/sys_app.c ****   }
 235:Core/Src/sys_app.c ****   else
 236:Core/Src/sys_app.c ****   {
 237:Core/Src/sys_app.c ****     ret = TIMER_IF_GetTimerValue();
 238:Core/Src/sys_app.c ****   }
 239:Core/Src/sys_app.c ****   /* USER CODE BEGIN HAL_GetTick_2 */
 240:Core/Src/sys_app.c **** 
 241:Core/Src/sys_app.c ****   /* USER CODE END HAL_GetTick_2 */
 242:Core/Src/sys_app.c ****   return ret;
 346              		.loc 1 242 3 is_stmt 1 view .LVU55
 347              	.LVL24:
 348              	.L18:
 243:Core/Src/sys_app.c **** }
 349              		.loc 1 243 1 is_stmt 0 view .LVU56
 350 000a 08BD     		pop	{r3, pc}
 351              	.LVL25:
 352              	.L22:
 237:Core/Src/sys_app.c ****   }
 353              		.loc 1 237 5 is_stmt 1 view .LVU57
 237:Core/Src/sys_app.c ****   }
 354              		.loc 1 237 11 is_stmt 0 view .LVU58
 355 000c FFF7FEFF 		bl	TIMER_IF_GetTimerValue
 356              	.LVL26:
 237:Core/Src/sys_app.c ****   }
 357              		.loc 1 237 11 view .LVU59
 358 0010 FBE7     		b	.L18
 359              	.L24:
 360 0012 00BF     		.align	2
 361              	.L23:
 362 0014 00000000 		.word	.LANCHOR0
 363              		.cfi_endproc
 364              	.LFE1170:
 366              		.section	.text.HAL_Delay,"ax",%progbits
 367              		.align	1
 368              		.global	HAL_Delay
 369              		.syntax unified
 370              		.thumb
 371              		.thumb_func
 372              		.fpu softvfp
 374              	HAL_Delay:
 375              	.LVL27:
 376              	.LFB1171:
 244:Core/Src/sys_app.c **** 
 245:Core/Src/sys_app.c **** /**
 246:Core/Src/sys_app.c ****   * @note This function overwrites the __weak one from HAL
 247:Core/Src/sys_app.c ****   */
 248:Core/Src/sys_app.c **** void HAL_Delay(__IO uint32_t Delay)
 249:Core/Src/sys_app.c **** {
ARM GAS  /var/folders/9y/n02fl3g16gnf7ppy14xghdy80000gn/T//cckWqezL.s 			page 47


 377              		.loc 1 249 1 is_stmt 1 view -0
 378              		.cfi_startproc
 379              		@ args = 0, pretend = 0, frame = 8
 380              		@ frame_needed = 0, uses_anonymous_args = 0
 381              		.loc 1 249 1 is_stmt 0 view .LVU61
 382 0000 00B5     		push	{lr}
 383              		.cfi_def_cfa_offset 4
 384              		.cfi_offset 14, -4
 385 0002 83B0     		sub	sp, sp, #12
 386              		.cfi_def_cfa_offset 16
 387 0004 0190     		str	r0, [sp, #4]
 250:Core/Src/sys_app.c ****   /* TIMER_IF can be based on other counter the SysTick e.g. RTC */
 251:Core/Src/sys_app.c ****   /* USER CODE BEGIN HAL_Delay_1 */
 252:Core/Src/sys_app.c **** 
 253:Core/Src/sys_app.c ****   /* USER CODE END HAL_Delay_1 */
 254:Core/Src/sys_app.c ****   TIMER_IF_DelayMs(Delay);
 388              		.loc 1 254 3 is_stmt 1 view .LVU62
 389 0006 0198     		ldr	r0, [sp, #4]
 390              	.LVL28:
 391              		.loc 1 254 3 is_stmt 0 view .LVU63
 392 0008 FFF7FEFF 		bl	TIMER_IF_DelayMs
 393              	.LVL29:
 255:Core/Src/sys_app.c ****   /* USER CODE BEGIN HAL_Delay_2 */
 256:Core/Src/sys_app.c **** 
 257:Core/Src/sys_app.c ****   /* USER CODE END HAL_Delay_2 */
 258:Core/Src/sys_app.c **** }
 394              		.loc 1 258 1 view .LVU64
 395 000c 03B0     		add	sp, sp, #12
 396              		.cfi_def_cfa_offset 4
 397              		@ sp needed
 398 000e 5DF804FB 		ldr	pc, [sp], #4
 399              		.loc 1 258 1 view .LVU65
 400              		.cfi_endproc
 401              	.LFE1171:
 403              		.section	.bss.SYS_TimerInitialisedFlag,"aw",%nobits
 404              		.set	.LANCHOR0,. + 0
 407              	SYS_TimerInitialisedFlag:
 408 0000 00       		.space	1
 409              		.text
 410              	.Letext0:
 411              		.file 3 "/opt/homebrew/Cellar/arm-none-eabi-gcc/10.3-2021.07/gcc/arm-none-eabi/include/machine/_de
 412              		.file 4 "/opt/homebrew/Cellar/arm-none-eabi-gcc/10.3-2021.07/gcc/lib/gcc/arm-none-eabi/10.3.1/incl
 413              		.file 5 "/opt/homebrew/Cellar/arm-none-eabi-gcc/10.3-2021.07/gcc/arm-none-eabi/include/stdio.h"
 414              		.file 6 "/opt/homebrew/Cellar/arm-none-eabi-gcc/10.3-2021.07/gcc/arm-none-eabi/include/sys/_stdint
 415              		.file 7 "Drivers/CMSIS/Device/ST/STM32WLxx/Include/stm32wle5xx.h"
 416              		.file 8 "Drivers/STM32WLxx_HAL_Driver/Inc/stm32wlxx_hal_def.h"
 417              		.file 9 "Core/Inc/utilities_def.h"
 418              		.file 10 "Utilities/misc/stm32_systime.h"
 419              		.file 11 "Utilities/lpm/tiny_lpm/stm32_lpm.h"
 420              		.file 12 "Drivers/STM32WLxx_HAL_Driver/Inc/stm32wlxx_ll_dma.h"
 421              		.file 13 "Core/Inc/timer_if.h"
 422              		.file 14 "Utilities/misc/stm32_tiny_vsnprintf.h"
 423              		.file 15 "/opt/homebrew/Cellar/arm-none-eabi-gcc/10.3-2021.07/gcc/arm-none-eabi/include/string.h"
 424              		.file 16 "Utilities/timer/stm32_timer.h"
 425              		.file 17 "Core/Inc/sys_debug.h"
 426              		.file 18 "Utilities/trace/adv_trace/stm32_adv_trace.h"
 427              		.file 19 "<built-in>"
ARM GAS  /var/folders/9y/n02fl3g16gnf7ppy14xghdy80000gn/T//cckWqezL.s 			page 48


ARM GAS  /var/folders/9y/n02fl3g16gnf7ppy14xghdy80000gn/T//cckWqezL.s 			page 49

